
ed25519.o:	file format elf64-littleaarch64

Disassembly of section .text:

0000000000000000 <ed25519_public_key_from_seed_s2n_bignum>:
       0: a9a953f3     	stp	x19, x20, [sp, #-0x170]!
       4: f9000bfe     	str	x30, [sp, #0x10]
       8: aa0003f3     	mov	x19, x0
       c: aa0103f4     	mov	x20, x1
      10: 910063e0     	add	x0, sp, #0x18
      14: 9400244e     	bl	0x914c <sha512_init>
      18: 910063e0     	add	x0, sp, #0x18
      1c: aa1403e1     	mov	x1, x20
      20: d2800402     	mov	x2, #0x20               // =32
      24: 94002472     	bl	0x91ec <sha512_update>
      28: 9103c3e0     	add	x0, sp, #0xf0
      2c: 910063e1     	add	x1, sp, #0x18
      30: 940024a9     	bl	0x92d4 <sha512_final>
      34: 3943c3e0     	ldrb	w0, [sp, #0xf0]
      38: 121d1000     	and	w0, w0, #0xf8
      3c: 3903c3e0     	strb	w0, [sp, #0xf0]
      40: 39443fe0     	ldrb	w0, [sp, #0x10f]
      44: 12001800     	and	w0, w0, #0x7f
      48: 321a0000     	orr	w0, w0, #0x40
      4c: 39043fe0     	strb	w0, [sp, #0x10f]
      50: 9104c3e0     	add	x0, sp, #0x130
      54: 9103c3e1     	add	x1, sp, #0xf0
      58: 940004e6     	bl	0x13f0 <edwards25519_scalarmulbase_alt>
      5c: aa1303e0     	mov	x0, x19
      60: 9104c3e1     	add	x1, sp, #0x130
      64: 940004a1     	bl	0x12e8 <edwards25519_encode>
      68: f9400bfe     	ldr	x30, [sp, #0x10]
      6c: a8d753f3     	ldp	x19, x20, [sp], #0x170
      70: d65f03c0     	ret

0000000000000074 <ed25519_sign_common>:
      74: d10843ff     	sub	sp, sp, #0x210
      78: a90053f3     	stp	x19, x20, [sp]
      7c: a9015bf5     	stp	x21, x22, [sp, #0x10]
      80: a90263f7     	stp	x23, x24, [sp, #0x20]
      84: f9001bfe     	str	x30, [sp, #0x30]
      88: aa0003f3     	mov	x19, x0
      8c: aa0103f4     	mov	x20, x1
      90: aa0203f5     	mov	x21, x2
      94: aa0303f6     	mov	x22, x3
      98: aa0403f7     	mov	x23, x4
      9c: aa0503f8     	mov	x24, x5
      a0: 9100e3e0     	add	x0, sp, #0x38
      a4: 9400242a     	bl	0x914c <sha512_init>
      a8: 9100e3e0     	add	x0, sp, #0x38
      ac: aa1603e1     	mov	x1, x22
      b0: d2800402     	mov	x2, #0x20               // =32
      b4: 9400244e     	bl	0x91ec <sha512_update>
      b8: 910443e0     	add	x0, sp, #0x110
      bc: 9100e3e1     	add	x1, sp, #0x38
      c0: 94002485     	bl	0x92d4 <sha512_final>
      c4: 394443e0     	ldrb	w0, [sp, #0x110]
      c8: 121d1000     	and	w0, w0, #0xf8
      cc: 390443e0     	strb	w0, [sp, #0x110]
      d0: 3944bfe0     	ldrb	w0, [sp, #0x12f]
      d4: 12001800     	and	w0, w0, #0x7f
      d8: 321a0000     	orr	w0, w0, #0x40
      dc: 3904bfe0     	strb	w0, [sp, #0x12f]
      e0: 9100e3e0     	add	x0, sp, #0x38
      e4: 9400241a     	bl	0x914c <sha512_init>
      e8: b40000b8     	cbz	x24, 0xfc <ed25519_sign_common_pure>
      ec: 9100e3e0     	add	x0, sp, #0x38
      f0: aa1703e1     	mov	x1, x23
      f4: aa1803e2     	mov	x2, x24
      f8: 9400243d     	bl	0x91ec <sha512_update>

00000000000000fc <ed25519_sign_common_pure>:
      fc: 9100e3e0     	add	x0, sp, #0x38
     100: 9104c3e1     	add	x1, sp, #0x130
     104: d2800402     	mov	x2, #0x20               // =32
     108: 94002439     	bl	0x91ec <sha512_update>
     10c: 9100e3e0     	add	x0, sp, #0x38
     110: aa1403e1     	mov	x1, x20
     114: aa1503e2     	mov	x2, x21
     118: 94002435     	bl	0x91ec <sha512_update>
     11c: 910543e0     	add	x0, sp, #0x150
     120: 9100e3e1     	add	x1, sp, #0x38
     124: 9400246c     	bl	0x92d4 <sha512_final>
     128: 910543e0     	add	x0, sp, #0x150
     12c: d2800101     	mov	x1, #0x8                // =8
     130: aa0003e2     	mov	x2, x0
     134: 94000221     	bl	0x9b8 <bignum_mod_n25519>
     138: 910643e0     	add	x0, sp, #0x190
     13c: 910543e1     	add	x1, sp, #0x150
     140: 940004ac     	bl	0x13f0 <edwards25519_scalarmulbase_alt>
     144: aa1303e0     	mov	x0, x19
     148: 910643e1     	add	x1, sp, #0x190
     14c: 94000467     	bl	0x12e8 <edwards25519_encode>
     150: 9100e3e0     	add	x0, sp, #0x38
     154: 940023fe     	bl	0x914c <sha512_init>
     158: b40000b8     	cbz	x24, 0x16c <ed25519_sign_common_pure2>
     15c: 9100e3e0     	add	x0, sp, #0x38
     160: aa1703e1     	mov	x1, x23
     164: aa1803e2     	mov	x2, x24
     168: 94002421     	bl	0x91ec <sha512_update>

000000000000016c <ed25519_sign_common_pure2>:
     16c: 9100e3e0     	add	x0, sp, #0x38
     170: aa1303e1     	mov	x1, x19
     174: d2800402     	mov	x2, #0x20               // =32
     178: 9400241d     	bl	0x91ec <sha512_update>
     17c: 9100e3e0     	add	x0, sp, #0x38
     180: 910082c1     	add	x1, x22, #0x20
     184: d2800402     	mov	x2, #0x20               // =32
     188: 94002419     	bl	0x91ec <sha512_update>
     18c: 9100e3e0     	add	x0, sp, #0x38
     190: aa1403e1     	mov	x1, x20
     194: aa1503e2     	mov	x2, x21
     198: 94002415     	bl	0x91ec <sha512_update>
     19c: 910743e0     	add	x0, sp, #0x1d0
     1a0: 9100e3e1     	add	x1, sp, #0x38
     1a4: 9400244c     	bl	0x92d4 <sha512_final>
     1a8: 910743e0     	add	x0, sp, #0x1d0
     1ac: d2800101     	mov	x1, #0x8                // =8
     1b0: aa0003e2     	mov	x2, x0
     1b4: 94000201     	bl	0x9b8 <bignum_mod_n25519>
     1b8: 91008260     	add	x0, x19, #0x20
     1bc: 910743e1     	add	x1, sp, #0x1d0
     1c0: 910443e2     	add	x2, sp, #0x110
     1c4: 910543e3     	add	x3, sp, #0x150
     1c8: 94000139     	bl	0x6ac <bignum_madd_n25519_alt>
     1cc: a94053f3     	ldp	x19, x20, [sp]
     1d0: a9415bf5     	ldp	x21, x22, [sp, #0x10]
     1d4: a94263f7     	ldp	x23, x24, [sp, #0x20]
     1d8: f9401bfe     	ldr	x30, [sp, #0x30]
     1dc: 910843ff     	add	sp, sp, #0x210
     1e0: d65f03c0     	ret

00000000000001e4 <ed25519_verify_common>:
     1e4: d10843ff     	sub	sp, sp, #0x210
     1e8: a90053f3     	stp	x19, x20, [sp]
     1ec: a9015bf5     	stp	x21, x22, [sp, #0x10]
     1f0: a90263f7     	stp	x23, x24, [sp, #0x20]
     1f4: f9001bfe     	str	x30, [sp, #0x30]
     1f8: aa0003f3     	mov	x19, x0
     1fc: aa0103f4     	mov	x20, x1
     200: aa0203f5     	mov	x21, x2
     204: aa0303f6     	mov	x22, x3
     208: aa0403f7     	mov	x23, x4
     20c: aa0503f8     	mov	x24, x5
     210: d29a7da0     	mov	x0, #0xd3ed             // =54253
     214: f2ab9ea0     	movk	x0, #0x5cf5, lsl #16
     218: f2cc6340     	movk	x0, #0x631a, lsl #32
     21c: f2eb0240     	movk	x0, #0x5812, lsl #48
     220: d2939ac1     	mov	x1, #0x9cd6             // =40150
     224: f2b45ee1     	movk	x1, #0xa2f7, lsl #16
     228: f2df3bc1     	movk	x1, #0xf9de, lsl #32
     22c: f2e29bc1     	movk	x1, #0x14de, lsl #48
     230: a90387e0     	stp	x0, x1, [sp, #0x38]
     234: aa1f03e0     	mov	x0, xzr
     238: d2800021     	mov	x1, #0x1                // =1
     23c: d3440c21     	lsl	x1, x1, #60
     240: a90487e0     	stp	x0, x1, [sp, #0x48]
     244: d2800080     	mov	x0, #0x4                // =4
     248: 9100e3e1     	add	x1, sp, #0x38
     24c: d2800082     	mov	x2, #0x4                // =4
     250: 910082a3     	add	x3, x21, #0x20
     254: 940000f4     	bl	0x624 <bignum_le>
     258: b5000720     	cbnz	x0, 0x33c <ed25519_verify_common_fail>
     25c: 910163e0     	add	x0, sp, #0x58
     260: aa1603e1     	mov	x1, x22
     264: 94000235     	bl	0xb38 <edwards25519_decode_alt>
     268: b50006a0     	cbnz	x0, 0x33c <ed25519_verify_common_fail>
     26c: 910263e0     	add	x0, sp, #0x98
     270: 940023b7     	bl	0x914c <sha512_init>
     274: b40000b8     	cbz	x24, 0x288 <ed25519_verify_common_pure>
     278: 910263e0     	add	x0, sp, #0x98
     27c: aa1703e1     	mov	x1, x23
     280: aa1803e2     	mov	x2, x24
     284: 940023da     	bl	0x91ec <sha512_update>

0000000000000288 <ed25519_verify_common_pure>:
     288: 910263e0     	add	x0, sp, #0x98
     28c: aa1503e1     	mov	x1, x21
     290: d2800402     	mov	x2, #0x20               // =32
     294: 940023d6     	bl	0x91ec <sha512_update>
     298: 910263e0     	add	x0, sp, #0x98
     29c: aa1603e1     	mov	x1, x22
     2a0: d2800402     	mov	x2, #0x20               // =32
     2a4: 940023d2     	bl	0x91ec <sha512_update>
     2a8: 910263e0     	add	x0, sp, #0x98
     2ac: aa1303e1     	mov	x1, x19
     2b0: aa1403e2     	mov	x2, x20
     2b4: 940023ce     	bl	0x91ec <sha512_update>
     2b8: 9105c3e0     	add	x0, sp, #0x170
     2bc: 910263e1     	add	x1, sp, #0x98
     2c0: 94002405     	bl	0x92d4 <sha512_final>
     2c4: 910163e0     	add	x0, sp, #0x58
     2c8: aa0003e1     	mov	x1, x0
     2cc: 94000207     	bl	0xae8 <bignum_neg_p25519>
     2d0: 9105c3e0     	add	x0, sp, #0x170
     2d4: d2800101     	mov	x1, #0x8                // =8
     2d8: aa0003e2     	mov	x2, x0
     2dc: 940001b7     	bl	0x9b8 <bignum_mod_n25519>
     2e0: 9106c3e0     	add	x0, sp, #0x1b0
     2e4: 9105c3e1     	add	x1, sp, #0x170
     2e8: 910163e2     	add	x2, sp, #0x58
     2ec: 910082a3     	add	x3, x21, #0x20
     2f0: 94000d48     	bl	0x3810 <edwards25519_scalarmuldouble_alt>
     2f4: 9107c3e0     	add	x0, sp, #0x1f0
     2f8: 9106c3e1     	add	x1, sp, #0x1b0
     2fc: 940003fb     	bl	0x12e8 <edwards25519_encode>
     300: a95f07e0     	ldp	x0, x1, [sp, #0x1f0]
     304: a9400ea2     	ldp	x2, x3, [x21]
     308: eb02001f     	cmp	x0, x2
     30c: 54000181     	b.ne	0x33c <ed25519_verify_common_fail>
     310: eb03003f     	cmp	x1, x3
     314: 54000141     	b.ne	0x33c <ed25519_verify_common_fail>
     318: 910803e4     	add	x4, sp, #0x200
     31c: a9400480     	ldp	x0, x1, [x4]
     320: a9410ea2     	ldp	x2, x3, [x21, #0x10]
     324: eb02001f     	cmp	x0, x2
     328: 540000a1     	b.ne	0x33c <ed25519_verify_common_fail>
     32c: eb03003f     	cmp	x1, x3
     330: 54000061     	b.ne	0x33c <ed25519_verify_common_fail>
     334: d2800020     	mov	x0, #0x1                // =1
     338: 14000002     	b	0x340 <ed25519_verify_common_epilogue>

000000000000033c <ed25519_verify_common_fail>:
     33c: aa1f03e0     	mov	x0, xzr

0000000000000340 <ed25519_verify_common_epilogue>:
     340: a94053f3     	ldp	x19, x20, [sp]
     344: a9415bf5     	ldp	x21, x22, [sp, #0x10]
     348: a94263f7     	ldp	x23, x24, [sp, #0x20]
     34c: f9401bfe     	ldr	x30, [sp, #0x30]
     350: 910843ff     	add	sp, sp, #0x210
     354: d65f03c0     	ret

0000000000000358 <ed25519_sign_no_self_test_s2n_bignum>:
     358: a9bf7bfd     	stp	x29, x30, [sp, #-0x10]!
     35c: aa1f03e4     	mov	x4, xzr
     360: aa1f03e5     	mov	x5, xzr
     364: 97ffff44     	bl	0x74 <ed25519_sign_common>
     368: d2800020     	mov	x0, #0x1                // =1
     36c: a8c17bfd     	ldp	x29, x30, [sp], #0x10
     370: d65f03c0     	ret

0000000000000374 <ed25519_verify_no_self_test_s2n_bignum>:
     374: a9bf7bfd     	stp	x29, x30, [sp, #-0x10]!
     378: aa1f03e4     	mov	x4, xzr
     37c: aa1f03e5     	mov	x5, xzr
     380: 97ffff99     	bl	0x1e4 <ed25519_verify_common>
     384: a8c17bfd     	ldp	x29, x30, [sp], #0x10
     388: d65f03c0     	ret

000000000000038c <dom2_common>:
     38c: d28d2a64     	mov	x4, #0x6953             // =26963
     390: f2a8ace4     	movk	x4, #0x4567, lsl #16
     394: f2c64c84     	movk	x4, #0x3264, lsl #32
     398: f2e6a6a4     	movk	x4, #0x3535, lsl #48
     39c: d2872625     	mov	x5, #0x3931             // =14641
     3a0: f2adc405     	movk	x5, #0x6e20, lsl #16
     3a4: f2c40de5     	movk	x5, #0x206f, lsl #32
     3a8: f2ec88a5     	movk	x5, #0x6445, lsl #48
     3ac: a9001404     	stp	x4, x5, [x0]
     3b0: d286a644     	mov	x4, #0x3532             // =13618
     3b4: f2a626a4     	movk	x4, #0x3135, lsl #16
     3b8: f2c40724     	movk	x4, #0x2039, lsl #32
     3bc: f2edec64     	movk	x4, #0x6f63, lsl #48
     3c0: d28d8d85     	mov	x5, #0x6c6c             // =27756
     3c4: f2ae6d25     	movk	x5, #0x7369, lsl #16
     3c8: f2cded25     	movk	x5, #0x6f69, lsl #32
     3cc: f2ee6dc5     	movk	x5, #0x736e, lsl #48
     3d0: a9011404     	stp	x4, x5, [x0, #0x10]
     3d4: 39008001     	strb	w1, [x0, #0x20]
     3d8: 39008403     	strb	w3, [x0, #0x21]
     3dc: 91008804     	add	x4, x0, #0x22
     3e0: aa1f03e5     	mov	x5, xzr
     3e4: 14000004     	b	0x3f4 <dom2_common_loop>

00000000000003e8 <dom2_common_loop_body>:
     3e8: 38656846     	ldrb	w6, [x2, x5]
     3ec: 38256886     	strb	w6, [x4, x5]
     3f0: 910004a5     	add	x5, x5, #0x1

00000000000003f4 <dom2_common_loop>:
     3f4: eb05007f     	cmp	x3, x5
     3f8: 54ffff81     	b.ne	0x3e8 <dom2_common_loop_body>
     3fc: 91008860     	add	x0, x3, #0x22
     400: d65f03c0     	ret

0000000000000404 <ed25519ctx_sign_no_self_test_s2n_bignum>:
     404: a9ab53f3     	stp	x19, x20, [sp, #-0x150]!
     408: a9015bf5     	stp	x21, x22, [sp, #0x10]
     40c: f90013fe     	str	x30, [sp, #0x20]
     410: aa0003f3     	mov	x19, x0
     414: aa0103f4     	mov	x20, x1
     418: aa0203f5     	mov	x21, x2
     41c: aa0303f6     	mov	x22, x3
     420: b4000225     	cbz	x5, 0x464 <ed25519ctx_sign_fail>
     424: f103fcbf     	cmp	x5, #0xff
     428: 540001e8     	b.hi	0x464 <ed25519ctx_sign_fail>
     42c: 9100a3e0     	add	x0, sp, #0x28
     430: aa1f03e1     	mov	x1, xzr
     434: aa0403e2     	mov	x2, x4
     438: aa0503e3     	mov	x3, x5
     43c: 97ffffd4     	bl	0x38c <dom2_common>
     440: aa0003e5     	mov	x5, x0
     444: aa1303e0     	mov	x0, x19
     448: aa1403e1     	mov	x1, x20
     44c: aa1503e2     	mov	x2, x21
     450: aa1603e3     	mov	x3, x22
     454: 9100a3e4     	add	x4, sp, #0x28
     458: 97ffff07     	bl	0x74 <ed25519_sign_common>
     45c: d2800020     	mov	x0, #0x1                // =1
     460: 14000002     	b	0x468 <ed25519ctx_sign_epilogue>

0000000000000464 <ed25519ctx_sign_fail>:
     464: aa1f03e0     	mov	x0, xzr

0000000000000468 <ed25519ctx_sign_epilogue>:
     468: a9415bf5     	ldp	x21, x22, [sp, #0x10]
     46c: f94013fe     	ldr	x30, [sp, #0x20]
     470: a8d553f3     	ldp	x19, x20, [sp], #0x150
     474: d65f03c0     	ret

0000000000000478 <ed25519ctx_verify_no_self_test_s2n_bignum>:
     478: a9ab53f3     	stp	x19, x20, [sp, #-0x150]!
     47c: a9015bf5     	stp	x21, x22, [sp, #0x10]
     480: f90013fe     	str	x30, [sp, #0x20]
     484: aa0003f3     	mov	x19, x0
     488: aa0103f4     	mov	x20, x1
     48c: aa0203f5     	mov	x21, x2
     490: aa0303f6     	mov	x22, x3
     494: b4000205     	cbz	x5, 0x4d4 <ed25519ctx_verify_fail>
     498: f103fcbf     	cmp	x5, #0xff
     49c: 540001c8     	b.hi	0x4d4 <ed25519ctx_verify_fail>
     4a0: 9100a3e0     	add	x0, sp, #0x28
     4a4: aa1f03e1     	mov	x1, xzr
     4a8: aa0403e2     	mov	x2, x4
     4ac: aa0503e3     	mov	x3, x5
     4b0: 97ffffb7     	bl	0x38c <dom2_common>
     4b4: aa0003e5     	mov	x5, x0
     4b8: aa1303e0     	mov	x0, x19
     4bc: aa1403e1     	mov	x1, x20
     4c0: aa1503e2     	mov	x2, x21
     4c4: aa1603e3     	mov	x3, x22
     4c8: 9100a3e4     	add	x4, sp, #0x28
     4cc: 97ffff46     	bl	0x1e4 <ed25519_verify_common>
     4d0: 14000002     	b	0x4d8 <ed25519ctx_verify_epilogue>

00000000000004d4 <ed25519ctx_verify_fail>:
     4d4: aa1f03e0     	mov	x0, xzr

00000000000004d8 <ed25519ctx_verify_epilogue>:
     4d8: a9415bf5     	ldp	x21, x22, [sp, #0x10]
     4dc: f94013fe     	ldr	x30, [sp, #0x20]
     4e0: a8d553f3     	ldp	x19, x20, [sp], #0x150
     4e4: d65f03c0     	ret

00000000000004e8 <ed25519ph_sign_no_self_test_s2n_bignum>:
     4e8: d109c3ff     	sub	sp, sp, #0x270
     4ec: a90053f3     	stp	x19, x20, [sp]
     4f0: a9015bf5     	stp	x21, x22, [sp, #0x10]
     4f4: f90013fe     	str	x30, [sp, #0x20]
     4f8: aa0003f3     	mov	x19, x0
     4fc: aa0103f4     	mov	x20, x1
     500: aa0203f5     	mov	x21, x2
     504: aa0303f6     	mov	x22, x3
     508: f103fcbf     	cmp	x5, #0xff
     50c: 54000328     	b.hi	0x570 <ed25519ph_sign_fail>
     510: 9100a3e0     	add	x0, sp, #0x28
     514: d2800021     	mov	x1, #0x1                // =1
     518: aa0403e2     	mov	x2, x4
     51c: aa0503e3     	mov	x3, x5
     520: 97ffff9b     	bl	0x38c <dom2_common>
     524: f900abe0     	str	x0, [sp, #0x150]
     528: 910563e0     	add	x0, sp, #0x158
     52c: 94002308     	bl	0x914c <sha512_init>
     530: 910563e0     	add	x0, sp, #0x158
     534: aa1403e1     	mov	x1, x20
     538: aa1503e2     	mov	x2, x21
     53c: 9400232c     	bl	0x91ec <sha512_update>
     540: 9108c3e0     	add	x0, sp, #0x230
     544: 910563e1     	add	x1, sp, #0x158
     548: 94002363     	bl	0x92d4 <sha512_final>
     54c: aa1303e0     	mov	x0, x19
     550: 9108c3e1     	add	x1, sp, #0x230
     554: d2800802     	mov	x2, #0x40               // =64
     558: aa1603e3     	mov	x3, x22
     55c: 9100a3e4     	add	x4, sp, #0x28
     560: f940abe5     	ldr	x5, [sp, #0x150]
     564: 97fffec4     	bl	0x74 <ed25519_sign_common>
     568: d2800020     	mov	x0, #0x1                // =1
     56c: 14000002     	b	0x574 <ed25519ph_sign_epilogue>

0000000000000570 <ed25519ph_sign_fail>:
     570: aa1f03e0     	mov	x0, xzr

0000000000000574 <ed25519ph_sign_epilogue>:
     574: a94053f3     	ldp	x19, x20, [sp]
     578: a9415bf5     	ldp	x21, x22, [sp, #0x10]
     57c: f94013fe     	ldr	x30, [sp, #0x20]
     580: 9109c3ff     	add	sp, sp, #0x270
     584: d65f03c0     	ret

0000000000000588 <ed25519ph_verify_no_self_test_s2n_bignum>:
     588: d109c3ff     	sub	sp, sp, #0x270
     58c: a90053f3     	stp	x19, x20, [sp]
     590: a9015bf5     	stp	x21, x22, [sp, #0x10]
     594: f90013fe     	str	x30, [sp, #0x20]
     598: aa0003f3     	mov	x19, x0
     59c: aa0103f4     	mov	x20, x1
     5a0: aa0203f5     	mov	x21, x2
     5a4: aa0303f6     	mov	x22, x3
     5a8: f103fcbf     	cmp	x5, #0xff
     5ac: 54000308     	b.hi	0x60c <ed25519ph_verify_fail>
     5b0: 9100a3e0     	add	x0, sp, #0x28
     5b4: d2800021     	mov	x1, #0x1                // =1
     5b8: aa0403e2     	mov	x2, x4
     5bc: aa0503e3     	mov	x3, x5
     5c0: 97ffff73     	bl	0x38c <dom2_common>
     5c4: f900abe0     	str	x0, [sp, #0x150]
     5c8: 910563e0     	add	x0, sp, #0x158
     5cc: 940022e0     	bl	0x914c <sha512_init>
     5d0: 910563e0     	add	x0, sp, #0x158
     5d4: aa1303e1     	mov	x1, x19
     5d8: aa1403e2     	mov	x2, x20
     5dc: 94002304     	bl	0x91ec <sha512_update>
     5e0: 9108c3e0     	add	x0, sp, #0x230
     5e4: 910563e1     	add	x1, sp, #0x158
     5e8: 9400233b     	bl	0x92d4 <sha512_final>
     5ec: 9108c3e0     	add	x0, sp, #0x230
     5f0: d2800801     	mov	x1, #0x40               // =64
     5f4: aa1503e2     	mov	x2, x21
     5f8: aa1603e3     	mov	x3, x22
     5fc: 9100a3e4     	add	x4, sp, #0x28
     600: f940abe5     	ldr	x5, [sp, #0x150]
     604: 97fffef8     	bl	0x1e4 <ed25519_verify_common>
     608: 14000002     	b	0x610 <ed25519ph_verify_epilogue>

000000000000060c <ed25519ph_verify_fail>:
     60c: aa1f03e0     	mov	x0, xzr

0000000000000610 <ed25519ph_verify_epilogue>:
     610: a94053f3     	ldp	x19, x20, [sp]
     614: a9415bf5     	ldp	x21, x22, [sp, #0x10]
     618: f94013fe     	ldr	x30, [sp, #0x20]
     61c: 9109c3ff     	add	sp, sp, #0x270
     620: d65f03c0     	ret

0000000000000624 <bignum_le>:
     624: aa1f03e4     	mov	x4, xzr
     628: eb000042     	subs	x2, x2, x0
     62c: 54000203     	b.lo	0x66c <bignum_le_ylonger>
     630: b40000e0     	cbz	x0, 0x64c <bignum_le_xtest>

0000000000000634 <bignum_le_xmainloop>:
     634: f8647865     	ldr	x5, [x3, x4, lsl #3]
     638: f8647826     	ldr	x6, [x1, x4, lsl #3]
     63c: fa0600bf     	sbcs	xzr, x5, x6
     640: 91000484     	add	x4, x4, #0x1
     644: d1000400     	sub	x0, x0, #0x1
     648: b5ffff60     	cbnz	x0, 0x634 <bignum_le_xmainloop>

000000000000064c <bignum_le_xtest>:
     64c: b40000c2     	cbz	x2, 0x664 <bignum_le_xskip>

0000000000000650 <bignum_le_xtoploop>:
     650: f8647865     	ldr	x5, [x3, x4, lsl #3]
     654: fa1f00bf     	sbcs	xzr, x5, xzr
     658: 91000484     	add	x4, x4, #0x1
     65c: d1000442     	sub	x2, x2, #0x1
     660: b5ffff82     	cbnz	x2, 0x650 <bignum_le_xtoploop>

0000000000000664 <bignum_le_xskip>:
     664: 9a9f37e0     	cset	x0, hs
     668: d65f03c0     	ret

000000000000066c <bignum_le_ylonger>:
     66c: ab000042     	adds	x2, x2, x0
     670: b4000102     	cbz	x2, 0x690 <bignum_le_ytoploop>
     674: cb020000     	sub	x0, x0, x2

0000000000000678 <bignum_le_ymainloop>:
     678: f8647865     	ldr	x5, [x3, x4, lsl #3]
     67c: f8647826     	ldr	x6, [x1, x4, lsl #3]
     680: fa0600bf     	sbcs	xzr, x5, x6
     684: 91000484     	add	x4, x4, #0x1
     688: d1000442     	sub	x2, x2, #0x1
     68c: b5ffff62     	cbnz	x2, 0x678 <bignum_le_ymainloop>

0000000000000690 <bignum_le_ytoploop>:
     690: f8647825     	ldr	x5, [x1, x4, lsl #3]
     694: fa0503ff     	ngcs	xzr, x5
     698: 91000484     	add	x4, x4, #0x1
     69c: d1000400     	sub	x0, x0, #0x1
     6a0: b5ffff80     	cbnz	x0, 0x690 <bignum_le_ytoploop>
     6a4: 9a9f37e0     	cset	x0, hs
     6a8: d65f03c0     	ret

00000000000006ac <bignum_madd_n25519_alt>:
     6ac: a9bf53f3     	stp	x19, x20, [sp, #-0x10]!
     6b0: aa0003f3     	mov	x19, x0
     6b4: a940382d     	ldp	x13, x14, [x1]
     6b8: a9400047     	ldp	x7, x0, [x2]
     6bc: 9b077da8     	mul	x8, x13, x7
     6c0: 9bc77da9     	umulh	x9, x13, x7
     6c4: 9b007db0     	mul	x16, x13, x0
     6c8: 9bc07daa     	umulh	x10, x13, x0
     6cc: ab100129     	adds	x9, x9, x16
     6d0: a9411444     	ldp	x4, x5, [x2, #0x10]
     6d4: 9b047db0     	mul	x16, x13, x4
     6d8: 9bc47dab     	umulh	x11, x13, x4
     6dc: ba10014a     	adcs	x10, x10, x16
     6e0: 9b057db0     	mul	x16, x13, x5
     6e4: 9bc57dac     	umulh	x12, x13, x5
     6e8: ba10016b     	adcs	x11, x11, x16
     6ec: 9a1f018c     	adc	x12, x12, xzr
     6f0: a940186f     	ldp	x15, x6, [x3]
     6f4: ab0f0108     	adds	x8, x8, x15
     6f8: ba060129     	adcs	x9, x9, x6
     6fc: a941186f     	ldp	x15, x6, [x3, #0x10]
     700: ba0f014a     	adcs	x10, x10, x15
     704: ba06016b     	adcs	x11, x11, x6
     708: 9a1f018c     	adc	x12, x12, xzr
     70c: a941182f     	ldp	x15, x6, [x1, #0x10]
     710: 9b077dd0     	mul	x16, x14, x7
     714: ab100129     	adds	x9, x9, x16
     718: 9b007dd0     	mul	x16, x14, x0
     71c: ba10014a     	adcs	x10, x10, x16
     720: 9b047dd0     	mul	x16, x14, x4
     724: ba10016b     	adcs	x11, x11, x16
     728: 9b057dd0     	mul	x16, x14, x5
     72c: ba10018c     	adcs	x12, x12, x16
     730: 9bc57dcd     	umulh	x13, x14, x5
     734: 9a1f01ad     	adc	x13, x13, xzr
     738: 9bc77dd0     	umulh	x16, x14, x7
     73c: ab10014a     	adds	x10, x10, x16
     740: 9bc07dd0     	umulh	x16, x14, x0
     744: ba10016b     	adcs	x11, x11, x16
     748: 9bc47dd0     	umulh	x16, x14, x4
     74c: ba10018c     	adcs	x12, x12, x16
     750: 9a1f01ad     	adc	x13, x13, xzr
     754: 9b077df0     	mul	x16, x15, x7
     758: ab10014a     	adds	x10, x10, x16
     75c: 9b007df0     	mul	x16, x15, x0
     760: ba10016b     	adcs	x11, x11, x16
     764: 9b047df0     	mul	x16, x15, x4
     768: ba10018c     	adcs	x12, x12, x16
     76c: 9b057df0     	mul	x16, x15, x5
     770: ba1001ad     	adcs	x13, x13, x16
     774: 9bc57dee     	umulh	x14, x15, x5
     778: 9a1f01ce     	adc	x14, x14, xzr
     77c: 9bc77df0     	umulh	x16, x15, x7
     780: ab10016b     	adds	x11, x11, x16
     784: 9bc07df0     	umulh	x16, x15, x0
     788: ba10018c     	adcs	x12, x12, x16
     78c: 9bc47df0     	umulh	x16, x15, x4
     790: ba1001ad     	adcs	x13, x13, x16
     794: 9a1f01ce     	adc	x14, x14, xzr
     798: 9b077cd0     	mul	x16, x6, x7
     79c: ab10016b     	adds	x11, x11, x16
     7a0: 9b007cd0     	mul	x16, x6, x0
     7a4: ba10018c     	adcs	x12, x12, x16
     7a8: 9b047cd0     	mul	x16, x6, x4
     7ac: ba1001ad     	adcs	x13, x13, x16
     7b0: 9b057cd0     	mul	x16, x6, x5
     7b4: ba1001ce     	adcs	x14, x14, x16
     7b8: 9bc57ccf     	umulh	x15, x6, x5
     7bc: 9a1f01ef     	adc	x15, x15, xzr
     7c0: 9bc77cd0     	umulh	x16, x6, x7
     7c4: ab10018c     	adds	x12, x12, x16
     7c8: 9bc07cd0     	umulh	x16, x6, x0
     7cc: ba1001ad     	adcs	x13, x13, x16
     7d0: 9bc47cd0     	umulh	x16, x6, x4
     7d4: ba1001ce     	adcs	x14, x14, x16
     7d8: 9a1f01ef     	adc	x15, x15, xzr
     7dc: d29a7da3     	mov	x3, #0xd3ed             // =54253
     7e0: f2ab9ea3     	movk	x3, #0x5cf5, lsl #16
     7e4: f2cc6343     	movk	x3, #0x631a, lsl #32
     7e8: f2eb0243     	movk	x3, #0x5812, lsl #48
     7ec: d2939ac4     	mov	x4, #0x9cd6             // =40150
     7f0: f2b45ee4     	movk	x4, #0xa2f7, lsl #16
     7f4: f2df3bc4     	movk	x4, #0xf9de, lsl #32
     7f8: f2e29bc4     	movk	x4, #0x14de, lsl #48
     7fc: d37cfde2     	lsr	x2, x15, #60
     800: 9240edef     	and	x15, x15, #0xfffffffffffffff
     804: 9b027c65     	mul	x5, x3, x2
     808: 9b027c86     	mul	x6, x4, x2
     80c: 9bc27c67     	umulh	x7, x3, x2
     810: ab0700c6     	adds	x6, x6, x7
     814: 9bc27c87     	umulh	x7, x4, x2
     818: 9a1f00e7     	adc	x7, x7, xzr
     81c: eb05018c     	subs	x12, x12, x5
     820: fa0601ad     	sbcs	x13, x13, x6
     824: fa0701ce     	sbcs	x14, x14, x7
     828: fa1f01ef     	sbcs	x15, x15, xzr
     82c: 9a9f3065     	csel	x5, x3, xzr, lo
     830: 9a9f3086     	csel	x6, x4, xzr, lo
     834: ab05018c     	adds	x12, x12, x5
     838: 924400a7     	and	x7, x5, #0x1000000000000000
     83c: ba0601ad     	adcs	x13, x13, x6
     840: ba1f01ce     	adcs	x14, x14, xzr
     844: 9a0701ef     	adc	x15, x15, x7
     848: 93cef1e2     	extr	x2, x15, x14, #0x3c
     84c: 9240edce     	and	x14, x14, #0xfffffffffffffff
     850: cb4ff042     	sub	x2, x2, x15, lsr #60
     854: 92440de5     	and	x5, x15, #0xf000000000000000
     858: 8b0501ce     	add	x14, x14, x5
     85c: 9b027c65     	mul	x5, x3, x2
     860: 9b027c86     	mul	x6, x4, x2
     864: 9bc27c67     	umulh	x7, x3, x2
     868: ab0700c6     	adds	x6, x6, x7
     86c: 9bc27c87     	umulh	x7, x4, x2
     870: 9a1f00e7     	adc	x7, x7, xzr
     874: eb05016b     	subs	x11, x11, x5
     878: fa06018c     	sbcs	x12, x12, x6
     87c: fa0701ad     	sbcs	x13, x13, x7
     880: fa1f01ce     	sbcs	x14, x14, xzr
     884: 9a9f3065     	csel	x5, x3, xzr, lo
     888: 9a9f3086     	csel	x6, x4, xzr, lo
     88c: ab05016b     	adds	x11, x11, x5
     890: 924400a7     	and	x7, x5, #0x1000000000000000
     894: ba06018c     	adcs	x12, x12, x6
     898: ba1f01ad     	adcs	x13, x13, xzr
     89c: 9a0701ce     	adc	x14, x14, x7
     8a0: 93cdf1c2     	extr	x2, x14, x13, #0x3c
     8a4: 9240edad     	and	x13, x13, #0xfffffffffffffff
     8a8: cb4ef042     	sub	x2, x2, x14, lsr #60
     8ac: 92440dc5     	and	x5, x14, #0xf000000000000000
     8b0: 8b0501ad     	add	x13, x13, x5
     8b4: 9b027c65     	mul	x5, x3, x2
     8b8: 9b027c86     	mul	x6, x4, x2
     8bc: 9bc27c67     	umulh	x7, x3, x2
     8c0: ab0700c6     	adds	x6, x6, x7
     8c4: 9bc27c87     	umulh	x7, x4, x2
     8c8: 9a1f00e7     	adc	x7, x7, xzr
     8cc: eb05014a     	subs	x10, x10, x5
     8d0: fa06016b     	sbcs	x11, x11, x6
     8d4: fa07018c     	sbcs	x12, x12, x7
     8d8: fa1f01ad     	sbcs	x13, x13, xzr
     8dc: 9a9f3065     	csel	x5, x3, xzr, lo
     8e0: 9a9f3086     	csel	x6, x4, xzr, lo
     8e4: ab05014a     	adds	x10, x10, x5
     8e8: 924400a7     	and	x7, x5, #0x1000000000000000
     8ec: ba06016b     	adcs	x11, x11, x6
     8f0: ba1f018c     	adcs	x12, x12, xzr
     8f4: 9a0701ad     	adc	x13, x13, x7
     8f8: 93ccf1a2     	extr	x2, x13, x12, #0x3c
     8fc: 9240ed8c     	and	x12, x12, #0xfffffffffffffff
     900: cb4df042     	sub	x2, x2, x13, lsr #60
     904: 92440da5     	and	x5, x13, #0xf000000000000000
     908: 8b05018c     	add	x12, x12, x5
     90c: 9b027c65     	mul	x5, x3, x2
     910: 9b027c86     	mul	x6, x4, x2
     914: 9bc27c67     	umulh	x7, x3, x2
     918: ab0700c6     	adds	x6, x6, x7
     91c: 9bc27c87     	umulh	x7, x4, x2
     920: 9a1f00e7     	adc	x7, x7, xzr
     924: eb050129     	subs	x9, x9, x5
     928: fa06014a     	sbcs	x10, x10, x6
     92c: fa07016b     	sbcs	x11, x11, x7
     930: fa1f018c     	sbcs	x12, x12, xzr
     934: 9a9f3065     	csel	x5, x3, xzr, lo
     938: 9a9f3086     	csel	x6, x4, xzr, lo
     93c: ab050129     	adds	x9, x9, x5
     940: 924400a7     	and	x7, x5, #0x1000000000000000
     944: ba06014a     	adcs	x10, x10, x6
     948: ba1f016b     	adcs	x11, x11, xzr
     94c: 9a07018c     	adc	x12, x12, x7
     950: 93cbf182     	extr	x2, x12, x11, #0x3c
     954: 9240ed6b     	and	x11, x11, #0xfffffffffffffff
     958: cb4cf042     	sub	x2, x2, x12, lsr #60
     95c: 92440d85     	and	x5, x12, #0xf000000000000000
     960: 8b05016b     	add	x11, x11, x5
     964: 9b027c65     	mul	x5, x3, x2
     968: 9b027c86     	mul	x6, x4, x2
     96c: 9bc27c67     	umulh	x7, x3, x2
     970: ab0700c6     	adds	x6, x6, x7
     974: 9bc27c87     	umulh	x7, x4, x2
     978: 9a1f00e7     	adc	x7, x7, xzr
     97c: eb050108     	subs	x8, x8, x5
     980: fa060129     	sbcs	x9, x9, x6
     984: fa07014a     	sbcs	x10, x10, x7
     988: fa1f016b     	sbcs	x11, x11, xzr
     98c: 9a9f3065     	csel	x5, x3, xzr, lo
     990: 9a9f3086     	csel	x6, x4, xzr, lo
     994: ab050108     	adds	x8, x8, x5
     998: 924400a7     	and	x7, x5, #0x1000000000000000
     99c: ba060129     	adcs	x9, x9, x6
     9a0: ba1f014a     	adcs	x10, x10, xzr
     9a4: 9a07016b     	adc	x11, x11, x7
     9a8: a9002668     	stp	x8, x9, [x19]
     9ac: a9012e6a     	stp	x10, x11, [x19, #0x10]
     9b0: a8c153f3     	ldp	x19, x20, [sp], #0x10
     9b4: d65f03c0     	ret

00000000000009b8 <bignum_mod_n25519>:
     9b8: f100103f     	cmp	x1, #0x4
     9bc: 540007c3     	b.lo	0xab4 <bignum_mod_n25519_short>
     9c0: d1001021     	sub	x1, x1, #0x4
     9c4: d37df027     	lsl	x7, x1, #3
     9c8: 8b0200e7     	add	x7, x7, x2
     9cc: a94118e5     	ldp	x5, x6, [x7, #0x10]
     9d0: a94010e3     	ldp	x3, x4, [x7]
     9d4: d29a7dab     	mov	x11, #0xd3ed            // =54253
     9d8: f2ab9eab     	movk	x11, #0x5cf5, lsl #16
     9dc: f2cc634b     	movk	x11, #0x631a, lsl #32
     9e0: f2eb024b     	movk	x11, #0x5812, lsl #48
     9e4: d2939acc     	mov	x12, #0x9cd6            // =40150
     9e8: f2b45eec     	movk	x12, #0xa2f7, lsl #16
     9ec: f2df3bcc     	movk	x12, #0xf9de, lsl #32
     9f0: f2e29bcc     	movk	x12, #0x14de, lsl #48
     9f4: d37cfccd     	lsr	x13, x6, #60
     9f8: 9240ecc6     	and	x6, x6, #0xfffffffffffffff
     9fc: 9b0d7d67     	mul	x7, x11, x13
     a00: 9b0d7d88     	mul	x8, x12, x13
     a04: 9bcd7d69     	umulh	x9, x11, x13
     a08: ab090108     	adds	x8, x8, x9
     a0c: 9bcd7d89     	umulh	x9, x12, x13
     a10: 9a1f0129     	adc	x9, x9, xzr
     a14: eb070063     	subs	x3, x3, x7
     a18: fa080084     	sbcs	x4, x4, x8
     a1c: fa0900a5     	sbcs	x5, x5, x9
     a20: fa1f00c6     	sbcs	x6, x6, xzr
     a24: 9a9f3167     	csel	x7, x11, xzr, lo
     a28: 9a9f3188     	csel	x8, x12, xzr, lo
     a2c: ab070063     	adds	x3, x3, x7
     a30: ba080084     	adcs	x4, x4, x8
     a34: 924400e7     	and	x7, x7, #0x1000000000000000
     a38: ba1f00a5     	adcs	x5, x5, xzr
     a3c: 9a0700c6     	adc	x6, x6, x7
     a40: b4000341     	cbz	x1, 0xaa8 <bignum_mod_n25519_writeback>

0000000000000a44 <bignum_mod_n25519_loop>:
     a44: 93c5f0cd     	extr	x13, x6, x5, #0x3c
     a48: 9240eca5     	and	x5, x5, #0xfffffffffffffff
     a4c: cb46f1ad     	sub	x13, x13, x6, lsr #60
     a50: 92440cc6     	and	x6, x6, #0xf000000000000000
     a54: 8b0600a5     	add	x5, x5, x6
     a58: 9b0d7d67     	mul	x7, x11, x13
     a5c: 9b0d7d88     	mul	x8, x12, x13
     a60: 9bcd7d69     	umulh	x9, x11, x13
     a64: ab090108     	adds	x8, x8, x9
     a68: 9bcd7d89     	umulh	x9, x12, x13
     a6c: 9a1f0129     	adc	x9, x9, xzr
     a70: d1000421     	sub	x1, x1, #0x1
     a74: f861784d     	ldr	x13, [x2, x1, lsl #3]
     a78: eb0701a7     	subs	x7, x13, x7
     a7c: fa080068     	sbcs	x8, x3, x8
     a80: fa090089     	sbcs	x9, x4, x9
     a84: fa1f00aa     	sbcs	x10, x5, xzr
     a88: 9a9f3163     	csel	x3, x11, xzr, lo
     a8c: 9a9f3184     	csel	x4, x12, xzr, lo
     a90: ab0300e3     	adds	x3, x7, x3
     a94: 92440086     	and	x6, x4, #0x1000000000000000
     a98: ba040104     	adcs	x4, x8, x4
     a9c: ba1f0125     	adcs	x5, x9, xzr
     aa0: 9a060146     	adc	x6, x10, x6
     aa4: b5fffd01     	cbnz	x1, 0xa44 <bignum_mod_n25519_loop>

0000000000000aa8 <bignum_mod_n25519_writeback>:
     aa8: a9001003     	stp	x3, x4, [x0]
     aac: a9011805     	stp	x5, x6, [x0, #0x10]
     ab0: d65f03c0     	ret

0000000000000ab4 <bignum_mod_n25519_short>:
     ab4: aa1f03e3     	mov	x3, xzr
     ab8: aa1f03e4     	mov	x4, xzr
     abc: aa1f03e5     	mov	x5, xzr
     ac0: aa1f03e6     	mov	x6, xzr
     ac4: b4ffff21     	cbz	x1, 0xaa8 <bignum_mod_n25519_writeback>
     ac8: f9400043     	ldr	x3, [x2]
     acc: f1000421     	subs	x1, x1, #0x1
     ad0: 54fffec0     	b.eq	0xaa8 <bignum_mod_n25519_writeback>
     ad4: f9400444     	ldr	x4, [x2, #0x8]
     ad8: f1000421     	subs	x1, x1, #0x1
     adc: 54fffe60     	b.eq	0xaa8 <bignum_mod_n25519_writeback>
     ae0: f9400845     	ldr	x5, [x2, #0x10]
     ae4: 17fffff1     	b	0xaa8 <bignum_mod_n25519_writeback>

0000000000000ae8 <bignum_neg_p25519>:
     ae8: a9400c22     	ldp	x2, x3, [x1]
     aec: 92800247     	mov	x7, #-0x13              // =-19
     af0: aa030046     	orr	x6, x2, x3
     af4: eb0200e2     	subs	x2, x7, x2
     af8: 92800007     	mov	x7, #-0x1               // =-1
     afc: fa0300e3     	sbcs	x3, x7, x3
     b00: a9411424     	ldp	x4, x5, [x1, #0x10]
     b04: aa0400c6     	orr	x6, x6, x4
     b08: fa0400e4     	sbcs	x4, x7, x4
     b0c: 92f00007     	mov	x7, #0x7fffffffffffffff // =9223372036854775807
     b10: aa0500c6     	orr	x6, x6, x5
     b14: da0500e5     	sbc	x5, x7, x5
     b18: eb1f00df     	cmp	x6, xzr
     b1c: 9a9f1042     	csel	x2, x2, xzr, ne
     b20: 9a9f1063     	csel	x3, x3, xzr, ne
     b24: 9a9f1084     	csel	x4, x4, xzr, ne
     b28: 9a9f10a5     	csel	x5, x5, xzr, ne
     b2c: a9000c02     	stp	x2, x3, [x0]
     b30: a9011404     	stp	x4, x5, [x0, #0x10]
     b34: d65f03c0     	ret

0000000000000b38 <edwards25519_decode_alt>:
     b38: a9bf53f3     	stp	x19, x20, [sp, #-0x10]!
     b3c: a9bf7bf5     	stp	x21, x30, [sp, #-0x10]!
     b40: d10303ff     	sub	sp, sp, #0xc0
     b44: aa0003f3     	mov	x19, x0
     b48: 39400020     	ldrb	w0, [x1]
     b4c: d3481c04     	lsl	x4, x0, #56
     b50: 39400420     	ldrb	w0, [x1, #0x1]
     b54: 93c42004     	extr	x4, x0, x4, #0x8
     b58: 39400820     	ldrb	w0, [x1, #0x2]
     b5c: 93c42004     	extr	x4, x0, x4, #0x8
     b60: 39400c20     	ldrb	w0, [x1, #0x3]
     b64: 93c42004     	extr	x4, x0, x4, #0x8
     b68: 39401020     	ldrb	w0, [x1, #0x4]
     b6c: 93c42004     	extr	x4, x0, x4, #0x8
     b70: 39401420     	ldrb	w0, [x1, #0x5]
     b74: 93c42004     	extr	x4, x0, x4, #0x8
     b78: 39401820     	ldrb	w0, [x1, #0x6]
     b7c: 93c42004     	extr	x4, x0, x4, #0x8
     b80: 39401c20     	ldrb	w0, [x1, #0x7]
     b84: 93c42004     	extr	x4, x0, x4, #0x8
     b88: 39402020     	ldrb	w0, [x1, #0x8]
     b8c: d3481c05     	lsl	x5, x0, #56
     b90: 39402420     	ldrb	w0, [x1, #0x9]
     b94: 93c52005     	extr	x5, x0, x5, #0x8
     b98: 39402820     	ldrb	w0, [x1, #0xa]
     b9c: 93c52005     	extr	x5, x0, x5, #0x8
     ba0: 39402c20     	ldrb	w0, [x1, #0xb]
     ba4: 93c52005     	extr	x5, x0, x5, #0x8
     ba8: 39403020     	ldrb	w0, [x1, #0xc]
     bac: 93c52005     	extr	x5, x0, x5, #0x8
     bb0: 39403420     	ldrb	w0, [x1, #0xd]
     bb4: 93c52005     	extr	x5, x0, x5, #0x8
     bb8: 39403820     	ldrb	w0, [x1, #0xe]
     bbc: 93c52005     	extr	x5, x0, x5, #0x8
     bc0: 39403c20     	ldrb	w0, [x1, #0xf]
     bc4: 93c52005     	extr	x5, x0, x5, #0x8
     bc8: 39404020     	ldrb	w0, [x1, #0x10]
     bcc: d3481c06     	lsl	x6, x0, #56
     bd0: 39404420     	ldrb	w0, [x1, #0x11]
     bd4: 93c62006     	extr	x6, x0, x6, #0x8
     bd8: 39404820     	ldrb	w0, [x1, #0x12]
     bdc: 93c62006     	extr	x6, x0, x6, #0x8
     be0: 39404c20     	ldrb	w0, [x1, #0x13]
     be4: 93c62006     	extr	x6, x0, x6, #0x8
     be8: 39405020     	ldrb	w0, [x1, #0x14]
     bec: 93c62006     	extr	x6, x0, x6, #0x8
     bf0: 39405420     	ldrb	w0, [x1, #0x15]
     bf4: 93c62006     	extr	x6, x0, x6, #0x8
     bf8: 39405820     	ldrb	w0, [x1, #0x16]
     bfc: 93c62006     	extr	x6, x0, x6, #0x8
     c00: 39405c20     	ldrb	w0, [x1, #0x17]
     c04: 93c62006     	extr	x6, x0, x6, #0x8
     c08: 39406020     	ldrb	w0, [x1, #0x18]
     c0c: d3481c07     	lsl	x7, x0, #56
     c10: 39406420     	ldrb	w0, [x1, #0x19]
     c14: 93c72007     	extr	x7, x0, x7, #0x8
     c18: 39406820     	ldrb	w0, [x1, #0x1a]
     c1c: 93c72007     	extr	x7, x0, x7, #0x8
     c20: 39406c20     	ldrb	w0, [x1, #0x1b]
     c24: 93c72007     	extr	x7, x0, x7, #0x8
     c28: 39407020     	ldrb	w0, [x1, #0x1c]
     c2c: 93c72007     	extr	x7, x0, x7, #0x8
     c30: 39407420     	ldrb	w0, [x1, #0x1d]
     c34: 93c72007     	extr	x7, x0, x7, #0x8
     c38: 39407820     	ldrb	w0, [x1, #0x1e]
     c3c: 93c72007     	extr	x7, x0, x7, #0x8
     c40: 39407c20     	ldrb	w0, [x1, #0x1f]
     c44: 93c72007     	extr	x7, x0, x7, #0x8
     c48: a90017e4     	stp	x4, x5, [sp]
     c4c: d37ffcf4     	lsr	x20, x7, #63
     c50: 9240f8e7     	and	x7, x7, #0x7fffffffffffffff
     c54: a9011fe6     	stp	x6, x7, [sp, #0x10]
     c58: b1004c9f     	cmn	x4, #0x13
     c5c: ba1f00bf     	adcs	xzr, x5, xzr
     c60: ba1f00df     	adcs	xzr, x6, xzr
     c64: ba1f00ff     	adcs	xzr, x7, xzr
     c68: 9a9f57f5     	cset	x21, mi
     c6c: 910203e0     	add	x0, sp, #0x80
     c70: d2800021     	mov	x1, #0x1                // =1
     c74: 910003e2     	mov	x2, sp
     c78: 94000147     	bl	0x1194 <edwards25519_decode_alt_nsqr_p25519>
     c7c: a94807e0     	ldp	x0, x1, [sp, #0x80]
     c80: a9490fe2     	ldp	x2, x3, [sp, #0x90]
     c84: d2f00004     	mov	x4, #-0x8000000000000000 // =-9223372036854775808
     c88: f1005000     	subs	x0, x0, #0x14
     c8c: fa1f0021     	sbcs	x1, x1, xzr
     c90: fa1f0042     	sbcs	x2, x2, xzr
     c94: da040063     	sbc	x3, x3, x4
     c98: a90607e0     	stp	x0, x1, [sp, #0x60]
     c9c: a9070fe2     	stp	x2, x3, [sp, #0x70]
     ca0: d28f1460     	mov	x0, #0x78a3             // =30883
     ca4: f2a26b20     	movk	x0, #0x1359, lsl #16
     ca8: f2c9b940     	movk	x0, #0x4dca, lsl #32
     cac: f2eebd60     	movk	x0, #0x75eb, lsl #48
     cb0: d29b1561     	mov	x1, #0xd8ab             // =55467
     cb4: f2a82821     	movk	x1, #0x4141, lsl #16
     cb8: f2c149a1     	movk	x1, #0xa4d, lsl #32
     cbc: f2e00e01     	movk	x1, #0x70, lsl #48
     cc0: d29d1302     	mov	x2, #0xe898             // =59544
     cc4: f2aeef22     	movk	x2, #0x7779, lsl #16
     cc8: f2c80f22     	movk	x2, #0x4079, lsl #32
     ccc: f2f198e2     	movk	x2, #0x8cc7, lsl #48
     cd0: d29fce63     	mov	x3, #0xfe73             // =65139
     cd4: f2a56de3     	movk	x3, #0x2b6f, lsl #16
     cd8: f2cd9dc3     	movk	x3, #0x6cee, lsl #32
     cdc: f2ea4063     	movk	x3, #0x5203, lsl #48
     ce0: a90a07e0     	stp	x0, x1, [sp, #0xa0]
     ce4: a90b0fe2     	stp	x2, x3, [sp, #0xb0]
     ce8: 910203e0     	add	x0, sp, #0x80
     cec: 910283e1     	add	x1, sp, #0xa0
     cf0: 910203e2     	add	x2, sp, #0x80
     cf4: 940000c3     	bl	0x1000 <edwards25519_decode_alt_mul_p25519>
     cf8: a94807e0     	ldp	x0, x1, [sp, #0x80]
     cfc: a9490fe2     	ldp	x2, x3, [sp, #0x90]
     d00: b1000400     	adds	x0, x0, #0x1
     d04: ba1f0021     	adcs	x1, x1, xzr
     d08: ba1f0042     	adcs	x2, x2, xzr
     d0c: ba1f0063     	adcs	x3, x3, xzr
     d10: a90807e0     	stp	x0, x1, [sp, #0x80]
     d14: a9090fe2     	stp	x2, x3, [sp, #0x90]
     d18: 910283e0     	add	x0, sp, #0xa0
     d1c: 910183e1     	add	x1, sp, #0x60
     d20: 910203e2     	add	x2, sp, #0x80
     d24: 940000b7     	bl	0x1000 <edwards25519_decode_alt_mul_p25519>
     d28: 910103e0     	add	x0, sp, #0x40
     d2c: d2800021     	mov	x1, #0x1                // =1
     d30: 910283e2     	add	x2, sp, #0xa0
     d34: 94000118     	bl	0x1194 <edwards25519_decode_alt_nsqr_p25519>
     d38: 910103e0     	add	x0, sp, #0x40
     d3c: 910103e1     	add	x1, sp, #0x40
     d40: 910283e2     	add	x2, sp, #0xa0
     d44: 940000af     	bl	0x1000 <edwards25519_decode_alt_mul_p25519>
     d48: 910083e0     	add	x0, sp, #0x20
     d4c: d2800041     	mov	x1, #0x2                // =2
     d50: 910103e2     	add	x2, sp, #0x40
     d54: 94000110     	bl	0x1194 <edwards25519_decode_alt_nsqr_p25519>
     d58: 910103e0     	add	x0, sp, #0x40
     d5c: 910083e1     	add	x1, sp, #0x20
     d60: 910103e2     	add	x2, sp, #0x40
     d64: 940000a7     	bl	0x1000 <edwards25519_decode_alt_mul_p25519>
     d68: 910083e0     	add	x0, sp, #0x20
     d6c: d2800021     	mov	x1, #0x1                // =1
     d70: 910103e2     	add	x2, sp, #0x40
     d74: 94000108     	bl	0x1194 <edwards25519_decode_alt_nsqr_p25519>
     d78: 910203e0     	add	x0, sp, #0x80
     d7c: 910083e1     	add	x1, sp, #0x20
     d80: 910283e2     	add	x2, sp, #0xa0
     d84: 9400009f     	bl	0x1000 <edwards25519_decode_alt_mul_p25519>
     d88: 910083e0     	add	x0, sp, #0x20
     d8c: d28000a1     	mov	x1, #0x5                // =5
     d90: 910203e2     	add	x2, sp, #0x80
     d94: 94000100     	bl	0x1194 <edwards25519_decode_alt_nsqr_p25519>
     d98: 910103e0     	add	x0, sp, #0x40
     d9c: 910083e1     	add	x1, sp, #0x20
     da0: 910203e2     	add	x2, sp, #0x80
     da4: 94000097     	bl	0x1000 <edwards25519_decode_alt_mul_p25519>
     da8: 910083e0     	add	x0, sp, #0x20
     dac: d2800141     	mov	x1, #0xa                // =10
     db0: 910103e2     	add	x2, sp, #0x40
     db4: 940000f8     	bl	0x1194 <edwards25519_decode_alt_nsqr_p25519>
     db8: 910103e0     	add	x0, sp, #0x40
     dbc: 910083e1     	add	x1, sp, #0x20
     dc0: 910103e2     	add	x2, sp, #0x40
     dc4: 9400008f     	bl	0x1000 <edwards25519_decode_alt_mul_p25519>
     dc8: 910083e0     	add	x0, sp, #0x20
     dcc: d28000a1     	mov	x1, #0x5                // =5
     dd0: 910103e2     	add	x2, sp, #0x40
     dd4: 940000f0     	bl	0x1194 <edwards25519_decode_alt_nsqr_p25519>
     dd8: 910203e0     	add	x0, sp, #0x80
     ddc: 910083e1     	add	x1, sp, #0x20
     de0: 910203e2     	add	x2, sp, #0x80
     de4: 94000087     	bl	0x1000 <edwards25519_decode_alt_mul_p25519>
     de8: 910083e0     	add	x0, sp, #0x20
     dec: d2800321     	mov	x1, #0x19               // =25
     df0: 910203e2     	add	x2, sp, #0x80
     df4: 940000e8     	bl	0x1194 <edwards25519_decode_alt_nsqr_p25519>
     df8: 910103e0     	add	x0, sp, #0x40
     dfc: 910083e1     	add	x1, sp, #0x20
     e00: 910203e2     	add	x2, sp, #0x80
     e04: 9400007f     	bl	0x1000 <edwards25519_decode_alt_mul_p25519>
     e08: 910083e0     	add	x0, sp, #0x20
     e0c: d2800641     	mov	x1, #0x32               // =50
     e10: 910103e2     	add	x2, sp, #0x40
     e14: 940000e0     	bl	0x1194 <edwards25519_decode_alt_nsqr_p25519>
     e18: 910103e0     	add	x0, sp, #0x40
     e1c: 910083e1     	add	x1, sp, #0x20
     e20: 910103e2     	add	x2, sp, #0x40
     e24: 94000077     	bl	0x1000 <edwards25519_decode_alt_mul_p25519>
     e28: 910083e0     	add	x0, sp, #0x20
     e2c: d2800321     	mov	x1, #0x19               // =25
     e30: 910103e2     	add	x2, sp, #0x40
     e34: 940000d8     	bl	0x1194 <edwards25519_decode_alt_nsqr_p25519>
     e38: 910203e0     	add	x0, sp, #0x80
     e3c: 910083e1     	add	x1, sp, #0x20
     e40: 910203e2     	add	x2, sp, #0x80
     e44: 9400006f     	bl	0x1000 <edwards25519_decode_alt_mul_p25519>
     e48: 910083e0     	add	x0, sp, #0x20
     e4c: d2800fa1     	mov	x1, #0x7d               // =125
     e50: 910203e2     	add	x2, sp, #0x80
     e54: 940000d0     	bl	0x1194 <edwards25519_decode_alt_nsqr_p25519>
     e58: 910203e0     	add	x0, sp, #0x80
     e5c: 910083e1     	add	x1, sp, #0x20
     e60: 910203e2     	add	x2, sp, #0x80
     e64: 94000067     	bl	0x1000 <edwards25519_decode_alt_mul_p25519>
     e68: 910083e0     	add	x0, sp, #0x20
     e6c: d2800041     	mov	x1, #0x2                // =2
     e70: 910203e2     	add	x2, sp, #0x80
     e74: 940000c8     	bl	0x1194 <edwards25519_decode_alt_nsqr_p25519>
     e78: 910083e0     	add	x0, sp, #0x20
     e7c: 910083e1     	add	x1, sp, #0x20
     e80: 910283e2     	add	x2, sp, #0xa0
     e84: 9400005f     	bl	0x1000 <edwards25519_decode_alt_mul_p25519>
     e88: 910203e0     	add	x0, sp, #0x80
     e8c: d2800021     	mov	x1, #0x1                // =1
     e90: 910083e2     	add	x2, sp, #0x20
     e94: 940000c0     	bl	0x1194 <edwards25519_decode_alt_nsqr_p25519>
     e98: 910203e0     	add	x0, sp, #0x80
     e9c: 910203e1     	add	x1, sp, #0x80
     ea0: 910283e2     	add	x2, sp, #0xa0
     ea4: 94000057     	bl	0x1000 <edwards25519_decode_alt_mul_p25519>
     ea8: 910083e0     	add	x0, sp, #0x20
     eac: 910183e1     	add	x1, sp, #0x60
     eb0: 910083e2     	add	x2, sp, #0x20
     eb4: 94000053     	bl	0x1000 <edwards25519_decode_alt_mul_p25519>
     eb8: d2941600     	mov	x0, #0xa0b0             // =41136
     ebc: f2a941c0     	movk	x0, #0x4a0e, lsl #16
     ec0: f2c364e0     	movk	x0, #0x1b27, lsl #32
     ec4: f2f89dc0     	movk	x0, #0xc4ee, lsl #48
     ec8: d29c8f01     	mov	x1, #0xe478             // =58488
     ecc: f2b5a5e1     	movk	x1, #0xad2f, lsl #16
     ed0: f2c300c1     	movk	x1, #0x1806, lsl #32
     ed4: f2e5e861     	movk	x1, #0x2f43, lsl #48
     ed8: d29af4e2     	mov	x2, #0xd7a7             // =55207
     edc: f2a7bf62     	movk	x2, #0x3dfb, lsl #16
     ee0: f2c01322     	movk	x2, #0x99, lsl #32
     ee4: f2e569a2     	movk	x2, #0x2b4d, lsl #48
     ee8: d29be163     	mov	x3, #0xdf0b             // =57099
     eec: f2a9f823     	movk	x3, #0x4fc1, lsl #16
     ef0: f2c49003     	movk	x3, #0x2480, lsl #32
     ef4: f2e57063     	movk	x3, #0x2b83, lsl #48
     ef8: a90407e0     	stp	x0, x1, [sp, #0x40]
     efc: a9050fe2     	stp	x2, x3, [sp, #0x50]
     f00: 910103e0     	add	x0, sp, #0x40
     f04: 910083e1     	add	x1, sp, #0x20
     f08: 910103e2     	add	x2, sp, #0x40
     f0c: 9400003d     	bl	0x1000 <edwards25519_decode_alt_mul_p25519>
     f10: a94807e0     	ldp	x0, x1, [sp, #0x80]
     f14: a9490fe2     	ldp	x2, x3, [sp, #0x90]
     f18: 927ff804     	and	x4, x0, #0xfffffffffffffffe
     f1c: aa010084     	orr	x4, x4, x1
     f20: aa030045     	orr	x5, x2, x3
     f24: aa050084     	orr	x4, x4, x5
     f28: 91005000     	add	x0, x0, #0x14
     f2c: 91000421     	add	x1, x1, #0x1
     f30: aa010000     	orr	x0, x0, x1
     f34: 91000442     	add	x2, x2, #0x1
     f38: d240f863     	eor	x3, x3, #0x7fffffffffffffff
     f3c: aa030042     	orr	x2, x2, x3
     f40: aa020000     	orr	x0, x0, x2
     f44: eb1f009f     	cmp	x4, xzr
     f48: a9422fea     	ldp	x10, x11, [sp, #0x20]
     f4c: a9443fee     	ldp	x14, x15, [sp, #0x40]
     f50: 9a8e014a     	csel	x10, x10, x14, eq
     f54: 9a8f016b     	csel	x11, x11, x15, eq
     f58: a94337ec     	ldp	x12, x13, [sp, #0x30]
     f5c: a94547f0     	ldp	x16, x17, [sp, #0x50]
     f60: 9a90018c     	csel	x12, x12, x16, eq
     f64: 9a9101ad     	csel	x13, x13, x17, eq
     f68: a9022fea     	stp	x10, x11, [sp, #0x20]
     f6c: a90337ec     	stp	x12, x13, [sp, #0x30]
     f70: fa5f1004     	ccmp	x0, xzr, #0x4, ne
     f74: 9a9f07e0     	cset	x0, ne
     f78: aa0002b5     	orr	x21, x21, x0
     f7c: a94207e0     	ldp	x0, x1, [sp, #0x20]
     f80: a9430fe2     	ldp	x2, x3, [sp, #0x30]
     f84: 92800244     	mov	x4, #-0x13              // =-19
     f88: eb000084     	subs	x4, x4, x0
     f8c: 92800006     	mov	x6, #-0x1               // =-1
     f90: fa0100c5     	sbcs	x5, x6, x1
     f94: fa0200c6     	sbcs	x6, x6, x2
     f98: 92f00007     	mov	x7, #0x7fffffffffffffff // =9223372036854775807
     f9c: da0300e7     	sbc	x7, x7, x3
     fa0: 92400009     	and	x9, x0, #0x1
     fa4: ca140134     	eor	x20, x9, x20
     fa8: aa010008     	orr	x8, x0, x1
     fac: aa030049     	orr	x9, x2, x3
     fb0: aa090108     	orr	x8, x8, x9
     fb4: aa1402aa     	orr	x10, x21, x20
     fb8: eb1f011f     	cmp	x8, xzr
     fbc: 9a950155     	csel	x21, x10, x21, eq
     fc0: fa5f1284     	ccmp	x20, xzr, #0x4, ne
     fc4: 9a840000     	csel	x0, x0, x4, eq
     fc8: 9a850021     	csel	x1, x1, x5, eq
     fcc: 9a860042     	csel	x2, x2, x6, eq
     fd0: 9a870063     	csel	x3, x3, x7, eq
     fd4: a94027e8     	ldp	x8, x9, [sp]
     fd8: a9412fea     	ldp	x10, x11, [sp, #0x10]
     fdc: a9000660     	stp	x0, x1, [x19]
     fe0: a9010e62     	stp	x2, x3, [x19, #0x10]
     fe4: a9022668     	stp	x8, x9, [x19, #0x20]
     fe8: a9032e6a     	stp	x10, x11, [x19, #0x30]
     fec: aa1503e0     	mov	x0, x21
     ff0: 910303ff     	add	sp, sp, #0xc0
     ff4: a8c17bf5     	ldp	x21, x30, [sp], #0x10
     ff8: a8c153f3     	ldp	x19, x20, [sp], #0x10
     ffc: d65f03c0     	ret

0000000000001000 <edwards25519_decode_alt_mul_p25519>:
    1000: a9401023     	ldp	x3, x4, [x1]
    1004: a9402047     	ldp	x7, x8, [x2]
    1008: 9b077c6c     	mul	x12, x3, x7
    100c: 9bc77c6d     	umulh	x13, x3, x7
    1010: 9b087c6b     	mul	x11, x3, x8
    1014: 9bc87c6e     	umulh	x14, x3, x8
    1018: ab0b01ad     	adds	x13, x13, x11
    101c: a9412849     	ldp	x9, x10, [x2, #0x10]
    1020: 9b097c6b     	mul	x11, x3, x9
    1024: 9bc97c6f     	umulh	x15, x3, x9
    1028: ba0b01ce     	adcs	x14, x14, x11
    102c: 9b0a7c6b     	mul	x11, x3, x10
    1030: 9bca7c70     	umulh	x16, x3, x10
    1034: ba0b01ef     	adcs	x15, x15, x11
    1038: 9a1f0210     	adc	x16, x16, xzr
    103c: a9411825     	ldp	x5, x6, [x1, #0x10]
    1040: 9b077c8b     	mul	x11, x4, x7
    1044: ab0b01ad     	adds	x13, x13, x11
    1048: 9b087c8b     	mul	x11, x4, x8
    104c: ba0b01ce     	adcs	x14, x14, x11
    1050: 9b097c8b     	mul	x11, x4, x9
    1054: ba0b01ef     	adcs	x15, x15, x11
    1058: 9b0a7c8b     	mul	x11, x4, x10
    105c: ba0b0210     	adcs	x16, x16, x11
    1060: 9bca7c83     	umulh	x3, x4, x10
    1064: 9a1f0063     	adc	x3, x3, xzr
    1068: 9bc77c8b     	umulh	x11, x4, x7
    106c: ab0b01ce     	adds	x14, x14, x11
    1070: 9bc87c8b     	umulh	x11, x4, x8
    1074: ba0b01ef     	adcs	x15, x15, x11
    1078: 9bc97c8b     	umulh	x11, x4, x9
    107c: ba0b0210     	adcs	x16, x16, x11
    1080: 9a1f0063     	adc	x3, x3, xzr
    1084: 9b077cab     	mul	x11, x5, x7
    1088: ab0b01ce     	adds	x14, x14, x11
    108c: 9b087cab     	mul	x11, x5, x8
    1090: ba0b01ef     	adcs	x15, x15, x11
    1094: 9b097cab     	mul	x11, x5, x9
    1098: ba0b0210     	adcs	x16, x16, x11
    109c: 9b0a7cab     	mul	x11, x5, x10
    10a0: ba0b0063     	adcs	x3, x3, x11
    10a4: 9bca7ca4     	umulh	x4, x5, x10
    10a8: 9a1f0084     	adc	x4, x4, xzr
    10ac: 9bc77cab     	umulh	x11, x5, x7
    10b0: ab0b01ef     	adds	x15, x15, x11
    10b4: 9bc87cab     	umulh	x11, x5, x8
    10b8: ba0b0210     	adcs	x16, x16, x11
    10bc: 9bc97cab     	umulh	x11, x5, x9
    10c0: ba0b0063     	adcs	x3, x3, x11
    10c4: 9a1f0084     	adc	x4, x4, xzr
    10c8: 9b077ccb     	mul	x11, x6, x7
    10cc: ab0b01ef     	adds	x15, x15, x11
    10d0: 9b087ccb     	mul	x11, x6, x8
    10d4: ba0b0210     	adcs	x16, x16, x11
    10d8: 9b097ccb     	mul	x11, x6, x9
    10dc: ba0b0063     	adcs	x3, x3, x11
    10e0: 9b0a7ccb     	mul	x11, x6, x10
    10e4: ba0b0084     	adcs	x4, x4, x11
    10e8: 9bca7cc5     	umulh	x5, x6, x10
    10ec: 9a1f00a5     	adc	x5, x5, xzr
    10f0: 9bc77ccb     	umulh	x11, x6, x7
    10f4: ab0b0210     	adds	x16, x16, x11
    10f8: 9bc87ccb     	umulh	x11, x6, x8
    10fc: ba0b0063     	adcs	x3, x3, x11
    1100: 9bc97ccb     	umulh	x11, x6, x9
    1104: ba0b0084     	adcs	x4, x4, x11
    1108: 9a1f00a5     	adc	x5, x5, xzr
    110c: d28004c7     	mov	x7, #0x26               // =38
    1110: 9b107ceb     	mul	x11, x7, x16
    1114: 9bd07ce9     	umulh	x9, x7, x16
    1118: ab0b018c     	adds	x12, x12, x11
    111c: 9b037ceb     	mul	x11, x7, x3
    1120: 9bc37ce3     	umulh	x3, x7, x3
    1124: ba0b01ad     	adcs	x13, x13, x11
    1128: 9b047ceb     	mul	x11, x7, x4
    112c: 9bc47ce4     	umulh	x4, x7, x4
    1130: ba0b01ce     	adcs	x14, x14, x11
    1134: 9b057ceb     	mul	x11, x7, x5
    1138: 9bc57ce5     	umulh	x5, x7, x5
    113c: ba0b01ef     	adcs	x15, x15, x11
    1140: 9a9f37f0     	cset	x16, hs
    1144: ab0401ef     	adds	x15, x15, x4
    1148: 9a050210     	adc	x16, x16, x5
    114c: ab0f01ff     	cmn	x15, x15
    1150: b24101ef     	orr	x15, x15, #0x8000000000000000
    1154: 9a100208     	adc	x8, x16, x16
    1158: d2800267     	mov	x7, #0x13               // =19
    115c: 9b081ceb     	madd	x11, x7, x8, x7
    1160: ab0b018c     	adds	x12, x12, x11
    1164: ba0901ad     	adcs	x13, x13, x9
    1168: ba0301ce     	adcs	x14, x14, x3
    116c: ba1f01ef     	adcs	x15, x15, xzr
    1170: 9a9f30e7     	csel	x7, x7, xzr, lo
    1174: eb07018c     	subs	x12, x12, x7
    1178: fa1f01ad     	sbcs	x13, x13, xzr
    117c: fa1f01ce     	sbcs	x14, x14, xzr
    1180: da1f01ef     	sbc	x15, x15, xzr
    1184: 9240f9ef     	and	x15, x15, #0x7fffffffffffffff
    1188: a900340c     	stp	x12, x13, [x0]
    118c: a9013c0e     	stp	x14, x15, [x0, #0x10]
    1190: d65f03c0     	ret

0000000000001194 <edwards25519_decode_alt_nsqr_p25519>:
    1194: a9400c46     	ldp	x6, x3, [x2]
    1198: a9411444     	ldp	x4, x5, [x2, #0x10]
    119c: aa0603e2     	mov	x2, x6

00000000000011a0 <edwards25519_decode_alt_loop>:
    11a0: 9b037c49     	mul	x9, x2, x3
    11a4: 9bc37c4a     	umulh	x10, x2, x3
    11a8: 9b057c4b     	mul	x11, x2, x5
    11ac: 9bc57c4c     	umulh	x12, x2, x5
    11b0: 9b047c47     	mul	x7, x2, x4
    11b4: 9bc47c46     	umulh	x6, x2, x4
    11b8: ab07014a     	adds	x10, x10, x7
    11bc: ba06016b     	adcs	x11, x11, x6
    11c0: 9b047c67     	mul	x7, x3, x4
    11c4: 9bc47c66     	umulh	x6, x3, x4
    11c8: 9a1f00c6     	adc	x6, x6, xzr
    11cc: ab07016b     	adds	x11, x11, x7
    11d0: 9b057c8d     	mul	x13, x4, x5
    11d4: 9bc57c8e     	umulh	x14, x4, x5
    11d8: ba06018c     	adcs	x12, x12, x6
    11dc: 9b057c67     	mul	x7, x3, x5
    11e0: 9bc57c66     	umulh	x6, x3, x5
    11e4: 9a1f00c6     	adc	x6, x6, xzr
    11e8: ab07018c     	adds	x12, x12, x7
    11ec: ba0601ad     	adcs	x13, x13, x6
    11f0: 9a1f01ce     	adc	x14, x14, xzr
    11f4: ab090129     	adds	x9, x9, x9
    11f8: ba0a014a     	adcs	x10, x10, x10
    11fc: ba0b016b     	adcs	x11, x11, x11
    1200: ba0c018c     	adcs	x12, x12, x12
    1204: ba0d01ad     	adcs	x13, x13, x13
    1208: ba0e01ce     	adcs	x14, x14, x14
    120c: 9a9f37e6     	cset	x6, hs
    1210: 9bc27c47     	umulh	x7, x2, x2
    1214: 9b027c48     	mul	x8, x2, x2
    1218: ab070129     	adds	x9, x9, x7
    121c: 9b037c67     	mul	x7, x3, x3
    1220: ba07014a     	adcs	x10, x10, x7
    1224: 9bc37c67     	umulh	x7, x3, x3
    1228: ba07016b     	adcs	x11, x11, x7
    122c: 9b047c87     	mul	x7, x4, x4
    1230: ba07018c     	adcs	x12, x12, x7
    1234: 9bc47c87     	umulh	x7, x4, x4
    1238: ba0701ad     	adcs	x13, x13, x7
    123c: 9b057ca7     	mul	x7, x5, x5
    1240: ba0701ce     	adcs	x14, x14, x7
    1244: 9bc57ca7     	umulh	x7, x5, x5
    1248: 9a0700c6     	adc	x6, x6, x7
    124c: d28004c3     	mov	x3, #0x26               // =38
    1250: 9b0c7c67     	mul	x7, x3, x12
    1254: 9bcc7c64     	umulh	x4, x3, x12
    1258: ab070108     	adds	x8, x8, x7
    125c: 9b0d7c67     	mul	x7, x3, x13
    1260: 9bcd7c6d     	umulh	x13, x3, x13
    1264: ba070129     	adcs	x9, x9, x7
    1268: 9b0e7c67     	mul	x7, x3, x14
    126c: 9bce7c6e     	umulh	x14, x3, x14
    1270: ba07014a     	adcs	x10, x10, x7
    1274: 9b067c67     	mul	x7, x3, x6
    1278: 9bc67c66     	umulh	x6, x3, x6
    127c: ba07016b     	adcs	x11, x11, x7
    1280: 9a9f37ec     	cset	x12, hs
    1284: ab0e016b     	adds	x11, x11, x14
    1288: 9a06018c     	adc	x12, x12, x6
    128c: ab0b017f     	cmn	x11, x11
    1290: 9240f96b     	and	x11, x11, #0x7fffffffffffffff
    1294: 9a0c0182     	adc	x2, x12, x12
    1298: d2800263     	mov	x3, #0x13               // =19
    129c: 9b027c67     	mul	x7, x3, x2
    12a0: ab070102     	adds	x2, x8, x7
    12a4: ba040123     	adcs	x3, x9, x4
    12a8: ba0d0144     	adcs	x4, x10, x13
    12ac: 9a1f0165     	adc	x5, x11, xzr
    12b0: f1000421     	subs	x1, x1, #0x1
    12b4: 54fff761     	b.ne	0x11a0 <edwards25519_decode_alt_loop>
    12b8: b1004c46     	adds	x6, x2, #0x13
    12bc: ba1f0067     	adcs	x7, x3, xzr
    12c0: ba1f0088     	adcs	x8, x4, xzr
    12c4: ba1f00a9     	adcs	x9, x5, xzr
    12c8: 9a865042     	csel	x2, x2, x6, pl
    12cc: 9a875063     	csel	x3, x3, x7, pl
    12d0: 9a885084     	csel	x4, x4, x8, pl
    12d4: 9a8950a5     	csel	x5, x5, x9, pl
    12d8: 9240f8a5     	and	x5, x5, #0x7fffffffffffffff
    12dc: a9000c02     	stp	x2, x3, [x0]
    12e0: a9011404     	stp	x4, x5, [x0, #0x10]
    12e4: d65f03c0     	ret

00000000000012e8 <edwards25519_encode>:
    12e8: f9400026     	ldr	x6, [x1]
    12ec: a9420c22     	ldp	x2, x3, [x1, #0x20]
    12f0: a9431424     	ldp	x4, x5, [x1, #0x30]
    12f4: 9240f8a5     	and	x5, x5, #0x7fffffffffffffff
    12f8: aa06fca5     	orr	x5, x5, x6, lsl #63
    12fc: 39000002     	strb	w2, [x0]
    1300: d348fc42     	lsr	x2, x2, #8
    1304: 39000402     	strb	w2, [x0, #0x1]
    1308: d348fc42     	lsr	x2, x2, #8
    130c: 39000802     	strb	w2, [x0, #0x2]
    1310: d348fc42     	lsr	x2, x2, #8
    1314: 39000c02     	strb	w2, [x0, #0x3]
    1318: d348fc42     	lsr	x2, x2, #8
    131c: 39001002     	strb	w2, [x0, #0x4]
    1320: d348fc42     	lsr	x2, x2, #8
    1324: 39001402     	strb	w2, [x0, #0x5]
    1328: d348fc42     	lsr	x2, x2, #8
    132c: 39001802     	strb	w2, [x0, #0x6]
    1330: d348fc42     	lsr	x2, x2, #8
    1334: 39001c02     	strb	w2, [x0, #0x7]
    1338: 39002003     	strb	w3, [x0, #0x8]
    133c: d348fc63     	lsr	x3, x3, #8
    1340: 39002403     	strb	w3, [x0, #0x9]
    1344: d348fc63     	lsr	x3, x3, #8
    1348: 39002803     	strb	w3, [x0, #0xa]
    134c: d348fc63     	lsr	x3, x3, #8
    1350: 39002c03     	strb	w3, [x0, #0xb]
    1354: d348fc63     	lsr	x3, x3, #8
    1358: 39003003     	strb	w3, [x0, #0xc]
    135c: d348fc63     	lsr	x3, x3, #8
    1360: 39003403     	strb	w3, [x0, #0xd]
    1364: d348fc63     	lsr	x3, x3, #8
    1368: 39003803     	strb	w3, [x0, #0xe]
    136c: d348fc63     	lsr	x3, x3, #8
    1370: 39003c03     	strb	w3, [x0, #0xf]
    1374: 39004004     	strb	w4, [x0, #0x10]
    1378: d348fc84     	lsr	x4, x4, #8
    137c: 39004404     	strb	w4, [x0, #0x11]
    1380: d348fc84     	lsr	x4, x4, #8
    1384: 39004804     	strb	w4, [x0, #0x12]
    1388: d348fc84     	lsr	x4, x4, #8
    138c: 39004c04     	strb	w4, [x0, #0x13]
    1390: d348fc84     	lsr	x4, x4, #8
    1394: 39005004     	strb	w4, [x0, #0x14]
    1398: d348fc84     	lsr	x4, x4, #8
    139c: 39005404     	strb	w4, [x0, #0x15]
    13a0: d348fc84     	lsr	x4, x4, #8
    13a4: 39005804     	strb	w4, [x0, #0x16]
    13a8: d348fc84     	lsr	x4, x4, #8
    13ac: 39005c04     	strb	w4, [x0, #0x17]
    13b0: 39006005     	strb	w5, [x0, #0x18]
    13b4: d348fca5     	lsr	x5, x5, #8
    13b8: 39006405     	strb	w5, [x0, #0x19]
    13bc: d348fca5     	lsr	x5, x5, #8
    13c0: 39006805     	strb	w5, [x0, #0x1a]
    13c4: d348fca5     	lsr	x5, x5, #8
    13c8: 39006c05     	strb	w5, [x0, #0x1b]
    13cc: d348fca5     	lsr	x5, x5, #8
    13d0: 39007005     	strb	w5, [x0, #0x1c]
    13d4: d348fca5     	lsr	x5, x5, #8
    13d8: 39007405     	strb	w5, [x0, #0x1d]
    13dc: d348fca5     	lsr	x5, x5, #8
    13e0: 39007805     	strb	w5, [x0, #0x1e]
    13e4: d348fca5     	lsr	x5, x5, #8
    13e8: 39007c05     	strb	w5, [x0, #0x1f]
    13ec: d65f03c0     	ret

00000000000013f0 <edwards25519_scalarmulbase_alt>:
    13f0: a9bf53f3     	stp	x19, x20, [sp, #-0x10]!
    13f4: a9bf5bf5     	stp	x21, x22, [sp, #-0x10]!
    13f8: a9bf63f7     	stp	x23, x24, [sp, #-0x10]!
    13fc: d10703ff     	sub	sp, sp, #0x1c0
    1400: aa0003f7     	mov	x23, x0
    1404: a9402c2a     	ldp	x10, x11, [x1]
    1408: a941342c     	ldp	x12, x13, [x1, #0x10]
    140c: d37cfda9     	lsr	x9, x13, #60
    1410: d29a7da0     	mov	x0, #0xd3ed             // =54253
    1414: f2ab9ea0     	movk	x0, #0x5cf5, lsl #16
    1418: f2cc6340     	movk	x0, #0x631a, lsl #32
    141c: f2eb0240     	movk	x0, #0x5812, lsl #48
    1420: d2939ac1     	mov	x1, #0x9cd6             // =40150
    1424: f2b45ee1     	movk	x1, #0xa2f7, lsl #16
    1428: f2df3bc1     	movk	x1, #0xf9de, lsl #32
    142c: f2e29bc1     	movk	x1, #0x14de, lsl #48
    1430: 9b007d22     	mul	x2, x9, x0
    1434: 9b017d23     	mul	x3, x9, x1
    1438: 9bc07d24     	umulh	x4, x9, x0
    143c: 9bc17d25     	umulh	x5, x9, x1
    1440: ab040063     	adds	x3, x3, x4
    1444: 9a1f00a4     	adc	x4, x5, xzr
    1448: d3440d25     	lsl	x5, x9, #60
    144c: eb02014a     	subs	x10, x10, x2
    1450: fa03016b     	sbcs	x11, x11, x3
    1454: fa04018c     	sbcs	x12, x12, x4
    1458: fa0501ad     	sbcs	x13, x13, x5
    145c: da9f23e9     	csetm	x9, lo
    1460: ab09013f     	cmn	x9, x9
    1464: ca09014a     	eor	x10, x10, x9
    1468: ba1f014a     	adcs	x10, x10, xzr
    146c: ca09016b     	eor	x11, x11, x9
    1470: ba1f016b     	adcs	x11, x11, xzr
    1474: ca09018c     	eor	x12, x12, x9
    1478: ba1f018c     	adcs	x12, x12, xzr
    147c: ca0901ad     	eor	x13, x13, x9
    1480: 9a1f01ad     	adc	x13, x13, xzr
    1484: 92410129     	and	x9, x9, #0x8000000000000000
    1488: aa0901ad     	orr	x13, x13, x9
    148c: a9002fea     	stp	x10, x11, [sp]
    1490: f24501bf     	tst	x13, #0x800000000000000
    1494: 9244f9ad     	and	x13, x13, #0xf7ffffffffffffff
    1498: a90137ec     	stp	x12, x13, [sp, #0x10]
    149c: 90000013     	adrp	x19, 0x1000 <edwards25519_decode_alt_mul_p25519>
    14a0: 91000273     	add	x19, x19, #0x0
    14a4: a9400660     	ldp	x0, x1, [x19]
    14a8: a9460e62     	ldp	x2, x3, [x19, #0x60]
    14ac: 9a820000     	csel	x0, x0, x2, eq
    14b0: 9a830021     	csel	x1, x1, x3, eq
    14b4: a90807e0     	stp	x0, x1, [sp, #0x80]
    14b8: a9410660     	ldp	x0, x1, [x19, #0x10]
    14bc: a9470e62     	ldp	x2, x3, [x19, #0x70]
    14c0: 9a820000     	csel	x0, x0, x2, eq
    14c4: 9a830021     	csel	x1, x1, x3, eq
    14c8: a90907e0     	stp	x0, x1, [sp, #0x90]
    14cc: a9420660     	ldp	x0, x1, [x19, #0x20]
    14d0: a9480e62     	ldp	x2, x3, [x19, #0x80]
    14d4: 9a820000     	csel	x0, x0, x2, eq
    14d8: 9a830021     	csel	x1, x1, x3, eq
    14dc: a90a07e0     	stp	x0, x1, [sp, #0xa0]
    14e0: a9430660     	ldp	x0, x1, [x19, #0x30]
    14e4: a9490e62     	ldp	x2, x3, [x19, #0x90]
    14e8: 9a820000     	csel	x0, x0, x2, eq
    14ec: 9a830021     	csel	x1, x1, x3, eq
    14f0: a90b07e0     	stp	x0, x1, [sp, #0xb0]
    14f4: d2800020     	mov	x0, #0x1                // =1
    14f8: a90c7fe0     	stp	x0, xzr, [sp, #0xc0]
    14fc: a90d7fff     	stp	xzr, xzr, [sp, #0xd0]
    1500: a9440660     	ldp	x0, x1, [x19, #0x40]
    1504: a94a0e62     	ldp	x2, x3, [x19, #0xa0]
    1508: 9a820000     	csel	x0, x0, x2, eq
    150c: 9a830021     	csel	x1, x1, x3, eq
    1510: a90e07e0     	stp	x0, x1, [sp, #0xe0]
    1514: a9450660     	ldp	x0, x1, [x19, #0x50]
    1518: a94b0e62     	ldp	x2, x3, [x19, #0xb0]
    151c: 9a820000     	csel	x0, x0, x2, eq
    1520: 9a830021     	csel	x1, x1, x3, eq
    1524: a90f07e0     	stp	x0, x1, [sp, #0xf0]
    1528: d2800014     	mov	x20, #0x0               // =0
    152c: 91030273     	add	x19, x19, #0xc0
    1530: aa1f03f5     	mov	x21, xzr

0000000000001534 <edwards25519_scalarmulbase_alt_scalarloop>:
    1534: d346fe80     	lsr	x0, x20, #6
    1538: f8607be2     	ldr	x2, [sp, x0, lsl #3]
    153c: 9ad42442     	lsr	x2, x2, x20
    1540: 92400c42     	and	x2, x2, #0xf
    1544: 8b150056     	add	x22, x2, x21
    1548: f10026df     	cmp	x22, #0x9
    154c: 9a9f37f5     	cset	x21, hs
    1550: d2800200     	mov	x0, #0x10               // =16
    1554: cb160000     	sub	x0, x0, x22
    1558: eb1f02bf     	cmp	x21, xzr
    155c: 9a961016     	csel	x22, x0, x22, ne
    1560: d2800020     	mov	x0, #0x1                // =1
    1564: aa1f03e1     	mov	x1, xzr
    1568: aa1f03e2     	mov	x2, xzr
    156c: aa1f03e3     	mov	x3, xzr
    1570: d2800024     	mov	x4, #0x1                // =1
    1574: aa1f03e5     	mov	x5, xzr
    1578: aa1f03e6     	mov	x6, xzr
    157c: aa1f03e7     	mov	x7, xzr
    1580: aa1f03e8     	mov	x8, xzr
    1584: aa1f03e9     	mov	x9, xzr
    1588: aa1f03ea     	mov	x10, xzr
    158c: aa1f03eb     	mov	x11, xzr
    1590: f10006df     	cmp	x22, #0x1
    1594: a940366c     	ldp	x12, x13, [x19]
    1598: 9a8c1000     	csel	x0, x0, x12, ne
    159c: 9a8d1021     	csel	x1, x1, x13, ne
    15a0: a941366c     	ldp	x12, x13, [x19, #0x10]
    15a4: 9a8c1042     	csel	x2, x2, x12, ne
    15a8: 9a8d1063     	csel	x3, x3, x13, ne
    15ac: a942366c     	ldp	x12, x13, [x19, #0x20]
    15b0: 9a8c1084     	csel	x4, x4, x12, ne
    15b4: 9a8d10a5     	csel	x5, x5, x13, ne
    15b8: a943366c     	ldp	x12, x13, [x19, #0x30]
    15bc: 9a8c10c6     	csel	x6, x6, x12, ne
    15c0: 9a8d10e7     	csel	x7, x7, x13, ne
    15c4: a944366c     	ldp	x12, x13, [x19, #0x40]
    15c8: 9a8c1108     	csel	x8, x8, x12, ne
    15cc: 9a8d1129     	csel	x9, x9, x13, ne
    15d0: a945366c     	ldp	x12, x13, [x19, #0x50]
    15d4: 9a8c114a     	csel	x10, x10, x12, ne
    15d8: 9a8d116b     	csel	x11, x11, x13, ne
    15dc: 91018273     	add	x19, x19, #0x60
    15e0: f1000adf     	cmp	x22, #0x2
    15e4: a940366c     	ldp	x12, x13, [x19]
    15e8: 9a8c1000     	csel	x0, x0, x12, ne
    15ec: 9a8d1021     	csel	x1, x1, x13, ne
    15f0: a941366c     	ldp	x12, x13, [x19, #0x10]
    15f4: 9a8c1042     	csel	x2, x2, x12, ne
    15f8: 9a8d1063     	csel	x3, x3, x13, ne
    15fc: a942366c     	ldp	x12, x13, [x19, #0x20]
    1600: 9a8c1084     	csel	x4, x4, x12, ne
    1604: 9a8d10a5     	csel	x5, x5, x13, ne
    1608: a943366c     	ldp	x12, x13, [x19, #0x30]
    160c: 9a8c10c6     	csel	x6, x6, x12, ne
    1610: 9a8d10e7     	csel	x7, x7, x13, ne
    1614: a944366c     	ldp	x12, x13, [x19, #0x40]
    1618: 9a8c1108     	csel	x8, x8, x12, ne
    161c: 9a8d1129     	csel	x9, x9, x13, ne
    1620: a945366c     	ldp	x12, x13, [x19, #0x50]
    1624: 9a8c114a     	csel	x10, x10, x12, ne
    1628: 9a8d116b     	csel	x11, x11, x13, ne
    162c: 91018273     	add	x19, x19, #0x60
    1630: f1000edf     	cmp	x22, #0x3
    1634: a940366c     	ldp	x12, x13, [x19]
    1638: 9a8c1000     	csel	x0, x0, x12, ne
    163c: 9a8d1021     	csel	x1, x1, x13, ne
    1640: a941366c     	ldp	x12, x13, [x19, #0x10]
    1644: 9a8c1042     	csel	x2, x2, x12, ne
    1648: 9a8d1063     	csel	x3, x3, x13, ne
    164c: a942366c     	ldp	x12, x13, [x19, #0x20]
    1650: 9a8c1084     	csel	x4, x4, x12, ne
    1654: 9a8d10a5     	csel	x5, x5, x13, ne
    1658: a943366c     	ldp	x12, x13, [x19, #0x30]
    165c: 9a8c10c6     	csel	x6, x6, x12, ne
    1660: 9a8d10e7     	csel	x7, x7, x13, ne
    1664: a944366c     	ldp	x12, x13, [x19, #0x40]
    1668: 9a8c1108     	csel	x8, x8, x12, ne
    166c: 9a8d1129     	csel	x9, x9, x13, ne
    1670: a945366c     	ldp	x12, x13, [x19, #0x50]
    1674: 9a8c114a     	csel	x10, x10, x12, ne
    1678: 9a8d116b     	csel	x11, x11, x13, ne
    167c: 91018273     	add	x19, x19, #0x60
    1680: f10012df     	cmp	x22, #0x4
    1684: a940366c     	ldp	x12, x13, [x19]
    1688: 9a8c1000     	csel	x0, x0, x12, ne
    168c: 9a8d1021     	csel	x1, x1, x13, ne
    1690: a941366c     	ldp	x12, x13, [x19, #0x10]
    1694: 9a8c1042     	csel	x2, x2, x12, ne
    1698: 9a8d1063     	csel	x3, x3, x13, ne
    169c: a942366c     	ldp	x12, x13, [x19, #0x20]
    16a0: 9a8c1084     	csel	x4, x4, x12, ne
    16a4: 9a8d10a5     	csel	x5, x5, x13, ne
    16a8: a943366c     	ldp	x12, x13, [x19, #0x30]
    16ac: 9a8c10c6     	csel	x6, x6, x12, ne
    16b0: 9a8d10e7     	csel	x7, x7, x13, ne
    16b4: a944366c     	ldp	x12, x13, [x19, #0x40]
    16b8: 9a8c1108     	csel	x8, x8, x12, ne
    16bc: 9a8d1129     	csel	x9, x9, x13, ne
    16c0: a945366c     	ldp	x12, x13, [x19, #0x50]
    16c4: 9a8c114a     	csel	x10, x10, x12, ne
    16c8: 9a8d116b     	csel	x11, x11, x13, ne
    16cc: 91018273     	add	x19, x19, #0x60
    16d0: f10016df     	cmp	x22, #0x5
    16d4: a940366c     	ldp	x12, x13, [x19]
    16d8: 9a8c1000     	csel	x0, x0, x12, ne
    16dc: 9a8d1021     	csel	x1, x1, x13, ne
    16e0: a941366c     	ldp	x12, x13, [x19, #0x10]
    16e4: 9a8c1042     	csel	x2, x2, x12, ne
    16e8: 9a8d1063     	csel	x3, x3, x13, ne
    16ec: a942366c     	ldp	x12, x13, [x19, #0x20]
    16f0: 9a8c1084     	csel	x4, x4, x12, ne
    16f4: 9a8d10a5     	csel	x5, x5, x13, ne
    16f8: a943366c     	ldp	x12, x13, [x19, #0x30]
    16fc: 9a8c10c6     	csel	x6, x6, x12, ne
    1700: 9a8d10e7     	csel	x7, x7, x13, ne
    1704: a944366c     	ldp	x12, x13, [x19, #0x40]
    1708: 9a8c1108     	csel	x8, x8, x12, ne
    170c: 9a8d1129     	csel	x9, x9, x13, ne
    1710: a945366c     	ldp	x12, x13, [x19, #0x50]
    1714: 9a8c114a     	csel	x10, x10, x12, ne
    1718: 9a8d116b     	csel	x11, x11, x13, ne
    171c: 91018273     	add	x19, x19, #0x60
    1720: f1001adf     	cmp	x22, #0x6
    1724: a940366c     	ldp	x12, x13, [x19]
    1728: 9a8c1000     	csel	x0, x0, x12, ne
    172c: 9a8d1021     	csel	x1, x1, x13, ne
    1730: a941366c     	ldp	x12, x13, [x19, #0x10]
    1734: 9a8c1042     	csel	x2, x2, x12, ne
    1738: 9a8d1063     	csel	x3, x3, x13, ne
    173c: a942366c     	ldp	x12, x13, [x19, #0x20]
    1740: 9a8c1084     	csel	x4, x4, x12, ne
    1744: 9a8d10a5     	csel	x5, x5, x13, ne
    1748: a943366c     	ldp	x12, x13, [x19, #0x30]
    174c: 9a8c10c6     	csel	x6, x6, x12, ne
    1750: 9a8d10e7     	csel	x7, x7, x13, ne
    1754: a944366c     	ldp	x12, x13, [x19, #0x40]
    1758: 9a8c1108     	csel	x8, x8, x12, ne
    175c: 9a8d1129     	csel	x9, x9, x13, ne
    1760: a945366c     	ldp	x12, x13, [x19, #0x50]
    1764: 9a8c114a     	csel	x10, x10, x12, ne
    1768: 9a8d116b     	csel	x11, x11, x13, ne
    176c: 91018273     	add	x19, x19, #0x60
    1770: f1001edf     	cmp	x22, #0x7
    1774: a940366c     	ldp	x12, x13, [x19]
    1778: 9a8c1000     	csel	x0, x0, x12, ne
    177c: 9a8d1021     	csel	x1, x1, x13, ne
    1780: a941366c     	ldp	x12, x13, [x19, #0x10]
    1784: 9a8c1042     	csel	x2, x2, x12, ne
    1788: 9a8d1063     	csel	x3, x3, x13, ne
    178c: a942366c     	ldp	x12, x13, [x19, #0x20]
    1790: 9a8c1084     	csel	x4, x4, x12, ne
    1794: 9a8d10a5     	csel	x5, x5, x13, ne
    1798: a943366c     	ldp	x12, x13, [x19, #0x30]
    179c: 9a8c10c6     	csel	x6, x6, x12, ne
    17a0: 9a8d10e7     	csel	x7, x7, x13, ne
    17a4: a944366c     	ldp	x12, x13, [x19, #0x40]
    17a8: 9a8c1108     	csel	x8, x8, x12, ne
    17ac: 9a8d1129     	csel	x9, x9, x13, ne
    17b0: a945366c     	ldp	x12, x13, [x19, #0x50]
    17b4: 9a8c114a     	csel	x10, x10, x12, ne
    17b8: 9a8d116b     	csel	x11, x11, x13, ne
    17bc: 91018273     	add	x19, x19, #0x60
    17c0: f10022df     	cmp	x22, #0x8
    17c4: a940366c     	ldp	x12, x13, [x19]
    17c8: 9a8c1000     	csel	x0, x0, x12, ne
    17cc: 9a8d1021     	csel	x1, x1, x13, ne
    17d0: a941366c     	ldp	x12, x13, [x19, #0x10]
    17d4: 9a8c1042     	csel	x2, x2, x12, ne
    17d8: 9a8d1063     	csel	x3, x3, x13, ne
    17dc: a942366c     	ldp	x12, x13, [x19, #0x20]
    17e0: 9a8c1084     	csel	x4, x4, x12, ne
    17e4: 9a8d10a5     	csel	x5, x5, x13, ne
    17e8: a943366c     	ldp	x12, x13, [x19, #0x30]
    17ec: 9a8c10c6     	csel	x6, x6, x12, ne
    17f0: 9a8d10e7     	csel	x7, x7, x13, ne
    17f4: a944366c     	ldp	x12, x13, [x19, #0x40]
    17f8: 9a8c1108     	csel	x8, x8, x12, ne
    17fc: 9a8d1129     	csel	x9, x9, x13, ne
    1800: a945366c     	ldp	x12, x13, [x19, #0x50]
    1804: 9a8c114a     	csel	x10, x10, x12, ne
    1808: 9a8d116b     	csel	x11, x11, x13, ne
    180c: 91018273     	add	x19, x19, #0x60
    1810: f10002bf     	cmp	x21, #0x0
    1814: 9a84000c     	csel	x12, x0, x4, eq
    1818: 9a85002d     	csel	x13, x1, x5, eq
    181c: 9a86004e     	csel	x14, x2, x6, eq
    1820: 9a87006f     	csel	x15, x3, x7, eq
    1824: a90237ec     	stp	x12, x13, [sp, #0x20]
    1828: a9033fee     	stp	x14, x15, [sp, #0x30]
    182c: 9a84100c     	csel	x12, x0, x4, ne
    1830: 9a85102d     	csel	x13, x1, x5, ne
    1834: 9a86104e     	csel	x14, x2, x6, ne
    1838: 9a87106f     	csel	x15, x3, x7, ne
    183c: a90437ec     	stp	x12, x13, [sp, #0x40]
    1840: a9053fee     	stp	x14, x15, [sp, #0x50]
    1844: 92800240     	mov	x0, #-0x13              // =-19
    1848: eb080000     	subs	x0, x0, x8
    184c: 92800002     	mov	x2, #-0x1               // =-1
    1850: fa090041     	sbcs	x1, x2, x9
    1854: fa0a0042     	sbcs	x2, x2, x10
    1858: 92f00003     	mov	x3, #0x7fffffffffffffff // =9223372036854775807
    185c: da0b0063     	sbc	x3, x3, x11
    1860: eb1f02df     	cmp	x22, xzr
    1864: fa5f12a4     	ccmp	x21, xzr, #0x4, ne
    1868: 9a881000     	csel	x0, x0, x8, ne
    186c: 9a891021     	csel	x1, x1, x9, ne
    1870: a90607e0     	stp	x0, x1, [sp, #0x60]
    1874: 9a8a1042     	csel	x2, x2, x10, ne
    1878: 9a8b1063     	csel	x3, x3, x11, ne
    187c: a9070fe2     	stp	x2, x3, [sp, #0x70]
    1880: a94c13e3     	ldp	x3, x4, [sp, #0xc0]
    1884: ab030063     	adds	x3, x3, x3
    1888: ba040084     	adcs	x4, x4, x4
    188c: a94d1be5     	ldp	x5, x6, [sp, #0xd0]
    1890: ba0500a5     	adcs	x5, x5, x5
    1894: ba0600c6     	adcs	x6, x6, x6
    1898: d28004c9     	mov	x9, #0x26               // =38
    189c: 9a9f2129     	csel	x9, x9, xzr, hs
    18a0: ab090063     	adds	x3, x3, x9
    18a4: ba1f0084     	adcs	x4, x4, xzr
    18a8: ba1f00a5     	adcs	x5, x5, xzr
    18ac: 9a1f00c6     	adc	x6, x6, xzr
    18b0: a91013e3     	stp	x3, x4, [sp, #0x100]
    18b4: a9111be5     	stp	x5, x6, [sp, #0x110]
    18b8: a94a1be5     	ldp	x5, x6, [sp, #0xa0]
    18bc: a9480fe4     	ldp	x4, x3, [sp, #0x80]
    18c0: eb0400a5     	subs	x5, x5, x4
    18c4: fa0300c6     	sbcs	x6, x6, x3
    18c8: a94b23e7     	ldp	x7, x8, [sp, #0xb0]
    18cc: a9490fe4     	ldp	x4, x3, [sp, #0x90]
    18d0: fa0400e7     	sbcs	x7, x7, x4
    18d4: fa030108     	sbcs	x8, x8, x3
    18d8: d28004c4     	mov	x4, #0x26               // =38
    18dc: 9a9f3083     	csel	x3, x4, xzr, lo
    18e0: eb0300a5     	subs	x5, x5, x3
    18e4: fa1f00c6     	sbcs	x6, x6, xzr
    18e8: fa1f00e7     	sbcs	x7, x7, xzr
    18ec: da1f0108     	sbc	x8, x8, xzr
    18f0: a9121be5     	stp	x5, x6, [sp, #0x120]
    18f4: a91323e7     	stp	x7, x8, [sp, #0x130]
    18f8: a94a13e3     	ldp	x3, x4, [sp, #0xa0]
    18fc: a94823e7     	ldp	x7, x8, [sp, #0x80]
    1900: ab070063     	adds	x3, x3, x7
    1904: ba080084     	adcs	x4, x4, x8
    1908: a94b1be5     	ldp	x5, x6, [sp, #0xb0]
    190c: a94923e7     	ldp	x7, x8, [sp, #0x90]
    1910: ba0700a5     	adcs	x5, x5, x7
    1914: ba0800c6     	adcs	x6, x6, x8
    1918: d28004c9     	mov	x9, #0x26               // =38
    191c: 9a9f2129     	csel	x9, x9, xzr, hs
    1920: ab090063     	adds	x3, x3, x9
    1924: ba1f0084     	adcs	x4, x4, xzr
    1928: ba1f00a5     	adcs	x5, x5, xzr
    192c: 9a1f00c6     	adc	x6, x6, xzr
    1930: a91413e3     	stp	x3, x4, [sp, #0x140]
    1934: a9151be5     	stp	x5, x6, [sp, #0x150]
    1938: a94e13e3     	ldp	x3, x4, [sp, #0xe0]
    193c: a94623e7     	ldp	x7, x8, [sp, #0x60]
    1940: 9b077c6c     	mul	x12, x3, x7
    1944: 9bc77c6d     	umulh	x13, x3, x7
    1948: 9b087c6b     	mul	x11, x3, x8
    194c: 9bc87c6e     	umulh	x14, x3, x8
    1950: ab0b01ad     	adds	x13, x13, x11
    1954: a9472be9     	ldp	x9, x10, [sp, #0x70]
    1958: 9b097c6b     	mul	x11, x3, x9
    195c: 9bc97c6f     	umulh	x15, x3, x9
    1960: ba0b01ce     	adcs	x14, x14, x11
    1964: 9b0a7c6b     	mul	x11, x3, x10
    1968: 9bca7c70     	umulh	x16, x3, x10
    196c: ba0b01ef     	adcs	x15, x15, x11
    1970: 9a1f0210     	adc	x16, x16, xzr
    1974: a94f1be5     	ldp	x5, x6, [sp, #0xf0]
    1978: 9b077c8b     	mul	x11, x4, x7
    197c: ab0b01ad     	adds	x13, x13, x11
    1980: 9b087c8b     	mul	x11, x4, x8
    1984: ba0b01ce     	adcs	x14, x14, x11
    1988: 9b097c8b     	mul	x11, x4, x9
    198c: ba0b01ef     	adcs	x15, x15, x11
    1990: 9b0a7c8b     	mul	x11, x4, x10
    1994: ba0b0210     	adcs	x16, x16, x11
    1998: 9bca7c83     	umulh	x3, x4, x10
    199c: 9a1f0063     	adc	x3, x3, xzr
    19a0: 9bc77c8b     	umulh	x11, x4, x7
    19a4: ab0b01ce     	adds	x14, x14, x11
    19a8: 9bc87c8b     	umulh	x11, x4, x8
    19ac: ba0b01ef     	adcs	x15, x15, x11
    19b0: 9bc97c8b     	umulh	x11, x4, x9
    19b4: ba0b0210     	adcs	x16, x16, x11
    19b8: 9a1f0063     	adc	x3, x3, xzr
    19bc: 9b077cab     	mul	x11, x5, x7
    19c0: ab0b01ce     	adds	x14, x14, x11
    19c4: 9b087cab     	mul	x11, x5, x8
    19c8: ba0b01ef     	adcs	x15, x15, x11
    19cc: 9b097cab     	mul	x11, x5, x9
    19d0: ba0b0210     	adcs	x16, x16, x11
    19d4: 9b0a7cab     	mul	x11, x5, x10
    19d8: ba0b0063     	adcs	x3, x3, x11
    19dc: 9bca7ca4     	umulh	x4, x5, x10
    19e0: 9a1f0084     	adc	x4, x4, xzr
    19e4: 9bc77cab     	umulh	x11, x5, x7
    19e8: ab0b01ef     	adds	x15, x15, x11
    19ec: 9bc87cab     	umulh	x11, x5, x8
    19f0: ba0b0210     	adcs	x16, x16, x11
    19f4: 9bc97cab     	umulh	x11, x5, x9
    19f8: ba0b0063     	adcs	x3, x3, x11
    19fc: 9a1f0084     	adc	x4, x4, xzr
    1a00: 9b077ccb     	mul	x11, x6, x7
    1a04: ab0b01ef     	adds	x15, x15, x11
    1a08: 9b087ccb     	mul	x11, x6, x8
    1a0c: ba0b0210     	adcs	x16, x16, x11
    1a10: 9b097ccb     	mul	x11, x6, x9
    1a14: ba0b0063     	adcs	x3, x3, x11
    1a18: 9b0a7ccb     	mul	x11, x6, x10
    1a1c: ba0b0084     	adcs	x4, x4, x11
    1a20: 9bca7cc5     	umulh	x5, x6, x10
    1a24: 9a1f00a5     	adc	x5, x5, xzr
    1a28: 9bc77ccb     	umulh	x11, x6, x7
    1a2c: ab0b0210     	adds	x16, x16, x11
    1a30: 9bc87ccb     	umulh	x11, x6, x8
    1a34: ba0b0063     	adcs	x3, x3, x11
    1a38: 9bc97ccb     	umulh	x11, x6, x9
    1a3c: ba0b0084     	adcs	x4, x4, x11
    1a40: 9a1f00a5     	adc	x5, x5, xzr
    1a44: d28004c7     	mov	x7, #0x26               // =38
    1a48: 9b107ceb     	mul	x11, x7, x16
    1a4c: 9bd07ce9     	umulh	x9, x7, x16
    1a50: ab0b018c     	adds	x12, x12, x11
    1a54: 9b037ceb     	mul	x11, x7, x3
    1a58: 9bc37ce3     	umulh	x3, x7, x3
    1a5c: ba0b01ad     	adcs	x13, x13, x11
    1a60: 9b047ceb     	mul	x11, x7, x4
    1a64: 9bc47ce4     	umulh	x4, x7, x4
    1a68: ba0b01ce     	adcs	x14, x14, x11
    1a6c: 9b057ceb     	mul	x11, x7, x5
    1a70: 9bc57ce5     	umulh	x5, x7, x5
    1a74: ba0b01ef     	adcs	x15, x15, x11
    1a78: 9a9f37f0     	cset	x16, hs
    1a7c: ab0401ef     	adds	x15, x15, x4
    1a80: 9a050210     	adc	x16, x16, x5
    1a84: ab0f01ff     	cmn	x15, x15
    1a88: 9240f9ef     	and	x15, x15, #0x7fffffffffffffff
    1a8c: 9a100208     	adc	x8, x16, x16
    1a90: d2800267     	mov	x7, #0x13               // =19
    1a94: 9b087ceb     	mul	x11, x7, x8
    1a98: ab0b018c     	adds	x12, x12, x11
    1a9c: ba0901ad     	adcs	x13, x13, x9
    1aa0: ba0301ce     	adcs	x14, x14, x3
    1aa4: 9a1f01ef     	adc	x15, x15, xzr
    1aa8: a91637ec     	stp	x12, x13, [sp, #0x160]
    1aac: a9173fee     	stp	x14, x15, [sp, #0x170]
    1ab0: a95213e3     	ldp	x3, x4, [sp, #0x120]
    1ab4: a94223e7     	ldp	x7, x8, [sp, #0x20]
    1ab8: 9b077c6c     	mul	x12, x3, x7
    1abc: 9bc77c6d     	umulh	x13, x3, x7
    1ac0: 9b087c6b     	mul	x11, x3, x8
    1ac4: 9bc87c6e     	umulh	x14, x3, x8
    1ac8: ab0b01ad     	adds	x13, x13, x11
    1acc: a9432be9     	ldp	x9, x10, [sp, #0x30]
    1ad0: 9b097c6b     	mul	x11, x3, x9
    1ad4: 9bc97c6f     	umulh	x15, x3, x9
    1ad8: ba0b01ce     	adcs	x14, x14, x11
    1adc: 9b0a7c6b     	mul	x11, x3, x10
    1ae0: 9bca7c70     	umulh	x16, x3, x10
    1ae4: ba0b01ef     	adcs	x15, x15, x11
    1ae8: 9a1f0210     	adc	x16, x16, xzr
    1aec: a9531be5     	ldp	x5, x6, [sp, #0x130]
    1af0: 9b077c8b     	mul	x11, x4, x7
    1af4: ab0b01ad     	adds	x13, x13, x11
    1af8: 9b087c8b     	mul	x11, x4, x8
    1afc: ba0b01ce     	adcs	x14, x14, x11
    1b00: 9b097c8b     	mul	x11, x4, x9
    1b04: ba0b01ef     	adcs	x15, x15, x11
    1b08: 9b0a7c8b     	mul	x11, x4, x10
    1b0c: ba0b0210     	adcs	x16, x16, x11
    1b10: 9bca7c83     	umulh	x3, x4, x10
    1b14: 9a1f0063     	adc	x3, x3, xzr
    1b18: 9bc77c8b     	umulh	x11, x4, x7
    1b1c: ab0b01ce     	adds	x14, x14, x11
    1b20: 9bc87c8b     	umulh	x11, x4, x8
    1b24: ba0b01ef     	adcs	x15, x15, x11
    1b28: 9bc97c8b     	umulh	x11, x4, x9
    1b2c: ba0b0210     	adcs	x16, x16, x11
    1b30: 9a1f0063     	adc	x3, x3, xzr
    1b34: 9b077cab     	mul	x11, x5, x7
    1b38: ab0b01ce     	adds	x14, x14, x11
    1b3c: 9b087cab     	mul	x11, x5, x8
    1b40: ba0b01ef     	adcs	x15, x15, x11
    1b44: 9b097cab     	mul	x11, x5, x9
    1b48: ba0b0210     	adcs	x16, x16, x11
    1b4c: 9b0a7cab     	mul	x11, x5, x10
    1b50: ba0b0063     	adcs	x3, x3, x11
    1b54: 9bca7ca4     	umulh	x4, x5, x10
    1b58: 9a1f0084     	adc	x4, x4, xzr
    1b5c: 9bc77cab     	umulh	x11, x5, x7
    1b60: ab0b01ef     	adds	x15, x15, x11
    1b64: 9bc87cab     	umulh	x11, x5, x8
    1b68: ba0b0210     	adcs	x16, x16, x11
    1b6c: 9bc97cab     	umulh	x11, x5, x9
    1b70: ba0b0063     	adcs	x3, x3, x11
    1b74: 9a1f0084     	adc	x4, x4, xzr
    1b78: 9b077ccb     	mul	x11, x6, x7
    1b7c: ab0b01ef     	adds	x15, x15, x11
    1b80: 9b087ccb     	mul	x11, x6, x8
    1b84: ba0b0210     	adcs	x16, x16, x11
    1b88: 9b097ccb     	mul	x11, x6, x9
    1b8c: ba0b0063     	adcs	x3, x3, x11
    1b90: 9b0a7ccb     	mul	x11, x6, x10
    1b94: ba0b0084     	adcs	x4, x4, x11
    1b98: 9bca7cc5     	umulh	x5, x6, x10
    1b9c: 9a1f00a5     	adc	x5, x5, xzr
    1ba0: 9bc77ccb     	umulh	x11, x6, x7
    1ba4: ab0b0210     	adds	x16, x16, x11
    1ba8: 9bc87ccb     	umulh	x11, x6, x8
    1bac: ba0b0063     	adcs	x3, x3, x11
    1bb0: 9bc97ccb     	umulh	x11, x6, x9
    1bb4: ba0b0084     	adcs	x4, x4, x11
    1bb8: 9a1f00a5     	adc	x5, x5, xzr
    1bbc: d28004c7     	mov	x7, #0x26               // =38
    1bc0: 9b107ceb     	mul	x11, x7, x16
    1bc4: 9bd07ce9     	umulh	x9, x7, x16
    1bc8: ab0b018c     	adds	x12, x12, x11
    1bcc: 9b037ceb     	mul	x11, x7, x3
    1bd0: 9bc37ce3     	umulh	x3, x7, x3
    1bd4: ba0b01ad     	adcs	x13, x13, x11
    1bd8: 9b047ceb     	mul	x11, x7, x4
    1bdc: 9bc47ce4     	umulh	x4, x7, x4
    1be0: ba0b01ce     	adcs	x14, x14, x11
    1be4: 9b057ceb     	mul	x11, x7, x5
    1be8: 9bc57ce5     	umulh	x5, x7, x5
    1bec: ba0b01ef     	adcs	x15, x15, x11
    1bf0: 9a9f37f0     	cset	x16, hs
    1bf4: ab0401ef     	adds	x15, x15, x4
    1bf8: 9a050210     	adc	x16, x16, x5
    1bfc: ab0f01ff     	cmn	x15, x15
    1c00: 9240f9ef     	and	x15, x15, #0x7fffffffffffffff
    1c04: 9a100208     	adc	x8, x16, x16
    1c08: d2800267     	mov	x7, #0x13               // =19
    1c0c: 9b087ceb     	mul	x11, x7, x8
    1c10: ab0b018c     	adds	x12, x12, x11
    1c14: ba0901ad     	adcs	x13, x13, x9
    1c18: ba0301ce     	adcs	x14, x14, x3
    1c1c: 9a1f01ef     	adc	x15, x15, xzr
    1c20: a91237ec     	stp	x12, x13, [sp, #0x120]
    1c24: a9133fee     	stp	x14, x15, [sp, #0x130]
    1c28: a95413e3     	ldp	x3, x4, [sp, #0x140]
    1c2c: a94423e7     	ldp	x7, x8, [sp, #0x40]
    1c30: 9b077c6c     	mul	x12, x3, x7
    1c34: 9bc77c6d     	umulh	x13, x3, x7
    1c38: 9b087c6b     	mul	x11, x3, x8
    1c3c: 9bc87c6e     	umulh	x14, x3, x8
    1c40: ab0b01ad     	adds	x13, x13, x11
    1c44: a9452be9     	ldp	x9, x10, [sp, #0x50]
    1c48: 9b097c6b     	mul	x11, x3, x9
    1c4c: 9bc97c6f     	umulh	x15, x3, x9
    1c50: ba0b01ce     	adcs	x14, x14, x11
    1c54: 9b0a7c6b     	mul	x11, x3, x10
    1c58: 9bca7c70     	umulh	x16, x3, x10
    1c5c: ba0b01ef     	adcs	x15, x15, x11
    1c60: 9a1f0210     	adc	x16, x16, xzr
    1c64: a9551be5     	ldp	x5, x6, [sp, #0x150]
    1c68: 9b077c8b     	mul	x11, x4, x7
    1c6c: ab0b01ad     	adds	x13, x13, x11
    1c70: 9b087c8b     	mul	x11, x4, x8
    1c74: ba0b01ce     	adcs	x14, x14, x11
    1c78: 9b097c8b     	mul	x11, x4, x9
    1c7c: ba0b01ef     	adcs	x15, x15, x11
    1c80: 9b0a7c8b     	mul	x11, x4, x10
    1c84: ba0b0210     	adcs	x16, x16, x11
    1c88: 9bca7c83     	umulh	x3, x4, x10
    1c8c: 9a1f0063     	adc	x3, x3, xzr
    1c90: 9bc77c8b     	umulh	x11, x4, x7
    1c94: ab0b01ce     	adds	x14, x14, x11
    1c98: 9bc87c8b     	umulh	x11, x4, x8
    1c9c: ba0b01ef     	adcs	x15, x15, x11
    1ca0: 9bc97c8b     	umulh	x11, x4, x9
    1ca4: ba0b0210     	adcs	x16, x16, x11
    1ca8: 9a1f0063     	adc	x3, x3, xzr
    1cac: 9b077cab     	mul	x11, x5, x7
    1cb0: ab0b01ce     	adds	x14, x14, x11
    1cb4: 9b087cab     	mul	x11, x5, x8
    1cb8: ba0b01ef     	adcs	x15, x15, x11
    1cbc: 9b097cab     	mul	x11, x5, x9
    1cc0: ba0b0210     	adcs	x16, x16, x11
    1cc4: 9b0a7cab     	mul	x11, x5, x10
    1cc8: ba0b0063     	adcs	x3, x3, x11
    1ccc: 9bca7ca4     	umulh	x4, x5, x10
    1cd0: 9a1f0084     	adc	x4, x4, xzr
    1cd4: 9bc77cab     	umulh	x11, x5, x7
    1cd8: ab0b01ef     	adds	x15, x15, x11
    1cdc: 9bc87cab     	umulh	x11, x5, x8
    1ce0: ba0b0210     	adcs	x16, x16, x11
    1ce4: 9bc97cab     	umulh	x11, x5, x9
    1ce8: ba0b0063     	adcs	x3, x3, x11
    1cec: 9a1f0084     	adc	x4, x4, xzr
    1cf0: 9b077ccb     	mul	x11, x6, x7
    1cf4: ab0b01ef     	adds	x15, x15, x11
    1cf8: 9b087ccb     	mul	x11, x6, x8
    1cfc: ba0b0210     	adcs	x16, x16, x11
    1d00: 9b097ccb     	mul	x11, x6, x9
    1d04: ba0b0063     	adcs	x3, x3, x11
    1d08: 9b0a7ccb     	mul	x11, x6, x10
    1d0c: ba0b0084     	adcs	x4, x4, x11
    1d10: 9bca7cc5     	umulh	x5, x6, x10
    1d14: 9a1f00a5     	adc	x5, x5, xzr
    1d18: 9bc77ccb     	umulh	x11, x6, x7
    1d1c: ab0b0210     	adds	x16, x16, x11
    1d20: 9bc87ccb     	umulh	x11, x6, x8
    1d24: ba0b0063     	adcs	x3, x3, x11
    1d28: 9bc97ccb     	umulh	x11, x6, x9
    1d2c: ba0b0084     	adcs	x4, x4, x11
    1d30: 9a1f00a5     	adc	x5, x5, xzr
    1d34: d28004c7     	mov	x7, #0x26               // =38
    1d38: 9b107ceb     	mul	x11, x7, x16
    1d3c: 9bd07ce9     	umulh	x9, x7, x16
    1d40: ab0b018c     	adds	x12, x12, x11
    1d44: 9b037ceb     	mul	x11, x7, x3
    1d48: 9bc37ce3     	umulh	x3, x7, x3
    1d4c: ba0b01ad     	adcs	x13, x13, x11
    1d50: 9b047ceb     	mul	x11, x7, x4
    1d54: 9bc47ce4     	umulh	x4, x7, x4
    1d58: ba0b01ce     	adcs	x14, x14, x11
    1d5c: 9b057ceb     	mul	x11, x7, x5
    1d60: 9bc57ce5     	umulh	x5, x7, x5
    1d64: ba0b01ef     	adcs	x15, x15, x11
    1d68: 9a9f37f0     	cset	x16, hs
    1d6c: ab0401ef     	adds	x15, x15, x4
    1d70: 9a050210     	adc	x16, x16, x5
    1d74: ab0f01ff     	cmn	x15, x15
    1d78: 9240f9ef     	and	x15, x15, #0x7fffffffffffffff
    1d7c: 9a100208     	adc	x8, x16, x16
    1d80: d2800267     	mov	x7, #0x13               // =19
    1d84: 9b087ceb     	mul	x11, x7, x8
    1d88: ab0b018c     	adds	x12, x12, x11
    1d8c: ba0901ad     	adcs	x13, x13, x9
    1d90: ba0301ce     	adcs	x14, x14, x3
    1d94: 9a1f01ef     	adc	x15, x15, xzr
    1d98: a91437ec     	stp	x12, x13, [sp, #0x140]
    1d9c: a9153fee     	stp	x14, x15, [sp, #0x150]
    1da0: a9501be5     	ldp	x5, x6, [sp, #0x100]
    1da4: a9560fe4     	ldp	x4, x3, [sp, #0x160]
    1da8: eb0400a5     	subs	x5, x5, x4
    1dac: fa0300c6     	sbcs	x6, x6, x3
    1db0: a95123e7     	ldp	x7, x8, [sp, #0x110]
    1db4: a9570fe4     	ldp	x4, x3, [sp, #0x170]
    1db8: fa0400e7     	sbcs	x7, x7, x4
    1dbc: fa030108     	sbcs	x8, x8, x3
    1dc0: d28004c4     	mov	x4, #0x26               // =38
    1dc4: 9a9f3083     	csel	x3, x4, xzr, lo
    1dc8: eb0300a5     	subs	x5, x5, x3
    1dcc: fa1f00c6     	sbcs	x6, x6, xzr
    1dd0: fa1f00e7     	sbcs	x7, x7, xzr
    1dd4: da1f0108     	sbc	x8, x8, xzr
    1dd8: a9181be5     	stp	x5, x6, [sp, #0x180]
    1ddc: a91923e7     	stp	x7, x8, [sp, #0x190]
    1de0: a95013e3     	ldp	x3, x4, [sp, #0x100]
    1de4: a95623e7     	ldp	x7, x8, [sp, #0x160]
    1de8: ab070063     	adds	x3, x3, x7
    1dec: ba080084     	adcs	x4, x4, x8
    1df0: a9511be5     	ldp	x5, x6, [sp, #0x110]
    1df4: a95723e7     	ldp	x7, x8, [sp, #0x170]
    1df8: ba0700a5     	adcs	x5, x5, x7
    1dfc: ba0800c6     	adcs	x6, x6, x8
    1e00: d28004c9     	mov	x9, #0x26               // =38
    1e04: 9a9f2129     	csel	x9, x9, xzr, hs
    1e08: ab090063     	adds	x3, x3, x9
    1e0c: ba1f0084     	adcs	x4, x4, xzr
    1e10: ba1f00a5     	adcs	x5, x5, xzr
    1e14: 9a1f00c6     	adc	x6, x6, xzr
    1e18: a91013e3     	stp	x3, x4, [sp, #0x100]
    1e1c: a9111be5     	stp	x5, x6, [sp, #0x110]
    1e20: a9541be5     	ldp	x5, x6, [sp, #0x140]
    1e24: a9520fe4     	ldp	x4, x3, [sp, #0x120]
    1e28: eb0400a5     	subs	x5, x5, x4
    1e2c: fa0300c6     	sbcs	x6, x6, x3
    1e30: a95523e7     	ldp	x7, x8, [sp, #0x150]
    1e34: a9530fe4     	ldp	x4, x3, [sp, #0x130]
    1e38: fa0400e7     	sbcs	x7, x7, x4
    1e3c: fa030108     	sbcs	x8, x8, x3
    1e40: d28004c4     	mov	x4, #0x26               // =38
    1e44: 9a9f3083     	csel	x3, x4, xzr, lo
    1e48: eb0300a5     	subs	x5, x5, x3
    1e4c: fa1f00c6     	sbcs	x6, x6, xzr
    1e50: fa1f00e7     	sbcs	x7, x7, xzr
    1e54: da1f0108     	sbc	x8, x8, xzr
    1e58: a91a1be5     	stp	x5, x6, [sp, #0x1a0]
    1e5c: a91b23e7     	stp	x7, x8, [sp, #0x1b0]
    1e60: a95413e3     	ldp	x3, x4, [sp, #0x140]
    1e64: a95223e7     	ldp	x7, x8, [sp, #0x120]
    1e68: ab070063     	adds	x3, x3, x7
    1e6c: ba080084     	adcs	x4, x4, x8
    1e70: a9551be5     	ldp	x5, x6, [sp, #0x150]
    1e74: a95323e7     	ldp	x7, x8, [sp, #0x130]
    1e78: ba0700a5     	adcs	x5, x5, x7
    1e7c: ba0800c6     	adcs	x6, x6, x8
    1e80: d28004c9     	mov	x9, #0x26               // =38
    1e84: 9a9f2129     	csel	x9, x9, xzr, hs
    1e88: ab090063     	adds	x3, x3, x9
    1e8c: ba1f0084     	adcs	x4, x4, xzr
    1e90: ba1f00a5     	adcs	x5, x5, xzr
    1e94: 9a1f00c6     	adc	x6, x6, xzr
    1e98: a91213e3     	stp	x3, x4, [sp, #0x120]
    1e9c: a9131be5     	stp	x5, x6, [sp, #0x130]
    1ea0: a95813e3     	ldp	x3, x4, [sp, #0x180]
    1ea4: a95023e7     	ldp	x7, x8, [sp, #0x100]
    1ea8: 9b077c6c     	mul	x12, x3, x7
    1eac: 9bc77c6d     	umulh	x13, x3, x7
    1eb0: 9b087c6b     	mul	x11, x3, x8
    1eb4: 9bc87c6e     	umulh	x14, x3, x8
    1eb8: ab0b01ad     	adds	x13, x13, x11
    1ebc: a9512be9     	ldp	x9, x10, [sp, #0x110]
    1ec0: 9b097c6b     	mul	x11, x3, x9
    1ec4: 9bc97c6f     	umulh	x15, x3, x9
    1ec8: ba0b01ce     	adcs	x14, x14, x11
    1ecc: 9b0a7c6b     	mul	x11, x3, x10
    1ed0: 9bca7c70     	umulh	x16, x3, x10
    1ed4: ba0b01ef     	adcs	x15, x15, x11
    1ed8: 9a1f0210     	adc	x16, x16, xzr
    1edc: a9591be5     	ldp	x5, x6, [sp, #0x190]
    1ee0: 9b077c8b     	mul	x11, x4, x7
    1ee4: ab0b01ad     	adds	x13, x13, x11
    1ee8: 9b087c8b     	mul	x11, x4, x8
    1eec: ba0b01ce     	adcs	x14, x14, x11
    1ef0: 9b097c8b     	mul	x11, x4, x9
    1ef4: ba0b01ef     	adcs	x15, x15, x11
    1ef8: 9b0a7c8b     	mul	x11, x4, x10
    1efc: ba0b0210     	adcs	x16, x16, x11
    1f00: 9bca7c83     	umulh	x3, x4, x10
    1f04: 9a1f0063     	adc	x3, x3, xzr
    1f08: 9bc77c8b     	umulh	x11, x4, x7
    1f0c: ab0b01ce     	adds	x14, x14, x11
    1f10: 9bc87c8b     	umulh	x11, x4, x8
    1f14: ba0b01ef     	adcs	x15, x15, x11
    1f18: 9bc97c8b     	umulh	x11, x4, x9
    1f1c: ba0b0210     	adcs	x16, x16, x11
    1f20: 9a1f0063     	adc	x3, x3, xzr
    1f24: 9b077cab     	mul	x11, x5, x7
    1f28: ab0b01ce     	adds	x14, x14, x11
    1f2c: 9b087cab     	mul	x11, x5, x8
    1f30: ba0b01ef     	adcs	x15, x15, x11
    1f34: 9b097cab     	mul	x11, x5, x9
    1f38: ba0b0210     	adcs	x16, x16, x11
    1f3c: 9b0a7cab     	mul	x11, x5, x10
    1f40: ba0b0063     	adcs	x3, x3, x11
    1f44: 9bca7ca4     	umulh	x4, x5, x10
    1f48: 9a1f0084     	adc	x4, x4, xzr
    1f4c: 9bc77cab     	umulh	x11, x5, x7
    1f50: ab0b01ef     	adds	x15, x15, x11
    1f54: 9bc87cab     	umulh	x11, x5, x8
    1f58: ba0b0210     	adcs	x16, x16, x11
    1f5c: 9bc97cab     	umulh	x11, x5, x9
    1f60: ba0b0063     	adcs	x3, x3, x11
    1f64: 9a1f0084     	adc	x4, x4, xzr
    1f68: 9b077ccb     	mul	x11, x6, x7
    1f6c: ab0b01ef     	adds	x15, x15, x11
    1f70: 9b087ccb     	mul	x11, x6, x8
    1f74: ba0b0210     	adcs	x16, x16, x11
    1f78: 9b097ccb     	mul	x11, x6, x9
    1f7c: ba0b0063     	adcs	x3, x3, x11
    1f80: 9b0a7ccb     	mul	x11, x6, x10
    1f84: ba0b0084     	adcs	x4, x4, x11
    1f88: 9bca7cc5     	umulh	x5, x6, x10
    1f8c: 9a1f00a5     	adc	x5, x5, xzr
    1f90: 9bc77ccb     	umulh	x11, x6, x7
    1f94: ab0b0210     	adds	x16, x16, x11
    1f98: 9bc87ccb     	umulh	x11, x6, x8
    1f9c: ba0b0063     	adcs	x3, x3, x11
    1fa0: 9bc97ccb     	umulh	x11, x6, x9
    1fa4: ba0b0084     	adcs	x4, x4, x11
    1fa8: 9a1f00a5     	adc	x5, x5, xzr
    1fac: d28004c7     	mov	x7, #0x26               // =38
    1fb0: 9b107ceb     	mul	x11, x7, x16
    1fb4: 9bd07ce9     	umulh	x9, x7, x16
    1fb8: ab0b018c     	adds	x12, x12, x11
    1fbc: 9b037ceb     	mul	x11, x7, x3
    1fc0: 9bc37ce3     	umulh	x3, x7, x3
    1fc4: ba0b01ad     	adcs	x13, x13, x11
    1fc8: 9b047ceb     	mul	x11, x7, x4
    1fcc: 9bc47ce4     	umulh	x4, x7, x4
    1fd0: ba0b01ce     	adcs	x14, x14, x11
    1fd4: 9b057ceb     	mul	x11, x7, x5
    1fd8: 9bc57ce5     	umulh	x5, x7, x5
    1fdc: ba0b01ef     	adcs	x15, x15, x11
    1fe0: 9a9f37f0     	cset	x16, hs
    1fe4: ab0401ef     	adds	x15, x15, x4
    1fe8: 9a050210     	adc	x16, x16, x5
    1fec: ab0f01ff     	cmn	x15, x15
    1ff0: 9240f9ef     	and	x15, x15, #0x7fffffffffffffff
    1ff4: 9a100208     	adc	x8, x16, x16
    1ff8: d2800267     	mov	x7, #0x13               // =19
    1ffc: 9b087ceb     	mul	x11, x7, x8
    2000: ab0b018c     	adds	x12, x12, x11
    2004: ba0901ad     	adcs	x13, x13, x9
    2008: ba0301ce     	adcs	x14, x14, x3
    200c: 9a1f01ef     	adc	x15, x15, xzr
    2010: a90c37ec     	stp	x12, x13, [sp, #0xc0]
    2014: a90d3fee     	stp	x14, x15, [sp, #0xd0]
    2018: a95a13e3     	ldp	x3, x4, [sp, #0x1a0]
    201c: a95823e7     	ldp	x7, x8, [sp, #0x180]
    2020: 9b077c6c     	mul	x12, x3, x7
    2024: 9bc77c6d     	umulh	x13, x3, x7
    2028: 9b087c6b     	mul	x11, x3, x8
    202c: 9bc87c6e     	umulh	x14, x3, x8
    2030: ab0b01ad     	adds	x13, x13, x11
    2034: a9592be9     	ldp	x9, x10, [sp, #0x190]
    2038: 9b097c6b     	mul	x11, x3, x9
    203c: 9bc97c6f     	umulh	x15, x3, x9
    2040: ba0b01ce     	adcs	x14, x14, x11
    2044: 9b0a7c6b     	mul	x11, x3, x10
    2048: 9bca7c70     	umulh	x16, x3, x10
    204c: ba0b01ef     	adcs	x15, x15, x11
    2050: 9a1f0210     	adc	x16, x16, xzr
    2054: a95b1be5     	ldp	x5, x6, [sp, #0x1b0]
    2058: 9b077c8b     	mul	x11, x4, x7
    205c: ab0b01ad     	adds	x13, x13, x11
    2060: 9b087c8b     	mul	x11, x4, x8
    2064: ba0b01ce     	adcs	x14, x14, x11
    2068: 9b097c8b     	mul	x11, x4, x9
    206c: ba0b01ef     	adcs	x15, x15, x11
    2070: 9b0a7c8b     	mul	x11, x4, x10
    2074: ba0b0210     	adcs	x16, x16, x11
    2078: 9bca7c83     	umulh	x3, x4, x10
    207c: 9a1f0063     	adc	x3, x3, xzr
    2080: 9bc77c8b     	umulh	x11, x4, x7
    2084: ab0b01ce     	adds	x14, x14, x11
    2088: 9bc87c8b     	umulh	x11, x4, x8
    208c: ba0b01ef     	adcs	x15, x15, x11
    2090: 9bc97c8b     	umulh	x11, x4, x9
    2094: ba0b0210     	adcs	x16, x16, x11
    2098: 9a1f0063     	adc	x3, x3, xzr
    209c: 9b077cab     	mul	x11, x5, x7
    20a0: ab0b01ce     	adds	x14, x14, x11
    20a4: 9b087cab     	mul	x11, x5, x8
    20a8: ba0b01ef     	adcs	x15, x15, x11
    20ac: 9b097cab     	mul	x11, x5, x9
    20b0: ba0b0210     	adcs	x16, x16, x11
    20b4: 9b0a7cab     	mul	x11, x5, x10
    20b8: ba0b0063     	adcs	x3, x3, x11
    20bc: 9bca7ca4     	umulh	x4, x5, x10
    20c0: 9a1f0084     	adc	x4, x4, xzr
    20c4: 9bc77cab     	umulh	x11, x5, x7
    20c8: ab0b01ef     	adds	x15, x15, x11
    20cc: 9bc87cab     	umulh	x11, x5, x8
    20d0: ba0b0210     	adcs	x16, x16, x11
    20d4: 9bc97cab     	umulh	x11, x5, x9
    20d8: ba0b0063     	adcs	x3, x3, x11
    20dc: 9a1f0084     	adc	x4, x4, xzr
    20e0: 9b077ccb     	mul	x11, x6, x7
    20e4: ab0b01ef     	adds	x15, x15, x11
    20e8: 9b087ccb     	mul	x11, x6, x8
    20ec: ba0b0210     	adcs	x16, x16, x11
    20f0: 9b097ccb     	mul	x11, x6, x9
    20f4: ba0b0063     	adcs	x3, x3, x11
    20f8: 9b0a7ccb     	mul	x11, x6, x10
    20fc: ba0b0084     	adcs	x4, x4, x11
    2100: 9bca7cc5     	umulh	x5, x6, x10
    2104: 9a1f00a5     	adc	x5, x5, xzr
    2108: 9bc77ccb     	umulh	x11, x6, x7
    210c: ab0b0210     	adds	x16, x16, x11
    2110: 9bc87ccb     	umulh	x11, x6, x8
    2114: ba0b0063     	adcs	x3, x3, x11
    2118: 9bc97ccb     	umulh	x11, x6, x9
    211c: ba0b0084     	adcs	x4, x4, x11
    2120: 9a1f00a5     	adc	x5, x5, xzr
    2124: d28004c7     	mov	x7, #0x26               // =38
    2128: 9b107ceb     	mul	x11, x7, x16
    212c: 9bd07ce9     	umulh	x9, x7, x16
    2130: ab0b018c     	adds	x12, x12, x11
    2134: 9b037ceb     	mul	x11, x7, x3
    2138: 9bc37ce3     	umulh	x3, x7, x3
    213c: ba0b01ad     	adcs	x13, x13, x11
    2140: 9b047ceb     	mul	x11, x7, x4
    2144: 9bc47ce4     	umulh	x4, x7, x4
    2148: ba0b01ce     	adcs	x14, x14, x11
    214c: 9b057ceb     	mul	x11, x7, x5
    2150: 9bc57ce5     	umulh	x5, x7, x5
    2154: ba0b01ef     	adcs	x15, x15, x11
    2158: 9a9f37f0     	cset	x16, hs
    215c: ab0401ef     	adds	x15, x15, x4
    2160: 9a050210     	adc	x16, x16, x5
    2164: ab0f01ff     	cmn	x15, x15
    2168: 9240f9ef     	and	x15, x15, #0x7fffffffffffffff
    216c: 9a100208     	adc	x8, x16, x16
    2170: d2800267     	mov	x7, #0x13               // =19
    2174: 9b087ceb     	mul	x11, x7, x8
    2178: ab0b018c     	adds	x12, x12, x11
    217c: ba0901ad     	adcs	x13, x13, x9
    2180: ba0301ce     	adcs	x14, x14, x3
    2184: 9a1f01ef     	adc	x15, x15, xzr
    2188: a90837ec     	stp	x12, x13, [sp, #0x80]
    218c: a9093fee     	stp	x14, x15, [sp, #0x90]
    2190: a95013e3     	ldp	x3, x4, [sp, #0x100]
    2194: a95223e7     	ldp	x7, x8, [sp, #0x120]
    2198: 9b077c6c     	mul	x12, x3, x7
    219c: 9bc77c6d     	umulh	x13, x3, x7
    21a0: 9b087c6b     	mul	x11, x3, x8
    21a4: 9bc87c6e     	umulh	x14, x3, x8
    21a8: ab0b01ad     	adds	x13, x13, x11
    21ac: a9532be9     	ldp	x9, x10, [sp, #0x130]
    21b0: 9b097c6b     	mul	x11, x3, x9
    21b4: 9bc97c6f     	umulh	x15, x3, x9
    21b8: ba0b01ce     	adcs	x14, x14, x11
    21bc: 9b0a7c6b     	mul	x11, x3, x10
    21c0: 9bca7c70     	umulh	x16, x3, x10
    21c4: ba0b01ef     	adcs	x15, x15, x11
    21c8: 9a1f0210     	adc	x16, x16, xzr
    21cc: a9511be5     	ldp	x5, x6, [sp, #0x110]
    21d0: 9b077c8b     	mul	x11, x4, x7
    21d4: ab0b01ad     	adds	x13, x13, x11
    21d8: 9b087c8b     	mul	x11, x4, x8
    21dc: ba0b01ce     	adcs	x14, x14, x11
    21e0: 9b097c8b     	mul	x11, x4, x9
    21e4: ba0b01ef     	adcs	x15, x15, x11
    21e8: 9b0a7c8b     	mul	x11, x4, x10
    21ec: ba0b0210     	adcs	x16, x16, x11
    21f0: 9bca7c83     	umulh	x3, x4, x10
    21f4: 9a1f0063     	adc	x3, x3, xzr
    21f8: 9bc77c8b     	umulh	x11, x4, x7
    21fc: ab0b01ce     	adds	x14, x14, x11
    2200: 9bc87c8b     	umulh	x11, x4, x8
    2204: ba0b01ef     	adcs	x15, x15, x11
    2208: 9bc97c8b     	umulh	x11, x4, x9
    220c: ba0b0210     	adcs	x16, x16, x11
    2210: 9a1f0063     	adc	x3, x3, xzr
    2214: 9b077cab     	mul	x11, x5, x7
    2218: ab0b01ce     	adds	x14, x14, x11
    221c: 9b087cab     	mul	x11, x5, x8
    2220: ba0b01ef     	adcs	x15, x15, x11
    2224: 9b097cab     	mul	x11, x5, x9
    2228: ba0b0210     	adcs	x16, x16, x11
    222c: 9b0a7cab     	mul	x11, x5, x10
    2230: ba0b0063     	adcs	x3, x3, x11
    2234: 9bca7ca4     	umulh	x4, x5, x10
    2238: 9a1f0084     	adc	x4, x4, xzr
    223c: 9bc77cab     	umulh	x11, x5, x7
    2240: ab0b01ef     	adds	x15, x15, x11
    2244: 9bc87cab     	umulh	x11, x5, x8
    2248: ba0b0210     	adcs	x16, x16, x11
    224c: 9bc97cab     	umulh	x11, x5, x9
    2250: ba0b0063     	adcs	x3, x3, x11
    2254: 9a1f0084     	adc	x4, x4, xzr
    2258: 9b077ccb     	mul	x11, x6, x7
    225c: ab0b01ef     	adds	x15, x15, x11
    2260: 9b087ccb     	mul	x11, x6, x8
    2264: ba0b0210     	adcs	x16, x16, x11
    2268: 9b097ccb     	mul	x11, x6, x9
    226c: ba0b0063     	adcs	x3, x3, x11
    2270: 9b0a7ccb     	mul	x11, x6, x10
    2274: ba0b0084     	adcs	x4, x4, x11
    2278: 9bca7cc5     	umulh	x5, x6, x10
    227c: 9a1f00a5     	adc	x5, x5, xzr
    2280: 9bc77ccb     	umulh	x11, x6, x7
    2284: ab0b0210     	adds	x16, x16, x11
    2288: 9bc87ccb     	umulh	x11, x6, x8
    228c: ba0b0063     	adcs	x3, x3, x11
    2290: 9bc97ccb     	umulh	x11, x6, x9
    2294: ba0b0084     	adcs	x4, x4, x11
    2298: 9a1f00a5     	adc	x5, x5, xzr
    229c: d28004c7     	mov	x7, #0x26               // =38
    22a0: 9b107ceb     	mul	x11, x7, x16
    22a4: 9bd07ce9     	umulh	x9, x7, x16
    22a8: ab0b018c     	adds	x12, x12, x11
    22ac: 9b037ceb     	mul	x11, x7, x3
    22b0: 9bc37ce3     	umulh	x3, x7, x3
    22b4: ba0b01ad     	adcs	x13, x13, x11
    22b8: 9b047ceb     	mul	x11, x7, x4
    22bc: 9bc47ce4     	umulh	x4, x7, x4
    22c0: ba0b01ce     	adcs	x14, x14, x11
    22c4: 9b057ceb     	mul	x11, x7, x5
    22c8: 9bc57ce5     	umulh	x5, x7, x5
    22cc: ba0b01ef     	adcs	x15, x15, x11
    22d0: 9a9f37f0     	cset	x16, hs
    22d4: ab0401ef     	adds	x15, x15, x4
    22d8: 9a050210     	adc	x16, x16, x5
    22dc: ab0f01ff     	cmn	x15, x15
    22e0: 9240f9ef     	and	x15, x15, #0x7fffffffffffffff
    22e4: 9a100208     	adc	x8, x16, x16
    22e8: d2800267     	mov	x7, #0x13               // =19
    22ec: 9b087ceb     	mul	x11, x7, x8
    22f0: ab0b018c     	adds	x12, x12, x11
    22f4: ba0901ad     	adcs	x13, x13, x9
    22f8: ba0301ce     	adcs	x14, x14, x3
    22fc: 9a1f01ef     	adc	x15, x15, xzr
    2300: a90a37ec     	stp	x12, x13, [sp, #0xa0]
    2304: a90b3fee     	stp	x14, x15, [sp, #0xb0]
    2308: a95a13e3     	ldp	x3, x4, [sp, #0x1a0]
    230c: a95223e7     	ldp	x7, x8, [sp, #0x120]
    2310: 9b077c6c     	mul	x12, x3, x7
    2314: 9bc77c6d     	umulh	x13, x3, x7
    2318: 9b087c6b     	mul	x11, x3, x8
    231c: 9bc87c6e     	umulh	x14, x3, x8
    2320: ab0b01ad     	adds	x13, x13, x11
    2324: a9532be9     	ldp	x9, x10, [sp, #0x130]
    2328: 9b097c6b     	mul	x11, x3, x9
    232c: 9bc97c6f     	umulh	x15, x3, x9
    2330: ba0b01ce     	adcs	x14, x14, x11
    2334: 9b0a7c6b     	mul	x11, x3, x10
    2338: 9bca7c70     	umulh	x16, x3, x10
    233c: ba0b01ef     	adcs	x15, x15, x11
    2340: 9a1f0210     	adc	x16, x16, xzr
    2344: a95b1be5     	ldp	x5, x6, [sp, #0x1b0]
    2348: 9b077c8b     	mul	x11, x4, x7
    234c: ab0b01ad     	adds	x13, x13, x11
    2350: 9b087c8b     	mul	x11, x4, x8
    2354: ba0b01ce     	adcs	x14, x14, x11
    2358: 9b097c8b     	mul	x11, x4, x9
    235c: ba0b01ef     	adcs	x15, x15, x11
    2360: 9b0a7c8b     	mul	x11, x4, x10
    2364: ba0b0210     	adcs	x16, x16, x11
    2368: 9bca7c83     	umulh	x3, x4, x10
    236c: 9a1f0063     	adc	x3, x3, xzr
    2370: 9bc77c8b     	umulh	x11, x4, x7
    2374: ab0b01ce     	adds	x14, x14, x11
    2378: 9bc87c8b     	umulh	x11, x4, x8
    237c: ba0b01ef     	adcs	x15, x15, x11
    2380: 9bc97c8b     	umulh	x11, x4, x9
    2384: ba0b0210     	adcs	x16, x16, x11
    2388: 9a1f0063     	adc	x3, x3, xzr
    238c: 9b077cab     	mul	x11, x5, x7
    2390: ab0b01ce     	adds	x14, x14, x11
    2394: 9b087cab     	mul	x11, x5, x8
    2398: ba0b01ef     	adcs	x15, x15, x11
    239c: 9b097cab     	mul	x11, x5, x9
    23a0: ba0b0210     	adcs	x16, x16, x11
    23a4: 9b0a7cab     	mul	x11, x5, x10
    23a8: ba0b0063     	adcs	x3, x3, x11
    23ac: 9bca7ca4     	umulh	x4, x5, x10
    23b0: 9a1f0084     	adc	x4, x4, xzr
    23b4: 9bc77cab     	umulh	x11, x5, x7
    23b8: ab0b01ef     	adds	x15, x15, x11
    23bc: 9bc87cab     	umulh	x11, x5, x8
    23c0: ba0b0210     	adcs	x16, x16, x11
    23c4: 9bc97cab     	umulh	x11, x5, x9
    23c8: ba0b0063     	adcs	x3, x3, x11
    23cc: 9a1f0084     	adc	x4, x4, xzr
    23d0: 9b077ccb     	mul	x11, x6, x7
    23d4: ab0b01ef     	adds	x15, x15, x11
    23d8: 9b087ccb     	mul	x11, x6, x8
    23dc: ba0b0210     	adcs	x16, x16, x11
    23e0: 9b097ccb     	mul	x11, x6, x9
    23e4: ba0b0063     	adcs	x3, x3, x11
    23e8: 9b0a7ccb     	mul	x11, x6, x10
    23ec: ba0b0084     	adcs	x4, x4, x11
    23f0: 9bca7cc5     	umulh	x5, x6, x10
    23f4: 9a1f00a5     	adc	x5, x5, xzr
    23f8: 9bc77ccb     	umulh	x11, x6, x7
    23fc: ab0b0210     	adds	x16, x16, x11
    2400: 9bc87ccb     	umulh	x11, x6, x8
    2404: ba0b0063     	adcs	x3, x3, x11
    2408: 9bc97ccb     	umulh	x11, x6, x9
    240c: ba0b0084     	adcs	x4, x4, x11
    2410: 9a1f00a5     	adc	x5, x5, xzr
    2414: d28004c7     	mov	x7, #0x26               // =38
    2418: 9b107ceb     	mul	x11, x7, x16
    241c: 9bd07ce9     	umulh	x9, x7, x16
    2420: ab0b018c     	adds	x12, x12, x11
    2424: 9b037ceb     	mul	x11, x7, x3
    2428: 9bc37ce3     	umulh	x3, x7, x3
    242c: ba0b01ad     	adcs	x13, x13, x11
    2430: 9b047ceb     	mul	x11, x7, x4
    2434: 9bc47ce4     	umulh	x4, x7, x4
    2438: ba0b01ce     	adcs	x14, x14, x11
    243c: 9b057ceb     	mul	x11, x7, x5
    2440: 9bc57ce5     	umulh	x5, x7, x5
    2444: ba0b01ef     	adcs	x15, x15, x11
    2448: 9a9f37f0     	cset	x16, hs
    244c: ab0401ef     	adds	x15, x15, x4
    2450: 9a050210     	adc	x16, x16, x5
    2454: ab0f01ff     	cmn	x15, x15
    2458: 9240f9ef     	and	x15, x15, #0x7fffffffffffffff
    245c: 9a100208     	adc	x8, x16, x16
    2460: d2800267     	mov	x7, #0x13               // =19
    2464: 9b087ceb     	mul	x11, x7, x8
    2468: ab0b018c     	adds	x12, x12, x11
    246c: ba0901ad     	adcs	x13, x13, x9
    2470: ba0301ce     	adcs	x14, x14, x3
    2474: 9a1f01ef     	adc	x15, x15, xzr
    2478: a90e37ec     	stp	x12, x13, [sp, #0xe0]
    247c: a90f3fee     	stp	x14, x15, [sp, #0xf0]
    2480: 91001294     	add	x20, x20, #0x4
    2484: f103f29f     	cmp	x20, #0xfc
    2488: 54ff8563     	b.lo	0x1534 <edwards25519_scalarmulbase_alt_scalarloop>
    248c: a94807e0     	ldp	x0, x1, [sp, #0x80]
    2490: a9490fe2     	ldp	x2, x3, [sp, #0x90]
    2494: 928004a4     	mov	x4, #-0x26              // =-38
    2498: eb000084     	subs	x4, x4, x0
    249c: 92800007     	mov	x7, #-0x1               // =-1
    24a0: fa0100e5     	sbcs	x5, x7, x1
    24a4: fa0200e6     	sbcs	x6, x7, x2
    24a8: da0300e7     	sbc	x7, x7, x3
    24ac: f9400fea     	ldr	x10, [sp, #0x18]
    24b0: f241015f     	tst	x10, #0x8000000000000000
    24b4: 9a801080     	csel	x0, x4, x0, ne
    24b8: 9a8110a1     	csel	x1, x5, x1, ne
    24bc: 9a8210c2     	csel	x2, x6, x2, ne
    24c0: 9a8310e3     	csel	x3, x7, x3, ne
    24c4: a90807e0     	stp	x0, x1, [sp, #0x80]
    24c8: a9090fe2     	stp	x2, x3, [sp, #0x90]
    24cc: 910383e0     	add	x0, sp, #0xe0
    24d0: 910303e1     	add	x1, sp, #0xc0
    24d4: aa0003f4     	mov	x20, x0
    24d8: 9280024a     	mov	x10, #-0x13             // =-19
    24dc: 9280000b     	mov	x11, #-0x1              // =-1
    24e0: a9002fea     	stp	x10, x11, [sp]
    24e4: 92f0000c     	mov	x12, #0x7fffffffffffffff // =9223372036854775807
    24e8: a90133eb     	stp	x11, x12, [sp, #0x10]
    24ec: a9400c22     	ldp	x2, x3, [x1]
    24f0: a9411424     	ldp	x4, x5, [x1, #0x10]
    24f4: d2800267     	mov	x7, #0x13               // =19
    24f8: d37ffca6     	lsr	x6, x5, #63
    24fc: 9b061ce6     	madd	x6, x7, x6, x7
    2500: ab060042     	adds	x2, x2, x6
    2504: ba1f0063     	adcs	x3, x3, xzr
    2508: ba1f0084     	adcs	x4, x4, xzr
    250c: b24100a5     	orr	x5, x5, #0x8000000000000000
    2510: ba1f00a5     	adcs	x5, x5, xzr
    2514: 9a9f30e6     	csel	x6, x7, xzr, lo
    2518: eb060042     	subs	x2, x2, x6
    251c: fa1f0063     	sbcs	x3, x3, xzr
    2520: fa1f0084     	sbcs	x4, x4, xzr
    2524: da1f00a5     	sbc	x5, x5, xzr
    2528: 9240f8a5     	and	x5, x5, #0x7fffffffffffffff
    252c: a9020fe2     	stp	x2, x3, [sp, #0x20]
    2530: a90317e4     	stp	x4, x5, [sp, #0x30]
    2534: a9047fff     	stp	xzr, xzr, [sp, #0x40]
    2538: a9057fff     	stp	xzr, xzr, [sp, #0x50]
    253c: d284132a     	mov	x10, #0x2099            // =8345
    2540: f2aea04a     	movk	x10, #0x7502, lsl #16
    2544: f2d3c46a     	movk	x10, #0x9e23, lsl #32
    2548: f2f41f2a     	movk	x10, #0xa0f9, lsl #48
    254c: d284b2ab     	mov	x11, #0x2595            // =9621
    2550: f2a3a26b     	movk	x11, #0x1d13, lsl #16
    2554: f2d1e7eb     	movk	x11, #0x8f3f, lsl #32
    2558: f2f518cb     	movk	x11, #0xa8c6, lsl #48
    255c: d28a484c     	mov	x12, #0x5242            // =21058
    2560: f2a0b58c     	movk	x12, #0x5ac, lsl #16
    2564: f2d1270c     	movk	x12, #0x8938, lsl #32
    2568: f2ed8d8c     	movk	x12, #0x6c6c, lsl #48
    256c: d280c2ad     	mov	x13, #0x615             // =1557
    2570: f2a82eed     	movk	x13, #0x4177, lsl #16
    2574: f2c1164d     	movk	x13, #0x8b2, lsl #32
    2578: f2e4ecad     	movk	x13, #0x2765, lsl #48
    257c: a9062fea     	stp	x10, x11, [sp, #0x60]
    2580: a90737ec     	stp	x12, x13, [sp, #0x70]
    2584: d2800155     	mov	x21, #0xa               // =10
    2588: d2800036     	mov	x22, #0x1               // =1
    258c: 1400010b     	b	0x29b8 <edwards25519_scalarmulbase_alt_invmidloop>

0000000000002590 <edwards25519_scalarmulbase_alt_invloop>:
    2590: eb1f015f     	cmp	x10, xzr
    2594: da9f53ee     	csetm	x14, mi
    2598: da8a554a     	cneg	x10, x10, mi
    259c: eb1f017f     	cmp	x11, xzr
    25a0: da9f53ef     	csetm	x15, mi
    25a4: da8b556b     	cneg	x11, x11, mi
    25a8: eb1f019f     	cmp	x12, xzr
    25ac: da9f53f0     	csetm	x16, mi
    25b0: da8c558c     	cneg	x12, x12, mi
    25b4: eb1f01bf     	cmp	x13, xzr
    25b8: da9f53f1     	csetm	x17, mi
    25bc: da8d55ad     	cneg	x13, x13, mi
    25c0: 8a0e0140     	and	x0, x10, x14
    25c4: 8a0f0161     	and	x1, x11, x15
    25c8: 8b010009     	add	x9, x0, x1
    25cc: 8a100180     	and	x0, x12, x16
    25d0: 8a1101a1     	and	x1, x13, x17
    25d4: 8b010013     	add	x19, x0, x1
    25d8: f94003e7     	ldr	x7, [sp]
    25dc: ca0e00e1     	eor	x1, x7, x14
    25e0: 9b0a7c20     	mul	x0, x1, x10
    25e4: 9bca7c21     	umulh	x1, x1, x10
    25e8: ab000124     	adds	x4, x9, x0
    25ec: 9a0103e2     	adc	x2, xzr, x1
    25f0: f94013e8     	ldr	x8, [sp, #0x20]
    25f4: ca0f0101     	eor	x1, x8, x15
    25f8: 9b0b7c20     	mul	x0, x1, x11
    25fc: 9bcb7c21     	umulh	x1, x1, x11
    2600: ab000084     	adds	x4, x4, x0
    2604: 9a010042     	adc	x2, x2, x1
    2608: ca1000e1     	eor	x1, x7, x16
    260c: 9b0c7c20     	mul	x0, x1, x12
    2610: 9bcc7c21     	umulh	x1, x1, x12
    2614: ab000265     	adds	x5, x19, x0
    2618: 9a0103e3     	adc	x3, xzr, x1
    261c: ca110101     	eor	x1, x8, x17
    2620: 9b0d7c20     	mul	x0, x1, x13
    2624: 9bcd7c21     	umulh	x1, x1, x13
    2628: ab0000a5     	adds	x5, x5, x0
    262c: 9a010063     	adc	x3, x3, x1
    2630: f94007e7     	ldr	x7, [sp, #0x8]
    2634: ca0e00e1     	eor	x1, x7, x14
    2638: 9b0a7c20     	mul	x0, x1, x10
    263c: 9bca7c21     	umulh	x1, x1, x10
    2640: ab000042     	adds	x2, x2, x0
    2644: 9a0103e6     	adc	x6, xzr, x1
    2648: f94017e8     	ldr	x8, [sp, #0x28]
    264c: ca0f0101     	eor	x1, x8, x15
    2650: 9b0b7c20     	mul	x0, x1, x11
    2654: 9bcb7c21     	umulh	x1, x1, x11
    2658: ab000042     	adds	x2, x2, x0
    265c: 9a0100c6     	adc	x6, x6, x1
    2660: 93c4ec44     	extr	x4, x2, x4, #0x3b
    2664: f90003e4     	str	x4, [sp]
    2668: ca1000e1     	eor	x1, x7, x16
    266c: 9b0c7c20     	mul	x0, x1, x12
    2670: 9bcc7c21     	umulh	x1, x1, x12
    2674: ab000063     	adds	x3, x3, x0
    2678: 9a0103e4     	adc	x4, xzr, x1
    267c: ca110101     	eor	x1, x8, x17
    2680: 9b0d7c20     	mul	x0, x1, x13
    2684: 9bcd7c21     	umulh	x1, x1, x13
    2688: ab000063     	adds	x3, x3, x0
    268c: 9a010084     	adc	x4, x4, x1
    2690: 93c5ec65     	extr	x5, x3, x5, #0x3b
    2694: f90013e5     	str	x5, [sp, #0x20]
    2698: f9400be7     	ldr	x7, [sp, #0x10]
    269c: ca0e00e1     	eor	x1, x7, x14
    26a0: 9b0a7c20     	mul	x0, x1, x10
    26a4: 9bca7c21     	umulh	x1, x1, x10
    26a8: ab0000c6     	adds	x6, x6, x0
    26ac: 9a0103e5     	adc	x5, xzr, x1
    26b0: f9401be8     	ldr	x8, [sp, #0x30]
    26b4: ca0f0101     	eor	x1, x8, x15
    26b8: 9b0b7c20     	mul	x0, x1, x11
    26bc: 9bcb7c21     	umulh	x1, x1, x11
    26c0: ab0000c6     	adds	x6, x6, x0
    26c4: 9a0100a5     	adc	x5, x5, x1
    26c8: 93c2ecc2     	extr	x2, x6, x2, #0x3b
    26cc: f90007e2     	str	x2, [sp, #0x8]
    26d0: ca1000e1     	eor	x1, x7, x16
    26d4: 9b0c7c20     	mul	x0, x1, x12
    26d8: 9bcc7c21     	umulh	x1, x1, x12
    26dc: ab000084     	adds	x4, x4, x0
    26e0: 9a0103e2     	adc	x2, xzr, x1
    26e4: ca110101     	eor	x1, x8, x17
    26e8: 9b0d7c20     	mul	x0, x1, x13
    26ec: 9bcd7c21     	umulh	x1, x1, x13
    26f0: ab000084     	adds	x4, x4, x0
    26f4: 9a010042     	adc	x2, x2, x1
    26f8: 93c3ec83     	extr	x3, x4, x3, #0x3b
    26fc: f90017e3     	str	x3, [sp, #0x28]
    2700: f9400fe7     	ldr	x7, [sp, #0x18]
    2704: ca0e00e1     	eor	x1, x7, x14
    2708: 937ffc23     	asr	x3, x1, #63
    270c: 8a0a0063     	and	x3, x3, x10
    2710: cb0303e3     	neg	x3, x3
    2714: 9b0a7c20     	mul	x0, x1, x10
    2718: 9bca7c21     	umulh	x1, x1, x10
    271c: ab0000a5     	adds	x5, x5, x0
    2720: 9a010063     	adc	x3, x3, x1
    2724: f9401fe8     	ldr	x8, [sp, #0x38]
    2728: ca0f0101     	eor	x1, x8, x15
    272c: 937ffc20     	asr	x0, x1, #63
    2730: 8a0b0000     	and	x0, x0, x11
    2734: cb000063     	sub	x3, x3, x0
    2738: 9b0b7c20     	mul	x0, x1, x11
    273c: 9bcb7c21     	umulh	x1, x1, x11
    2740: ab0000a5     	adds	x5, x5, x0
    2744: 9a010063     	adc	x3, x3, x1
    2748: 93c6eca6     	extr	x6, x5, x6, #0x3b
    274c: f9000be6     	str	x6, [sp, #0x10]
    2750: 93c5ec65     	extr	x5, x3, x5, #0x3b
    2754: f9000fe5     	str	x5, [sp, #0x18]
    2758: ca1000e1     	eor	x1, x7, x16
    275c: 937ffc25     	asr	x5, x1, #63
    2760: 8a0c00a5     	and	x5, x5, x12
    2764: cb0503e5     	neg	x5, x5
    2768: 9b0c7c20     	mul	x0, x1, x12
    276c: 9bcc7c21     	umulh	x1, x1, x12
    2770: ab000042     	adds	x2, x2, x0
    2774: 9a0100a5     	adc	x5, x5, x1
    2778: ca110101     	eor	x1, x8, x17
    277c: 937ffc20     	asr	x0, x1, #63
    2780: 8a0d0000     	and	x0, x0, x13
    2784: cb0000a5     	sub	x5, x5, x0
    2788: 9b0d7c20     	mul	x0, x1, x13
    278c: 9bcd7c21     	umulh	x1, x1, x13
    2790: ab000042     	adds	x2, x2, x0
    2794: 9a0100a5     	adc	x5, x5, x1
    2798: 93c4ec44     	extr	x4, x2, x4, #0x3b
    279c: f9001be4     	str	x4, [sp, #0x30]
    27a0: 93c2eca2     	extr	x2, x5, x2, #0x3b
    27a4: f9001fe2     	str	x2, [sp, #0x38]
    27a8: f94023e7     	ldr	x7, [sp, #0x40]
    27ac: ca0e00e1     	eor	x1, x7, x14
    27b0: 9b0a7c20     	mul	x0, x1, x10
    27b4: 9bca7c21     	umulh	x1, x1, x10
    27b8: ab000124     	adds	x4, x9, x0
    27bc: 9a0103e2     	adc	x2, xzr, x1
    27c0: f94033e8     	ldr	x8, [sp, #0x60]
    27c4: ca0f0101     	eor	x1, x8, x15
    27c8: 9b0b7c20     	mul	x0, x1, x11
    27cc: 9bcb7c21     	umulh	x1, x1, x11
    27d0: ab000084     	adds	x4, x4, x0
    27d4: f90023e4     	str	x4, [sp, #0x40]
    27d8: 9a010042     	adc	x2, x2, x1
    27dc: ca1000e1     	eor	x1, x7, x16
    27e0: 9b0c7c20     	mul	x0, x1, x12
    27e4: 9bcc7c21     	umulh	x1, x1, x12
    27e8: ab000265     	adds	x5, x19, x0
    27ec: 9a0103e3     	adc	x3, xzr, x1
    27f0: ca110101     	eor	x1, x8, x17
    27f4: 9b0d7c20     	mul	x0, x1, x13
    27f8: 9bcd7c21     	umulh	x1, x1, x13
    27fc: ab0000a5     	adds	x5, x5, x0
    2800: f90033e5     	str	x5, [sp, #0x60]
    2804: 9a010063     	adc	x3, x3, x1
    2808: f94027e7     	ldr	x7, [sp, #0x48]
    280c: ca0e00e1     	eor	x1, x7, x14
    2810: 9b0a7c20     	mul	x0, x1, x10
    2814: 9bca7c21     	umulh	x1, x1, x10
    2818: ab000042     	adds	x2, x2, x0
    281c: 9a0103e6     	adc	x6, xzr, x1
    2820: f94037e8     	ldr	x8, [sp, #0x68]
    2824: ca0f0101     	eor	x1, x8, x15
    2828: 9b0b7c20     	mul	x0, x1, x11
    282c: 9bcb7c21     	umulh	x1, x1, x11
    2830: ab000042     	adds	x2, x2, x0
    2834: f90027e2     	str	x2, [sp, #0x48]
    2838: 9a0100c6     	adc	x6, x6, x1
    283c: ca1000e1     	eor	x1, x7, x16
    2840: 9b0c7c20     	mul	x0, x1, x12
    2844: 9bcc7c21     	umulh	x1, x1, x12
    2848: ab000063     	adds	x3, x3, x0
    284c: 9a0103e4     	adc	x4, xzr, x1
    2850: ca110101     	eor	x1, x8, x17
    2854: 9b0d7c20     	mul	x0, x1, x13
    2858: 9bcd7c21     	umulh	x1, x1, x13
    285c: ab000063     	adds	x3, x3, x0
    2860: f90037e3     	str	x3, [sp, #0x68]
    2864: 9a010084     	adc	x4, x4, x1
    2868: f9402be7     	ldr	x7, [sp, #0x50]
    286c: ca0e00e1     	eor	x1, x7, x14
    2870: 9b0a7c20     	mul	x0, x1, x10
    2874: 9bca7c21     	umulh	x1, x1, x10
    2878: ab0000c6     	adds	x6, x6, x0
    287c: 9a0103e5     	adc	x5, xzr, x1
    2880: f9403be8     	ldr	x8, [sp, #0x70]
    2884: ca0f0101     	eor	x1, x8, x15
    2888: 9b0b7c20     	mul	x0, x1, x11
    288c: 9bcb7c21     	umulh	x1, x1, x11
    2890: ab0000c6     	adds	x6, x6, x0
    2894: f9002be6     	str	x6, [sp, #0x50]
    2898: 9a0100a5     	adc	x5, x5, x1
    289c: ca1000e1     	eor	x1, x7, x16
    28a0: 9b0c7c20     	mul	x0, x1, x12
    28a4: 9bcc7c21     	umulh	x1, x1, x12
    28a8: ab000084     	adds	x4, x4, x0
    28ac: 9a0103e2     	adc	x2, xzr, x1
    28b0: ca110101     	eor	x1, x8, x17
    28b4: 9b0d7c20     	mul	x0, x1, x13
    28b8: 9bcd7c21     	umulh	x1, x1, x13
    28bc: ab000084     	adds	x4, x4, x0
    28c0: f9003be4     	str	x4, [sp, #0x70]
    28c4: 9a010042     	adc	x2, x2, x1
    28c8: f9402fe7     	ldr	x7, [sp, #0x58]
    28cc: ca0e00e1     	eor	x1, x7, x14
    28d0: 8a0a01c3     	and	x3, x14, x10
    28d4: cb0303e3     	neg	x3, x3
    28d8: 9b0a7c20     	mul	x0, x1, x10
    28dc: 9bca7c21     	umulh	x1, x1, x10
    28e0: ab0000a5     	adds	x5, x5, x0
    28e4: 9a010063     	adc	x3, x3, x1
    28e8: f9403fe8     	ldr	x8, [sp, #0x78]
    28ec: ca0f0101     	eor	x1, x8, x15
    28f0: 8a0b01e0     	and	x0, x15, x11
    28f4: cb000063     	sub	x3, x3, x0
    28f8: 9b0b7c20     	mul	x0, x1, x11
    28fc: 9bcb7c21     	umulh	x1, x1, x11
    2900: ab0000a5     	adds	x5, x5, x0
    2904: 9a010063     	adc	x3, x3, x1
    2908: 93c5fc66     	extr	x6, x3, x5, #0x3f
    290c: a94407e0     	ldp	x0, x1, [sp, #0x40]
    2910: 8b83fcc6     	add	x6, x6, x3, asr #63
    2914: d2800263     	mov	x3, #0x13               // =19
    2918: 9b037cc4     	mul	x4, x6, x3
    291c: 8b06fca5     	add	x5, x5, x6, lsl #63
    2920: 9b437cc3     	smulh	x3, x6, x3
    2924: f9402be6     	ldr	x6, [sp, #0x50]
    2928: ab040000     	adds	x0, x0, x4
    292c: ba030021     	adcs	x1, x1, x3
    2930: 937ffc63     	asr	x3, x3, #63
    2934: ba0300c6     	adcs	x6, x6, x3
    2938: 9a0300a5     	adc	x5, x5, x3
    293c: a90407e0     	stp	x0, x1, [sp, #0x40]
    2940: a90517e6     	stp	x6, x5, [sp, #0x50]
    2944: ca1000e1     	eor	x1, x7, x16
    2948: 8a0c0205     	and	x5, x16, x12
    294c: cb0503e5     	neg	x5, x5
    2950: 9b0c7c20     	mul	x0, x1, x12
    2954: 9bcc7c21     	umulh	x1, x1, x12
    2958: ab000042     	adds	x2, x2, x0
    295c: 9a0100a5     	adc	x5, x5, x1
    2960: ca110101     	eor	x1, x8, x17
    2964: 8a0d0220     	and	x0, x17, x13
    2968: cb0000a5     	sub	x5, x5, x0
    296c: 9b0d7c20     	mul	x0, x1, x13
    2970: 9bcd7c21     	umulh	x1, x1, x13
    2974: ab000042     	adds	x2, x2, x0
    2978: 9a0100a5     	adc	x5, x5, x1
    297c: 93c2fca6     	extr	x6, x5, x2, #0x3f
    2980: a94607e0     	ldp	x0, x1, [sp, #0x60]
    2984: 8b85fcc6     	add	x6, x6, x5, asr #63
    2988: d2800265     	mov	x5, #0x13               // =19
    298c: 9b057cc4     	mul	x4, x6, x5
    2990: 8b06fc42     	add	x2, x2, x6, lsl #63
    2994: 9b457cc5     	smulh	x5, x6, x5
    2998: f9403be3     	ldr	x3, [sp, #0x70]
    299c: ab040000     	adds	x0, x0, x4
    29a0: ba050021     	adcs	x1, x1, x5
    29a4: 937ffca5     	asr	x5, x5, #63
    29a8: ba050063     	adcs	x3, x3, x5
    29ac: 9a050042     	adc	x2, x2, x5
    29b0: a90607e0     	stp	x0, x1, [sp, #0x60]
    29b4: a9070be3     	stp	x3, x2, [sp, #0x70]

00000000000029b8 <edwards25519_scalarmulbase_alt_invmidloop>:
    29b8: aa1603e1     	mov	x1, x22
    29bc: f94003e2     	ldr	x2, [sp]
    29c0: f94013e3     	ldr	x3, [sp, #0x20]
    29c4: 92404c44     	and	x4, x2, #0xfffff
    29c8: b2575884     	orr	x4, x4, #0xfffffe0000000000
    29cc: 92404c65     	and	x5, x3, #0xfffff
    29d0: b24204a5     	orr	x5, x5, #0xc000000000000000
    29d4: f24000bf     	tst	x5, #0x1
    29d8: 9a9f1086     	csel	x6, x4, xzr, ne
    29dc: fa5f1028     	ccmp	x1, xzr, #0x8, ne
    29e0: da81b421     	cneg	x1, x1, ge
    29e4: da86b4c6     	cneg	x6, x6, ge
    29e8: 9a84a0a4     	csel	x4, x5, x4, ge
    29ec: 8b0600a5     	add	x5, x5, x6
    29f0: 91000821     	add	x1, x1, #0x2
    29f4: f27f00bf     	tst	x5, #0x2
    29f8: 9341fca5     	asr	x5, x5, #1
    29fc: 9a9f1086     	csel	x6, x4, xzr, ne
    2a00: fa5f1028     	ccmp	x1, xzr, #0x8, ne
    2a04: da81b421     	cneg	x1, x1, ge
    2a08: da86b4c6     	cneg	x6, x6, ge
    2a0c: 9a84a0a4     	csel	x4, x5, x4, ge
    2a10: 8b0600a5     	add	x5, x5, x6
    2a14: 91000821     	add	x1, x1, #0x2
    2a18: f27f00bf     	tst	x5, #0x2
    2a1c: 9341fca5     	asr	x5, x5, #1
    2a20: 9a9f1086     	csel	x6, x4, xzr, ne
    2a24: fa5f1028     	ccmp	x1, xzr, #0x8, ne
    2a28: da81b421     	cneg	x1, x1, ge
    2a2c: da86b4c6     	cneg	x6, x6, ge
    2a30: 9a84a0a4     	csel	x4, x5, x4, ge
    2a34: 8b0600a5     	add	x5, x5, x6
    2a38: 91000821     	add	x1, x1, #0x2
    2a3c: f27f00bf     	tst	x5, #0x2
    2a40: 9341fca5     	asr	x5, x5, #1
    2a44: 9a9f1086     	csel	x6, x4, xzr, ne
    2a48: fa5f1028     	ccmp	x1, xzr, #0x8, ne
    2a4c: da81b421     	cneg	x1, x1, ge
    2a50: da86b4c6     	cneg	x6, x6, ge
    2a54: 9a84a0a4     	csel	x4, x5, x4, ge
    2a58: 8b0600a5     	add	x5, x5, x6
    2a5c: 91000821     	add	x1, x1, #0x2
    2a60: f27f00bf     	tst	x5, #0x2
    2a64: 9341fca5     	asr	x5, x5, #1
    2a68: 9a9f1086     	csel	x6, x4, xzr, ne
    2a6c: fa5f1028     	ccmp	x1, xzr, #0x8, ne
    2a70: da81b421     	cneg	x1, x1, ge
    2a74: da86b4c6     	cneg	x6, x6, ge
    2a78: 9a84a0a4     	csel	x4, x5, x4, ge
    2a7c: 8b0600a5     	add	x5, x5, x6
    2a80: 91000821     	add	x1, x1, #0x2
    2a84: f27f00bf     	tst	x5, #0x2
    2a88: 9341fca5     	asr	x5, x5, #1
    2a8c: 9a9f1086     	csel	x6, x4, xzr, ne
    2a90: fa5f1028     	ccmp	x1, xzr, #0x8, ne
    2a94: da81b421     	cneg	x1, x1, ge
    2a98: da86b4c6     	cneg	x6, x6, ge
    2a9c: 9a84a0a4     	csel	x4, x5, x4, ge
    2aa0: 8b0600a5     	add	x5, x5, x6
    2aa4: 91000821     	add	x1, x1, #0x2
    2aa8: f27f00bf     	tst	x5, #0x2
    2aac: 9341fca5     	asr	x5, x5, #1
    2ab0: 9a9f1086     	csel	x6, x4, xzr, ne
    2ab4: fa5f1028     	ccmp	x1, xzr, #0x8, ne
    2ab8: da81b421     	cneg	x1, x1, ge
    2abc: da86b4c6     	cneg	x6, x6, ge
    2ac0: 9a84a0a4     	csel	x4, x5, x4, ge
    2ac4: 8b0600a5     	add	x5, x5, x6
    2ac8: 91000821     	add	x1, x1, #0x2
    2acc: f27f00bf     	tst	x5, #0x2
    2ad0: 9341fca5     	asr	x5, x5, #1
    2ad4: 9a9f1086     	csel	x6, x4, xzr, ne
    2ad8: fa5f1028     	ccmp	x1, xzr, #0x8, ne
    2adc: da81b421     	cneg	x1, x1, ge
    2ae0: da86b4c6     	cneg	x6, x6, ge
    2ae4: 9a84a0a4     	csel	x4, x5, x4, ge
    2ae8: 8b0600a5     	add	x5, x5, x6
    2aec: 91000821     	add	x1, x1, #0x2
    2af0: f27f00bf     	tst	x5, #0x2
    2af4: 9341fca5     	asr	x5, x5, #1
    2af8: 9a9f1086     	csel	x6, x4, xzr, ne
    2afc: fa5f1028     	ccmp	x1, xzr, #0x8, ne
    2b00: da81b421     	cneg	x1, x1, ge
    2b04: da86b4c6     	cneg	x6, x6, ge
    2b08: 9a84a0a4     	csel	x4, x5, x4, ge
    2b0c: 8b0600a5     	add	x5, x5, x6
    2b10: 91000821     	add	x1, x1, #0x2
    2b14: f27f00bf     	tst	x5, #0x2
    2b18: 9341fca5     	asr	x5, x5, #1
    2b1c: 9a9f1086     	csel	x6, x4, xzr, ne
    2b20: fa5f1028     	ccmp	x1, xzr, #0x8, ne
    2b24: da81b421     	cneg	x1, x1, ge
    2b28: da86b4c6     	cneg	x6, x6, ge
    2b2c: 9a84a0a4     	csel	x4, x5, x4, ge
    2b30: 8b0600a5     	add	x5, x5, x6
    2b34: 91000821     	add	x1, x1, #0x2
    2b38: f27f00bf     	tst	x5, #0x2
    2b3c: 9341fca5     	asr	x5, x5, #1
    2b40: 9a9f1086     	csel	x6, x4, xzr, ne
    2b44: fa5f1028     	ccmp	x1, xzr, #0x8, ne
    2b48: da81b421     	cneg	x1, x1, ge
    2b4c: da86b4c6     	cneg	x6, x6, ge
    2b50: 9a84a0a4     	csel	x4, x5, x4, ge
    2b54: 8b0600a5     	add	x5, x5, x6
    2b58: 91000821     	add	x1, x1, #0x2
    2b5c: f27f00bf     	tst	x5, #0x2
    2b60: 9341fca5     	asr	x5, x5, #1
    2b64: 9a9f1086     	csel	x6, x4, xzr, ne
    2b68: fa5f1028     	ccmp	x1, xzr, #0x8, ne
    2b6c: da81b421     	cneg	x1, x1, ge
    2b70: da86b4c6     	cneg	x6, x6, ge
    2b74: 9a84a0a4     	csel	x4, x5, x4, ge
    2b78: 8b0600a5     	add	x5, x5, x6
    2b7c: 91000821     	add	x1, x1, #0x2
    2b80: f27f00bf     	tst	x5, #0x2
    2b84: 9341fca5     	asr	x5, x5, #1
    2b88: 9a9f1086     	csel	x6, x4, xzr, ne
    2b8c: fa5f1028     	ccmp	x1, xzr, #0x8, ne
    2b90: da81b421     	cneg	x1, x1, ge
    2b94: da86b4c6     	cneg	x6, x6, ge
    2b98: 9a84a0a4     	csel	x4, x5, x4, ge
    2b9c: 8b0600a5     	add	x5, x5, x6
    2ba0: 91000821     	add	x1, x1, #0x2
    2ba4: f27f00bf     	tst	x5, #0x2
    2ba8: 9341fca5     	asr	x5, x5, #1
    2bac: 9a9f1086     	csel	x6, x4, xzr, ne
    2bb0: fa5f1028     	ccmp	x1, xzr, #0x8, ne
    2bb4: da81b421     	cneg	x1, x1, ge
    2bb8: da86b4c6     	cneg	x6, x6, ge
    2bbc: 9a84a0a4     	csel	x4, x5, x4, ge
    2bc0: 8b0600a5     	add	x5, x5, x6
    2bc4: 91000821     	add	x1, x1, #0x2
    2bc8: f27f00bf     	tst	x5, #0x2
    2bcc: 9341fca5     	asr	x5, x5, #1
    2bd0: 9a9f1086     	csel	x6, x4, xzr, ne
    2bd4: fa5f1028     	ccmp	x1, xzr, #0x8, ne
    2bd8: da81b421     	cneg	x1, x1, ge
    2bdc: da86b4c6     	cneg	x6, x6, ge
    2be0: 9a84a0a4     	csel	x4, x5, x4, ge
    2be4: 8b0600a5     	add	x5, x5, x6
    2be8: 91000821     	add	x1, x1, #0x2
    2bec: f27f00bf     	tst	x5, #0x2
    2bf0: 9341fca5     	asr	x5, x5, #1
    2bf4: 9a9f1086     	csel	x6, x4, xzr, ne
    2bf8: fa5f1028     	ccmp	x1, xzr, #0x8, ne
    2bfc: da81b421     	cneg	x1, x1, ge
    2c00: da86b4c6     	cneg	x6, x6, ge
    2c04: 9a84a0a4     	csel	x4, x5, x4, ge
    2c08: 8b0600a5     	add	x5, x5, x6
    2c0c: 91000821     	add	x1, x1, #0x2
    2c10: f27f00bf     	tst	x5, #0x2
    2c14: 9341fca5     	asr	x5, x5, #1
    2c18: 9a9f1086     	csel	x6, x4, xzr, ne
    2c1c: fa5f1028     	ccmp	x1, xzr, #0x8, ne
    2c20: da81b421     	cneg	x1, x1, ge
    2c24: da86b4c6     	cneg	x6, x6, ge
    2c28: 9a84a0a4     	csel	x4, x5, x4, ge
    2c2c: 8b0600a5     	add	x5, x5, x6
    2c30: 91000821     	add	x1, x1, #0x2
    2c34: f27f00bf     	tst	x5, #0x2
    2c38: 9341fca5     	asr	x5, x5, #1
    2c3c: 9a9f1086     	csel	x6, x4, xzr, ne
    2c40: fa5f1028     	ccmp	x1, xzr, #0x8, ne
    2c44: da81b421     	cneg	x1, x1, ge
    2c48: da86b4c6     	cneg	x6, x6, ge
    2c4c: 9a84a0a4     	csel	x4, x5, x4, ge
    2c50: 8b0600a5     	add	x5, x5, x6
    2c54: 91000821     	add	x1, x1, #0x2
    2c58: f27f00bf     	tst	x5, #0x2
    2c5c: 9341fca5     	asr	x5, x5, #1
    2c60: 9a9f1086     	csel	x6, x4, xzr, ne
    2c64: fa5f1028     	ccmp	x1, xzr, #0x8, ne
    2c68: da81b421     	cneg	x1, x1, ge
    2c6c: da86b4c6     	cneg	x6, x6, ge
    2c70: 9a84a0a4     	csel	x4, x5, x4, ge
    2c74: 8b0600a5     	add	x5, x5, x6
    2c78: 91000821     	add	x1, x1, #0x2
    2c7c: f27f00bf     	tst	x5, #0x2
    2c80: 9341fca5     	asr	x5, x5, #1
    2c84: 9a9f1086     	csel	x6, x4, xzr, ne
    2c88: fa5f1028     	ccmp	x1, xzr, #0x8, ne
    2c8c: da81b421     	cneg	x1, x1, ge
    2c90: da86b4c6     	cneg	x6, x6, ge
    2c94: 9a84a0a4     	csel	x4, x5, x4, ge
    2c98: 8b0600a5     	add	x5, x5, x6
    2c9c: 91000821     	add	x1, x1, #0x2
    2ca0: 9341fca5     	asr	x5, x5, #1
    2ca4: 91440088     	add	x8, x4, #0x100, lsl #12 // =0x100000
    2ca8: 9355a508     	sbfx	x8, x8, #21, #21
    2cac: d2a0020b     	mov	x11, #0x100000          // =1048576
    2cb0: 8b0b556b     	add	x11, x11, x11, lsl #21
    2cb4: 8b0b0089     	add	x9, x4, x11
    2cb8: 936afd29     	asr	x9, x9, #42
    2cbc: 914400aa     	add	x10, x5, #0x100, lsl #12 // =0x100000
    2cc0: 9355a54a     	sbfx	x10, x10, #21, #21
    2cc4: 8b0b00ab     	add	x11, x5, x11
    2cc8: 936afd6b     	asr	x11, x11, #42
    2ccc: 9b027d06     	mul	x6, x8, x2
    2cd0: 9b037d27     	mul	x7, x9, x3
    2cd4: 9b027d42     	mul	x2, x10, x2
    2cd8: 9b037d63     	mul	x3, x11, x3
    2cdc: 8b0700c4     	add	x4, x6, x7
    2ce0: 8b030045     	add	x5, x2, x3
    2ce4: 9354fc82     	asr	x2, x4, #20
    2ce8: 9354fca3     	asr	x3, x5, #20
    2cec: 92404c44     	and	x4, x2, #0xfffff
    2cf0: b2575884     	orr	x4, x4, #0xfffffe0000000000
    2cf4: 92404c65     	and	x5, x3, #0xfffff
    2cf8: b24204a5     	orr	x5, x5, #0xc000000000000000
    2cfc: f24000bf     	tst	x5, #0x1
    2d00: 9a9f1086     	csel	x6, x4, xzr, ne
    2d04: fa5f1028     	ccmp	x1, xzr, #0x8, ne
    2d08: da81b421     	cneg	x1, x1, ge
    2d0c: da86b4c6     	cneg	x6, x6, ge
    2d10: 9a84a0a4     	csel	x4, x5, x4, ge
    2d14: 8b0600a5     	add	x5, x5, x6
    2d18: 91000821     	add	x1, x1, #0x2
    2d1c: f27f00bf     	tst	x5, #0x2
    2d20: 9341fca5     	asr	x5, x5, #1
    2d24: 9a9f1086     	csel	x6, x4, xzr, ne
    2d28: fa5f1028     	ccmp	x1, xzr, #0x8, ne
    2d2c: da81b421     	cneg	x1, x1, ge
    2d30: da86b4c6     	cneg	x6, x6, ge
    2d34: 9a84a0a4     	csel	x4, x5, x4, ge
    2d38: 8b0600a5     	add	x5, x5, x6
    2d3c: 91000821     	add	x1, x1, #0x2
    2d40: f27f00bf     	tst	x5, #0x2
    2d44: 9341fca5     	asr	x5, x5, #1
    2d48: 9a9f1086     	csel	x6, x4, xzr, ne
    2d4c: fa5f1028     	ccmp	x1, xzr, #0x8, ne
    2d50: da81b421     	cneg	x1, x1, ge
    2d54: da86b4c6     	cneg	x6, x6, ge
    2d58: 9a84a0a4     	csel	x4, x5, x4, ge
    2d5c: 8b0600a5     	add	x5, x5, x6
    2d60: 91000821     	add	x1, x1, #0x2
    2d64: f27f00bf     	tst	x5, #0x2
    2d68: 9341fca5     	asr	x5, x5, #1
    2d6c: 9a9f1086     	csel	x6, x4, xzr, ne
    2d70: fa5f1028     	ccmp	x1, xzr, #0x8, ne
    2d74: da81b421     	cneg	x1, x1, ge
    2d78: da86b4c6     	cneg	x6, x6, ge
    2d7c: 9a84a0a4     	csel	x4, x5, x4, ge
    2d80: 8b0600a5     	add	x5, x5, x6
    2d84: 91000821     	add	x1, x1, #0x2
    2d88: f27f00bf     	tst	x5, #0x2
    2d8c: 9341fca5     	asr	x5, x5, #1
    2d90: 9a9f1086     	csel	x6, x4, xzr, ne
    2d94: fa5f1028     	ccmp	x1, xzr, #0x8, ne
    2d98: da81b421     	cneg	x1, x1, ge
    2d9c: da86b4c6     	cneg	x6, x6, ge
    2da0: 9a84a0a4     	csel	x4, x5, x4, ge
    2da4: 8b0600a5     	add	x5, x5, x6
    2da8: 91000821     	add	x1, x1, #0x2
    2dac: f27f00bf     	tst	x5, #0x2
    2db0: 9341fca5     	asr	x5, x5, #1
    2db4: 9a9f1086     	csel	x6, x4, xzr, ne
    2db8: fa5f1028     	ccmp	x1, xzr, #0x8, ne
    2dbc: da81b421     	cneg	x1, x1, ge
    2dc0: da86b4c6     	cneg	x6, x6, ge
    2dc4: 9a84a0a4     	csel	x4, x5, x4, ge
    2dc8: 8b0600a5     	add	x5, x5, x6
    2dcc: 91000821     	add	x1, x1, #0x2
    2dd0: f27f00bf     	tst	x5, #0x2
    2dd4: 9341fca5     	asr	x5, x5, #1
    2dd8: 9a9f1086     	csel	x6, x4, xzr, ne
    2ddc: fa5f1028     	ccmp	x1, xzr, #0x8, ne
    2de0: da81b421     	cneg	x1, x1, ge
    2de4: da86b4c6     	cneg	x6, x6, ge
    2de8: 9a84a0a4     	csel	x4, x5, x4, ge
    2dec: 8b0600a5     	add	x5, x5, x6
    2df0: 91000821     	add	x1, x1, #0x2
    2df4: f27f00bf     	tst	x5, #0x2
    2df8: 9341fca5     	asr	x5, x5, #1
    2dfc: 9a9f1086     	csel	x6, x4, xzr, ne
    2e00: fa5f1028     	ccmp	x1, xzr, #0x8, ne
    2e04: da81b421     	cneg	x1, x1, ge
    2e08: da86b4c6     	cneg	x6, x6, ge
    2e0c: 9a84a0a4     	csel	x4, x5, x4, ge
    2e10: 8b0600a5     	add	x5, x5, x6
    2e14: 91000821     	add	x1, x1, #0x2
    2e18: f27f00bf     	tst	x5, #0x2
    2e1c: 9341fca5     	asr	x5, x5, #1
    2e20: 9a9f1086     	csel	x6, x4, xzr, ne
    2e24: fa5f1028     	ccmp	x1, xzr, #0x8, ne
    2e28: da81b421     	cneg	x1, x1, ge
    2e2c: da86b4c6     	cneg	x6, x6, ge
    2e30: 9a84a0a4     	csel	x4, x5, x4, ge
    2e34: 8b0600a5     	add	x5, x5, x6
    2e38: 91000821     	add	x1, x1, #0x2
    2e3c: f27f00bf     	tst	x5, #0x2
    2e40: 9341fca5     	asr	x5, x5, #1
    2e44: 9a9f1086     	csel	x6, x4, xzr, ne
    2e48: fa5f1028     	ccmp	x1, xzr, #0x8, ne
    2e4c: da81b421     	cneg	x1, x1, ge
    2e50: da86b4c6     	cneg	x6, x6, ge
    2e54: 9a84a0a4     	csel	x4, x5, x4, ge
    2e58: 8b0600a5     	add	x5, x5, x6
    2e5c: 91000821     	add	x1, x1, #0x2
    2e60: f27f00bf     	tst	x5, #0x2
    2e64: 9341fca5     	asr	x5, x5, #1
    2e68: 9a9f1086     	csel	x6, x4, xzr, ne
    2e6c: fa5f1028     	ccmp	x1, xzr, #0x8, ne
    2e70: da81b421     	cneg	x1, x1, ge
    2e74: da86b4c6     	cneg	x6, x6, ge
    2e78: 9a84a0a4     	csel	x4, x5, x4, ge
    2e7c: 8b0600a5     	add	x5, x5, x6
    2e80: 91000821     	add	x1, x1, #0x2
    2e84: f27f00bf     	tst	x5, #0x2
    2e88: 9341fca5     	asr	x5, x5, #1
    2e8c: 9a9f1086     	csel	x6, x4, xzr, ne
    2e90: fa5f1028     	ccmp	x1, xzr, #0x8, ne
    2e94: da81b421     	cneg	x1, x1, ge
    2e98: da86b4c6     	cneg	x6, x6, ge
    2e9c: 9a84a0a4     	csel	x4, x5, x4, ge
    2ea0: 8b0600a5     	add	x5, x5, x6
    2ea4: 91000821     	add	x1, x1, #0x2
    2ea8: f27f00bf     	tst	x5, #0x2
    2eac: 9341fca5     	asr	x5, x5, #1
    2eb0: 9a9f1086     	csel	x6, x4, xzr, ne
    2eb4: fa5f1028     	ccmp	x1, xzr, #0x8, ne
    2eb8: da81b421     	cneg	x1, x1, ge
    2ebc: da86b4c6     	cneg	x6, x6, ge
    2ec0: 9a84a0a4     	csel	x4, x5, x4, ge
    2ec4: 8b0600a5     	add	x5, x5, x6
    2ec8: 91000821     	add	x1, x1, #0x2
    2ecc: f27f00bf     	tst	x5, #0x2
    2ed0: 9341fca5     	asr	x5, x5, #1
    2ed4: 9a9f1086     	csel	x6, x4, xzr, ne
    2ed8: fa5f1028     	ccmp	x1, xzr, #0x8, ne
    2edc: da81b421     	cneg	x1, x1, ge
    2ee0: da86b4c6     	cneg	x6, x6, ge
    2ee4: 9a84a0a4     	csel	x4, x5, x4, ge
    2ee8: 8b0600a5     	add	x5, x5, x6
    2eec: 91000821     	add	x1, x1, #0x2
    2ef0: f27f00bf     	tst	x5, #0x2
    2ef4: 9341fca5     	asr	x5, x5, #1
    2ef8: 9a9f1086     	csel	x6, x4, xzr, ne
    2efc: fa5f1028     	ccmp	x1, xzr, #0x8, ne
    2f00: da81b421     	cneg	x1, x1, ge
    2f04: da86b4c6     	cneg	x6, x6, ge
    2f08: 9a84a0a4     	csel	x4, x5, x4, ge
    2f0c: 8b0600a5     	add	x5, x5, x6
    2f10: 91000821     	add	x1, x1, #0x2
    2f14: f27f00bf     	tst	x5, #0x2
    2f18: 9341fca5     	asr	x5, x5, #1
    2f1c: 9a9f1086     	csel	x6, x4, xzr, ne
    2f20: fa5f1028     	ccmp	x1, xzr, #0x8, ne
    2f24: da81b421     	cneg	x1, x1, ge
    2f28: da86b4c6     	cneg	x6, x6, ge
    2f2c: 9a84a0a4     	csel	x4, x5, x4, ge
    2f30: 8b0600a5     	add	x5, x5, x6
    2f34: 91000821     	add	x1, x1, #0x2
    2f38: f27f00bf     	tst	x5, #0x2
    2f3c: 9341fca5     	asr	x5, x5, #1
    2f40: 9a9f1086     	csel	x6, x4, xzr, ne
    2f44: fa5f1028     	ccmp	x1, xzr, #0x8, ne
    2f48: da81b421     	cneg	x1, x1, ge
    2f4c: da86b4c6     	cneg	x6, x6, ge
    2f50: 9a84a0a4     	csel	x4, x5, x4, ge
    2f54: 8b0600a5     	add	x5, x5, x6
    2f58: 91000821     	add	x1, x1, #0x2
    2f5c: f27f00bf     	tst	x5, #0x2
    2f60: 9341fca5     	asr	x5, x5, #1
    2f64: 9a9f1086     	csel	x6, x4, xzr, ne
    2f68: fa5f1028     	ccmp	x1, xzr, #0x8, ne
    2f6c: da81b421     	cneg	x1, x1, ge
    2f70: da86b4c6     	cneg	x6, x6, ge
    2f74: 9a84a0a4     	csel	x4, x5, x4, ge
    2f78: 8b0600a5     	add	x5, x5, x6
    2f7c: 91000821     	add	x1, x1, #0x2
    2f80: f27f00bf     	tst	x5, #0x2
    2f84: 9341fca5     	asr	x5, x5, #1
    2f88: 9a9f1086     	csel	x6, x4, xzr, ne
    2f8c: fa5f1028     	ccmp	x1, xzr, #0x8, ne
    2f90: da81b421     	cneg	x1, x1, ge
    2f94: da86b4c6     	cneg	x6, x6, ge
    2f98: 9a84a0a4     	csel	x4, x5, x4, ge
    2f9c: 8b0600a5     	add	x5, x5, x6
    2fa0: 91000821     	add	x1, x1, #0x2
    2fa4: f27f00bf     	tst	x5, #0x2
    2fa8: 9341fca5     	asr	x5, x5, #1
    2fac: 9a9f1086     	csel	x6, x4, xzr, ne
    2fb0: fa5f1028     	ccmp	x1, xzr, #0x8, ne
    2fb4: da81b421     	cneg	x1, x1, ge
    2fb8: da86b4c6     	cneg	x6, x6, ge
    2fbc: 9a84a0a4     	csel	x4, x5, x4, ge
    2fc0: 8b0600a5     	add	x5, x5, x6
    2fc4: 91000821     	add	x1, x1, #0x2
    2fc8: 9341fca5     	asr	x5, x5, #1
    2fcc: 9144008c     	add	x12, x4, #0x100, lsl #12 // =0x100000
    2fd0: 9355a58c     	sbfx	x12, x12, #21, #21
    2fd4: d2a0020f     	mov	x15, #0x100000          // =1048576
    2fd8: 8b0f55ef     	add	x15, x15, x15, lsl #21
    2fdc: 8b0f008d     	add	x13, x4, x15
    2fe0: 936afdad     	asr	x13, x13, #42
    2fe4: 914400ae     	add	x14, x5, #0x100, lsl #12 // =0x100000
    2fe8: 9355a5ce     	sbfx	x14, x14, #21, #21
    2fec: 8b0f00af     	add	x15, x5, x15
    2ff0: 936afdef     	asr	x15, x15, #42
    2ff4: 9b027d86     	mul	x6, x12, x2
    2ff8: 9b037da7     	mul	x7, x13, x3
    2ffc: 9b027dc2     	mul	x2, x14, x2
    3000: 9b037de3     	mul	x3, x15, x3
    3004: 8b0700c4     	add	x4, x6, x7
    3008: 8b030045     	add	x5, x2, x3
    300c: 9354fc82     	asr	x2, x4, #20
    3010: 9354fca3     	asr	x3, x5, #20
    3014: 92404c44     	and	x4, x2, #0xfffff
    3018: b2575884     	orr	x4, x4, #0xfffffe0000000000
    301c: 92404c65     	and	x5, x3, #0xfffff
    3020: b24204a5     	orr	x5, x5, #0xc000000000000000
    3024: f24000bf     	tst	x5, #0x1
    3028: 9a9f1086     	csel	x6, x4, xzr, ne
    302c: fa5f1028     	ccmp	x1, xzr, #0x8, ne
    3030: da81b421     	cneg	x1, x1, ge
    3034: da86b4c6     	cneg	x6, x6, ge
    3038: 9a84a0a4     	csel	x4, x5, x4, ge
    303c: 8b0600a5     	add	x5, x5, x6
    3040: 91000821     	add	x1, x1, #0x2
    3044: f27f00bf     	tst	x5, #0x2
    3048: 9341fca5     	asr	x5, x5, #1
    304c: 9a9f1086     	csel	x6, x4, xzr, ne
    3050: fa5f1028     	ccmp	x1, xzr, #0x8, ne
    3054: da81b421     	cneg	x1, x1, ge
    3058: da86b4c6     	cneg	x6, x6, ge
    305c: 9a84a0a4     	csel	x4, x5, x4, ge
    3060: 8b0600a5     	add	x5, x5, x6
    3064: 91000821     	add	x1, x1, #0x2
    3068: f27f00bf     	tst	x5, #0x2
    306c: 9341fca5     	asr	x5, x5, #1
    3070: 9a9f1086     	csel	x6, x4, xzr, ne
    3074: fa5f1028     	ccmp	x1, xzr, #0x8, ne
    3078: da81b421     	cneg	x1, x1, ge
    307c: da86b4c6     	cneg	x6, x6, ge
    3080: 9a84a0a4     	csel	x4, x5, x4, ge
    3084: 8b0600a5     	add	x5, x5, x6
    3088: 91000821     	add	x1, x1, #0x2
    308c: f27f00bf     	tst	x5, #0x2
    3090: 9341fca5     	asr	x5, x5, #1
    3094: 9a9f1086     	csel	x6, x4, xzr, ne
    3098: fa5f1028     	ccmp	x1, xzr, #0x8, ne
    309c: da81b421     	cneg	x1, x1, ge
    30a0: da86b4c6     	cneg	x6, x6, ge
    30a4: 9a84a0a4     	csel	x4, x5, x4, ge
    30a8: 8b0600a5     	add	x5, x5, x6
    30ac: 91000821     	add	x1, x1, #0x2
    30b0: f27f00bf     	tst	x5, #0x2
    30b4: 9341fca5     	asr	x5, x5, #1
    30b8: 9a9f1086     	csel	x6, x4, xzr, ne
    30bc: fa5f1028     	ccmp	x1, xzr, #0x8, ne
    30c0: da81b421     	cneg	x1, x1, ge
    30c4: da86b4c6     	cneg	x6, x6, ge
    30c8: 9a84a0a4     	csel	x4, x5, x4, ge
    30cc: 8b0600a5     	add	x5, x5, x6
    30d0: 91000821     	add	x1, x1, #0x2
    30d4: f27f00bf     	tst	x5, #0x2
    30d8: 9341fca5     	asr	x5, x5, #1
    30dc: 9a9f1086     	csel	x6, x4, xzr, ne
    30e0: fa5f1028     	ccmp	x1, xzr, #0x8, ne
    30e4: da81b421     	cneg	x1, x1, ge
    30e8: da86b4c6     	cneg	x6, x6, ge
    30ec: 9a84a0a4     	csel	x4, x5, x4, ge
    30f0: 8b0600a5     	add	x5, x5, x6
    30f4: 91000821     	add	x1, x1, #0x2
    30f8: f27f00bf     	tst	x5, #0x2
    30fc: 9341fca5     	asr	x5, x5, #1
    3100: 9a9f1086     	csel	x6, x4, xzr, ne
    3104: fa5f1028     	ccmp	x1, xzr, #0x8, ne
    3108: da81b421     	cneg	x1, x1, ge
    310c: da86b4c6     	cneg	x6, x6, ge
    3110: 9a84a0a4     	csel	x4, x5, x4, ge
    3114: 8b0600a5     	add	x5, x5, x6
    3118: 91000821     	add	x1, x1, #0x2
    311c: f27f00bf     	tst	x5, #0x2
    3120: 9341fca5     	asr	x5, x5, #1
    3124: 9a9f1086     	csel	x6, x4, xzr, ne
    3128: fa5f1028     	ccmp	x1, xzr, #0x8, ne
    312c: da81b421     	cneg	x1, x1, ge
    3130: da86b4c6     	cneg	x6, x6, ge
    3134: 9a84a0a4     	csel	x4, x5, x4, ge
    3138: 8b0600a5     	add	x5, x5, x6
    313c: 91000821     	add	x1, x1, #0x2
    3140: f27f00bf     	tst	x5, #0x2
    3144: 9341fca5     	asr	x5, x5, #1
    3148: 9a9f1086     	csel	x6, x4, xzr, ne
    314c: fa5f1028     	ccmp	x1, xzr, #0x8, ne
    3150: da81b421     	cneg	x1, x1, ge
    3154: da86b4c6     	cneg	x6, x6, ge
    3158: 9a84a0a4     	csel	x4, x5, x4, ge
    315c: 8b0600a5     	add	x5, x5, x6
    3160: 91000821     	add	x1, x1, #0x2
    3164: f27f00bf     	tst	x5, #0x2
    3168: 9341fca5     	asr	x5, x5, #1
    316c: 9a9f1086     	csel	x6, x4, xzr, ne
    3170: fa5f1028     	ccmp	x1, xzr, #0x8, ne
    3174: da81b421     	cneg	x1, x1, ge
    3178: da86b4c6     	cneg	x6, x6, ge
    317c: 9a84a0a4     	csel	x4, x5, x4, ge
    3180: 8b0600a5     	add	x5, x5, x6
    3184: 91000821     	add	x1, x1, #0x2
    3188: f27f00bf     	tst	x5, #0x2
    318c: 9341fca5     	asr	x5, x5, #1
    3190: 9b087d82     	mul	x2, x12, x8
    3194: 9b097d83     	mul	x3, x12, x9
    3198: 9b087dc6     	mul	x6, x14, x8
    319c: 9b097dc7     	mul	x7, x14, x9
    31a0: 9b0a09a8     	madd	x8, x13, x10, x2
    31a4: 9b0b0da9     	madd	x9, x13, x11, x3
    31a8: 9b0a19f0     	madd	x16, x15, x10, x6
    31ac: 9b0b1df1     	madd	x17, x15, x11, x7
    31b0: 9a9f1086     	csel	x6, x4, xzr, ne
    31b4: fa5f1028     	ccmp	x1, xzr, #0x8, ne
    31b8: da81b421     	cneg	x1, x1, ge
    31bc: da86b4c6     	cneg	x6, x6, ge
    31c0: 9a84a0a4     	csel	x4, x5, x4, ge
    31c4: 8b0600a5     	add	x5, x5, x6
    31c8: 91000821     	add	x1, x1, #0x2
    31cc: f27f00bf     	tst	x5, #0x2
    31d0: 9341fca5     	asr	x5, x5, #1
    31d4: 9a9f1086     	csel	x6, x4, xzr, ne
    31d8: fa5f1028     	ccmp	x1, xzr, #0x8, ne
    31dc: da81b421     	cneg	x1, x1, ge
    31e0: da86b4c6     	cneg	x6, x6, ge
    31e4: 9a84a0a4     	csel	x4, x5, x4, ge
    31e8: 8b0600a5     	add	x5, x5, x6
    31ec: 91000821     	add	x1, x1, #0x2
    31f0: f27f00bf     	tst	x5, #0x2
    31f4: 9341fca5     	asr	x5, x5, #1
    31f8: 9a9f1086     	csel	x6, x4, xzr, ne
    31fc: fa5f1028     	ccmp	x1, xzr, #0x8, ne
    3200: da81b421     	cneg	x1, x1, ge
    3204: da86b4c6     	cneg	x6, x6, ge
    3208: 9a84a0a4     	csel	x4, x5, x4, ge
    320c: 8b0600a5     	add	x5, x5, x6
    3210: 91000821     	add	x1, x1, #0x2
    3214: f27f00bf     	tst	x5, #0x2
    3218: 9341fca5     	asr	x5, x5, #1
    321c: 9a9f1086     	csel	x6, x4, xzr, ne
    3220: fa5f1028     	ccmp	x1, xzr, #0x8, ne
    3224: da81b421     	cneg	x1, x1, ge
    3228: da86b4c6     	cneg	x6, x6, ge
    322c: 9a84a0a4     	csel	x4, x5, x4, ge
    3230: 8b0600a5     	add	x5, x5, x6
    3234: 91000821     	add	x1, x1, #0x2
    3238: f27f00bf     	tst	x5, #0x2
    323c: 9341fca5     	asr	x5, x5, #1
    3240: 9a9f1086     	csel	x6, x4, xzr, ne
    3244: fa5f1028     	ccmp	x1, xzr, #0x8, ne
    3248: da81b421     	cneg	x1, x1, ge
    324c: da86b4c6     	cneg	x6, x6, ge
    3250: 9a84a0a4     	csel	x4, x5, x4, ge
    3254: 8b0600a5     	add	x5, x5, x6
    3258: 91000821     	add	x1, x1, #0x2
    325c: f27f00bf     	tst	x5, #0x2
    3260: 9341fca5     	asr	x5, x5, #1
    3264: 9a9f1086     	csel	x6, x4, xzr, ne
    3268: fa5f1028     	ccmp	x1, xzr, #0x8, ne
    326c: da81b421     	cneg	x1, x1, ge
    3270: da86b4c6     	cneg	x6, x6, ge
    3274: 9a84a0a4     	csel	x4, x5, x4, ge
    3278: 8b0600a5     	add	x5, x5, x6
    327c: 91000821     	add	x1, x1, #0x2
    3280: f27f00bf     	tst	x5, #0x2
    3284: 9341fca5     	asr	x5, x5, #1
    3288: 9a9f1086     	csel	x6, x4, xzr, ne
    328c: fa5f1028     	ccmp	x1, xzr, #0x8, ne
    3290: da81b421     	cneg	x1, x1, ge
    3294: da86b4c6     	cneg	x6, x6, ge
    3298: 9a84a0a4     	csel	x4, x5, x4, ge
    329c: 8b0600a5     	add	x5, x5, x6
    32a0: 91000821     	add	x1, x1, #0x2
    32a4: f27f00bf     	tst	x5, #0x2
    32a8: 9341fca5     	asr	x5, x5, #1
    32ac: 9a9f1086     	csel	x6, x4, xzr, ne
    32b0: fa5f1028     	ccmp	x1, xzr, #0x8, ne
    32b4: da81b421     	cneg	x1, x1, ge
    32b8: da86b4c6     	cneg	x6, x6, ge
    32bc: 9a84a0a4     	csel	x4, x5, x4, ge
    32c0: 8b0600a5     	add	x5, x5, x6
    32c4: 91000821     	add	x1, x1, #0x2
    32c8: f27f00bf     	tst	x5, #0x2
    32cc: 9341fca5     	asr	x5, x5, #1
    32d0: 9a9f1086     	csel	x6, x4, xzr, ne
    32d4: fa5f1028     	ccmp	x1, xzr, #0x8, ne
    32d8: da81b421     	cneg	x1, x1, ge
    32dc: da86b4c6     	cneg	x6, x6, ge
    32e0: 9a84a0a4     	csel	x4, x5, x4, ge
    32e4: 8b0600a5     	add	x5, x5, x6
    32e8: 91000821     	add	x1, x1, #0x2
    32ec: 9341fca5     	asr	x5, x5, #1
    32f0: 9144008c     	add	x12, x4, #0x100, lsl #12 // =0x100000
    32f4: 9356a98c     	sbfx	x12, x12, #22, #21
    32f8: d2a0020f     	mov	x15, #0x100000          // =1048576
    32fc: 8b0f55ef     	add	x15, x15, x15, lsl #21
    3300: 8b0f008d     	add	x13, x4, x15
    3304: 936bfdad     	asr	x13, x13, #43
    3308: 914400ae     	add	x14, x5, #0x100, lsl #12 // =0x100000
    330c: 9356a9ce     	sbfx	x14, x14, #22, #21
    3310: 8b0f00af     	add	x15, x5, x15
    3314: 936bfdef     	asr	x15, x15, #43
    3318: 9b08fd82     	mneg	x2, x12, x8
    331c: 9b09fd83     	mneg	x3, x12, x9
    3320: 9b08fdc4     	mneg	x4, x14, x8
    3324: 9b09fdc5     	mneg	x5, x14, x9
    3328: 9b1089aa     	msub	x10, x13, x16, x2
    332c: 9b118dab     	msub	x11, x13, x17, x3
    3330: 9b1091ec     	msub	x12, x15, x16, x4
    3334: 9b1195ed     	msub	x13, x15, x17, x5
    3338: aa0103f6     	mov	x22, x1
    333c: f10006b5     	subs	x21, x21, #0x1
    3340: 54ff9281     	b.ne	0x2590 <edwards25519_scalarmulbase_alt_invloop>
    3344: f94003e0     	ldr	x0, [sp]
    3348: f94013e1     	ldr	x1, [sp, #0x20]
    334c: 9b0a7c00     	mul	x0, x0, x10
    3350: 9b0b0021     	madd	x1, x1, x11, x0
    3354: 937ffc20     	asr	x0, x1, #63
    3358: eb1f015f     	cmp	x10, xzr
    335c: da9f53ee     	csetm	x14, mi
    3360: da8a554a     	cneg	x10, x10, mi
    3364: ca0001ce     	eor	x14, x14, x0
    3368: eb1f017f     	cmp	x11, xzr
    336c: da9f53ef     	csetm	x15, mi
    3370: da8b556b     	cneg	x11, x11, mi
    3374: ca0001ef     	eor	x15, x15, x0
    3378: eb1f019f     	cmp	x12, xzr
    337c: da9f53f0     	csetm	x16, mi
    3380: da8c558c     	cneg	x12, x12, mi
    3384: ca000210     	eor	x16, x16, x0
    3388: eb1f01bf     	cmp	x13, xzr
    338c: da9f53f1     	csetm	x17, mi
    3390: da8d55ad     	cneg	x13, x13, mi
    3394: ca000231     	eor	x17, x17, x0
    3398: 8a0e0140     	and	x0, x10, x14
    339c: 8a0f0161     	and	x1, x11, x15
    33a0: 8b010009     	add	x9, x0, x1
    33a4: f94023e7     	ldr	x7, [sp, #0x40]
    33a8: ca0e00e1     	eor	x1, x7, x14
    33ac: 9b0a7c20     	mul	x0, x1, x10
    33b0: 9bca7c21     	umulh	x1, x1, x10
    33b4: ab000124     	adds	x4, x9, x0
    33b8: 9a0103e2     	adc	x2, xzr, x1
    33bc: f94033e8     	ldr	x8, [sp, #0x60]
    33c0: ca0f0101     	eor	x1, x8, x15
    33c4: 9b0b7c20     	mul	x0, x1, x11
    33c8: 9bcb7c21     	umulh	x1, x1, x11
    33cc: ab000084     	adds	x4, x4, x0
    33d0: f90023e4     	str	x4, [sp, #0x40]
    33d4: 9a010042     	adc	x2, x2, x1
    33d8: f94027e7     	ldr	x7, [sp, #0x48]
    33dc: ca0e00e1     	eor	x1, x7, x14
    33e0: 9b0a7c20     	mul	x0, x1, x10
    33e4: 9bca7c21     	umulh	x1, x1, x10
    33e8: ab000042     	adds	x2, x2, x0
    33ec: 9a0103e6     	adc	x6, xzr, x1
    33f0: f94037e8     	ldr	x8, [sp, #0x68]
    33f4: ca0f0101     	eor	x1, x8, x15
    33f8: 9b0b7c20     	mul	x0, x1, x11
    33fc: 9bcb7c21     	umulh	x1, x1, x11
    3400: ab000042     	adds	x2, x2, x0
    3404: f90027e2     	str	x2, [sp, #0x48]
    3408: 9a0100c6     	adc	x6, x6, x1
    340c: f9402be7     	ldr	x7, [sp, #0x50]
    3410: ca0e00e1     	eor	x1, x7, x14
    3414: 9b0a7c20     	mul	x0, x1, x10
    3418: 9bca7c21     	umulh	x1, x1, x10
    341c: ab0000c6     	adds	x6, x6, x0
    3420: 9a0103e5     	adc	x5, xzr, x1
    3424: f9403be8     	ldr	x8, [sp, #0x70]
    3428: ca0f0101     	eor	x1, x8, x15
    342c: 9b0b7c20     	mul	x0, x1, x11
    3430: 9bcb7c21     	umulh	x1, x1, x11
    3434: ab0000c6     	adds	x6, x6, x0
    3438: f9002be6     	str	x6, [sp, #0x50]
    343c: 9a0100a5     	adc	x5, x5, x1
    3440: f9402fe7     	ldr	x7, [sp, #0x58]
    3444: ca0e00e1     	eor	x1, x7, x14
    3448: 8a0a01c3     	and	x3, x14, x10
    344c: cb0303e3     	neg	x3, x3
    3450: 9b0a7c20     	mul	x0, x1, x10
    3454: 9bca7c21     	umulh	x1, x1, x10
    3458: ab0000a5     	adds	x5, x5, x0
    345c: 9a010063     	adc	x3, x3, x1
    3460: f9403fe8     	ldr	x8, [sp, #0x78]
    3464: ca0f0101     	eor	x1, x8, x15
    3468: 8a0b01e0     	and	x0, x15, x11
    346c: cb000063     	sub	x3, x3, x0
    3470: 9b0b7c20     	mul	x0, x1, x11
    3474: 9bcb7c21     	umulh	x1, x1, x11
    3478: ab0000a5     	adds	x5, x5, x0
    347c: 9a010063     	adc	x3, x3, x1
    3480: 93c5fc66     	extr	x6, x3, x5, #0x3f
    3484: a94407e0     	ldp	x0, x1, [sp, #0x40]
    3488: ea03007f     	tst	x3, x3
    348c: 9a8644c6     	cinc	x6, x6, pl
    3490: d2800263     	mov	x3, #0x13               // =19
    3494: 9b037cc4     	mul	x4, x6, x3
    3498: 8b06fca5     	add	x5, x5, x6, lsl #63
    349c: 9b437cc6     	smulh	x6, x6, x3
    34a0: f9402be2     	ldr	x2, [sp, #0x50]
    34a4: ab040000     	adds	x0, x0, x4
    34a8: ba060021     	adcs	x1, x1, x6
    34ac: 937ffcc6     	asr	x6, x6, #63
    34b0: ba060042     	adcs	x2, x2, x6
    34b4: ba0600a5     	adcs	x5, x5, x6
    34b8: 9a9f4063     	csel	x3, x3, xzr, mi
    34bc: eb030000     	subs	x0, x0, x3
    34c0: fa1f0021     	sbcs	x1, x1, xzr
    34c4: fa1f0042     	sbcs	x2, x2, xzr
    34c8: da1f00a5     	sbc	x5, x5, xzr
    34cc: 9240f8a5     	and	x5, x5, #0x7fffffffffffffff
    34d0: aa1403e4     	mov	x4, x20
    34d4: a9000480     	stp	x0, x1, [x4]
    34d8: a9011482     	stp	x2, x5, [x4, #0x10]
    34dc: a94813e3     	ldp	x3, x4, [sp, #0x80]
    34e0: a94e23e7     	ldp	x7, x8, [sp, #0xe0]
    34e4: 9b077c6c     	mul	x12, x3, x7
    34e8: 9bc77c6d     	umulh	x13, x3, x7
    34ec: 9b087c6b     	mul	x11, x3, x8
    34f0: 9bc87c6e     	umulh	x14, x3, x8
    34f4: ab0b01ad     	adds	x13, x13, x11
    34f8: a94f2be9     	ldp	x9, x10, [sp, #0xf0]
    34fc: 9b097c6b     	mul	x11, x3, x9
    3500: 9bc97c6f     	umulh	x15, x3, x9
    3504: ba0b01ce     	adcs	x14, x14, x11
    3508: 9b0a7c6b     	mul	x11, x3, x10
    350c: 9bca7c70     	umulh	x16, x3, x10
    3510: ba0b01ef     	adcs	x15, x15, x11
    3514: 9a1f0210     	adc	x16, x16, xzr
    3518: a9491be5     	ldp	x5, x6, [sp, #0x90]
    351c: 9b077c8b     	mul	x11, x4, x7
    3520: ab0b01ad     	adds	x13, x13, x11
    3524: 9b087c8b     	mul	x11, x4, x8
    3528: ba0b01ce     	adcs	x14, x14, x11
    352c: 9b097c8b     	mul	x11, x4, x9
    3530: ba0b01ef     	adcs	x15, x15, x11
    3534: 9b0a7c8b     	mul	x11, x4, x10
    3538: ba0b0210     	adcs	x16, x16, x11
    353c: 9bca7c83     	umulh	x3, x4, x10
    3540: 9a1f0063     	adc	x3, x3, xzr
    3544: 9bc77c8b     	umulh	x11, x4, x7
    3548: ab0b01ce     	adds	x14, x14, x11
    354c: 9bc87c8b     	umulh	x11, x4, x8
    3550: ba0b01ef     	adcs	x15, x15, x11
    3554: 9bc97c8b     	umulh	x11, x4, x9
    3558: ba0b0210     	adcs	x16, x16, x11
    355c: 9a1f0063     	adc	x3, x3, xzr
    3560: 9b077cab     	mul	x11, x5, x7
    3564: ab0b01ce     	adds	x14, x14, x11
    3568: 9b087cab     	mul	x11, x5, x8
    356c: ba0b01ef     	adcs	x15, x15, x11
    3570: 9b097cab     	mul	x11, x5, x9
    3574: ba0b0210     	adcs	x16, x16, x11
    3578: 9b0a7cab     	mul	x11, x5, x10
    357c: ba0b0063     	adcs	x3, x3, x11
    3580: 9bca7ca4     	umulh	x4, x5, x10
    3584: 9a1f0084     	adc	x4, x4, xzr
    3588: 9bc77cab     	umulh	x11, x5, x7
    358c: ab0b01ef     	adds	x15, x15, x11
    3590: 9bc87cab     	umulh	x11, x5, x8
    3594: ba0b0210     	adcs	x16, x16, x11
    3598: 9bc97cab     	umulh	x11, x5, x9
    359c: ba0b0063     	adcs	x3, x3, x11
    35a0: 9a1f0084     	adc	x4, x4, xzr
    35a4: 9b077ccb     	mul	x11, x6, x7
    35a8: ab0b01ef     	adds	x15, x15, x11
    35ac: 9b087ccb     	mul	x11, x6, x8
    35b0: ba0b0210     	adcs	x16, x16, x11
    35b4: 9b097ccb     	mul	x11, x6, x9
    35b8: ba0b0063     	adcs	x3, x3, x11
    35bc: 9b0a7ccb     	mul	x11, x6, x10
    35c0: ba0b0084     	adcs	x4, x4, x11
    35c4: 9bca7cc5     	umulh	x5, x6, x10
    35c8: 9a1f00a5     	adc	x5, x5, xzr
    35cc: 9bc77ccb     	umulh	x11, x6, x7
    35d0: ab0b0210     	adds	x16, x16, x11
    35d4: 9bc87ccb     	umulh	x11, x6, x8
    35d8: ba0b0063     	adcs	x3, x3, x11
    35dc: 9bc97ccb     	umulh	x11, x6, x9
    35e0: ba0b0084     	adcs	x4, x4, x11
    35e4: 9a1f00a5     	adc	x5, x5, xzr
    35e8: d28004c7     	mov	x7, #0x26               // =38
    35ec: 9b107ceb     	mul	x11, x7, x16
    35f0: 9bd07ce9     	umulh	x9, x7, x16
    35f4: ab0b018c     	adds	x12, x12, x11
    35f8: 9b037ceb     	mul	x11, x7, x3
    35fc: 9bc37ce3     	umulh	x3, x7, x3
    3600: ba0b01ad     	adcs	x13, x13, x11
    3604: 9b047ceb     	mul	x11, x7, x4
    3608: 9bc47ce4     	umulh	x4, x7, x4
    360c: ba0b01ce     	adcs	x14, x14, x11
    3610: 9b057ceb     	mul	x11, x7, x5
    3614: 9bc57ce5     	umulh	x5, x7, x5
    3618: ba0b01ef     	adcs	x15, x15, x11
    361c: 9a9f37f0     	cset	x16, hs
    3620: ab0401ef     	adds	x15, x15, x4
    3624: 9a050210     	adc	x16, x16, x5
    3628: ab0f01ff     	cmn	x15, x15
    362c: b24101ef     	orr	x15, x15, #0x8000000000000000
    3630: 9a100208     	adc	x8, x16, x16
    3634: d2800267     	mov	x7, #0x13               // =19
    3638: 9b081ceb     	madd	x11, x7, x8, x7
    363c: ab0b018c     	adds	x12, x12, x11
    3640: ba0901ad     	adcs	x13, x13, x9
    3644: ba0301ce     	adcs	x14, x14, x3
    3648: ba1f01ef     	adcs	x15, x15, xzr
    364c: 9a9f30e7     	csel	x7, x7, xzr, lo
    3650: eb07018c     	subs	x12, x12, x7
    3654: fa1f01ad     	sbcs	x13, x13, xzr
    3658: fa1f01ce     	sbcs	x14, x14, xzr
    365c: da1f01ef     	sbc	x15, x15, xzr
    3660: 9240f9ef     	and	x15, x15, #0x7fffffffffffffff
    3664: a90036ec     	stp	x12, x13, [x23]
    3668: a9013eee     	stp	x14, x15, [x23, #0x10]
    366c: a94a13e3     	ldp	x3, x4, [sp, #0xa0]
    3670: a94e23e7     	ldp	x7, x8, [sp, #0xe0]
    3674: 9b077c6c     	mul	x12, x3, x7
    3678: 9bc77c6d     	umulh	x13, x3, x7
    367c: 9b087c6b     	mul	x11, x3, x8
    3680: 9bc87c6e     	umulh	x14, x3, x8
    3684: ab0b01ad     	adds	x13, x13, x11
    3688: a94f2be9     	ldp	x9, x10, [sp, #0xf0]
    368c: 9b097c6b     	mul	x11, x3, x9
    3690: 9bc97c6f     	umulh	x15, x3, x9
    3694: ba0b01ce     	adcs	x14, x14, x11
    3698: 9b0a7c6b     	mul	x11, x3, x10
    369c: 9bca7c70     	umulh	x16, x3, x10
    36a0: ba0b01ef     	adcs	x15, x15, x11
    36a4: 9a1f0210     	adc	x16, x16, xzr
    36a8: a94b1be5     	ldp	x5, x6, [sp, #0xb0]
    36ac: 9b077c8b     	mul	x11, x4, x7
    36b0: ab0b01ad     	adds	x13, x13, x11
    36b4: 9b087c8b     	mul	x11, x4, x8
    36b8: ba0b01ce     	adcs	x14, x14, x11
    36bc: 9b097c8b     	mul	x11, x4, x9
    36c0: ba0b01ef     	adcs	x15, x15, x11
    36c4: 9b0a7c8b     	mul	x11, x4, x10
    36c8: ba0b0210     	adcs	x16, x16, x11
    36cc: 9bca7c83     	umulh	x3, x4, x10
    36d0: 9a1f0063     	adc	x3, x3, xzr
    36d4: 9bc77c8b     	umulh	x11, x4, x7
    36d8: ab0b01ce     	adds	x14, x14, x11
    36dc: 9bc87c8b     	umulh	x11, x4, x8
    36e0: ba0b01ef     	adcs	x15, x15, x11
    36e4: 9bc97c8b     	umulh	x11, x4, x9
    36e8: ba0b0210     	adcs	x16, x16, x11
    36ec: 9a1f0063     	adc	x3, x3, xzr
    36f0: 9b077cab     	mul	x11, x5, x7
    36f4: ab0b01ce     	adds	x14, x14, x11
    36f8: 9b087cab     	mul	x11, x5, x8
    36fc: ba0b01ef     	adcs	x15, x15, x11
    3700: 9b097cab     	mul	x11, x5, x9
    3704: ba0b0210     	adcs	x16, x16, x11
    3708: 9b0a7cab     	mul	x11, x5, x10
    370c: ba0b0063     	adcs	x3, x3, x11
    3710: 9bca7ca4     	umulh	x4, x5, x10
    3714: 9a1f0084     	adc	x4, x4, xzr
    3718: 9bc77cab     	umulh	x11, x5, x7
    371c: ab0b01ef     	adds	x15, x15, x11
    3720: 9bc87cab     	umulh	x11, x5, x8
    3724: ba0b0210     	adcs	x16, x16, x11
    3728: 9bc97cab     	umulh	x11, x5, x9
    372c: ba0b0063     	adcs	x3, x3, x11
    3730: 9a1f0084     	adc	x4, x4, xzr
    3734: 9b077ccb     	mul	x11, x6, x7
    3738: ab0b01ef     	adds	x15, x15, x11
    373c: 9b087ccb     	mul	x11, x6, x8
    3740: ba0b0210     	adcs	x16, x16, x11
    3744: 9b097ccb     	mul	x11, x6, x9
    3748: ba0b0063     	adcs	x3, x3, x11
    374c: 9b0a7ccb     	mul	x11, x6, x10
    3750: ba0b0084     	adcs	x4, x4, x11
    3754: 9bca7cc5     	umulh	x5, x6, x10
    3758: 9a1f00a5     	adc	x5, x5, xzr
    375c: 9bc77ccb     	umulh	x11, x6, x7
    3760: ab0b0210     	adds	x16, x16, x11
    3764: 9bc87ccb     	umulh	x11, x6, x8
    3768: ba0b0063     	adcs	x3, x3, x11
    376c: 9bc97ccb     	umulh	x11, x6, x9
    3770: ba0b0084     	adcs	x4, x4, x11
    3774: 9a1f00a5     	adc	x5, x5, xzr
    3778: d28004c7     	mov	x7, #0x26               // =38
    377c: 9b107ceb     	mul	x11, x7, x16
    3780: 9bd07ce9     	umulh	x9, x7, x16
    3784: ab0b018c     	adds	x12, x12, x11
    3788: 9b037ceb     	mul	x11, x7, x3
    378c: 9bc37ce3     	umulh	x3, x7, x3
    3790: ba0b01ad     	adcs	x13, x13, x11
    3794: 9b047ceb     	mul	x11, x7, x4
    3798: 9bc47ce4     	umulh	x4, x7, x4
    379c: ba0b01ce     	adcs	x14, x14, x11
    37a0: 9b057ceb     	mul	x11, x7, x5
    37a4: 9bc57ce5     	umulh	x5, x7, x5
    37a8: ba0b01ef     	adcs	x15, x15, x11
    37ac: 9a9f37f0     	cset	x16, hs
    37b0: ab0401ef     	adds	x15, x15, x4
    37b4: 9a050210     	adc	x16, x16, x5
    37b8: ab0f01ff     	cmn	x15, x15
    37bc: b24101ef     	orr	x15, x15, #0x8000000000000000
    37c0: 9a100208     	adc	x8, x16, x16
    37c4: d2800267     	mov	x7, #0x13               // =19
    37c8: 9b081ceb     	madd	x11, x7, x8, x7
    37cc: ab0b018c     	adds	x12, x12, x11
    37d0: ba0901ad     	adcs	x13, x13, x9
    37d4: ba0301ce     	adcs	x14, x14, x3
    37d8: ba1f01ef     	adcs	x15, x15, xzr
    37dc: 9a9f30e7     	csel	x7, x7, xzr, lo
    37e0: eb07018c     	subs	x12, x12, x7
    37e4: fa1f01ad     	sbcs	x13, x13, xzr
    37e8: fa1f01ce     	sbcs	x14, x14, xzr
    37ec: da1f01ef     	sbc	x15, x15, xzr
    37f0: 9240f9ef     	and	x15, x15, #0x7fffffffffffffff
    37f4: a90236ec     	stp	x12, x13, [x23, #0x20]
    37f8: a9033eee     	stp	x14, x15, [x23, #0x30]
    37fc: 910703ff     	add	sp, sp, #0x1c0
    3800: a8c163f7     	ldp	x23, x24, [sp], #0x10
    3804: a8c15bf5     	ldp	x21, x22, [sp], #0x10
    3808: a8c153f3     	ldp	x19, x20, [sp], #0x10
    380c: d65f03c0     	ret

0000000000003810 <edwards25519_scalarmuldouble_alt>:
    3810: a9bf53f3     	stp	x19, x20, [sp, #-0x10]!
    3814: a9bf5bf5     	stp	x21, x22, [sp, #-0x10]!
    3818: a9bf63f7     	stp	x23, x24, [sp, #-0x10]!
    381c: a9bf7bf9     	stp	x25, x30, [sp, #-0x10]!
    3820: d11683ff     	sub	sp, sp, #0x5a0
    3824: aa0003f9     	mov	x25, x0
    3828: d29d2404     	mov	x4, #0xe920             // =59680
    382c: f2b41b24     	movk	x4, #0xa0d9, lsl #16
    3830: f2cdf6a4     	movk	x4, #0x6fb5, lsl #32
    3834: f2f8fea4     	movk	x4, #0xc7f5, lsl #48
    3838: d2943aa5     	mov	x5, #0xa1d5             // =41429
    383c: f2ae1965     	movk	x5, #0x70cb, lsl #16
    3840: f2d73265     	movk	x5, #0xb993, lsl #32
    3844: f2fc3205     	movk	x5, #0xe190, lsl #48
    3848: b201e3e7     	mov	x7, #-0x7777777777777778 // =-8608480567731124088
    384c: d10004e6     	sub	x6, x7, #0x1
    3850: 9240ece8     	and	x8, x7, #0xfffffffffffffff
    3854: a9402c6a     	ldp	x10, x11, [x3]
    3858: a941346c     	ldp	x12, x13, [x3, #0x10]
    385c: d2f00003     	mov	x3, #-0x8000000000000000 // =-9223372036854775808
    3860: eb0d007f     	cmp	x3, x13
    3864: 9a8420ee     	csel	x14, x7, x4, hs
    3868: 9a8520ef     	csel	x15, x7, x5, hs
    386c: 9a8620f0     	csel	x16, x7, x6, hs
    3870: 9a872111     	csel	x17, x8, x7, hs
    3874: ab0e014a     	adds	x10, x10, x14
    3878: ba0f016b     	adcs	x11, x11, x15
    387c: ba10018c     	adcs	x12, x12, x16
    3880: 9a1101ad     	adc	x13, x13, x17
    3884: a9022fea     	stp	x10, x11, [sp, #0x20]
    3888: a90337ec     	stp	x12, x13, [sp, #0x30]
    388c: a9402c2a     	ldp	x10, x11, [x1]
    3890: a941342c     	ldp	x12, x13, [x1, #0x10]
    3894: d2f00003     	mov	x3, #-0x8000000000000000 // =-9223372036854775808
    3898: eb0d007f     	cmp	x3, x13
    389c: 9a8420ee     	csel	x14, x7, x4, hs
    38a0: 9a8520ef     	csel	x15, x7, x5, hs
    38a4: 9a8620f0     	csel	x16, x7, x6, hs
    38a8: 9a872111     	csel	x17, x8, x7, hs
    38ac: ab0e014a     	adds	x10, x10, x14
    38b0: ba0f016b     	adcs	x11, x11, x15
    38b4: ba10018c     	adcs	x12, x12, x16
    38b8: 9a1101ad     	adc	x13, x13, x17
    38bc: a9002fea     	stp	x10, x11, [sp]
    38c0: a90137ec     	stp	x12, x13, [sp, #0x10]
    38c4: a9402c4a     	ldp	x10, x11, [x2]
    38c8: a941344c     	ldp	x12, x13, [x2, #0x10]
    38cc: b100994e     	adds	x14, x10, #0x26
    38d0: ba1f016f     	adcs	x15, x11, xzr
    38d4: ba1f0190     	adcs	x16, x12, xzr
    38d8: ba1f01b1     	adcs	x17, x13, xzr
    38dc: 9a8a21ca     	csel	x10, x14, x10, hs
    38e0: 9a8b21eb     	csel	x11, x15, x11, hs
    38e4: 9a8c220c     	csel	x12, x16, x12, hs
    38e8: 9a8d222d     	csel	x13, x17, x13, hs
    38ec: a91a2fea     	stp	x10, x11, [sp, #0x1a0]
    38f0: a91b37ec     	stp	x12, x13, [sp, #0x1b0]
    38f4: a9422c4a     	ldp	x10, x11, [x2, #0x20]
    38f8: a943344c     	ldp	x12, x13, [x2, #0x30]
    38fc: b100994e     	adds	x14, x10, #0x26
    3900: ba1f016f     	adcs	x15, x11, xzr
    3904: ba1f0190     	adcs	x16, x12, xzr
    3908: ba1f01b1     	adcs	x17, x13, xzr
    390c: 9a8a21ca     	csel	x10, x14, x10, hs
    3910: 9a8b21eb     	csel	x11, x15, x11, hs
    3914: 9a8c220c     	csel	x12, x16, x12, hs
    3918: 9a8d222d     	csel	x13, x17, x13, hs
    391c: a91c2fea     	stp	x10, x11, [sp, #0x1c0]
    3920: a91d37ec     	stp	x12, x13, [sp, #0x1d0]
    3924: d2800021     	mov	x1, #0x1                // =1
    3928: a91e7fe1     	stp	x1, xzr, [sp, #0x1e0]
    392c: a91f7fff     	stp	xzr, xzr, [sp, #0x1f0]
    3930: 910803f6     	add	x22, sp, #0x200
    3934: 910683f7     	add	x23, sp, #0x1a0
    3938: 910703f8     	add	x24, sp, #0x1c0
    393c: a94012e3     	ldp	x3, x4, [x23]
    3940: a9402307     	ldp	x7, x8, [x24]
    3944: 9b077c6c     	mul	x12, x3, x7
    3948: 9bc77c6d     	umulh	x13, x3, x7
    394c: 9b087c6b     	mul	x11, x3, x8
    3950: 9bc87c6e     	umulh	x14, x3, x8
    3954: ab0b01ad     	adds	x13, x13, x11
    3958: a9412b09     	ldp	x9, x10, [x24, #0x10]
    395c: 9b097c6b     	mul	x11, x3, x9
    3960: 9bc97c6f     	umulh	x15, x3, x9
    3964: ba0b01ce     	adcs	x14, x14, x11
    3968: 9b0a7c6b     	mul	x11, x3, x10
    396c: 9bca7c70     	umulh	x16, x3, x10
    3970: ba0b01ef     	adcs	x15, x15, x11
    3974: 9a1f0210     	adc	x16, x16, xzr
    3978: a9411ae5     	ldp	x5, x6, [x23, #0x10]
    397c: 9b077c8b     	mul	x11, x4, x7
    3980: ab0b01ad     	adds	x13, x13, x11
    3984: 9b087c8b     	mul	x11, x4, x8
    3988: ba0b01ce     	adcs	x14, x14, x11
    398c: 9b097c8b     	mul	x11, x4, x9
    3990: ba0b01ef     	adcs	x15, x15, x11
    3994: 9b0a7c8b     	mul	x11, x4, x10
    3998: ba0b0210     	adcs	x16, x16, x11
    399c: 9bca7c83     	umulh	x3, x4, x10
    39a0: 9a1f0063     	adc	x3, x3, xzr
    39a4: 9bc77c8b     	umulh	x11, x4, x7
    39a8: ab0b01ce     	adds	x14, x14, x11
    39ac: 9bc87c8b     	umulh	x11, x4, x8
    39b0: ba0b01ef     	adcs	x15, x15, x11
    39b4: 9bc97c8b     	umulh	x11, x4, x9
    39b8: ba0b0210     	adcs	x16, x16, x11
    39bc: 9a1f0063     	adc	x3, x3, xzr
    39c0: 9b077cab     	mul	x11, x5, x7
    39c4: ab0b01ce     	adds	x14, x14, x11
    39c8: 9b087cab     	mul	x11, x5, x8
    39cc: ba0b01ef     	adcs	x15, x15, x11
    39d0: 9b097cab     	mul	x11, x5, x9
    39d4: ba0b0210     	adcs	x16, x16, x11
    39d8: 9b0a7cab     	mul	x11, x5, x10
    39dc: ba0b0063     	adcs	x3, x3, x11
    39e0: 9bca7ca4     	umulh	x4, x5, x10
    39e4: 9a1f0084     	adc	x4, x4, xzr
    39e8: 9bc77cab     	umulh	x11, x5, x7
    39ec: ab0b01ef     	adds	x15, x15, x11
    39f0: 9bc87cab     	umulh	x11, x5, x8
    39f4: ba0b0210     	adcs	x16, x16, x11
    39f8: 9bc97cab     	umulh	x11, x5, x9
    39fc: ba0b0063     	adcs	x3, x3, x11
    3a00: 9a1f0084     	adc	x4, x4, xzr
    3a04: 9b077ccb     	mul	x11, x6, x7
    3a08: ab0b01ef     	adds	x15, x15, x11
    3a0c: 9b087ccb     	mul	x11, x6, x8
    3a10: ba0b0210     	adcs	x16, x16, x11
    3a14: 9b097ccb     	mul	x11, x6, x9
    3a18: ba0b0063     	adcs	x3, x3, x11
    3a1c: 9b0a7ccb     	mul	x11, x6, x10
    3a20: ba0b0084     	adcs	x4, x4, x11
    3a24: 9bca7cc5     	umulh	x5, x6, x10
    3a28: 9a1f00a5     	adc	x5, x5, xzr
    3a2c: 9bc77ccb     	umulh	x11, x6, x7
    3a30: ab0b0210     	adds	x16, x16, x11
    3a34: 9bc87ccb     	umulh	x11, x6, x8
    3a38: ba0b0063     	adcs	x3, x3, x11
    3a3c: 9bc97ccb     	umulh	x11, x6, x9
    3a40: ba0b0084     	adcs	x4, x4, x11
    3a44: 9a1f00a5     	adc	x5, x5, xzr
    3a48: d28004c7     	mov	x7, #0x26               // =38
    3a4c: 9b107ceb     	mul	x11, x7, x16
    3a50: 9bd07ce9     	umulh	x9, x7, x16
    3a54: ab0b018c     	adds	x12, x12, x11
    3a58: 9b037ceb     	mul	x11, x7, x3
    3a5c: 9bc37ce3     	umulh	x3, x7, x3
    3a60: ba0b01ad     	adcs	x13, x13, x11
    3a64: 9b047ceb     	mul	x11, x7, x4
    3a68: 9bc47ce4     	umulh	x4, x7, x4
    3a6c: ba0b01ce     	adcs	x14, x14, x11
    3a70: 9b057ceb     	mul	x11, x7, x5
    3a74: 9bc57ce5     	umulh	x5, x7, x5
    3a78: ba0b01ef     	adcs	x15, x15, x11
    3a7c: 9a9f37f0     	cset	x16, hs
    3a80: ab0401ef     	adds	x15, x15, x4
    3a84: 9a050210     	adc	x16, x16, x5
    3a88: ab0f01ff     	cmn	x15, x15
    3a8c: 9240f9ef     	and	x15, x15, #0x7fffffffffffffff
    3a90: 9a100208     	adc	x8, x16, x16
    3a94: d2800267     	mov	x7, #0x13               // =19
    3a98: 9b087ceb     	mul	x11, x7, x8
    3a9c: ab0b018c     	adds	x12, x12, x11
    3aa0: ba0901ad     	adcs	x13, x13, x9
    3aa4: ba0301ce     	adcs	x14, x14, x3
    3aa8: 9a1f01ef     	adc	x15, x15, xzr
    3aac: a90036cc     	stp	x12, x13, [x22]
    3ab0: a9013ece     	stp	x14, x15, [x22, #0x10]
    3ab4: 910883f6     	add	x22, sp, #0x220
    3ab8: 910683f7     	add	x23, sp, #0x1a0
    3abc: 94000877     	bl	0x5c98 <edwards25519_scalarmuldouble_alt_epdouble>
    3ac0: 910a83f6     	add	x22, sp, #0x2a0
    3ac4: 910683f7     	add	x23, sp, #0x1a0
    3ac8: 910883f8     	add	x24, sp, #0x220
    3acc: 94000e07     	bl	0x72e8 <edwards25519_scalarmuldouble_alt_epadd>
    3ad0: 910c83f6     	add	x22, sp, #0x320
    3ad4: 910883f7     	add	x23, sp, #0x220
    3ad8: 94000870     	bl	0x5c98 <edwards25519_scalarmuldouble_alt_epdouble>
    3adc: 910e83f6     	add	x22, sp, #0x3a0
    3ae0: 910683f7     	add	x23, sp, #0x1a0
    3ae4: 910c83f8     	add	x24, sp, #0x320
    3ae8: 94000e00     	bl	0x72e8 <edwards25519_scalarmuldouble_alt_epadd>
    3aec: 911083f6     	add	x22, sp, #0x420
    3af0: 910a83f7     	add	x23, sp, #0x2a0
    3af4: 94000869     	bl	0x5c98 <edwards25519_scalarmuldouble_alt_epdouble>
    3af8: 911283f6     	add	x22, sp, #0x4a0
    3afc: 910683f7     	add	x23, sp, #0x1a0
    3b00: 911083f8     	add	x24, sp, #0x420
    3b04: 94000df9     	bl	0x72e8 <edwards25519_scalarmuldouble_alt_epadd>
    3b08: 911483f6     	add	x22, sp, #0x520
    3b0c: 910c83f7     	add	x23, sp, #0x320
    3b10: 94000862     	bl	0x5c98 <edwards25519_scalarmuldouble_alt_epdouble>
    3b14: d2801f93     	mov	x19, #0xfc              // =252
    3b18: f9401fe0     	ldr	x0, [sp, #0x38]
    3b1c: d37cfc14     	lsr	x20, x0, #60
    3b20: 9000000e     	adrp	x14, 0x3000 <edwards25519_scalarmulbase_alt_invmidloop+0x648>
    3b24: 910001ce     	add	x14, x14, #0x0
    3b28: d2800020     	mov	x0, #0x1                // =1
    3b2c: aa1f03e1     	mov	x1, xzr
    3b30: aa1f03e2     	mov	x2, xzr
    3b34: aa1f03e3     	mov	x3, xzr
    3b38: d2800024     	mov	x4, #0x1                // =1
    3b3c: aa1f03e5     	mov	x5, xzr
    3b40: aa1f03e6     	mov	x6, xzr
    3b44: aa1f03e7     	mov	x7, xzr
    3b48: aa1f03e8     	mov	x8, xzr
    3b4c: aa1f03e9     	mov	x9, xzr
    3b50: aa1f03ea     	mov	x10, xzr
    3b54: aa1f03eb     	mov	x11, xzr
    3b58: f100069f     	cmp	x20, #0x1
    3b5c: a94035cc     	ldp	x12, x13, [x14]
    3b60: 9a8c1000     	csel	x0, x0, x12, ne
    3b64: 9a8d1021     	csel	x1, x1, x13, ne
    3b68: a94135cc     	ldp	x12, x13, [x14, #0x10]
    3b6c: 9a8c1042     	csel	x2, x2, x12, ne
    3b70: 9a8d1063     	csel	x3, x3, x13, ne
    3b74: a94235cc     	ldp	x12, x13, [x14, #0x20]
    3b78: 9a8c1084     	csel	x4, x4, x12, ne
    3b7c: 9a8d10a5     	csel	x5, x5, x13, ne
    3b80: a94335cc     	ldp	x12, x13, [x14, #0x30]
    3b84: 9a8c10c6     	csel	x6, x6, x12, ne
    3b88: 9a8d10e7     	csel	x7, x7, x13, ne
    3b8c: a94435cc     	ldp	x12, x13, [x14, #0x40]
    3b90: 9a8c1108     	csel	x8, x8, x12, ne
    3b94: 9a8d1129     	csel	x9, x9, x13, ne
    3b98: a94535cc     	ldp	x12, x13, [x14, #0x50]
    3b9c: 9a8c114a     	csel	x10, x10, x12, ne
    3ba0: 9a8d116b     	csel	x11, x11, x13, ne
    3ba4: 910181ce     	add	x14, x14, #0x60
    3ba8: f1000a9f     	cmp	x20, #0x2
    3bac: a94035cc     	ldp	x12, x13, [x14]
    3bb0: 9a8c1000     	csel	x0, x0, x12, ne
    3bb4: 9a8d1021     	csel	x1, x1, x13, ne
    3bb8: a94135cc     	ldp	x12, x13, [x14, #0x10]
    3bbc: 9a8c1042     	csel	x2, x2, x12, ne
    3bc0: 9a8d1063     	csel	x3, x3, x13, ne
    3bc4: a94235cc     	ldp	x12, x13, [x14, #0x20]
    3bc8: 9a8c1084     	csel	x4, x4, x12, ne
    3bcc: 9a8d10a5     	csel	x5, x5, x13, ne
    3bd0: a94335cc     	ldp	x12, x13, [x14, #0x30]
    3bd4: 9a8c10c6     	csel	x6, x6, x12, ne
    3bd8: 9a8d10e7     	csel	x7, x7, x13, ne
    3bdc: a94435cc     	ldp	x12, x13, [x14, #0x40]
    3be0: 9a8c1108     	csel	x8, x8, x12, ne
    3be4: 9a8d1129     	csel	x9, x9, x13, ne
    3be8: a94535cc     	ldp	x12, x13, [x14, #0x50]
    3bec: 9a8c114a     	csel	x10, x10, x12, ne
    3bf0: 9a8d116b     	csel	x11, x11, x13, ne
    3bf4: 910181ce     	add	x14, x14, #0x60
    3bf8: f1000e9f     	cmp	x20, #0x3
    3bfc: a94035cc     	ldp	x12, x13, [x14]
    3c00: 9a8c1000     	csel	x0, x0, x12, ne
    3c04: 9a8d1021     	csel	x1, x1, x13, ne
    3c08: a94135cc     	ldp	x12, x13, [x14, #0x10]
    3c0c: 9a8c1042     	csel	x2, x2, x12, ne
    3c10: 9a8d1063     	csel	x3, x3, x13, ne
    3c14: a94235cc     	ldp	x12, x13, [x14, #0x20]
    3c18: 9a8c1084     	csel	x4, x4, x12, ne
    3c1c: 9a8d10a5     	csel	x5, x5, x13, ne
    3c20: a94335cc     	ldp	x12, x13, [x14, #0x30]
    3c24: 9a8c10c6     	csel	x6, x6, x12, ne
    3c28: 9a8d10e7     	csel	x7, x7, x13, ne
    3c2c: a94435cc     	ldp	x12, x13, [x14, #0x40]
    3c30: 9a8c1108     	csel	x8, x8, x12, ne
    3c34: 9a8d1129     	csel	x9, x9, x13, ne
    3c38: a94535cc     	ldp	x12, x13, [x14, #0x50]
    3c3c: 9a8c114a     	csel	x10, x10, x12, ne
    3c40: 9a8d116b     	csel	x11, x11, x13, ne
    3c44: 910181ce     	add	x14, x14, #0x60
    3c48: f100129f     	cmp	x20, #0x4
    3c4c: a94035cc     	ldp	x12, x13, [x14]
    3c50: 9a8c1000     	csel	x0, x0, x12, ne
    3c54: 9a8d1021     	csel	x1, x1, x13, ne
    3c58: a94135cc     	ldp	x12, x13, [x14, #0x10]
    3c5c: 9a8c1042     	csel	x2, x2, x12, ne
    3c60: 9a8d1063     	csel	x3, x3, x13, ne
    3c64: a94235cc     	ldp	x12, x13, [x14, #0x20]
    3c68: 9a8c1084     	csel	x4, x4, x12, ne
    3c6c: 9a8d10a5     	csel	x5, x5, x13, ne
    3c70: a94335cc     	ldp	x12, x13, [x14, #0x30]
    3c74: 9a8c10c6     	csel	x6, x6, x12, ne
    3c78: 9a8d10e7     	csel	x7, x7, x13, ne
    3c7c: a94435cc     	ldp	x12, x13, [x14, #0x40]
    3c80: 9a8c1108     	csel	x8, x8, x12, ne
    3c84: 9a8d1129     	csel	x9, x9, x13, ne
    3c88: a94535cc     	ldp	x12, x13, [x14, #0x50]
    3c8c: 9a8c114a     	csel	x10, x10, x12, ne
    3c90: 9a8d116b     	csel	x11, x11, x13, ne
    3c94: 910181ce     	add	x14, x14, #0x60
    3c98: f100169f     	cmp	x20, #0x5
    3c9c: a94035cc     	ldp	x12, x13, [x14]
    3ca0: 9a8c1000     	csel	x0, x0, x12, ne
    3ca4: 9a8d1021     	csel	x1, x1, x13, ne
    3ca8: a94135cc     	ldp	x12, x13, [x14, #0x10]
    3cac: 9a8c1042     	csel	x2, x2, x12, ne
    3cb0: 9a8d1063     	csel	x3, x3, x13, ne
    3cb4: a94235cc     	ldp	x12, x13, [x14, #0x20]
    3cb8: 9a8c1084     	csel	x4, x4, x12, ne
    3cbc: 9a8d10a5     	csel	x5, x5, x13, ne
    3cc0: a94335cc     	ldp	x12, x13, [x14, #0x30]
    3cc4: 9a8c10c6     	csel	x6, x6, x12, ne
    3cc8: 9a8d10e7     	csel	x7, x7, x13, ne
    3ccc: a94435cc     	ldp	x12, x13, [x14, #0x40]
    3cd0: 9a8c1108     	csel	x8, x8, x12, ne
    3cd4: 9a8d1129     	csel	x9, x9, x13, ne
    3cd8: a94535cc     	ldp	x12, x13, [x14, #0x50]
    3cdc: 9a8c114a     	csel	x10, x10, x12, ne
    3ce0: 9a8d116b     	csel	x11, x11, x13, ne
    3ce4: 910181ce     	add	x14, x14, #0x60
    3ce8: f1001a9f     	cmp	x20, #0x6
    3cec: a94035cc     	ldp	x12, x13, [x14]
    3cf0: 9a8c1000     	csel	x0, x0, x12, ne
    3cf4: 9a8d1021     	csel	x1, x1, x13, ne
    3cf8: a94135cc     	ldp	x12, x13, [x14, #0x10]
    3cfc: 9a8c1042     	csel	x2, x2, x12, ne
    3d00: 9a8d1063     	csel	x3, x3, x13, ne
    3d04: a94235cc     	ldp	x12, x13, [x14, #0x20]
    3d08: 9a8c1084     	csel	x4, x4, x12, ne
    3d0c: 9a8d10a5     	csel	x5, x5, x13, ne
    3d10: a94335cc     	ldp	x12, x13, [x14, #0x30]
    3d14: 9a8c10c6     	csel	x6, x6, x12, ne
    3d18: 9a8d10e7     	csel	x7, x7, x13, ne
    3d1c: a94435cc     	ldp	x12, x13, [x14, #0x40]
    3d20: 9a8c1108     	csel	x8, x8, x12, ne
    3d24: 9a8d1129     	csel	x9, x9, x13, ne
    3d28: a94535cc     	ldp	x12, x13, [x14, #0x50]
    3d2c: 9a8c114a     	csel	x10, x10, x12, ne
    3d30: 9a8d116b     	csel	x11, x11, x13, ne
    3d34: 910181ce     	add	x14, x14, #0x60
    3d38: f1001e9f     	cmp	x20, #0x7
    3d3c: a94035cc     	ldp	x12, x13, [x14]
    3d40: 9a8c1000     	csel	x0, x0, x12, ne
    3d44: 9a8d1021     	csel	x1, x1, x13, ne
    3d48: a94135cc     	ldp	x12, x13, [x14, #0x10]
    3d4c: 9a8c1042     	csel	x2, x2, x12, ne
    3d50: 9a8d1063     	csel	x3, x3, x13, ne
    3d54: a94235cc     	ldp	x12, x13, [x14, #0x20]
    3d58: 9a8c1084     	csel	x4, x4, x12, ne
    3d5c: 9a8d10a5     	csel	x5, x5, x13, ne
    3d60: a94335cc     	ldp	x12, x13, [x14, #0x30]
    3d64: 9a8c10c6     	csel	x6, x6, x12, ne
    3d68: 9a8d10e7     	csel	x7, x7, x13, ne
    3d6c: a94435cc     	ldp	x12, x13, [x14, #0x40]
    3d70: 9a8c1108     	csel	x8, x8, x12, ne
    3d74: 9a8d1129     	csel	x9, x9, x13, ne
    3d78: a94535cc     	ldp	x12, x13, [x14, #0x50]
    3d7c: 9a8c114a     	csel	x10, x10, x12, ne
    3d80: 9a8d116b     	csel	x11, x11, x13, ne
    3d84: 910181ce     	add	x14, x14, #0x60
    3d88: f100229f     	cmp	x20, #0x8
    3d8c: a94035cc     	ldp	x12, x13, [x14]
    3d90: 9a8c1000     	csel	x0, x0, x12, ne
    3d94: 9a8d1021     	csel	x1, x1, x13, ne
    3d98: a94135cc     	ldp	x12, x13, [x14, #0x10]
    3d9c: 9a8c1042     	csel	x2, x2, x12, ne
    3da0: 9a8d1063     	csel	x3, x3, x13, ne
    3da4: a94235cc     	ldp	x12, x13, [x14, #0x20]
    3da8: 9a8c1084     	csel	x4, x4, x12, ne
    3dac: 9a8d10a5     	csel	x5, x5, x13, ne
    3db0: a94335cc     	ldp	x12, x13, [x14, #0x30]
    3db4: 9a8c10c6     	csel	x6, x6, x12, ne
    3db8: 9a8d10e7     	csel	x7, x7, x13, ne
    3dbc: a94435cc     	ldp	x12, x13, [x14, #0x40]
    3dc0: 9a8c1108     	csel	x8, x8, x12, ne
    3dc4: 9a8d1129     	csel	x9, x9, x13, ne
    3dc8: a94535cc     	ldp	x12, x13, [x14, #0x50]
    3dcc: 9a8c114a     	csel	x10, x10, x12, ne
    3dd0: 9a8d116b     	csel	x11, x11, x13, ne
    3dd4: a90407e0     	stp	x0, x1, [sp, #0x40]
    3dd8: a9050fe2     	stp	x2, x3, [sp, #0x50]
    3ddc: a90617e4     	stp	x4, x5, [sp, #0x60]
    3de0: a9071fe6     	stp	x6, x7, [sp, #0x70]
    3de4: a90827e8     	stp	x8, x9, [sp, #0x80]
    3de8: a9092fea     	stp	x10, x11, [sp, #0x90]
    3dec: f9400fe0     	ldr	x0, [sp, #0x18]
    3df0: d37cfc14     	lsr	x20, x0, #60
    3df4: 910683f6     	add	x22, sp, #0x1a0
    3df8: aa1f03e0     	mov	x0, xzr
    3dfc: aa1f03e1     	mov	x1, xzr
    3e00: aa1f03e2     	mov	x2, xzr
    3e04: aa1f03e3     	mov	x3, xzr
    3e08: d2800024     	mov	x4, #0x1                // =1
    3e0c: aa1f03e5     	mov	x5, xzr
    3e10: aa1f03e6     	mov	x6, xzr
    3e14: aa1f03e7     	mov	x7, xzr
    3e18: d2800028     	mov	x8, #0x1                // =1
    3e1c: aa1f03e9     	mov	x9, xzr
    3e20: aa1f03ea     	mov	x10, xzr
    3e24: aa1f03eb     	mov	x11, xzr
    3e28: aa1f03ec     	mov	x12, xzr
    3e2c: aa1f03ed     	mov	x13, xzr
    3e30: aa1f03ee     	mov	x14, xzr
    3e34: aa1f03ef     	mov	x15, xzr
    3e38: f100069f     	cmp	x20, #0x1
    3e3c: a94046d0     	ldp	x16, x17, [x22]
    3e40: 9a901000     	csel	x0, x0, x16, ne
    3e44: 9a911021     	csel	x1, x1, x17, ne
    3e48: a94146d0     	ldp	x16, x17, [x22, #0x10]
    3e4c: 9a901042     	csel	x2, x2, x16, ne
    3e50: 9a911063     	csel	x3, x3, x17, ne
    3e54: a94246d0     	ldp	x16, x17, [x22, #0x20]
    3e58: 9a901084     	csel	x4, x4, x16, ne
    3e5c: 9a9110a5     	csel	x5, x5, x17, ne
    3e60: a94346d0     	ldp	x16, x17, [x22, #0x30]
    3e64: 9a9010c6     	csel	x6, x6, x16, ne
    3e68: 9a9110e7     	csel	x7, x7, x17, ne
    3e6c: a94446d0     	ldp	x16, x17, [x22, #0x40]
    3e70: 9a901108     	csel	x8, x8, x16, ne
    3e74: 9a911129     	csel	x9, x9, x17, ne
    3e78: a94546d0     	ldp	x16, x17, [x22, #0x50]
    3e7c: 9a90114a     	csel	x10, x10, x16, ne
    3e80: 9a91116b     	csel	x11, x11, x17, ne
    3e84: a94646d0     	ldp	x16, x17, [x22, #0x60]
    3e88: 9a90118c     	csel	x12, x12, x16, ne
    3e8c: 9a9111ad     	csel	x13, x13, x17, ne
    3e90: a94746d0     	ldp	x16, x17, [x22, #0x70]
    3e94: 9a9011ce     	csel	x14, x14, x16, ne
    3e98: 9a9111ef     	csel	x15, x15, x17, ne
    3e9c: 910202d6     	add	x22, x22, #0x80
    3ea0: f1000a9f     	cmp	x20, #0x2
    3ea4: a94046d0     	ldp	x16, x17, [x22]
    3ea8: 9a901000     	csel	x0, x0, x16, ne
    3eac: 9a911021     	csel	x1, x1, x17, ne
    3eb0: a94146d0     	ldp	x16, x17, [x22, #0x10]
    3eb4: 9a901042     	csel	x2, x2, x16, ne
    3eb8: 9a911063     	csel	x3, x3, x17, ne
    3ebc: a94246d0     	ldp	x16, x17, [x22, #0x20]
    3ec0: 9a901084     	csel	x4, x4, x16, ne
    3ec4: 9a9110a5     	csel	x5, x5, x17, ne
    3ec8: a94346d0     	ldp	x16, x17, [x22, #0x30]
    3ecc: 9a9010c6     	csel	x6, x6, x16, ne
    3ed0: 9a9110e7     	csel	x7, x7, x17, ne
    3ed4: a94446d0     	ldp	x16, x17, [x22, #0x40]
    3ed8: 9a901108     	csel	x8, x8, x16, ne
    3edc: 9a911129     	csel	x9, x9, x17, ne
    3ee0: a94546d0     	ldp	x16, x17, [x22, #0x50]
    3ee4: 9a90114a     	csel	x10, x10, x16, ne
    3ee8: 9a91116b     	csel	x11, x11, x17, ne
    3eec: a94646d0     	ldp	x16, x17, [x22, #0x60]
    3ef0: 9a90118c     	csel	x12, x12, x16, ne
    3ef4: 9a9111ad     	csel	x13, x13, x17, ne
    3ef8: a94746d0     	ldp	x16, x17, [x22, #0x70]
    3efc: 9a9011ce     	csel	x14, x14, x16, ne
    3f00: 9a9111ef     	csel	x15, x15, x17, ne
    3f04: 910202d6     	add	x22, x22, #0x80
    3f08: f1000e9f     	cmp	x20, #0x3
    3f0c: a94046d0     	ldp	x16, x17, [x22]
    3f10: 9a901000     	csel	x0, x0, x16, ne
    3f14: 9a911021     	csel	x1, x1, x17, ne
    3f18: a94146d0     	ldp	x16, x17, [x22, #0x10]
    3f1c: 9a901042     	csel	x2, x2, x16, ne
    3f20: 9a911063     	csel	x3, x3, x17, ne
    3f24: a94246d0     	ldp	x16, x17, [x22, #0x20]
    3f28: 9a901084     	csel	x4, x4, x16, ne
    3f2c: 9a9110a5     	csel	x5, x5, x17, ne
    3f30: a94346d0     	ldp	x16, x17, [x22, #0x30]
    3f34: 9a9010c6     	csel	x6, x6, x16, ne
    3f38: 9a9110e7     	csel	x7, x7, x17, ne
    3f3c: a94446d0     	ldp	x16, x17, [x22, #0x40]
    3f40: 9a901108     	csel	x8, x8, x16, ne
    3f44: 9a911129     	csel	x9, x9, x17, ne
    3f48: a94546d0     	ldp	x16, x17, [x22, #0x50]
    3f4c: 9a90114a     	csel	x10, x10, x16, ne
    3f50: 9a91116b     	csel	x11, x11, x17, ne
    3f54: a94646d0     	ldp	x16, x17, [x22, #0x60]
    3f58: 9a90118c     	csel	x12, x12, x16, ne
    3f5c: 9a9111ad     	csel	x13, x13, x17, ne
    3f60: a94746d0     	ldp	x16, x17, [x22, #0x70]
    3f64: 9a9011ce     	csel	x14, x14, x16, ne
    3f68: 9a9111ef     	csel	x15, x15, x17, ne
    3f6c: 910202d6     	add	x22, x22, #0x80
    3f70: f100129f     	cmp	x20, #0x4
    3f74: a94046d0     	ldp	x16, x17, [x22]
    3f78: 9a901000     	csel	x0, x0, x16, ne
    3f7c: 9a911021     	csel	x1, x1, x17, ne
    3f80: a94146d0     	ldp	x16, x17, [x22, #0x10]
    3f84: 9a901042     	csel	x2, x2, x16, ne
    3f88: 9a911063     	csel	x3, x3, x17, ne
    3f8c: a94246d0     	ldp	x16, x17, [x22, #0x20]
    3f90: 9a901084     	csel	x4, x4, x16, ne
    3f94: 9a9110a5     	csel	x5, x5, x17, ne
    3f98: a94346d0     	ldp	x16, x17, [x22, #0x30]
    3f9c: 9a9010c6     	csel	x6, x6, x16, ne
    3fa0: 9a9110e7     	csel	x7, x7, x17, ne
    3fa4: a94446d0     	ldp	x16, x17, [x22, #0x40]
    3fa8: 9a901108     	csel	x8, x8, x16, ne
    3fac: 9a911129     	csel	x9, x9, x17, ne
    3fb0: a94546d0     	ldp	x16, x17, [x22, #0x50]
    3fb4: 9a90114a     	csel	x10, x10, x16, ne
    3fb8: 9a91116b     	csel	x11, x11, x17, ne
    3fbc: a94646d0     	ldp	x16, x17, [x22, #0x60]
    3fc0: 9a90118c     	csel	x12, x12, x16, ne
    3fc4: 9a9111ad     	csel	x13, x13, x17, ne
    3fc8: a94746d0     	ldp	x16, x17, [x22, #0x70]
    3fcc: 9a9011ce     	csel	x14, x14, x16, ne
    3fd0: 9a9111ef     	csel	x15, x15, x17, ne
    3fd4: 910202d6     	add	x22, x22, #0x80
    3fd8: f100169f     	cmp	x20, #0x5
    3fdc: a94046d0     	ldp	x16, x17, [x22]
    3fe0: 9a901000     	csel	x0, x0, x16, ne
    3fe4: 9a911021     	csel	x1, x1, x17, ne
    3fe8: a94146d0     	ldp	x16, x17, [x22, #0x10]
    3fec: 9a901042     	csel	x2, x2, x16, ne
    3ff0: 9a911063     	csel	x3, x3, x17, ne
    3ff4: a94246d0     	ldp	x16, x17, [x22, #0x20]
    3ff8: 9a901084     	csel	x4, x4, x16, ne
    3ffc: 9a9110a5     	csel	x5, x5, x17, ne
    4000: a94346d0     	ldp	x16, x17, [x22, #0x30]
    4004: 9a9010c6     	csel	x6, x6, x16, ne
    4008: 9a9110e7     	csel	x7, x7, x17, ne
    400c: a94446d0     	ldp	x16, x17, [x22, #0x40]
    4010: 9a901108     	csel	x8, x8, x16, ne
    4014: 9a911129     	csel	x9, x9, x17, ne
    4018: a94546d0     	ldp	x16, x17, [x22, #0x50]
    401c: 9a90114a     	csel	x10, x10, x16, ne
    4020: 9a91116b     	csel	x11, x11, x17, ne
    4024: a94646d0     	ldp	x16, x17, [x22, #0x60]
    4028: 9a90118c     	csel	x12, x12, x16, ne
    402c: 9a9111ad     	csel	x13, x13, x17, ne
    4030: a94746d0     	ldp	x16, x17, [x22, #0x70]
    4034: 9a9011ce     	csel	x14, x14, x16, ne
    4038: 9a9111ef     	csel	x15, x15, x17, ne
    403c: 910202d6     	add	x22, x22, #0x80
    4040: f1001a9f     	cmp	x20, #0x6
    4044: a94046d0     	ldp	x16, x17, [x22]
    4048: 9a901000     	csel	x0, x0, x16, ne
    404c: 9a911021     	csel	x1, x1, x17, ne
    4050: a94146d0     	ldp	x16, x17, [x22, #0x10]
    4054: 9a901042     	csel	x2, x2, x16, ne
    4058: 9a911063     	csel	x3, x3, x17, ne
    405c: a94246d0     	ldp	x16, x17, [x22, #0x20]
    4060: 9a901084     	csel	x4, x4, x16, ne
    4064: 9a9110a5     	csel	x5, x5, x17, ne
    4068: a94346d0     	ldp	x16, x17, [x22, #0x30]
    406c: 9a9010c6     	csel	x6, x6, x16, ne
    4070: 9a9110e7     	csel	x7, x7, x17, ne
    4074: a94446d0     	ldp	x16, x17, [x22, #0x40]
    4078: 9a901108     	csel	x8, x8, x16, ne
    407c: 9a911129     	csel	x9, x9, x17, ne
    4080: a94546d0     	ldp	x16, x17, [x22, #0x50]
    4084: 9a90114a     	csel	x10, x10, x16, ne
    4088: 9a91116b     	csel	x11, x11, x17, ne
    408c: a94646d0     	ldp	x16, x17, [x22, #0x60]
    4090: 9a90118c     	csel	x12, x12, x16, ne
    4094: 9a9111ad     	csel	x13, x13, x17, ne
    4098: a94746d0     	ldp	x16, x17, [x22, #0x70]
    409c: 9a9011ce     	csel	x14, x14, x16, ne
    40a0: 9a9111ef     	csel	x15, x15, x17, ne
    40a4: 910202d6     	add	x22, x22, #0x80
    40a8: f1001e9f     	cmp	x20, #0x7
    40ac: a94046d0     	ldp	x16, x17, [x22]
    40b0: 9a901000     	csel	x0, x0, x16, ne
    40b4: 9a911021     	csel	x1, x1, x17, ne
    40b8: a94146d0     	ldp	x16, x17, [x22, #0x10]
    40bc: 9a901042     	csel	x2, x2, x16, ne
    40c0: 9a911063     	csel	x3, x3, x17, ne
    40c4: a94246d0     	ldp	x16, x17, [x22, #0x20]
    40c8: 9a901084     	csel	x4, x4, x16, ne
    40cc: 9a9110a5     	csel	x5, x5, x17, ne
    40d0: a94346d0     	ldp	x16, x17, [x22, #0x30]
    40d4: 9a9010c6     	csel	x6, x6, x16, ne
    40d8: 9a9110e7     	csel	x7, x7, x17, ne
    40dc: a94446d0     	ldp	x16, x17, [x22, #0x40]
    40e0: 9a901108     	csel	x8, x8, x16, ne
    40e4: 9a911129     	csel	x9, x9, x17, ne
    40e8: a94546d0     	ldp	x16, x17, [x22, #0x50]
    40ec: 9a90114a     	csel	x10, x10, x16, ne
    40f0: 9a91116b     	csel	x11, x11, x17, ne
    40f4: a94646d0     	ldp	x16, x17, [x22, #0x60]
    40f8: 9a90118c     	csel	x12, x12, x16, ne
    40fc: 9a9111ad     	csel	x13, x13, x17, ne
    4100: a94746d0     	ldp	x16, x17, [x22, #0x70]
    4104: 9a9011ce     	csel	x14, x14, x16, ne
    4108: 9a9111ef     	csel	x15, x15, x17, ne
    410c: 910202d6     	add	x22, x22, #0x80
    4110: f100229f     	cmp	x20, #0x8
    4114: a94046d0     	ldp	x16, x17, [x22]
    4118: 9a901000     	csel	x0, x0, x16, ne
    411c: 9a911021     	csel	x1, x1, x17, ne
    4120: a94146d0     	ldp	x16, x17, [x22, #0x10]
    4124: 9a901042     	csel	x2, x2, x16, ne
    4128: 9a911063     	csel	x3, x3, x17, ne
    412c: a94246d0     	ldp	x16, x17, [x22, #0x20]
    4130: 9a901084     	csel	x4, x4, x16, ne
    4134: 9a9110a5     	csel	x5, x5, x17, ne
    4138: a94346d0     	ldp	x16, x17, [x22, #0x30]
    413c: 9a9010c6     	csel	x6, x6, x16, ne
    4140: 9a9110e7     	csel	x7, x7, x17, ne
    4144: a94446d0     	ldp	x16, x17, [x22, #0x40]
    4148: 9a901108     	csel	x8, x8, x16, ne
    414c: 9a911129     	csel	x9, x9, x17, ne
    4150: a94546d0     	ldp	x16, x17, [x22, #0x50]
    4154: 9a90114a     	csel	x10, x10, x16, ne
    4158: 9a91116b     	csel	x11, x11, x17, ne
    415c: a94646d0     	ldp	x16, x17, [x22, #0x60]
    4160: 9a90118c     	csel	x12, x12, x16, ne
    4164: 9a9111ad     	csel	x13, x13, x17, ne
    4168: a94746d0     	ldp	x16, x17, [x22, #0x70]
    416c: 9a9011ce     	csel	x14, x14, x16, ne
    4170: 9a9111ef     	csel	x15, x15, x17, ne
    4174: a91207e0     	stp	x0, x1, [sp, #0x120]
    4178: a9130fe2     	stp	x2, x3, [sp, #0x130]
    417c: a91417e4     	stp	x4, x5, [sp, #0x140]
    4180: a9151fe6     	stp	x6, x7, [sp, #0x150]
    4184: a91627e8     	stp	x8, x9, [sp, #0x160]
    4188: a9172fea     	stp	x10, x11, [sp, #0x170]
    418c: a91837ec     	stp	x12, x13, [sp, #0x180]
    4190: a9193fee     	stp	x14, x15, [sp, #0x190]
    4194: 910283f6     	add	x22, sp, #0xa0
    4198: 910483f7     	add	x23, sp, #0x120
    419c: 910103f8     	add	x24, sp, #0x40
    41a0: 94001043     	bl	0x82ac <edwards25519_scalarmuldouble_alt_pepadd>

00000000000041a4 <edwards25519_scalarmuldouble_alt_loop>:
    41a4: d1001273     	sub	x19, x19, #0x4
    41a8: 910283f6     	add	x22, sp, #0xa0
    41ac: 910283f7     	add	x23, sp, #0xa0
    41b0: 940009b3     	bl	0x687c <edwards25519_scalarmuldouble_alt_pdouble>
    41b4: d346fe60     	lsr	x0, x19, #6
    41b8: 910083e1     	add	x1, sp, #0x20
    41bc: f8607822     	ldr	x2, [x1, x0, lsl #3]
    41c0: 9ad32443     	lsr	x3, x2, x19
    41c4: 92400c60     	and	x0, x3, #0xf
    41c8: f1002014     	subs	x20, x0, #0x8
    41cc: da942694     	cneg	x20, x20, lo
    41d0: da9f23f5     	csetm	x21, lo
    41d4: 9000000e     	adrp	x14, 0x4000 <edwards25519_scalarmuldouble_alt+0x7f0>
    41d8: 910001ce     	add	x14, x14, #0x0
    41dc: d2800020     	mov	x0, #0x1                // =1
    41e0: aa1f03e1     	mov	x1, xzr
    41e4: aa1f03e2     	mov	x2, xzr
    41e8: aa1f03e3     	mov	x3, xzr
    41ec: d2800024     	mov	x4, #0x1                // =1
    41f0: aa1f03e5     	mov	x5, xzr
    41f4: aa1f03e6     	mov	x6, xzr
    41f8: aa1f03e7     	mov	x7, xzr
    41fc: aa1f03e8     	mov	x8, xzr
    4200: aa1f03e9     	mov	x9, xzr
    4204: aa1f03ea     	mov	x10, xzr
    4208: aa1f03eb     	mov	x11, xzr
    420c: f100069f     	cmp	x20, #0x1
    4210: a94035cc     	ldp	x12, x13, [x14]
    4214: 9a8c1000     	csel	x0, x0, x12, ne
    4218: 9a8d1021     	csel	x1, x1, x13, ne
    421c: a94135cc     	ldp	x12, x13, [x14, #0x10]
    4220: 9a8c1042     	csel	x2, x2, x12, ne
    4224: 9a8d1063     	csel	x3, x3, x13, ne
    4228: a94235cc     	ldp	x12, x13, [x14, #0x20]
    422c: 9a8c1084     	csel	x4, x4, x12, ne
    4230: 9a8d10a5     	csel	x5, x5, x13, ne
    4234: a94335cc     	ldp	x12, x13, [x14, #0x30]
    4238: 9a8c10c6     	csel	x6, x6, x12, ne
    423c: 9a8d10e7     	csel	x7, x7, x13, ne
    4240: a94435cc     	ldp	x12, x13, [x14, #0x40]
    4244: 9a8c1108     	csel	x8, x8, x12, ne
    4248: 9a8d1129     	csel	x9, x9, x13, ne
    424c: a94535cc     	ldp	x12, x13, [x14, #0x50]
    4250: 9a8c114a     	csel	x10, x10, x12, ne
    4254: 9a8d116b     	csel	x11, x11, x13, ne
    4258: 910181ce     	add	x14, x14, #0x60
    425c: f1000a9f     	cmp	x20, #0x2
    4260: a94035cc     	ldp	x12, x13, [x14]
    4264: 9a8c1000     	csel	x0, x0, x12, ne
    4268: 9a8d1021     	csel	x1, x1, x13, ne
    426c: a94135cc     	ldp	x12, x13, [x14, #0x10]
    4270: 9a8c1042     	csel	x2, x2, x12, ne
    4274: 9a8d1063     	csel	x3, x3, x13, ne
    4278: a94235cc     	ldp	x12, x13, [x14, #0x20]
    427c: 9a8c1084     	csel	x4, x4, x12, ne
    4280: 9a8d10a5     	csel	x5, x5, x13, ne
    4284: a94335cc     	ldp	x12, x13, [x14, #0x30]
    4288: 9a8c10c6     	csel	x6, x6, x12, ne
    428c: 9a8d10e7     	csel	x7, x7, x13, ne
    4290: a94435cc     	ldp	x12, x13, [x14, #0x40]
    4294: 9a8c1108     	csel	x8, x8, x12, ne
    4298: 9a8d1129     	csel	x9, x9, x13, ne
    429c: a94535cc     	ldp	x12, x13, [x14, #0x50]
    42a0: 9a8c114a     	csel	x10, x10, x12, ne
    42a4: 9a8d116b     	csel	x11, x11, x13, ne
    42a8: 910181ce     	add	x14, x14, #0x60
    42ac: f1000e9f     	cmp	x20, #0x3
    42b0: a94035cc     	ldp	x12, x13, [x14]
    42b4: 9a8c1000     	csel	x0, x0, x12, ne
    42b8: 9a8d1021     	csel	x1, x1, x13, ne
    42bc: a94135cc     	ldp	x12, x13, [x14, #0x10]
    42c0: 9a8c1042     	csel	x2, x2, x12, ne
    42c4: 9a8d1063     	csel	x3, x3, x13, ne
    42c8: a94235cc     	ldp	x12, x13, [x14, #0x20]
    42cc: 9a8c1084     	csel	x4, x4, x12, ne
    42d0: 9a8d10a5     	csel	x5, x5, x13, ne
    42d4: a94335cc     	ldp	x12, x13, [x14, #0x30]
    42d8: 9a8c10c6     	csel	x6, x6, x12, ne
    42dc: 9a8d10e7     	csel	x7, x7, x13, ne
    42e0: a94435cc     	ldp	x12, x13, [x14, #0x40]
    42e4: 9a8c1108     	csel	x8, x8, x12, ne
    42e8: 9a8d1129     	csel	x9, x9, x13, ne
    42ec: a94535cc     	ldp	x12, x13, [x14, #0x50]
    42f0: 9a8c114a     	csel	x10, x10, x12, ne
    42f4: 9a8d116b     	csel	x11, x11, x13, ne
    42f8: 910181ce     	add	x14, x14, #0x60
    42fc: f100129f     	cmp	x20, #0x4
    4300: a94035cc     	ldp	x12, x13, [x14]
    4304: 9a8c1000     	csel	x0, x0, x12, ne
    4308: 9a8d1021     	csel	x1, x1, x13, ne
    430c: a94135cc     	ldp	x12, x13, [x14, #0x10]
    4310: 9a8c1042     	csel	x2, x2, x12, ne
    4314: 9a8d1063     	csel	x3, x3, x13, ne
    4318: a94235cc     	ldp	x12, x13, [x14, #0x20]
    431c: 9a8c1084     	csel	x4, x4, x12, ne
    4320: 9a8d10a5     	csel	x5, x5, x13, ne
    4324: a94335cc     	ldp	x12, x13, [x14, #0x30]
    4328: 9a8c10c6     	csel	x6, x6, x12, ne
    432c: 9a8d10e7     	csel	x7, x7, x13, ne
    4330: a94435cc     	ldp	x12, x13, [x14, #0x40]
    4334: 9a8c1108     	csel	x8, x8, x12, ne
    4338: 9a8d1129     	csel	x9, x9, x13, ne
    433c: a94535cc     	ldp	x12, x13, [x14, #0x50]
    4340: 9a8c114a     	csel	x10, x10, x12, ne
    4344: 9a8d116b     	csel	x11, x11, x13, ne
    4348: 910181ce     	add	x14, x14, #0x60
    434c: f100169f     	cmp	x20, #0x5
    4350: a94035cc     	ldp	x12, x13, [x14]
    4354: 9a8c1000     	csel	x0, x0, x12, ne
    4358: 9a8d1021     	csel	x1, x1, x13, ne
    435c: a94135cc     	ldp	x12, x13, [x14, #0x10]
    4360: 9a8c1042     	csel	x2, x2, x12, ne
    4364: 9a8d1063     	csel	x3, x3, x13, ne
    4368: a94235cc     	ldp	x12, x13, [x14, #0x20]
    436c: 9a8c1084     	csel	x4, x4, x12, ne
    4370: 9a8d10a5     	csel	x5, x5, x13, ne
    4374: a94335cc     	ldp	x12, x13, [x14, #0x30]
    4378: 9a8c10c6     	csel	x6, x6, x12, ne
    437c: 9a8d10e7     	csel	x7, x7, x13, ne
    4380: a94435cc     	ldp	x12, x13, [x14, #0x40]
    4384: 9a8c1108     	csel	x8, x8, x12, ne
    4388: 9a8d1129     	csel	x9, x9, x13, ne
    438c: a94535cc     	ldp	x12, x13, [x14, #0x50]
    4390: 9a8c114a     	csel	x10, x10, x12, ne
    4394: 9a8d116b     	csel	x11, x11, x13, ne
    4398: 910181ce     	add	x14, x14, #0x60
    439c: f1001a9f     	cmp	x20, #0x6
    43a0: a94035cc     	ldp	x12, x13, [x14]
    43a4: 9a8c1000     	csel	x0, x0, x12, ne
    43a8: 9a8d1021     	csel	x1, x1, x13, ne
    43ac: a94135cc     	ldp	x12, x13, [x14, #0x10]
    43b0: 9a8c1042     	csel	x2, x2, x12, ne
    43b4: 9a8d1063     	csel	x3, x3, x13, ne
    43b8: a94235cc     	ldp	x12, x13, [x14, #0x20]
    43bc: 9a8c1084     	csel	x4, x4, x12, ne
    43c0: 9a8d10a5     	csel	x5, x5, x13, ne
    43c4: a94335cc     	ldp	x12, x13, [x14, #0x30]
    43c8: 9a8c10c6     	csel	x6, x6, x12, ne
    43cc: 9a8d10e7     	csel	x7, x7, x13, ne
    43d0: a94435cc     	ldp	x12, x13, [x14, #0x40]
    43d4: 9a8c1108     	csel	x8, x8, x12, ne
    43d8: 9a8d1129     	csel	x9, x9, x13, ne
    43dc: a94535cc     	ldp	x12, x13, [x14, #0x50]
    43e0: 9a8c114a     	csel	x10, x10, x12, ne
    43e4: 9a8d116b     	csel	x11, x11, x13, ne
    43e8: 910181ce     	add	x14, x14, #0x60
    43ec: f1001e9f     	cmp	x20, #0x7
    43f0: a94035cc     	ldp	x12, x13, [x14]
    43f4: 9a8c1000     	csel	x0, x0, x12, ne
    43f8: 9a8d1021     	csel	x1, x1, x13, ne
    43fc: a94135cc     	ldp	x12, x13, [x14, #0x10]
    4400: 9a8c1042     	csel	x2, x2, x12, ne
    4404: 9a8d1063     	csel	x3, x3, x13, ne
    4408: a94235cc     	ldp	x12, x13, [x14, #0x20]
    440c: 9a8c1084     	csel	x4, x4, x12, ne
    4410: 9a8d10a5     	csel	x5, x5, x13, ne
    4414: a94335cc     	ldp	x12, x13, [x14, #0x30]
    4418: 9a8c10c6     	csel	x6, x6, x12, ne
    441c: 9a8d10e7     	csel	x7, x7, x13, ne
    4420: a94435cc     	ldp	x12, x13, [x14, #0x40]
    4424: 9a8c1108     	csel	x8, x8, x12, ne
    4428: 9a8d1129     	csel	x9, x9, x13, ne
    442c: a94535cc     	ldp	x12, x13, [x14, #0x50]
    4430: 9a8c114a     	csel	x10, x10, x12, ne
    4434: 9a8d116b     	csel	x11, x11, x13, ne
    4438: 910181ce     	add	x14, x14, #0x60
    443c: f100229f     	cmp	x20, #0x8
    4440: a94035cc     	ldp	x12, x13, [x14]
    4444: 9a8c1000     	csel	x0, x0, x12, ne
    4448: 9a8d1021     	csel	x1, x1, x13, ne
    444c: a94135cc     	ldp	x12, x13, [x14, #0x10]
    4450: 9a8c1042     	csel	x2, x2, x12, ne
    4454: 9a8d1063     	csel	x3, x3, x13, ne
    4458: a94235cc     	ldp	x12, x13, [x14, #0x20]
    445c: 9a8c1084     	csel	x4, x4, x12, ne
    4460: 9a8d10a5     	csel	x5, x5, x13, ne
    4464: a94335cc     	ldp	x12, x13, [x14, #0x30]
    4468: 9a8c10c6     	csel	x6, x6, x12, ne
    446c: 9a8d10e7     	csel	x7, x7, x13, ne
    4470: a94435cc     	ldp	x12, x13, [x14, #0x40]
    4474: 9a8c1108     	csel	x8, x8, x12, ne
    4478: 9a8d1129     	csel	x9, x9, x13, ne
    447c: a94535cc     	ldp	x12, x13, [x14, #0x50]
    4480: 9a8c114a     	csel	x10, x10, x12, ne
    4484: 9a8d116b     	csel	x11, x11, x13, ne
    4488: eb1f02bf     	cmp	x21, xzr
    448c: 9a84000c     	csel	x12, x0, x4, eq
    4490: 9a841004     	csel	x4, x0, x4, ne
    4494: 9a85002d     	csel	x13, x1, x5, eq
    4498: 9a851025     	csel	x5, x1, x5, ne
    449c: 9a86004e     	csel	x14, x2, x6, eq
    44a0: 9a861046     	csel	x6, x2, x6, ne
    44a4: 9a87006f     	csel	x15, x3, x7, eq
    44a8: 9a871067     	csel	x7, x3, x7, ne
    44ac: ca150108     	eor	x8, x8, x21
    44b0: ca150129     	eor	x9, x9, x21
    44b4: ca15014a     	eor	x10, x10, x21
    44b8: ca15016b     	eor	x11, x11, x21
    44bc: d28004a0     	mov	x0, #0x25               // =37
    44c0: 8a150000     	and	x0, x0, x21
    44c4: eb000108     	subs	x8, x8, x0
    44c8: fa1f0129     	sbcs	x9, x9, xzr
    44cc: fa1f014a     	sbcs	x10, x10, xzr
    44d0: da1f016b     	sbc	x11, x11, xzr
    44d4: a90437ec     	stp	x12, x13, [sp, #0x40]
    44d8: a9053fee     	stp	x14, x15, [sp, #0x50]
    44dc: a90617e4     	stp	x4, x5, [sp, #0x60]
    44e0: a9071fe6     	stp	x6, x7, [sp, #0x70]
    44e4: a90827e8     	stp	x8, x9, [sp, #0x80]
    44e8: a9092fea     	stp	x10, x11, [sp, #0x90]
    44ec: d346fe60     	lsr	x0, x19, #6
    44f0: f8607be1     	ldr	x1, [sp, x0, lsl #3]
    44f4: 9ad32422     	lsr	x2, x1, x19
    44f8: 92400c40     	and	x0, x2, #0xf
    44fc: f1002014     	subs	x20, x0, #0x8
    4500: da942694     	cneg	x20, x20, lo
    4504: da9f23f5     	csetm	x21, lo
    4508: 910683f6     	add	x22, sp, #0x1a0
    450c: aa1f03e0     	mov	x0, xzr
    4510: aa1f03e1     	mov	x1, xzr
    4514: aa1f03e2     	mov	x2, xzr
    4518: aa1f03e3     	mov	x3, xzr
    451c: d2800024     	mov	x4, #0x1                // =1
    4520: aa1f03e5     	mov	x5, xzr
    4524: aa1f03e6     	mov	x6, xzr
    4528: aa1f03e7     	mov	x7, xzr
    452c: d2800028     	mov	x8, #0x1                // =1
    4530: aa1f03e9     	mov	x9, xzr
    4534: aa1f03ea     	mov	x10, xzr
    4538: aa1f03eb     	mov	x11, xzr
    453c: aa1f03ec     	mov	x12, xzr
    4540: aa1f03ed     	mov	x13, xzr
    4544: aa1f03ee     	mov	x14, xzr
    4548: aa1f03ef     	mov	x15, xzr
    454c: f100069f     	cmp	x20, #0x1
    4550: a94046d0     	ldp	x16, x17, [x22]
    4554: 9a901000     	csel	x0, x0, x16, ne
    4558: 9a911021     	csel	x1, x1, x17, ne
    455c: a94146d0     	ldp	x16, x17, [x22, #0x10]
    4560: 9a901042     	csel	x2, x2, x16, ne
    4564: 9a911063     	csel	x3, x3, x17, ne
    4568: a94246d0     	ldp	x16, x17, [x22, #0x20]
    456c: 9a901084     	csel	x4, x4, x16, ne
    4570: 9a9110a5     	csel	x5, x5, x17, ne
    4574: a94346d0     	ldp	x16, x17, [x22, #0x30]
    4578: 9a9010c6     	csel	x6, x6, x16, ne
    457c: 9a9110e7     	csel	x7, x7, x17, ne
    4580: a94446d0     	ldp	x16, x17, [x22, #0x40]
    4584: 9a901108     	csel	x8, x8, x16, ne
    4588: 9a911129     	csel	x9, x9, x17, ne
    458c: a94546d0     	ldp	x16, x17, [x22, #0x50]
    4590: 9a90114a     	csel	x10, x10, x16, ne
    4594: 9a91116b     	csel	x11, x11, x17, ne
    4598: a94646d0     	ldp	x16, x17, [x22, #0x60]
    459c: 9a90118c     	csel	x12, x12, x16, ne
    45a0: 9a9111ad     	csel	x13, x13, x17, ne
    45a4: a94746d0     	ldp	x16, x17, [x22, #0x70]
    45a8: 9a9011ce     	csel	x14, x14, x16, ne
    45ac: 9a9111ef     	csel	x15, x15, x17, ne
    45b0: 910202d6     	add	x22, x22, #0x80
    45b4: f1000a9f     	cmp	x20, #0x2
    45b8: a94046d0     	ldp	x16, x17, [x22]
    45bc: 9a901000     	csel	x0, x0, x16, ne
    45c0: 9a911021     	csel	x1, x1, x17, ne
    45c4: a94146d0     	ldp	x16, x17, [x22, #0x10]
    45c8: 9a901042     	csel	x2, x2, x16, ne
    45cc: 9a911063     	csel	x3, x3, x17, ne
    45d0: a94246d0     	ldp	x16, x17, [x22, #0x20]
    45d4: 9a901084     	csel	x4, x4, x16, ne
    45d8: 9a9110a5     	csel	x5, x5, x17, ne
    45dc: a94346d0     	ldp	x16, x17, [x22, #0x30]
    45e0: 9a9010c6     	csel	x6, x6, x16, ne
    45e4: 9a9110e7     	csel	x7, x7, x17, ne
    45e8: a94446d0     	ldp	x16, x17, [x22, #0x40]
    45ec: 9a901108     	csel	x8, x8, x16, ne
    45f0: 9a911129     	csel	x9, x9, x17, ne
    45f4: a94546d0     	ldp	x16, x17, [x22, #0x50]
    45f8: 9a90114a     	csel	x10, x10, x16, ne
    45fc: 9a91116b     	csel	x11, x11, x17, ne
    4600: a94646d0     	ldp	x16, x17, [x22, #0x60]
    4604: 9a90118c     	csel	x12, x12, x16, ne
    4608: 9a9111ad     	csel	x13, x13, x17, ne
    460c: a94746d0     	ldp	x16, x17, [x22, #0x70]
    4610: 9a9011ce     	csel	x14, x14, x16, ne
    4614: 9a9111ef     	csel	x15, x15, x17, ne
    4618: 910202d6     	add	x22, x22, #0x80
    461c: f1000e9f     	cmp	x20, #0x3
    4620: a94046d0     	ldp	x16, x17, [x22]
    4624: 9a901000     	csel	x0, x0, x16, ne
    4628: 9a911021     	csel	x1, x1, x17, ne
    462c: a94146d0     	ldp	x16, x17, [x22, #0x10]
    4630: 9a901042     	csel	x2, x2, x16, ne
    4634: 9a911063     	csel	x3, x3, x17, ne
    4638: a94246d0     	ldp	x16, x17, [x22, #0x20]
    463c: 9a901084     	csel	x4, x4, x16, ne
    4640: 9a9110a5     	csel	x5, x5, x17, ne
    4644: a94346d0     	ldp	x16, x17, [x22, #0x30]
    4648: 9a9010c6     	csel	x6, x6, x16, ne
    464c: 9a9110e7     	csel	x7, x7, x17, ne
    4650: a94446d0     	ldp	x16, x17, [x22, #0x40]
    4654: 9a901108     	csel	x8, x8, x16, ne
    4658: 9a911129     	csel	x9, x9, x17, ne
    465c: a94546d0     	ldp	x16, x17, [x22, #0x50]
    4660: 9a90114a     	csel	x10, x10, x16, ne
    4664: 9a91116b     	csel	x11, x11, x17, ne
    4668: a94646d0     	ldp	x16, x17, [x22, #0x60]
    466c: 9a90118c     	csel	x12, x12, x16, ne
    4670: 9a9111ad     	csel	x13, x13, x17, ne
    4674: a94746d0     	ldp	x16, x17, [x22, #0x70]
    4678: 9a9011ce     	csel	x14, x14, x16, ne
    467c: 9a9111ef     	csel	x15, x15, x17, ne
    4680: 910202d6     	add	x22, x22, #0x80
    4684: f100129f     	cmp	x20, #0x4
    4688: a94046d0     	ldp	x16, x17, [x22]
    468c: 9a901000     	csel	x0, x0, x16, ne
    4690: 9a911021     	csel	x1, x1, x17, ne
    4694: a94146d0     	ldp	x16, x17, [x22, #0x10]
    4698: 9a901042     	csel	x2, x2, x16, ne
    469c: 9a911063     	csel	x3, x3, x17, ne
    46a0: a94246d0     	ldp	x16, x17, [x22, #0x20]
    46a4: 9a901084     	csel	x4, x4, x16, ne
    46a8: 9a9110a5     	csel	x5, x5, x17, ne
    46ac: a94346d0     	ldp	x16, x17, [x22, #0x30]
    46b0: 9a9010c6     	csel	x6, x6, x16, ne
    46b4: 9a9110e7     	csel	x7, x7, x17, ne
    46b8: a94446d0     	ldp	x16, x17, [x22, #0x40]
    46bc: 9a901108     	csel	x8, x8, x16, ne
    46c0: 9a911129     	csel	x9, x9, x17, ne
    46c4: a94546d0     	ldp	x16, x17, [x22, #0x50]
    46c8: 9a90114a     	csel	x10, x10, x16, ne
    46cc: 9a91116b     	csel	x11, x11, x17, ne
    46d0: a94646d0     	ldp	x16, x17, [x22, #0x60]
    46d4: 9a90118c     	csel	x12, x12, x16, ne
    46d8: 9a9111ad     	csel	x13, x13, x17, ne
    46dc: a94746d0     	ldp	x16, x17, [x22, #0x70]
    46e0: 9a9011ce     	csel	x14, x14, x16, ne
    46e4: 9a9111ef     	csel	x15, x15, x17, ne
    46e8: 910202d6     	add	x22, x22, #0x80
    46ec: f100169f     	cmp	x20, #0x5
    46f0: a94046d0     	ldp	x16, x17, [x22]
    46f4: 9a901000     	csel	x0, x0, x16, ne
    46f8: 9a911021     	csel	x1, x1, x17, ne
    46fc: a94146d0     	ldp	x16, x17, [x22, #0x10]
    4700: 9a901042     	csel	x2, x2, x16, ne
    4704: 9a911063     	csel	x3, x3, x17, ne
    4708: a94246d0     	ldp	x16, x17, [x22, #0x20]
    470c: 9a901084     	csel	x4, x4, x16, ne
    4710: 9a9110a5     	csel	x5, x5, x17, ne
    4714: a94346d0     	ldp	x16, x17, [x22, #0x30]
    4718: 9a9010c6     	csel	x6, x6, x16, ne
    471c: 9a9110e7     	csel	x7, x7, x17, ne
    4720: a94446d0     	ldp	x16, x17, [x22, #0x40]
    4724: 9a901108     	csel	x8, x8, x16, ne
    4728: 9a911129     	csel	x9, x9, x17, ne
    472c: a94546d0     	ldp	x16, x17, [x22, #0x50]
    4730: 9a90114a     	csel	x10, x10, x16, ne
    4734: 9a91116b     	csel	x11, x11, x17, ne
    4738: a94646d0     	ldp	x16, x17, [x22, #0x60]
    473c: 9a90118c     	csel	x12, x12, x16, ne
    4740: 9a9111ad     	csel	x13, x13, x17, ne
    4744: a94746d0     	ldp	x16, x17, [x22, #0x70]
    4748: 9a9011ce     	csel	x14, x14, x16, ne
    474c: 9a9111ef     	csel	x15, x15, x17, ne
    4750: 910202d6     	add	x22, x22, #0x80
    4754: f1001a9f     	cmp	x20, #0x6
    4758: a94046d0     	ldp	x16, x17, [x22]
    475c: 9a901000     	csel	x0, x0, x16, ne
    4760: 9a911021     	csel	x1, x1, x17, ne
    4764: a94146d0     	ldp	x16, x17, [x22, #0x10]
    4768: 9a901042     	csel	x2, x2, x16, ne
    476c: 9a911063     	csel	x3, x3, x17, ne
    4770: a94246d0     	ldp	x16, x17, [x22, #0x20]
    4774: 9a901084     	csel	x4, x4, x16, ne
    4778: 9a9110a5     	csel	x5, x5, x17, ne
    477c: a94346d0     	ldp	x16, x17, [x22, #0x30]
    4780: 9a9010c6     	csel	x6, x6, x16, ne
    4784: 9a9110e7     	csel	x7, x7, x17, ne
    4788: a94446d0     	ldp	x16, x17, [x22, #0x40]
    478c: 9a901108     	csel	x8, x8, x16, ne
    4790: 9a911129     	csel	x9, x9, x17, ne
    4794: a94546d0     	ldp	x16, x17, [x22, #0x50]
    4798: 9a90114a     	csel	x10, x10, x16, ne
    479c: 9a91116b     	csel	x11, x11, x17, ne
    47a0: a94646d0     	ldp	x16, x17, [x22, #0x60]
    47a4: 9a90118c     	csel	x12, x12, x16, ne
    47a8: 9a9111ad     	csel	x13, x13, x17, ne
    47ac: a94746d0     	ldp	x16, x17, [x22, #0x70]
    47b0: 9a9011ce     	csel	x14, x14, x16, ne
    47b4: 9a9111ef     	csel	x15, x15, x17, ne
    47b8: 910202d6     	add	x22, x22, #0x80
    47bc: f1001e9f     	cmp	x20, #0x7
    47c0: a94046d0     	ldp	x16, x17, [x22]
    47c4: 9a901000     	csel	x0, x0, x16, ne
    47c8: 9a911021     	csel	x1, x1, x17, ne
    47cc: a94146d0     	ldp	x16, x17, [x22, #0x10]
    47d0: 9a901042     	csel	x2, x2, x16, ne
    47d4: 9a911063     	csel	x3, x3, x17, ne
    47d8: a94246d0     	ldp	x16, x17, [x22, #0x20]
    47dc: 9a901084     	csel	x4, x4, x16, ne
    47e0: 9a9110a5     	csel	x5, x5, x17, ne
    47e4: a94346d0     	ldp	x16, x17, [x22, #0x30]
    47e8: 9a9010c6     	csel	x6, x6, x16, ne
    47ec: 9a9110e7     	csel	x7, x7, x17, ne
    47f0: a94446d0     	ldp	x16, x17, [x22, #0x40]
    47f4: 9a901108     	csel	x8, x8, x16, ne
    47f8: 9a911129     	csel	x9, x9, x17, ne
    47fc: a94546d0     	ldp	x16, x17, [x22, #0x50]
    4800: 9a90114a     	csel	x10, x10, x16, ne
    4804: 9a91116b     	csel	x11, x11, x17, ne
    4808: a94646d0     	ldp	x16, x17, [x22, #0x60]
    480c: 9a90118c     	csel	x12, x12, x16, ne
    4810: 9a9111ad     	csel	x13, x13, x17, ne
    4814: a94746d0     	ldp	x16, x17, [x22, #0x70]
    4818: 9a9011ce     	csel	x14, x14, x16, ne
    481c: 9a9111ef     	csel	x15, x15, x17, ne
    4820: 910202d6     	add	x22, x22, #0x80
    4824: f100229f     	cmp	x20, #0x8
    4828: a94046d0     	ldp	x16, x17, [x22]
    482c: 9a901000     	csel	x0, x0, x16, ne
    4830: 9a911021     	csel	x1, x1, x17, ne
    4834: a94146d0     	ldp	x16, x17, [x22, #0x10]
    4838: 9a901042     	csel	x2, x2, x16, ne
    483c: 9a911063     	csel	x3, x3, x17, ne
    4840: a94246d0     	ldp	x16, x17, [x22, #0x20]
    4844: 9a901084     	csel	x4, x4, x16, ne
    4848: 9a9110a5     	csel	x5, x5, x17, ne
    484c: a94346d0     	ldp	x16, x17, [x22, #0x30]
    4850: 9a9010c6     	csel	x6, x6, x16, ne
    4854: 9a9110e7     	csel	x7, x7, x17, ne
    4858: a94446d0     	ldp	x16, x17, [x22, #0x40]
    485c: 9a901108     	csel	x8, x8, x16, ne
    4860: 9a911129     	csel	x9, x9, x17, ne
    4864: a94546d0     	ldp	x16, x17, [x22, #0x50]
    4868: 9a90114a     	csel	x10, x10, x16, ne
    486c: 9a91116b     	csel	x11, x11, x17, ne
    4870: a94646d0     	ldp	x16, x17, [x22, #0x60]
    4874: 9a90118c     	csel	x12, x12, x16, ne
    4878: 9a9111ad     	csel	x13, x13, x17, ne
    487c: a94746d0     	ldp	x16, x17, [x22, #0x70]
    4880: 9a9011ce     	csel	x14, x14, x16, ne
    4884: 9a9111ef     	csel	x15, x15, x17, ne
    4888: ca150000     	eor	x0, x0, x21
    488c: ca150021     	eor	x1, x1, x21
    4890: ca150042     	eor	x2, x2, x21
    4894: ca150063     	eor	x3, x3, x21
    4898: d28004b0     	mov	x16, #0x25              // =37
    489c: 8a150210     	and	x16, x16, x21
    48a0: eb100000     	subs	x0, x0, x16
    48a4: fa1f0021     	sbcs	x1, x1, xzr
    48a8: fa1f0042     	sbcs	x2, x2, xzr
    48ac: da1f0063     	sbc	x3, x3, xzr
    48b0: ca15018c     	eor	x12, x12, x21
    48b4: ca1501ad     	eor	x13, x13, x21
    48b8: ca1501ce     	eor	x14, x14, x21
    48bc: ca1501ef     	eor	x15, x15, x21
    48c0: eb10018c     	subs	x12, x12, x16
    48c4: fa1f01ad     	sbcs	x13, x13, xzr
    48c8: fa1f01ce     	sbcs	x14, x14, xzr
    48cc: da1f01ef     	sbc	x15, x15, xzr
    48d0: a91207e0     	stp	x0, x1, [sp, #0x120]
    48d4: a9130fe2     	stp	x2, x3, [sp, #0x130]
    48d8: a91417e4     	stp	x4, x5, [sp, #0x140]
    48dc: a9151fe6     	stp	x6, x7, [sp, #0x150]
    48e0: a91627e8     	stp	x8, x9, [sp, #0x160]
    48e4: a9172fea     	stp	x10, x11, [sp, #0x170]
    48e8: a91837ec     	stp	x12, x13, [sp, #0x180]
    48ec: a9193fee     	stp	x14, x15, [sp, #0x190]
    48f0: 910283f6     	add	x22, sp, #0xa0
    48f4: 910283f7     	add	x23, sp, #0xa0
    48f8: 940007e1     	bl	0x687c <edwards25519_scalarmuldouble_alt_pdouble>
    48fc: 910483f6     	add	x22, sp, #0x120
    4900: 910483f7     	add	x23, sp, #0x120
    4904: 910103f8     	add	x24, sp, #0x40
    4908: 94000e69     	bl	0x82ac <edwards25519_scalarmuldouble_alt_pepadd>
    490c: 910283f6     	add	x22, sp, #0xa0
    4910: 910283f7     	add	x23, sp, #0xa0
    4914: 940007da     	bl	0x687c <edwards25519_scalarmuldouble_alt_pdouble>
    4918: 910283f6     	add	x22, sp, #0xa0
    491c: 910283f7     	add	x23, sp, #0xa0
    4920: 940004de     	bl	0x5c98 <edwards25519_scalarmuldouble_alt_epdouble>
    4924: 910283f6     	add	x22, sp, #0xa0
    4928: 910283f7     	add	x23, sp, #0xa0
    492c: 910483f8     	add	x24, sp, #0x120
    4930: 94000a6e     	bl	0x72e8 <edwards25519_scalarmuldouble_alt_epadd>
    4934: b5ffc393     	cbnz	x19, 0x41a4 <edwards25519_scalarmuldouble_alt_loop>
    4938: 910483e0     	add	x0, sp, #0x120
    493c: 910383e1     	add	x1, sp, #0xe0
    4940: aa0003f4     	mov	x20, x0
    4944: 9280024a     	mov	x10, #-0x13             // =-19
    4948: 9280000b     	mov	x11, #-0x1              // =-1
    494c: a9002fea     	stp	x10, x11, [sp]
    4950: 92f0000c     	mov	x12, #0x7fffffffffffffff // =9223372036854775807
    4954: a90133eb     	stp	x11, x12, [sp, #0x10]
    4958: a9400c22     	ldp	x2, x3, [x1]
    495c: a9411424     	ldp	x4, x5, [x1, #0x10]
    4960: d2800267     	mov	x7, #0x13               // =19
    4964: d37ffca6     	lsr	x6, x5, #63
    4968: 9b061ce6     	madd	x6, x7, x6, x7
    496c: ab060042     	adds	x2, x2, x6
    4970: ba1f0063     	adcs	x3, x3, xzr
    4974: ba1f0084     	adcs	x4, x4, xzr
    4978: b24100a5     	orr	x5, x5, #0x8000000000000000
    497c: ba1f00a5     	adcs	x5, x5, xzr
    4980: 9a9f30e6     	csel	x6, x7, xzr, lo
    4984: eb060042     	subs	x2, x2, x6
    4988: fa1f0063     	sbcs	x3, x3, xzr
    498c: fa1f0084     	sbcs	x4, x4, xzr
    4990: da1f00a5     	sbc	x5, x5, xzr
    4994: 9240f8a5     	and	x5, x5, #0x7fffffffffffffff
    4998: a9020fe2     	stp	x2, x3, [sp, #0x20]
    499c: a90317e4     	stp	x4, x5, [sp, #0x30]
    49a0: a9047fff     	stp	xzr, xzr, [sp, #0x40]
    49a4: a9057fff     	stp	xzr, xzr, [sp, #0x50]
    49a8: d284132a     	mov	x10, #0x2099            // =8345
    49ac: f2aea04a     	movk	x10, #0x7502, lsl #16
    49b0: f2d3c46a     	movk	x10, #0x9e23, lsl #32
    49b4: f2f41f2a     	movk	x10, #0xa0f9, lsl #48
    49b8: d284b2ab     	mov	x11, #0x2595            // =9621
    49bc: f2a3a26b     	movk	x11, #0x1d13, lsl #16
    49c0: f2d1e7eb     	movk	x11, #0x8f3f, lsl #32
    49c4: f2f518cb     	movk	x11, #0xa8c6, lsl #48
    49c8: d28a484c     	mov	x12, #0x5242            // =21058
    49cc: f2a0b58c     	movk	x12, #0x5ac, lsl #16
    49d0: f2d1270c     	movk	x12, #0x8938, lsl #32
    49d4: f2ed8d8c     	movk	x12, #0x6c6c, lsl #48
    49d8: d280c2ad     	mov	x13, #0x615             // =1557
    49dc: f2a82eed     	movk	x13, #0x4177, lsl #16
    49e0: f2c1164d     	movk	x13, #0x8b2, lsl #32
    49e4: f2e4ecad     	movk	x13, #0x2765, lsl #48
    49e8: a9062fea     	stp	x10, x11, [sp, #0x60]
    49ec: a90737ec     	stp	x12, x13, [sp, #0x70]
    49f0: d2800155     	mov	x21, #0xa               // =10
    49f4: d2800036     	mov	x22, #0x1               // =1
    49f8: 1400010b     	b	0x4e24 <edwards25519_scalarmuldouble_alt_invmidloop>

00000000000049fc <edwards25519_scalarmuldouble_alt_invloop>:
    49fc: eb1f015f     	cmp	x10, xzr
    4a00: da9f53ee     	csetm	x14, mi
    4a04: da8a554a     	cneg	x10, x10, mi
    4a08: eb1f017f     	cmp	x11, xzr
    4a0c: da9f53ef     	csetm	x15, mi
    4a10: da8b556b     	cneg	x11, x11, mi
    4a14: eb1f019f     	cmp	x12, xzr
    4a18: da9f53f0     	csetm	x16, mi
    4a1c: da8c558c     	cneg	x12, x12, mi
    4a20: eb1f01bf     	cmp	x13, xzr
    4a24: da9f53f1     	csetm	x17, mi
    4a28: da8d55ad     	cneg	x13, x13, mi
    4a2c: 8a0e0140     	and	x0, x10, x14
    4a30: 8a0f0161     	and	x1, x11, x15
    4a34: 8b010009     	add	x9, x0, x1
    4a38: 8a100180     	and	x0, x12, x16
    4a3c: 8a1101a1     	and	x1, x13, x17
    4a40: 8b010013     	add	x19, x0, x1
    4a44: f94003e7     	ldr	x7, [sp]
    4a48: ca0e00e1     	eor	x1, x7, x14
    4a4c: 9b0a7c20     	mul	x0, x1, x10
    4a50: 9bca7c21     	umulh	x1, x1, x10
    4a54: ab000124     	adds	x4, x9, x0
    4a58: 9a0103e2     	adc	x2, xzr, x1
    4a5c: f94013e8     	ldr	x8, [sp, #0x20]
    4a60: ca0f0101     	eor	x1, x8, x15
    4a64: 9b0b7c20     	mul	x0, x1, x11
    4a68: 9bcb7c21     	umulh	x1, x1, x11
    4a6c: ab000084     	adds	x4, x4, x0
    4a70: 9a010042     	adc	x2, x2, x1
    4a74: ca1000e1     	eor	x1, x7, x16
    4a78: 9b0c7c20     	mul	x0, x1, x12
    4a7c: 9bcc7c21     	umulh	x1, x1, x12
    4a80: ab000265     	adds	x5, x19, x0
    4a84: 9a0103e3     	adc	x3, xzr, x1
    4a88: ca110101     	eor	x1, x8, x17
    4a8c: 9b0d7c20     	mul	x0, x1, x13
    4a90: 9bcd7c21     	umulh	x1, x1, x13
    4a94: ab0000a5     	adds	x5, x5, x0
    4a98: 9a010063     	adc	x3, x3, x1
    4a9c: f94007e7     	ldr	x7, [sp, #0x8]
    4aa0: ca0e00e1     	eor	x1, x7, x14
    4aa4: 9b0a7c20     	mul	x0, x1, x10
    4aa8: 9bca7c21     	umulh	x1, x1, x10
    4aac: ab000042     	adds	x2, x2, x0
    4ab0: 9a0103e6     	adc	x6, xzr, x1
    4ab4: f94017e8     	ldr	x8, [sp, #0x28]
    4ab8: ca0f0101     	eor	x1, x8, x15
    4abc: 9b0b7c20     	mul	x0, x1, x11
    4ac0: 9bcb7c21     	umulh	x1, x1, x11
    4ac4: ab000042     	adds	x2, x2, x0
    4ac8: 9a0100c6     	adc	x6, x6, x1
    4acc: 93c4ec44     	extr	x4, x2, x4, #0x3b
    4ad0: f90003e4     	str	x4, [sp]
    4ad4: ca1000e1     	eor	x1, x7, x16
    4ad8: 9b0c7c20     	mul	x0, x1, x12
    4adc: 9bcc7c21     	umulh	x1, x1, x12
    4ae0: ab000063     	adds	x3, x3, x0
    4ae4: 9a0103e4     	adc	x4, xzr, x1
    4ae8: ca110101     	eor	x1, x8, x17
    4aec: 9b0d7c20     	mul	x0, x1, x13
    4af0: 9bcd7c21     	umulh	x1, x1, x13
    4af4: ab000063     	adds	x3, x3, x0
    4af8: 9a010084     	adc	x4, x4, x1
    4afc: 93c5ec65     	extr	x5, x3, x5, #0x3b
    4b00: f90013e5     	str	x5, [sp, #0x20]
    4b04: f9400be7     	ldr	x7, [sp, #0x10]
    4b08: ca0e00e1     	eor	x1, x7, x14
    4b0c: 9b0a7c20     	mul	x0, x1, x10
    4b10: 9bca7c21     	umulh	x1, x1, x10
    4b14: ab0000c6     	adds	x6, x6, x0
    4b18: 9a0103e5     	adc	x5, xzr, x1
    4b1c: f9401be8     	ldr	x8, [sp, #0x30]
    4b20: ca0f0101     	eor	x1, x8, x15
    4b24: 9b0b7c20     	mul	x0, x1, x11
    4b28: 9bcb7c21     	umulh	x1, x1, x11
    4b2c: ab0000c6     	adds	x6, x6, x0
    4b30: 9a0100a5     	adc	x5, x5, x1
    4b34: 93c2ecc2     	extr	x2, x6, x2, #0x3b
    4b38: f90007e2     	str	x2, [sp, #0x8]
    4b3c: ca1000e1     	eor	x1, x7, x16
    4b40: 9b0c7c20     	mul	x0, x1, x12
    4b44: 9bcc7c21     	umulh	x1, x1, x12
    4b48: ab000084     	adds	x4, x4, x0
    4b4c: 9a0103e2     	adc	x2, xzr, x1
    4b50: ca110101     	eor	x1, x8, x17
    4b54: 9b0d7c20     	mul	x0, x1, x13
    4b58: 9bcd7c21     	umulh	x1, x1, x13
    4b5c: ab000084     	adds	x4, x4, x0
    4b60: 9a010042     	adc	x2, x2, x1
    4b64: 93c3ec83     	extr	x3, x4, x3, #0x3b
    4b68: f90017e3     	str	x3, [sp, #0x28]
    4b6c: f9400fe7     	ldr	x7, [sp, #0x18]
    4b70: ca0e00e1     	eor	x1, x7, x14
    4b74: 937ffc23     	asr	x3, x1, #63
    4b78: 8a0a0063     	and	x3, x3, x10
    4b7c: cb0303e3     	neg	x3, x3
    4b80: 9b0a7c20     	mul	x0, x1, x10
    4b84: 9bca7c21     	umulh	x1, x1, x10
    4b88: ab0000a5     	adds	x5, x5, x0
    4b8c: 9a010063     	adc	x3, x3, x1
    4b90: f9401fe8     	ldr	x8, [sp, #0x38]
    4b94: ca0f0101     	eor	x1, x8, x15
    4b98: 937ffc20     	asr	x0, x1, #63
    4b9c: 8a0b0000     	and	x0, x0, x11
    4ba0: cb000063     	sub	x3, x3, x0
    4ba4: 9b0b7c20     	mul	x0, x1, x11
    4ba8: 9bcb7c21     	umulh	x1, x1, x11
    4bac: ab0000a5     	adds	x5, x5, x0
    4bb0: 9a010063     	adc	x3, x3, x1
    4bb4: 93c6eca6     	extr	x6, x5, x6, #0x3b
    4bb8: f9000be6     	str	x6, [sp, #0x10]
    4bbc: 93c5ec65     	extr	x5, x3, x5, #0x3b
    4bc0: f9000fe5     	str	x5, [sp, #0x18]
    4bc4: ca1000e1     	eor	x1, x7, x16
    4bc8: 937ffc25     	asr	x5, x1, #63
    4bcc: 8a0c00a5     	and	x5, x5, x12
    4bd0: cb0503e5     	neg	x5, x5
    4bd4: 9b0c7c20     	mul	x0, x1, x12
    4bd8: 9bcc7c21     	umulh	x1, x1, x12
    4bdc: ab000042     	adds	x2, x2, x0
    4be0: 9a0100a5     	adc	x5, x5, x1
    4be4: ca110101     	eor	x1, x8, x17
    4be8: 937ffc20     	asr	x0, x1, #63
    4bec: 8a0d0000     	and	x0, x0, x13
    4bf0: cb0000a5     	sub	x5, x5, x0
    4bf4: 9b0d7c20     	mul	x0, x1, x13
    4bf8: 9bcd7c21     	umulh	x1, x1, x13
    4bfc: ab000042     	adds	x2, x2, x0
    4c00: 9a0100a5     	adc	x5, x5, x1
    4c04: 93c4ec44     	extr	x4, x2, x4, #0x3b
    4c08: f9001be4     	str	x4, [sp, #0x30]
    4c0c: 93c2eca2     	extr	x2, x5, x2, #0x3b
    4c10: f9001fe2     	str	x2, [sp, #0x38]
    4c14: f94023e7     	ldr	x7, [sp, #0x40]
    4c18: ca0e00e1     	eor	x1, x7, x14
    4c1c: 9b0a7c20     	mul	x0, x1, x10
    4c20: 9bca7c21     	umulh	x1, x1, x10
    4c24: ab000124     	adds	x4, x9, x0
    4c28: 9a0103e2     	adc	x2, xzr, x1
    4c2c: f94033e8     	ldr	x8, [sp, #0x60]
    4c30: ca0f0101     	eor	x1, x8, x15
    4c34: 9b0b7c20     	mul	x0, x1, x11
    4c38: 9bcb7c21     	umulh	x1, x1, x11
    4c3c: ab000084     	adds	x4, x4, x0
    4c40: f90023e4     	str	x4, [sp, #0x40]
    4c44: 9a010042     	adc	x2, x2, x1
    4c48: ca1000e1     	eor	x1, x7, x16
    4c4c: 9b0c7c20     	mul	x0, x1, x12
    4c50: 9bcc7c21     	umulh	x1, x1, x12
    4c54: ab000265     	adds	x5, x19, x0
    4c58: 9a0103e3     	adc	x3, xzr, x1
    4c5c: ca110101     	eor	x1, x8, x17
    4c60: 9b0d7c20     	mul	x0, x1, x13
    4c64: 9bcd7c21     	umulh	x1, x1, x13
    4c68: ab0000a5     	adds	x5, x5, x0
    4c6c: f90033e5     	str	x5, [sp, #0x60]
    4c70: 9a010063     	adc	x3, x3, x1
    4c74: f94027e7     	ldr	x7, [sp, #0x48]
    4c78: ca0e00e1     	eor	x1, x7, x14
    4c7c: 9b0a7c20     	mul	x0, x1, x10
    4c80: 9bca7c21     	umulh	x1, x1, x10
    4c84: ab000042     	adds	x2, x2, x0
    4c88: 9a0103e6     	adc	x6, xzr, x1
    4c8c: f94037e8     	ldr	x8, [sp, #0x68]
    4c90: ca0f0101     	eor	x1, x8, x15
    4c94: 9b0b7c20     	mul	x0, x1, x11
    4c98: 9bcb7c21     	umulh	x1, x1, x11
    4c9c: ab000042     	adds	x2, x2, x0
    4ca0: f90027e2     	str	x2, [sp, #0x48]
    4ca4: 9a0100c6     	adc	x6, x6, x1
    4ca8: ca1000e1     	eor	x1, x7, x16
    4cac: 9b0c7c20     	mul	x0, x1, x12
    4cb0: 9bcc7c21     	umulh	x1, x1, x12
    4cb4: ab000063     	adds	x3, x3, x0
    4cb8: 9a0103e4     	adc	x4, xzr, x1
    4cbc: ca110101     	eor	x1, x8, x17
    4cc0: 9b0d7c20     	mul	x0, x1, x13
    4cc4: 9bcd7c21     	umulh	x1, x1, x13
    4cc8: ab000063     	adds	x3, x3, x0
    4ccc: f90037e3     	str	x3, [sp, #0x68]
    4cd0: 9a010084     	adc	x4, x4, x1
    4cd4: f9402be7     	ldr	x7, [sp, #0x50]
    4cd8: ca0e00e1     	eor	x1, x7, x14
    4cdc: 9b0a7c20     	mul	x0, x1, x10
    4ce0: 9bca7c21     	umulh	x1, x1, x10
    4ce4: ab0000c6     	adds	x6, x6, x0
    4ce8: 9a0103e5     	adc	x5, xzr, x1
    4cec: f9403be8     	ldr	x8, [sp, #0x70]
    4cf0: ca0f0101     	eor	x1, x8, x15
    4cf4: 9b0b7c20     	mul	x0, x1, x11
    4cf8: 9bcb7c21     	umulh	x1, x1, x11
    4cfc: ab0000c6     	adds	x6, x6, x0
    4d00: f9002be6     	str	x6, [sp, #0x50]
    4d04: 9a0100a5     	adc	x5, x5, x1
    4d08: ca1000e1     	eor	x1, x7, x16
    4d0c: 9b0c7c20     	mul	x0, x1, x12
    4d10: 9bcc7c21     	umulh	x1, x1, x12
    4d14: ab000084     	adds	x4, x4, x0
    4d18: 9a0103e2     	adc	x2, xzr, x1
    4d1c: ca110101     	eor	x1, x8, x17
    4d20: 9b0d7c20     	mul	x0, x1, x13
    4d24: 9bcd7c21     	umulh	x1, x1, x13
    4d28: ab000084     	adds	x4, x4, x0
    4d2c: f9003be4     	str	x4, [sp, #0x70]
    4d30: 9a010042     	adc	x2, x2, x1
    4d34: f9402fe7     	ldr	x7, [sp, #0x58]
    4d38: ca0e00e1     	eor	x1, x7, x14
    4d3c: 8a0a01c3     	and	x3, x14, x10
    4d40: cb0303e3     	neg	x3, x3
    4d44: 9b0a7c20     	mul	x0, x1, x10
    4d48: 9bca7c21     	umulh	x1, x1, x10
    4d4c: ab0000a5     	adds	x5, x5, x0
    4d50: 9a010063     	adc	x3, x3, x1
    4d54: f9403fe8     	ldr	x8, [sp, #0x78]
    4d58: ca0f0101     	eor	x1, x8, x15
    4d5c: 8a0b01e0     	and	x0, x15, x11
    4d60: cb000063     	sub	x3, x3, x0
    4d64: 9b0b7c20     	mul	x0, x1, x11
    4d68: 9bcb7c21     	umulh	x1, x1, x11
    4d6c: ab0000a5     	adds	x5, x5, x0
    4d70: 9a010063     	adc	x3, x3, x1
    4d74: 93c5fc66     	extr	x6, x3, x5, #0x3f
    4d78: a94407e0     	ldp	x0, x1, [sp, #0x40]
    4d7c: 8b83fcc6     	add	x6, x6, x3, asr #63
    4d80: d2800263     	mov	x3, #0x13               // =19
    4d84: 9b037cc4     	mul	x4, x6, x3
    4d88: 8b06fca5     	add	x5, x5, x6, lsl #63
    4d8c: 9b437cc3     	smulh	x3, x6, x3
    4d90: f9402be6     	ldr	x6, [sp, #0x50]
    4d94: ab040000     	adds	x0, x0, x4
    4d98: ba030021     	adcs	x1, x1, x3
    4d9c: 937ffc63     	asr	x3, x3, #63
    4da0: ba0300c6     	adcs	x6, x6, x3
    4da4: 9a0300a5     	adc	x5, x5, x3
    4da8: a90407e0     	stp	x0, x1, [sp, #0x40]
    4dac: a90517e6     	stp	x6, x5, [sp, #0x50]
    4db0: ca1000e1     	eor	x1, x7, x16
    4db4: 8a0c0205     	and	x5, x16, x12
    4db8: cb0503e5     	neg	x5, x5
    4dbc: 9b0c7c20     	mul	x0, x1, x12
    4dc0: 9bcc7c21     	umulh	x1, x1, x12
    4dc4: ab000042     	adds	x2, x2, x0
    4dc8: 9a0100a5     	adc	x5, x5, x1
    4dcc: ca110101     	eor	x1, x8, x17
    4dd0: 8a0d0220     	and	x0, x17, x13
    4dd4: cb0000a5     	sub	x5, x5, x0
    4dd8: 9b0d7c20     	mul	x0, x1, x13
    4ddc: 9bcd7c21     	umulh	x1, x1, x13
    4de0: ab000042     	adds	x2, x2, x0
    4de4: 9a0100a5     	adc	x5, x5, x1
    4de8: 93c2fca6     	extr	x6, x5, x2, #0x3f
    4dec: a94607e0     	ldp	x0, x1, [sp, #0x60]
    4df0: 8b85fcc6     	add	x6, x6, x5, asr #63
    4df4: d2800265     	mov	x5, #0x13               // =19
    4df8: 9b057cc4     	mul	x4, x6, x5
    4dfc: 8b06fc42     	add	x2, x2, x6, lsl #63
    4e00: 9b457cc5     	smulh	x5, x6, x5
    4e04: f9403be3     	ldr	x3, [sp, #0x70]
    4e08: ab040000     	adds	x0, x0, x4
    4e0c: ba050021     	adcs	x1, x1, x5
    4e10: 937ffca5     	asr	x5, x5, #63
    4e14: ba050063     	adcs	x3, x3, x5
    4e18: 9a050042     	adc	x2, x2, x5
    4e1c: a90607e0     	stp	x0, x1, [sp, #0x60]
    4e20: a9070be3     	stp	x3, x2, [sp, #0x70]

0000000000004e24 <edwards25519_scalarmuldouble_alt_invmidloop>:
    4e24: aa1603e1     	mov	x1, x22
    4e28: f94003e2     	ldr	x2, [sp]
    4e2c: f94013e3     	ldr	x3, [sp, #0x20]
    4e30: 92404c44     	and	x4, x2, #0xfffff
    4e34: b2575884     	orr	x4, x4, #0xfffffe0000000000
    4e38: 92404c65     	and	x5, x3, #0xfffff
    4e3c: b24204a5     	orr	x5, x5, #0xc000000000000000
    4e40: f24000bf     	tst	x5, #0x1
    4e44: 9a9f1086     	csel	x6, x4, xzr, ne
    4e48: fa5f1028     	ccmp	x1, xzr, #0x8, ne
    4e4c: da81b421     	cneg	x1, x1, ge
    4e50: da86b4c6     	cneg	x6, x6, ge
    4e54: 9a84a0a4     	csel	x4, x5, x4, ge
    4e58: 8b0600a5     	add	x5, x5, x6
    4e5c: 91000821     	add	x1, x1, #0x2
    4e60: f27f00bf     	tst	x5, #0x2
    4e64: 9341fca5     	asr	x5, x5, #1
    4e68: 9a9f1086     	csel	x6, x4, xzr, ne
    4e6c: fa5f1028     	ccmp	x1, xzr, #0x8, ne
    4e70: da81b421     	cneg	x1, x1, ge
    4e74: da86b4c6     	cneg	x6, x6, ge
    4e78: 9a84a0a4     	csel	x4, x5, x4, ge
    4e7c: 8b0600a5     	add	x5, x5, x6
    4e80: 91000821     	add	x1, x1, #0x2
    4e84: f27f00bf     	tst	x5, #0x2
    4e88: 9341fca5     	asr	x5, x5, #1
    4e8c: 9a9f1086     	csel	x6, x4, xzr, ne
    4e90: fa5f1028     	ccmp	x1, xzr, #0x8, ne
    4e94: da81b421     	cneg	x1, x1, ge
    4e98: da86b4c6     	cneg	x6, x6, ge
    4e9c: 9a84a0a4     	csel	x4, x5, x4, ge
    4ea0: 8b0600a5     	add	x5, x5, x6
    4ea4: 91000821     	add	x1, x1, #0x2
    4ea8: f27f00bf     	tst	x5, #0x2
    4eac: 9341fca5     	asr	x5, x5, #1
    4eb0: 9a9f1086     	csel	x6, x4, xzr, ne
    4eb4: fa5f1028     	ccmp	x1, xzr, #0x8, ne
    4eb8: da81b421     	cneg	x1, x1, ge
    4ebc: da86b4c6     	cneg	x6, x6, ge
    4ec0: 9a84a0a4     	csel	x4, x5, x4, ge
    4ec4: 8b0600a5     	add	x5, x5, x6
    4ec8: 91000821     	add	x1, x1, #0x2
    4ecc: f27f00bf     	tst	x5, #0x2
    4ed0: 9341fca5     	asr	x5, x5, #1
    4ed4: 9a9f1086     	csel	x6, x4, xzr, ne
    4ed8: fa5f1028     	ccmp	x1, xzr, #0x8, ne
    4edc: da81b421     	cneg	x1, x1, ge
    4ee0: da86b4c6     	cneg	x6, x6, ge
    4ee4: 9a84a0a4     	csel	x4, x5, x4, ge
    4ee8: 8b0600a5     	add	x5, x5, x6
    4eec: 91000821     	add	x1, x1, #0x2
    4ef0: f27f00bf     	tst	x5, #0x2
    4ef4: 9341fca5     	asr	x5, x5, #1
    4ef8: 9a9f1086     	csel	x6, x4, xzr, ne
    4efc: fa5f1028     	ccmp	x1, xzr, #0x8, ne
    4f00: da81b421     	cneg	x1, x1, ge
    4f04: da86b4c6     	cneg	x6, x6, ge
    4f08: 9a84a0a4     	csel	x4, x5, x4, ge
    4f0c: 8b0600a5     	add	x5, x5, x6
    4f10: 91000821     	add	x1, x1, #0x2
    4f14: f27f00bf     	tst	x5, #0x2
    4f18: 9341fca5     	asr	x5, x5, #1
    4f1c: 9a9f1086     	csel	x6, x4, xzr, ne
    4f20: fa5f1028     	ccmp	x1, xzr, #0x8, ne
    4f24: da81b421     	cneg	x1, x1, ge
    4f28: da86b4c6     	cneg	x6, x6, ge
    4f2c: 9a84a0a4     	csel	x4, x5, x4, ge
    4f30: 8b0600a5     	add	x5, x5, x6
    4f34: 91000821     	add	x1, x1, #0x2
    4f38: f27f00bf     	tst	x5, #0x2
    4f3c: 9341fca5     	asr	x5, x5, #1
    4f40: 9a9f1086     	csel	x6, x4, xzr, ne
    4f44: fa5f1028     	ccmp	x1, xzr, #0x8, ne
    4f48: da81b421     	cneg	x1, x1, ge
    4f4c: da86b4c6     	cneg	x6, x6, ge
    4f50: 9a84a0a4     	csel	x4, x5, x4, ge
    4f54: 8b0600a5     	add	x5, x5, x6
    4f58: 91000821     	add	x1, x1, #0x2
    4f5c: f27f00bf     	tst	x5, #0x2
    4f60: 9341fca5     	asr	x5, x5, #1
    4f64: 9a9f1086     	csel	x6, x4, xzr, ne
    4f68: fa5f1028     	ccmp	x1, xzr, #0x8, ne
    4f6c: da81b421     	cneg	x1, x1, ge
    4f70: da86b4c6     	cneg	x6, x6, ge
    4f74: 9a84a0a4     	csel	x4, x5, x4, ge
    4f78: 8b0600a5     	add	x5, x5, x6
    4f7c: 91000821     	add	x1, x1, #0x2
    4f80: f27f00bf     	tst	x5, #0x2
    4f84: 9341fca5     	asr	x5, x5, #1
    4f88: 9a9f1086     	csel	x6, x4, xzr, ne
    4f8c: fa5f1028     	ccmp	x1, xzr, #0x8, ne
    4f90: da81b421     	cneg	x1, x1, ge
    4f94: da86b4c6     	cneg	x6, x6, ge
    4f98: 9a84a0a4     	csel	x4, x5, x4, ge
    4f9c: 8b0600a5     	add	x5, x5, x6
    4fa0: 91000821     	add	x1, x1, #0x2
    4fa4: f27f00bf     	tst	x5, #0x2
    4fa8: 9341fca5     	asr	x5, x5, #1
    4fac: 9a9f1086     	csel	x6, x4, xzr, ne
    4fb0: fa5f1028     	ccmp	x1, xzr, #0x8, ne
    4fb4: da81b421     	cneg	x1, x1, ge
    4fb8: da86b4c6     	cneg	x6, x6, ge
    4fbc: 9a84a0a4     	csel	x4, x5, x4, ge
    4fc0: 8b0600a5     	add	x5, x5, x6
    4fc4: 91000821     	add	x1, x1, #0x2
    4fc8: f27f00bf     	tst	x5, #0x2
    4fcc: 9341fca5     	asr	x5, x5, #1
    4fd0: 9a9f1086     	csel	x6, x4, xzr, ne
    4fd4: fa5f1028     	ccmp	x1, xzr, #0x8, ne
    4fd8: da81b421     	cneg	x1, x1, ge
    4fdc: da86b4c6     	cneg	x6, x6, ge
    4fe0: 9a84a0a4     	csel	x4, x5, x4, ge
    4fe4: 8b0600a5     	add	x5, x5, x6
    4fe8: 91000821     	add	x1, x1, #0x2
    4fec: f27f00bf     	tst	x5, #0x2
    4ff0: 9341fca5     	asr	x5, x5, #1
    4ff4: 9a9f1086     	csel	x6, x4, xzr, ne
    4ff8: fa5f1028     	ccmp	x1, xzr, #0x8, ne
    4ffc: da81b421     	cneg	x1, x1, ge
    5000: da86b4c6     	cneg	x6, x6, ge
    5004: 9a84a0a4     	csel	x4, x5, x4, ge
    5008: 8b0600a5     	add	x5, x5, x6
    500c: 91000821     	add	x1, x1, #0x2
    5010: f27f00bf     	tst	x5, #0x2
    5014: 9341fca5     	asr	x5, x5, #1
    5018: 9a9f1086     	csel	x6, x4, xzr, ne
    501c: fa5f1028     	ccmp	x1, xzr, #0x8, ne
    5020: da81b421     	cneg	x1, x1, ge
    5024: da86b4c6     	cneg	x6, x6, ge
    5028: 9a84a0a4     	csel	x4, x5, x4, ge
    502c: 8b0600a5     	add	x5, x5, x6
    5030: 91000821     	add	x1, x1, #0x2
    5034: f27f00bf     	tst	x5, #0x2
    5038: 9341fca5     	asr	x5, x5, #1
    503c: 9a9f1086     	csel	x6, x4, xzr, ne
    5040: fa5f1028     	ccmp	x1, xzr, #0x8, ne
    5044: da81b421     	cneg	x1, x1, ge
    5048: da86b4c6     	cneg	x6, x6, ge
    504c: 9a84a0a4     	csel	x4, x5, x4, ge
    5050: 8b0600a5     	add	x5, x5, x6
    5054: 91000821     	add	x1, x1, #0x2
    5058: f27f00bf     	tst	x5, #0x2
    505c: 9341fca5     	asr	x5, x5, #1
    5060: 9a9f1086     	csel	x6, x4, xzr, ne
    5064: fa5f1028     	ccmp	x1, xzr, #0x8, ne
    5068: da81b421     	cneg	x1, x1, ge
    506c: da86b4c6     	cneg	x6, x6, ge
    5070: 9a84a0a4     	csel	x4, x5, x4, ge
    5074: 8b0600a5     	add	x5, x5, x6
    5078: 91000821     	add	x1, x1, #0x2
    507c: f27f00bf     	tst	x5, #0x2
    5080: 9341fca5     	asr	x5, x5, #1
    5084: 9a9f1086     	csel	x6, x4, xzr, ne
    5088: fa5f1028     	ccmp	x1, xzr, #0x8, ne
    508c: da81b421     	cneg	x1, x1, ge
    5090: da86b4c6     	cneg	x6, x6, ge
    5094: 9a84a0a4     	csel	x4, x5, x4, ge
    5098: 8b0600a5     	add	x5, x5, x6
    509c: 91000821     	add	x1, x1, #0x2
    50a0: f27f00bf     	tst	x5, #0x2
    50a4: 9341fca5     	asr	x5, x5, #1
    50a8: 9a9f1086     	csel	x6, x4, xzr, ne
    50ac: fa5f1028     	ccmp	x1, xzr, #0x8, ne
    50b0: da81b421     	cneg	x1, x1, ge
    50b4: da86b4c6     	cneg	x6, x6, ge
    50b8: 9a84a0a4     	csel	x4, x5, x4, ge
    50bc: 8b0600a5     	add	x5, x5, x6
    50c0: 91000821     	add	x1, x1, #0x2
    50c4: f27f00bf     	tst	x5, #0x2
    50c8: 9341fca5     	asr	x5, x5, #1
    50cc: 9a9f1086     	csel	x6, x4, xzr, ne
    50d0: fa5f1028     	ccmp	x1, xzr, #0x8, ne
    50d4: da81b421     	cneg	x1, x1, ge
    50d8: da86b4c6     	cneg	x6, x6, ge
    50dc: 9a84a0a4     	csel	x4, x5, x4, ge
    50e0: 8b0600a5     	add	x5, x5, x6
    50e4: 91000821     	add	x1, x1, #0x2
    50e8: f27f00bf     	tst	x5, #0x2
    50ec: 9341fca5     	asr	x5, x5, #1
    50f0: 9a9f1086     	csel	x6, x4, xzr, ne
    50f4: fa5f1028     	ccmp	x1, xzr, #0x8, ne
    50f8: da81b421     	cneg	x1, x1, ge
    50fc: da86b4c6     	cneg	x6, x6, ge
    5100: 9a84a0a4     	csel	x4, x5, x4, ge
    5104: 8b0600a5     	add	x5, x5, x6
    5108: 91000821     	add	x1, x1, #0x2
    510c: 9341fca5     	asr	x5, x5, #1
    5110: 91440088     	add	x8, x4, #0x100, lsl #12 // =0x100000
    5114: 9355a508     	sbfx	x8, x8, #21, #21
    5118: d2a0020b     	mov	x11, #0x100000          // =1048576
    511c: 8b0b556b     	add	x11, x11, x11, lsl #21
    5120: 8b0b0089     	add	x9, x4, x11
    5124: 936afd29     	asr	x9, x9, #42
    5128: 914400aa     	add	x10, x5, #0x100, lsl #12 // =0x100000
    512c: 9355a54a     	sbfx	x10, x10, #21, #21
    5130: 8b0b00ab     	add	x11, x5, x11
    5134: 936afd6b     	asr	x11, x11, #42
    5138: 9b027d06     	mul	x6, x8, x2
    513c: 9b037d27     	mul	x7, x9, x3
    5140: 9b027d42     	mul	x2, x10, x2
    5144: 9b037d63     	mul	x3, x11, x3
    5148: 8b0700c4     	add	x4, x6, x7
    514c: 8b030045     	add	x5, x2, x3
    5150: 9354fc82     	asr	x2, x4, #20
    5154: 9354fca3     	asr	x3, x5, #20
    5158: 92404c44     	and	x4, x2, #0xfffff
    515c: b2575884     	orr	x4, x4, #0xfffffe0000000000
    5160: 92404c65     	and	x5, x3, #0xfffff
    5164: b24204a5     	orr	x5, x5, #0xc000000000000000
    5168: f24000bf     	tst	x5, #0x1
    516c: 9a9f1086     	csel	x6, x4, xzr, ne
    5170: fa5f1028     	ccmp	x1, xzr, #0x8, ne
    5174: da81b421     	cneg	x1, x1, ge
    5178: da86b4c6     	cneg	x6, x6, ge
    517c: 9a84a0a4     	csel	x4, x5, x4, ge
    5180: 8b0600a5     	add	x5, x5, x6
    5184: 91000821     	add	x1, x1, #0x2
    5188: f27f00bf     	tst	x5, #0x2
    518c: 9341fca5     	asr	x5, x5, #1
    5190: 9a9f1086     	csel	x6, x4, xzr, ne
    5194: fa5f1028     	ccmp	x1, xzr, #0x8, ne
    5198: da81b421     	cneg	x1, x1, ge
    519c: da86b4c6     	cneg	x6, x6, ge
    51a0: 9a84a0a4     	csel	x4, x5, x4, ge
    51a4: 8b0600a5     	add	x5, x5, x6
    51a8: 91000821     	add	x1, x1, #0x2
    51ac: f27f00bf     	tst	x5, #0x2
    51b0: 9341fca5     	asr	x5, x5, #1
    51b4: 9a9f1086     	csel	x6, x4, xzr, ne
    51b8: fa5f1028     	ccmp	x1, xzr, #0x8, ne
    51bc: da81b421     	cneg	x1, x1, ge
    51c0: da86b4c6     	cneg	x6, x6, ge
    51c4: 9a84a0a4     	csel	x4, x5, x4, ge
    51c8: 8b0600a5     	add	x5, x5, x6
    51cc: 91000821     	add	x1, x1, #0x2
    51d0: f27f00bf     	tst	x5, #0x2
    51d4: 9341fca5     	asr	x5, x5, #1
    51d8: 9a9f1086     	csel	x6, x4, xzr, ne
    51dc: fa5f1028     	ccmp	x1, xzr, #0x8, ne
    51e0: da81b421     	cneg	x1, x1, ge
    51e4: da86b4c6     	cneg	x6, x6, ge
    51e8: 9a84a0a4     	csel	x4, x5, x4, ge
    51ec: 8b0600a5     	add	x5, x5, x6
    51f0: 91000821     	add	x1, x1, #0x2
    51f4: f27f00bf     	tst	x5, #0x2
    51f8: 9341fca5     	asr	x5, x5, #1
    51fc: 9a9f1086     	csel	x6, x4, xzr, ne
    5200: fa5f1028     	ccmp	x1, xzr, #0x8, ne
    5204: da81b421     	cneg	x1, x1, ge
    5208: da86b4c6     	cneg	x6, x6, ge
    520c: 9a84a0a4     	csel	x4, x5, x4, ge
    5210: 8b0600a5     	add	x5, x5, x6
    5214: 91000821     	add	x1, x1, #0x2
    5218: f27f00bf     	tst	x5, #0x2
    521c: 9341fca5     	asr	x5, x5, #1
    5220: 9a9f1086     	csel	x6, x4, xzr, ne
    5224: fa5f1028     	ccmp	x1, xzr, #0x8, ne
    5228: da81b421     	cneg	x1, x1, ge
    522c: da86b4c6     	cneg	x6, x6, ge
    5230: 9a84a0a4     	csel	x4, x5, x4, ge
    5234: 8b0600a5     	add	x5, x5, x6
    5238: 91000821     	add	x1, x1, #0x2
    523c: f27f00bf     	tst	x5, #0x2
    5240: 9341fca5     	asr	x5, x5, #1
    5244: 9a9f1086     	csel	x6, x4, xzr, ne
    5248: fa5f1028     	ccmp	x1, xzr, #0x8, ne
    524c: da81b421     	cneg	x1, x1, ge
    5250: da86b4c6     	cneg	x6, x6, ge
    5254: 9a84a0a4     	csel	x4, x5, x4, ge
    5258: 8b0600a5     	add	x5, x5, x6
    525c: 91000821     	add	x1, x1, #0x2
    5260: f27f00bf     	tst	x5, #0x2
    5264: 9341fca5     	asr	x5, x5, #1
    5268: 9a9f1086     	csel	x6, x4, xzr, ne
    526c: fa5f1028     	ccmp	x1, xzr, #0x8, ne
    5270: da81b421     	cneg	x1, x1, ge
    5274: da86b4c6     	cneg	x6, x6, ge
    5278: 9a84a0a4     	csel	x4, x5, x4, ge
    527c: 8b0600a5     	add	x5, x5, x6
    5280: 91000821     	add	x1, x1, #0x2
    5284: f27f00bf     	tst	x5, #0x2
    5288: 9341fca5     	asr	x5, x5, #1
    528c: 9a9f1086     	csel	x6, x4, xzr, ne
    5290: fa5f1028     	ccmp	x1, xzr, #0x8, ne
    5294: da81b421     	cneg	x1, x1, ge
    5298: da86b4c6     	cneg	x6, x6, ge
    529c: 9a84a0a4     	csel	x4, x5, x4, ge
    52a0: 8b0600a5     	add	x5, x5, x6
    52a4: 91000821     	add	x1, x1, #0x2
    52a8: f27f00bf     	tst	x5, #0x2
    52ac: 9341fca5     	asr	x5, x5, #1
    52b0: 9a9f1086     	csel	x6, x4, xzr, ne
    52b4: fa5f1028     	ccmp	x1, xzr, #0x8, ne
    52b8: da81b421     	cneg	x1, x1, ge
    52bc: da86b4c6     	cneg	x6, x6, ge
    52c0: 9a84a0a4     	csel	x4, x5, x4, ge
    52c4: 8b0600a5     	add	x5, x5, x6
    52c8: 91000821     	add	x1, x1, #0x2
    52cc: f27f00bf     	tst	x5, #0x2
    52d0: 9341fca5     	asr	x5, x5, #1
    52d4: 9a9f1086     	csel	x6, x4, xzr, ne
    52d8: fa5f1028     	ccmp	x1, xzr, #0x8, ne
    52dc: da81b421     	cneg	x1, x1, ge
    52e0: da86b4c6     	cneg	x6, x6, ge
    52e4: 9a84a0a4     	csel	x4, x5, x4, ge
    52e8: 8b0600a5     	add	x5, x5, x6
    52ec: 91000821     	add	x1, x1, #0x2
    52f0: f27f00bf     	tst	x5, #0x2
    52f4: 9341fca5     	asr	x5, x5, #1
    52f8: 9a9f1086     	csel	x6, x4, xzr, ne
    52fc: fa5f1028     	ccmp	x1, xzr, #0x8, ne
    5300: da81b421     	cneg	x1, x1, ge
    5304: da86b4c6     	cneg	x6, x6, ge
    5308: 9a84a0a4     	csel	x4, x5, x4, ge
    530c: 8b0600a5     	add	x5, x5, x6
    5310: 91000821     	add	x1, x1, #0x2
    5314: f27f00bf     	tst	x5, #0x2
    5318: 9341fca5     	asr	x5, x5, #1
    531c: 9a9f1086     	csel	x6, x4, xzr, ne
    5320: fa5f1028     	ccmp	x1, xzr, #0x8, ne
    5324: da81b421     	cneg	x1, x1, ge
    5328: da86b4c6     	cneg	x6, x6, ge
    532c: 9a84a0a4     	csel	x4, x5, x4, ge
    5330: 8b0600a5     	add	x5, x5, x6
    5334: 91000821     	add	x1, x1, #0x2
    5338: f27f00bf     	tst	x5, #0x2
    533c: 9341fca5     	asr	x5, x5, #1
    5340: 9a9f1086     	csel	x6, x4, xzr, ne
    5344: fa5f1028     	ccmp	x1, xzr, #0x8, ne
    5348: da81b421     	cneg	x1, x1, ge
    534c: da86b4c6     	cneg	x6, x6, ge
    5350: 9a84a0a4     	csel	x4, x5, x4, ge
    5354: 8b0600a5     	add	x5, x5, x6
    5358: 91000821     	add	x1, x1, #0x2
    535c: f27f00bf     	tst	x5, #0x2
    5360: 9341fca5     	asr	x5, x5, #1
    5364: 9a9f1086     	csel	x6, x4, xzr, ne
    5368: fa5f1028     	ccmp	x1, xzr, #0x8, ne
    536c: da81b421     	cneg	x1, x1, ge
    5370: da86b4c6     	cneg	x6, x6, ge
    5374: 9a84a0a4     	csel	x4, x5, x4, ge
    5378: 8b0600a5     	add	x5, x5, x6
    537c: 91000821     	add	x1, x1, #0x2
    5380: f27f00bf     	tst	x5, #0x2
    5384: 9341fca5     	asr	x5, x5, #1
    5388: 9a9f1086     	csel	x6, x4, xzr, ne
    538c: fa5f1028     	ccmp	x1, xzr, #0x8, ne
    5390: da81b421     	cneg	x1, x1, ge
    5394: da86b4c6     	cneg	x6, x6, ge
    5398: 9a84a0a4     	csel	x4, x5, x4, ge
    539c: 8b0600a5     	add	x5, x5, x6
    53a0: 91000821     	add	x1, x1, #0x2
    53a4: f27f00bf     	tst	x5, #0x2
    53a8: 9341fca5     	asr	x5, x5, #1
    53ac: 9a9f1086     	csel	x6, x4, xzr, ne
    53b0: fa5f1028     	ccmp	x1, xzr, #0x8, ne
    53b4: da81b421     	cneg	x1, x1, ge
    53b8: da86b4c6     	cneg	x6, x6, ge
    53bc: 9a84a0a4     	csel	x4, x5, x4, ge
    53c0: 8b0600a5     	add	x5, x5, x6
    53c4: 91000821     	add	x1, x1, #0x2
    53c8: f27f00bf     	tst	x5, #0x2
    53cc: 9341fca5     	asr	x5, x5, #1
    53d0: 9a9f1086     	csel	x6, x4, xzr, ne
    53d4: fa5f1028     	ccmp	x1, xzr, #0x8, ne
    53d8: da81b421     	cneg	x1, x1, ge
    53dc: da86b4c6     	cneg	x6, x6, ge
    53e0: 9a84a0a4     	csel	x4, x5, x4, ge
    53e4: 8b0600a5     	add	x5, x5, x6
    53e8: 91000821     	add	x1, x1, #0x2
    53ec: f27f00bf     	tst	x5, #0x2
    53f0: 9341fca5     	asr	x5, x5, #1
    53f4: 9a9f1086     	csel	x6, x4, xzr, ne
    53f8: fa5f1028     	ccmp	x1, xzr, #0x8, ne
    53fc: da81b421     	cneg	x1, x1, ge
    5400: da86b4c6     	cneg	x6, x6, ge
    5404: 9a84a0a4     	csel	x4, x5, x4, ge
    5408: 8b0600a5     	add	x5, x5, x6
    540c: 91000821     	add	x1, x1, #0x2
    5410: f27f00bf     	tst	x5, #0x2
    5414: 9341fca5     	asr	x5, x5, #1
    5418: 9a9f1086     	csel	x6, x4, xzr, ne
    541c: fa5f1028     	ccmp	x1, xzr, #0x8, ne
    5420: da81b421     	cneg	x1, x1, ge
    5424: da86b4c6     	cneg	x6, x6, ge
    5428: 9a84a0a4     	csel	x4, x5, x4, ge
    542c: 8b0600a5     	add	x5, x5, x6
    5430: 91000821     	add	x1, x1, #0x2
    5434: 9341fca5     	asr	x5, x5, #1
    5438: 9144008c     	add	x12, x4, #0x100, lsl #12 // =0x100000
    543c: 9355a58c     	sbfx	x12, x12, #21, #21
    5440: d2a0020f     	mov	x15, #0x100000          // =1048576
    5444: 8b0f55ef     	add	x15, x15, x15, lsl #21
    5448: 8b0f008d     	add	x13, x4, x15
    544c: 936afdad     	asr	x13, x13, #42
    5450: 914400ae     	add	x14, x5, #0x100, lsl #12 // =0x100000
    5454: 9355a5ce     	sbfx	x14, x14, #21, #21
    5458: 8b0f00af     	add	x15, x5, x15
    545c: 936afdef     	asr	x15, x15, #42
    5460: 9b027d86     	mul	x6, x12, x2
    5464: 9b037da7     	mul	x7, x13, x3
    5468: 9b027dc2     	mul	x2, x14, x2
    546c: 9b037de3     	mul	x3, x15, x3
    5470: 8b0700c4     	add	x4, x6, x7
    5474: 8b030045     	add	x5, x2, x3
    5478: 9354fc82     	asr	x2, x4, #20
    547c: 9354fca3     	asr	x3, x5, #20
    5480: 92404c44     	and	x4, x2, #0xfffff
    5484: b2575884     	orr	x4, x4, #0xfffffe0000000000
    5488: 92404c65     	and	x5, x3, #0xfffff
    548c: b24204a5     	orr	x5, x5, #0xc000000000000000
    5490: f24000bf     	tst	x5, #0x1
    5494: 9a9f1086     	csel	x6, x4, xzr, ne
    5498: fa5f1028     	ccmp	x1, xzr, #0x8, ne
    549c: da81b421     	cneg	x1, x1, ge
    54a0: da86b4c6     	cneg	x6, x6, ge
    54a4: 9a84a0a4     	csel	x4, x5, x4, ge
    54a8: 8b0600a5     	add	x5, x5, x6
    54ac: 91000821     	add	x1, x1, #0x2
    54b0: f27f00bf     	tst	x5, #0x2
    54b4: 9341fca5     	asr	x5, x5, #1
    54b8: 9a9f1086     	csel	x6, x4, xzr, ne
    54bc: fa5f1028     	ccmp	x1, xzr, #0x8, ne
    54c0: da81b421     	cneg	x1, x1, ge
    54c4: da86b4c6     	cneg	x6, x6, ge
    54c8: 9a84a0a4     	csel	x4, x5, x4, ge
    54cc: 8b0600a5     	add	x5, x5, x6
    54d0: 91000821     	add	x1, x1, #0x2
    54d4: f27f00bf     	tst	x5, #0x2
    54d8: 9341fca5     	asr	x5, x5, #1
    54dc: 9a9f1086     	csel	x6, x4, xzr, ne
    54e0: fa5f1028     	ccmp	x1, xzr, #0x8, ne
    54e4: da81b421     	cneg	x1, x1, ge
    54e8: da86b4c6     	cneg	x6, x6, ge
    54ec: 9a84a0a4     	csel	x4, x5, x4, ge
    54f0: 8b0600a5     	add	x5, x5, x6
    54f4: 91000821     	add	x1, x1, #0x2
    54f8: f27f00bf     	tst	x5, #0x2
    54fc: 9341fca5     	asr	x5, x5, #1
    5500: 9a9f1086     	csel	x6, x4, xzr, ne
    5504: fa5f1028     	ccmp	x1, xzr, #0x8, ne
    5508: da81b421     	cneg	x1, x1, ge
    550c: da86b4c6     	cneg	x6, x6, ge
    5510: 9a84a0a4     	csel	x4, x5, x4, ge
    5514: 8b0600a5     	add	x5, x5, x6
    5518: 91000821     	add	x1, x1, #0x2
    551c: f27f00bf     	tst	x5, #0x2
    5520: 9341fca5     	asr	x5, x5, #1
    5524: 9a9f1086     	csel	x6, x4, xzr, ne
    5528: fa5f1028     	ccmp	x1, xzr, #0x8, ne
    552c: da81b421     	cneg	x1, x1, ge
    5530: da86b4c6     	cneg	x6, x6, ge
    5534: 9a84a0a4     	csel	x4, x5, x4, ge
    5538: 8b0600a5     	add	x5, x5, x6
    553c: 91000821     	add	x1, x1, #0x2
    5540: f27f00bf     	tst	x5, #0x2
    5544: 9341fca5     	asr	x5, x5, #1
    5548: 9a9f1086     	csel	x6, x4, xzr, ne
    554c: fa5f1028     	ccmp	x1, xzr, #0x8, ne
    5550: da81b421     	cneg	x1, x1, ge
    5554: da86b4c6     	cneg	x6, x6, ge
    5558: 9a84a0a4     	csel	x4, x5, x4, ge
    555c: 8b0600a5     	add	x5, x5, x6
    5560: 91000821     	add	x1, x1, #0x2
    5564: f27f00bf     	tst	x5, #0x2
    5568: 9341fca5     	asr	x5, x5, #1
    556c: 9a9f1086     	csel	x6, x4, xzr, ne
    5570: fa5f1028     	ccmp	x1, xzr, #0x8, ne
    5574: da81b421     	cneg	x1, x1, ge
    5578: da86b4c6     	cneg	x6, x6, ge
    557c: 9a84a0a4     	csel	x4, x5, x4, ge
    5580: 8b0600a5     	add	x5, x5, x6
    5584: 91000821     	add	x1, x1, #0x2
    5588: f27f00bf     	tst	x5, #0x2
    558c: 9341fca5     	asr	x5, x5, #1
    5590: 9a9f1086     	csel	x6, x4, xzr, ne
    5594: fa5f1028     	ccmp	x1, xzr, #0x8, ne
    5598: da81b421     	cneg	x1, x1, ge
    559c: da86b4c6     	cneg	x6, x6, ge
    55a0: 9a84a0a4     	csel	x4, x5, x4, ge
    55a4: 8b0600a5     	add	x5, x5, x6
    55a8: 91000821     	add	x1, x1, #0x2
    55ac: f27f00bf     	tst	x5, #0x2
    55b0: 9341fca5     	asr	x5, x5, #1
    55b4: 9a9f1086     	csel	x6, x4, xzr, ne
    55b8: fa5f1028     	ccmp	x1, xzr, #0x8, ne
    55bc: da81b421     	cneg	x1, x1, ge
    55c0: da86b4c6     	cneg	x6, x6, ge
    55c4: 9a84a0a4     	csel	x4, x5, x4, ge
    55c8: 8b0600a5     	add	x5, x5, x6
    55cc: 91000821     	add	x1, x1, #0x2
    55d0: f27f00bf     	tst	x5, #0x2
    55d4: 9341fca5     	asr	x5, x5, #1
    55d8: 9a9f1086     	csel	x6, x4, xzr, ne
    55dc: fa5f1028     	ccmp	x1, xzr, #0x8, ne
    55e0: da81b421     	cneg	x1, x1, ge
    55e4: da86b4c6     	cneg	x6, x6, ge
    55e8: 9a84a0a4     	csel	x4, x5, x4, ge
    55ec: 8b0600a5     	add	x5, x5, x6
    55f0: 91000821     	add	x1, x1, #0x2
    55f4: f27f00bf     	tst	x5, #0x2
    55f8: 9341fca5     	asr	x5, x5, #1
    55fc: 9b087d82     	mul	x2, x12, x8
    5600: 9b097d83     	mul	x3, x12, x9
    5604: 9b087dc6     	mul	x6, x14, x8
    5608: 9b097dc7     	mul	x7, x14, x9
    560c: 9b0a09a8     	madd	x8, x13, x10, x2
    5610: 9b0b0da9     	madd	x9, x13, x11, x3
    5614: 9b0a19f0     	madd	x16, x15, x10, x6
    5618: 9b0b1df1     	madd	x17, x15, x11, x7
    561c: 9a9f1086     	csel	x6, x4, xzr, ne
    5620: fa5f1028     	ccmp	x1, xzr, #0x8, ne
    5624: da81b421     	cneg	x1, x1, ge
    5628: da86b4c6     	cneg	x6, x6, ge
    562c: 9a84a0a4     	csel	x4, x5, x4, ge
    5630: 8b0600a5     	add	x5, x5, x6
    5634: 91000821     	add	x1, x1, #0x2
    5638: f27f00bf     	tst	x5, #0x2
    563c: 9341fca5     	asr	x5, x5, #1
    5640: 9a9f1086     	csel	x6, x4, xzr, ne
    5644: fa5f1028     	ccmp	x1, xzr, #0x8, ne
    5648: da81b421     	cneg	x1, x1, ge
    564c: da86b4c6     	cneg	x6, x6, ge
    5650: 9a84a0a4     	csel	x4, x5, x4, ge
    5654: 8b0600a5     	add	x5, x5, x6
    5658: 91000821     	add	x1, x1, #0x2
    565c: f27f00bf     	tst	x5, #0x2
    5660: 9341fca5     	asr	x5, x5, #1
    5664: 9a9f1086     	csel	x6, x4, xzr, ne
    5668: fa5f1028     	ccmp	x1, xzr, #0x8, ne
    566c: da81b421     	cneg	x1, x1, ge
    5670: da86b4c6     	cneg	x6, x6, ge
    5674: 9a84a0a4     	csel	x4, x5, x4, ge
    5678: 8b0600a5     	add	x5, x5, x6
    567c: 91000821     	add	x1, x1, #0x2
    5680: f27f00bf     	tst	x5, #0x2
    5684: 9341fca5     	asr	x5, x5, #1
    5688: 9a9f1086     	csel	x6, x4, xzr, ne
    568c: fa5f1028     	ccmp	x1, xzr, #0x8, ne
    5690: da81b421     	cneg	x1, x1, ge
    5694: da86b4c6     	cneg	x6, x6, ge
    5698: 9a84a0a4     	csel	x4, x5, x4, ge
    569c: 8b0600a5     	add	x5, x5, x6
    56a0: 91000821     	add	x1, x1, #0x2
    56a4: f27f00bf     	tst	x5, #0x2
    56a8: 9341fca5     	asr	x5, x5, #1
    56ac: 9a9f1086     	csel	x6, x4, xzr, ne
    56b0: fa5f1028     	ccmp	x1, xzr, #0x8, ne
    56b4: da81b421     	cneg	x1, x1, ge
    56b8: da86b4c6     	cneg	x6, x6, ge
    56bc: 9a84a0a4     	csel	x4, x5, x4, ge
    56c0: 8b0600a5     	add	x5, x5, x6
    56c4: 91000821     	add	x1, x1, #0x2
    56c8: f27f00bf     	tst	x5, #0x2
    56cc: 9341fca5     	asr	x5, x5, #1
    56d0: 9a9f1086     	csel	x6, x4, xzr, ne
    56d4: fa5f1028     	ccmp	x1, xzr, #0x8, ne
    56d8: da81b421     	cneg	x1, x1, ge
    56dc: da86b4c6     	cneg	x6, x6, ge
    56e0: 9a84a0a4     	csel	x4, x5, x4, ge
    56e4: 8b0600a5     	add	x5, x5, x6
    56e8: 91000821     	add	x1, x1, #0x2
    56ec: f27f00bf     	tst	x5, #0x2
    56f0: 9341fca5     	asr	x5, x5, #1
    56f4: 9a9f1086     	csel	x6, x4, xzr, ne
    56f8: fa5f1028     	ccmp	x1, xzr, #0x8, ne
    56fc: da81b421     	cneg	x1, x1, ge
    5700: da86b4c6     	cneg	x6, x6, ge
    5704: 9a84a0a4     	csel	x4, x5, x4, ge
    5708: 8b0600a5     	add	x5, x5, x6
    570c: 91000821     	add	x1, x1, #0x2
    5710: f27f00bf     	tst	x5, #0x2
    5714: 9341fca5     	asr	x5, x5, #1
    5718: 9a9f1086     	csel	x6, x4, xzr, ne
    571c: fa5f1028     	ccmp	x1, xzr, #0x8, ne
    5720: da81b421     	cneg	x1, x1, ge
    5724: da86b4c6     	cneg	x6, x6, ge
    5728: 9a84a0a4     	csel	x4, x5, x4, ge
    572c: 8b0600a5     	add	x5, x5, x6
    5730: 91000821     	add	x1, x1, #0x2
    5734: f27f00bf     	tst	x5, #0x2
    5738: 9341fca5     	asr	x5, x5, #1
    573c: 9a9f1086     	csel	x6, x4, xzr, ne
    5740: fa5f1028     	ccmp	x1, xzr, #0x8, ne
    5744: da81b421     	cneg	x1, x1, ge
    5748: da86b4c6     	cneg	x6, x6, ge
    574c: 9a84a0a4     	csel	x4, x5, x4, ge
    5750: 8b0600a5     	add	x5, x5, x6
    5754: 91000821     	add	x1, x1, #0x2
    5758: 9341fca5     	asr	x5, x5, #1
    575c: 9144008c     	add	x12, x4, #0x100, lsl #12 // =0x100000
    5760: 9356a98c     	sbfx	x12, x12, #22, #21
    5764: d2a0020f     	mov	x15, #0x100000          // =1048576
    5768: 8b0f55ef     	add	x15, x15, x15, lsl #21
    576c: 8b0f008d     	add	x13, x4, x15
    5770: 936bfdad     	asr	x13, x13, #43
    5774: 914400ae     	add	x14, x5, #0x100, lsl #12 // =0x100000
    5778: 9356a9ce     	sbfx	x14, x14, #22, #21
    577c: 8b0f00af     	add	x15, x5, x15
    5780: 936bfdef     	asr	x15, x15, #43
    5784: 9b08fd82     	mneg	x2, x12, x8
    5788: 9b09fd83     	mneg	x3, x12, x9
    578c: 9b08fdc4     	mneg	x4, x14, x8
    5790: 9b09fdc5     	mneg	x5, x14, x9
    5794: 9b1089aa     	msub	x10, x13, x16, x2
    5798: 9b118dab     	msub	x11, x13, x17, x3
    579c: 9b1091ec     	msub	x12, x15, x16, x4
    57a0: 9b1195ed     	msub	x13, x15, x17, x5
    57a4: aa0103f6     	mov	x22, x1
    57a8: f10006b5     	subs	x21, x21, #0x1
    57ac: 54ff9281     	b.ne	0x49fc <edwards25519_scalarmuldouble_alt_invloop>
    57b0: f94003e0     	ldr	x0, [sp]
    57b4: f94013e1     	ldr	x1, [sp, #0x20]
    57b8: 9b0a7c00     	mul	x0, x0, x10
    57bc: 9b0b0021     	madd	x1, x1, x11, x0
    57c0: 937ffc20     	asr	x0, x1, #63
    57c4: eb1f015f     	cmp	x10, xzr
    57c8: da9f53ee     	csetm	x14, mi
    57cc: da8a554a     	cneg	x10, x10, mi
    57d0: ca0001ce     	eor	x14, x14, x0
    57d4: eb1f017f     	cmp	x11, xzr
    57d8: da9f53ef     	csetm	x15, mi
    57dc: da8b556b     	cneg	x11, x11, mi
    57e0: ca0001ef     	eor	x15, x15, x0
    57e4: eb1f019f     	cmp	x12, xzr
    57e8: da9f53f0     	csetm	x16, mi
    57ec: da8c558c     	cneg	x12, x12, mi
    57f0: ca000210     	eor	x16, x16, x0
    57f4: eb1f01bf     	cmp	x13, xzr
    57f8: da9f53f1     	csetm	x17, mi
    57fc: da8d55ad     	cneg	x13, x13, mi
    5800: ca000231     	eor	x17, x17, x0
    5804: 8a0e0140     	and	x0, x10, x14
    5808: 8a0f0161     	and	x1, x11, x15
    580c: 8b010009     	add	x9, x0, x1
    5810: f94023e7     	ldr	x7, [sp, #0x40]
    5814: ca0e00e1     	eor	x1, x7, x14
    5818: 9b0a7c20     	mul	x0, x1, x10
    581c: 9bca7c21     	umulh	x1, x1, x10
    5820: ab000124     	adds	x4, x9, x0
    5824: 9a0103e2     	adc	x2, xzr, x1
    5828: f94033e8     	ldr	x8, [sp, #0x60]
    582c: ca0f0101     	eor	x1, x8, x15
    5830: 9b0b7c20     	mul	x0, x1, x11
    5834: 9bcb7c21     	umulh	x1, x1, x11
    5838: ab000084     	adds	x4, x4, x0
    583c: f90023e4     	str	x4, [sp, #0x40]
    5840: 9a010042     	adc	x2, x2, x1
    5844: f94027e7     	ldr	x7, [sp, #0x48]
    5848: ca0e00e1     	eor	x1, x7, x14
    584c: 9b0a7c20     	mul	x0, x1, x10
    5850: 9bca7c21     	umulh	x1, x1, x10
    5854: ab000042     	adds	x2, x2, x0
    5858: 9a0103e6     	adc	x6, xzr, x1
    585c: f94037e8     	ldr	x8, [sp, #0x68]
    5860: ca0f0101     	eor	x1, x8, x15
    5864: 9b0b7c20     	mul	x0, x1, x11
    5868: 9bcb7c21     	umulh	x1, x1, x11
    586c: ab000042     	adds	x2, x2, x0
    5870: f90027e2     	str	x2, [sp, #0x48]
    5874: 9a0100c6     	adc	x6, x6, x1
    5878: f9402be7     	ldr	x7, [sp, #0x50]
    587c: ca0e00e1     	eor	x1, x7, x14
    5880: 9b0a7c20     	mul	x0, x1, x10
    5884: 9bca7c21     	umulh	x1, x1, x10
    5888: ab0000c6     	adds	x6, x6, x0
    588c: 9a0103e5     	adc	x5, xzr, x1
    5890: f9403be8     	ldr	x8, [sp, #0x70]
    5894: ca0f0101     	eor	x1, x8, x15
    5898: 9b0b7c20     	mul	x0, x1, x11
    589c: 9bcb7c21     	umulh	x1, x1, x11
    58a0: ab0000c6     	adds	x6, x6, x0
    58a4: f9002be6     	str	x6, [sp, #0x50]
    58a8: 9a0100a5     	adc	x5, x5, x1
    58ac: f9402fe7     	ldr	x7, [sp, #0x58]
    58b0: ca0e00e1     	eor	x1, x7, x14
    58b4: 8a0a01c3     	and	x3, x14, x10
    58b8: cb0303e3     	neg	x3, x3
    58bc: 9b0a7c20     	mul	x0, x1, x10
    58c0: 9bca7c21     	umulh	x1, x1, x10
    58c4: ab0000a5     	adds	x5, x5, x0
    58c8: 9a010063     	adc	x3, x3, x1
    58cc: f9403fe8     	ldr	x8, [sp, #0x78]
    58d0: ca0f0101     	eor	x1, x8, x15
    58d4: 8a0b01e0     	and	x0, x15, x11
    58d8: cb000063     	sub	x3, x3, x0
    58dc: 9b0b7c20     	mul	x0, x1, x11
    58e0: 9bcb7c21     	umulh	x1, x1, x11
    58e4: ab0000a5     	adds	x5, x5, x0
    58e8: 9a010063     	adc	x3, x3, x1
    58ec: 93c5fc66     	extr	x6, x3, x5, #0x3f
    58f0: a94407e0     	ldp	x0, x1, [sp, #0x40]
    58f4: ea03007f     	tst	x3, x3
    58f8: 9a8644c6     	cinc	x6, x6, pl
    58fc: d2800263     	mov	x3, #0x13               // =19
    5900: 9b037cc4     	mul	x4, x6, x3
    5904: 8b06fca5     	add	x5, x5, x6, lsl #63
    5908: 9b437cc6     	smulh	x6, x6, x3
    590c: f9402be2     	ldr	x2, [sp, #0x50]
    5910: ab040000     	adds	x0, x0, x4
    5914: ba060021     	adcs	x1, x1, x6
    5918: 937ffcc6     	asr	x6, x6, #63
    591c: ba060042     	adcs	x2, x2, x6
    5920: ba0600a5     	adcs	x5, x5, x6
    5924: 9a9f4063     	csel	x3, x3, xzr, mi
    5928: eb030000     	subs	x0, x0, x3
    592c: fa1f0021     	sbcs	x1, x1, xzr
    5930: fa1f0042     	sbcs	x2, x2, xzr
    5934: da1f00a5     	sbc	x5, x5, xzr
    5938: 9240f8a5     	and	x5, x5, #0x7fffffffffffffff
    593c: aa1403e4     	mov	x4, x20
    5940: a9000480     	stp	x0, x1, [x4]
    5944: a9011482     	stp	x2, x5, [x4, #0x10]
    5948: aa1903f6     	mov	x22, x25
    594c: 910283f7     	add	x23, sp, #0xa0
    5950: 910483f8     	add	x24, sp, #0x120
    5954: a94012e3     	ldp	x3, x4, [x23]
    5958: a9402307     	ldp	x7, x8, [x24]
    595c: 9b077c6c     	mul	x12, x3, x7
    5960: 9bc77c6d     	umulh	x13, x3, x7
    5964: 9b087c6b     	mul	x11, x3, x8
    5968: 9bc87c6e     	umulh	x14, x3, x8
    596c: ab0b01ad     	adds	x13, x13, x11
    5970: a9412b09     	ldp	x9, x10, [x24, #0x10]
    5974: 9b097c6b     	mul	x11, x3, x9
    5978: 9bc97c6f     	umulh	x15, x3, x9
    597c: ba0b01ce     	adcs	x14, x14, x11
    5980: 9b0a7c6b     	mul	x11, x3, x10
    5984: 9bca7c70     	umulh	x16, x3, x10
    5988: ba0b01ef     	adcs	x15, x15, x11
    598c: 9a1f0210     	adc	x16, x16, xzr
    5990: a9411ae5     	ldp	x5, x6, [x23, #0x10]
    5994: 9b077c8b     	mul	x11, x4, x7
    5998: ab0b01ad     	adds	x13, x13, x11
    599c: 9b087c8b     	mul	x11, x4, x8
    59a0: ba0b01ce     	adcs	x14, x14, x11
    59a4: 9b097c8b     	mul	x11, x4, x9
    59a8: ba0b01ef     	adcs	x15, x15, x11
    59ac: 9b0a7c8b     	mul	x11, x4, x10
    59b0: ba0b0210     	adcs	x16, x16, x11
    59b4: 9bca7c83     	umulh	x3, x4, x10
    59b8: 9a1f0063     	adc	x3, x3, xzr
    59bc: 9bc77c8b     	umulh	x11, x4, x7
    59c0: ab0b01ce     	adds	x14, x14, x11
    59c4: 9bc87c8b     	umulh	x11, x4, x8
    59c8: ba0b01ef     	adcs	x15, x15, x11
    59cc: 9bc97c8b     	umulh	x11, x4, x9
    59d0: ba0b0210     	adcs	x16, x16, x11
    59d4: 9a1f0063     	adc	x3, x3, xzr
    59d8: 9b077cab     	mul	x11, x5, x7
    59dc: ab0b01ce     	adds	x14, x14, x11
    59e0: 9b087cab     	mul	x11, x5, x8
    59e4: ba0b01ef     	adcs	x15, x15, x11
    59e8: 9b097cab     	mul	x11, x5, x9
    59ec: ba0b0210     	adcs	x16, x16, x11
    59f0: 9b0a7cab     	mul	x11, x5, x10
    59f4: ba0b0063     	adcs	x3, x3, x11
    59f8: 9bca7ca4     	umulh	x4, x5, x10
    59fc: 9a1f0084     	adc	x4, x4, xzr
    5a00: 9bc77cab     	umulh	x11, x5, x7
    5a04: ab0b01ef     	adds	x15, x15, x11
    5a08: 9bc87cab     	umulh	x11, x5, x8
    5a0c: ba0b0210     	adcs	x16, x16, x11
    5a10: 9bc97cab     	umulh	x11, x5, x9
    5a14: ba0b0063     	adcs	x3, x3, x11
    5a18: 9a1f0084     	adc	x4, x4, xzr
    5a1c: 9b077ccb     	mul	x11, x6, x7
    5a20: ab0b01ef     	adds	x15, x15, x11
    5a24: 9b087ccb     	mul	x11, x6, x8
    5a28: ba0b0210     	adcs	x16, x16, x11
    5a2c: 9b097ccb     	mul	x11, x6, x9
    5a30: ba0b0063     	adcs	x3, x3, x11
    5a34: 9b0a7ccb     	mul	x11, x6, x10
    5a38: ba0b0084     	adcs	x4, x4, x11
    5a3c: 9bca7cc5     	umulh	x5, x6, x10
    5a40: 9a1f00a5     	adc	x5, x5, xzr
    5a44: 9bc77ccb     	umulh	x11, x6, x7
    5a48: ab0b0210     	adds	x16, x16, x11
    5a4c: 9bc87ccb     	umulh	x11, x6, x8
    5a50: ba0b0063     	adcs	x3, x3, x11
    5a54: 9bc97ccb     	umulh	x11, x6, x9
    5a58: ba0b0084     	adcs	x4, x4, x11
    5a5c: 9a1f00a5     	adc	x5, x5, xzr
    5a60: d28004c7     	mov	x7, #0x26               // =38
    5a64: 9b107ceb     	mul	x11, x7, x16
    5a68: 9bd07ce9     	umulh	x9, x7, x16
    5a6c: ab0b018c     	adds	x12, x12, x11
    5a70: 9b037ceb     	mul	x11, x7, x3
    5a74: 9bc37ce3     	umulh	x3, x7, x3
    5a78: ba0b01ad     	adcs	x13, x13, x11
    5a7c: 9b047ceb     	mul	x11, x7, x4
    5a80: 9bc47ce4     	umulh	x4, x7, x4
    5a84: ba0b01ce     	adcs	x14, x14, x11
    5a88: 9b057ceb     	mul	x11, x7, x5
    5a8c: 9bc57ce5     	umulh	x5, x7, x5
    5a90: ba0b01ef     	adcs	x15, x15, x11
    5a94: 9a9f37f0     	cset	x16, hs
    5a98: ab0401ef     	adds	x15, x15, x4
    5a9c: 9a050210     	adc	x16, x16, x5
    5aa0: ab0f01ff     	cmn	x15, x15
    5aa4: b24101ef     	orr	x15, x15, #0x8000000000000000
    5aa8: 9a100208     	adc	x8, x16, x16
    5aac: d2800267     	mov	x7, #0x13               // =19
    5ab0: 9b081ceb     	madd	x11, x7, x8, x7
    5ab4: ab0b018c     	adds	x12, x12, x11
    5ab8: ba0901ad     	adcs	x13, x13, x9
    5abc: ba0301ce     	adcs	x14, x14, x3
    5ac0: ba1f01ef     	adcs	x15, x15, xzr
    5ac4: 9a9f30e7     	csel	x7, x7, xzr, lo
    5ac8: eb07018c     	subs	x12, x12, x7
    5acc: fa1f01ad     	sbcs	x13, x13, xzr
    5ad0: fa1f01ce     	sbcs	x14, x14, xzr
    5ad4: da1f01ef     	sbc	x15, x15, xzr
    5ad8: 9240f9ef     	and	x15, x15, #0x7fffffffffffffff
    5adc: a90036cc     	stp	x12, x13, [x22]
    5ae0: a9013ece     	stp	x14, x15, [x22, #0x10]
    5ae4: 91008336     	add	x22, x25, #0x20
    5ae8: 910303f7     	add	x23, sp, #0xc0
    5aec: 910483f8     	add	x24, sp, #0x120
    5af0: a94012e3     	ldp	x3, x4, [x23]
    5af4: a9402307     	ldp	x7, x8, [x24]
    5af8: 9b077c6c     	mul	x12, x3, x7
    5afc: 9bc77c6d     	umulh	x13, x3, x7
    5b00: 9b087c6b     	mul	x11, x3, x8
    5b04: 9bc87c6e     	umulh	x14, x3, x8
    5b08: ab0b01ad     	adds	x13, x13, x11
    5b0c: a9412b09     	ldp	x9, x10, [x24, #0x10]
    5b10: 9b097c6b     	mul	x11, x3, x9
    5b14: 9bc97c6f     	umulh	x15, x3, x9
    5b18: ba0b01ce     	adcs	x14, x14, x11
    5b1c: 9b0a7c6b     	mul	x11, x3, x10
    5b20: 9bca7c70     	umulh	x16, x3, x10
    5b24: ba0b01ef     	adcs	x15, x15, x11
    5b28: 9a1f0210     	adc	x16, x16, xzr
    5b2c: a9411ae5     	ldp	x5, x6, [x23, #0x10]
    5b30: 9b077c8b     	mul	x11, x4, x7
    5b34: ab0b01ad     	adds	x13, x13, x11
    5b38: 9b087c8b     	mul	x11, x4, x8
    5b3c: ba0b01ce     	adcs	x14, x14, x11
    5b40: 9b097c8b     	mul	x11, x4, x9
    5b44: ba0b01ef     	adcs	x15, x15, x11
    5b48: 9b0a7c8b     	mul	x11, x4, x10
    5b4c: ba0b0210     	adcs	x16, x16, x11
    5b50: 9bca7c83     	umulh	x3, x4, x10
    5b54: 9a1f0063     	adc	x3, x3, xzr
    5b58: 9bc77c8b     	umulh	x11, x4, x7
    5b5c: ab0b01ce     	adds	x14, x14, x11
    5b60: 9bc87c8b     	umulh	x11, x4, x8
    5b64: ba0b01ef     	adcs	x15, x15, x11
    5b68: 9bc97c8b     	umulh	x11, x4, x9
    5b6c: ba0b0210     	adcs	x16, x16, x11
    5b70: 9a1f0063     	adc	x3, x3, xzr
    5b74: 9b077cab     	mul	x11, x5, x7
    5b78: ab0b01ce     	adds	x14, x14, x11
    5b7c: 9b087cab     	mul	x11, x5, x8
    5b80: ba0b01ef     	adcs	x15, x15, x11
    5b84: 9b097cab     	mul	x11, x5, x9
    5b88: ba0b0210     	adcs	x16, x16, x11
    5b8c: 9b0a7cab     	mul	x11, x5, x10
    5b90: ba0b0063     	adcs	x3, x3, x11
    5b94: 9bca7ca4     	umulh	x4, x5, x10
    5b98: 9a1f0084     	adc	x4, x4, xzr
    5b9c: 9bc77cab     	umulh	x11, x5, x7
    5ba0: ab0b01ef     	adds	x15, x15, x11
    5ba4: 9bc87cab     	umulh	x11, x5, x8
    5ba8: ba0b0210     	adcs	x16, x16, x11
    5bac: 9bc97cab     	umulh	x11, x5, x9
    5bb0: ba0b0063     	adcs	x3, x3, x11
    5bb4: 9a1f0084     	adc	x4, x4, xzr
    5bb8: 9b077ccb     	mul	x11, x6, x7
    5bbc: ab0b01ef     	adds	x15, x15, x11
    5bc0: 9b087ccb     	mul	x11, x6, x8
    5bc4: ba0b0210     	adcs	x16, x16, x11
    5bc8: 9b097ccb     	mul	x11, x6, x9
    5bcc: ba0b0063     	adcs	x3, x3, x11
    5bd0: 9b0a7ccb     	mul	x11, x6, x10
    5bd4: ba0b0084     	adcs	x4, x4, x11
    5bd8: 9bca7cc5     	umulh	x5, x6, x10
    5bdc: 9a1f00a5     	adc	x5, x5, xzr
    5be0: 9bc77ccb     	umulh	x11, x6, x7
    5be4: ab0b0210     	adds	x16, x16, x11
    5be8: 9bc87ccb     	umulh	x11, x6, x8
    5bec: ba0b0063     	adcs	x3, x3, x11
    5bf0: 9bc97ccb     	umulh	x11, x6, x9
    5bf4: ba0b0084     	adcs	x4, x4, x11
    5bf8: 9a1f00a5     	adc	x5, x5, xzr
    5bfc: d28004c7     	mov	x7, #0x26               // =38
    5c00: 9b107ceb     	mul	x11, x7, x16
    5c04: 9bd07ce9     	umulh	x9, x7, x16
    5c08: ab0b018c     	adds	x12, x12, x11
    5c0c: 9b037ceb     	mul	x11, x7, x3
    5c10: 9bc37ce3     	umulh	x3, x7, x3
    5c14: ba0b01ad     	adcs	x13, x13, x11
    5c18: 9b047ceb     	mul	x11, x7, x4
    5c1c: 9bc47ce4     	umulh	x4, x7, x4
    5c20: ba0b01ce     	adcs	x14, x14, x11
    5c24: 9b057ceb     	mul	x11, x7, x5
    5c28: 9bc57ce5     	umulh	x5, x7, x5
    5c2c: ba0b01ef     	adcs	x15, x15, x11
    5c30: 9a9f37f0     	cset	x16, hs
    5c34: ab0401ef     	adds	x15, x15, x4
    5c38: 9a050210     	adc	x16, x16, x5
    5c3c: ab0f01ff     	cmn	x15, x15
    5c40: b24101ef     	orr	x15, x15, #0x8000000000000000
    5c44: 9a100208     	adc	x8, x16, x16
    5c48: d2800267     	mov	x7, #0x13               // =19
    5c4c: 9b081ceb     	madd	x11, x7, x8, x7
    5c50: ab0b018c     	adds	x12, x12, x11
    5c54: ba0901ad     	adcs	x13, x13, x9
    5c58: ba0301ce     	adcs	x14, x14, x3
    5c5c: ba1f01ef     	adcs	x15, x15, xzr
    5c60: 9a9f30e7     	csel	x7, x7, xzr, lo
    5c64: eb07018c     	subs	x12, x12, x7
    5c68: fa1f01ad     	sbcs	x13, x13, xzr
    5c6c: fa1f01ce     	sbcs	x14, x14, xzr
    5c70: da1f01ef     	sbc	x15, x15, xzr
    5c74: 9240f9ef     	and	x15, x15, #0x7fffffffffffffff
    5c78: a90036cc     	stp	x12, x13, [x22]
    5c7c: a9013ece     	stp	x14, x15, [x22, #0x10]
    5c80: 911683ff     	add	sp, sp, #0x5a0
    5c84: a8c17bf9     	ldp	x25, x30, [sp], #0x10
    5c88: a8c163f7     	ldp	x23, x24, [sp], #0x10
    5c8c: a8c15bf5     	ldp	x21, x22, [sp], #0x10
    5c90: a8c153f3     	ldp	x19, x20, [sp], #0x10
    5c94: d65f03c0     	ret

0000000000005c98 <edwards25519_scalarmuldouble_alt_epdouble>:
    5c98: d10283ff     	sub	sp, sp, #0xa0
    5c9c: a94012e3     	ldp	x3, x4, [x23]
    5ca0: a94222e7     	ldp	x7, x8, [x23, #0x20]
    5ca4: ab070063     	adds	x3, x3, x7
    5ca8: ba080084     	adcs	x4, x4, x8
    5cac: a9411ae5     	ldp	x5, x6, [x23, #0x10]
    5cb0: a94322e7     	ldp	x7, x8, [x23, #0x30]
    5cb4: ba0700a5     	adcs	x5, x5, x7
    5cb8: ba0800c6     	adcs	x6, x6, x8
    5cbc: d28004c9     	mov	x9, #0x26               // =38
    5cc0: 9a9f2129     	csel	x9, x9, xzr, hs
    5cc4: ab090063     	adds	x3, x3, x9
    5cc8: ba1f0084     	adcs	x4, x4, xzr
    5ccc: ba1f00a5     	adcs	x5, x5, xzr
    5cd0: 9a1f00c6     	adc	x6, x6, xzr
    5cd4: a90013e3     	stp	x3, x4, [sp]
    5cd8: a9011be5     	stp	x5, x6, [sp, #0x10]
    5cdc: a9440ee2     	ldp	x2, x3, [x23, #0x40]
    5ce0: 9b037c49     	mul	x9, x2, x3
    5ce4: 9bc37c4a     	umulh	x10, x2, x3
    5ce8: a94516e4     	ldp	x4, x5, [x23, #0x50]
    5cec: 9b057c4b     	mul	x11, x2, x5
    5cf0: 9bc57c4c     	umulh	x12, x2, x5
    5cf4: 9b047c47     	mul	x7, x2, x4
    5cf8: 9bc47c46     	umulh	x6, x2, x4
    5cfc: ab07014a     	adds	x10, x10, x7
    5d00: ba06016b     	adcs	x11, x11, x6
    5d04: 9b047c67     	mul	x7, x3, x4
    5d08: 9bc47c66     	umulh	x6, x3, x4
    5d0c: 9a1f00c6     	adc	x6, x6, xzr
    5d10: ab07016b     	adds	x11, x11, x7
    5d14: 9b057c8d     	mul	x13, x4, x5
    5d18: 9bc57c8e     	umulh	x14, x4, x5
    5d1c: ba06018c     	adcs	x12, x12, x6
    5d20: 9b057c67     	mul	x7, x3, x5
    5d24: 9bc57c66     	umulh	x6, x3, x5
    5d28: 9a1f00c6     	adc	x6, x6, xzr
    5d2c: ab07018c     	adds	x12, x12, x7
    5d30: ba0601ad     	adcs	x13, x13, x6
    5d34: 9a1f01ce     	adc	x14, x14, xzr
    5d38: ab090129     	adds	x9, x9, x9
    5d3c: ba0a014a     	adcs	x10, x10, x10
    5d40: ba0b016b     	adcs	x11, x11, x11
    5d44: ba0c018c     	adcs	x12, x12, x12
    5d48: ba0d01ad     	adcs	x13, x13, x13
    5d4c: ba0e01ce     	adcs	x14, x14, x14
    5d50: 9a9f37e6     	cset	x6, hs
    5d54: 9bc27c47     	umulh	x7, x2, x2
    5d58: 9b027c48     	mul	x8, x2, x2
    5d5c: ab070129     	adds	x9, x9, x7
    5d60: 9b037c67     	mul	x7, x3, x3
    5d64: ba07014a     	adcs	x10, x10, x7
    5d68: 9bc37c67     	umulh	x7, x3, x3
    5d6c: ba07016b     	adcs	x11, x11, x7
    5d70: 9b047c87     	mul	x7, x4, x4
    5d74: ba07018c     	adcs	x12, x12, x7
    5d78: 9bc47c87     	umulh	x7, x4, x4
    5d7c: ba0701ad     	adcs	x13, x13, x7
    5d80: 9b057ca7     	mul	x7, x5, x5
    5d84: ba0701ce     	adcs	x14, x14, x7
    5d88: 9bc57ca7     	umulh	x7, x5, x5
    5d8c: 9a0700c6     	adc	x6, x6, x7
    5d90: d28004c3     	mov	x3, #0x26               // =38
    5d94: 9b0c7c67     	mul	x7, x3, x12
    5d98: 9bcc7c64     	umulh	x4, x3, x12
    5d9c: ab070108     	adds	x8, x8, x7
    5da0: 9b0d7c67     	mul	x7, x3, x13
    5da4: 9bcd7c6d     	umulh	x13, x3, x13
    5da8: ba070129     	adcs	x9, x9, x7
    5dac: 9b0e7c67     	mul	x7, x3, x14
    5db0: 9bce7c6e     	umulh	x14, x3, x14
    5db4: ba07014a     	adcs	x10, x10, x7
    5db8: 9b067c67     	mul	x7, x3, x6
    5dbc: 9bc67c66     	umulh	x6, x3, x6
    5dc0: ba07016b     	adcs	x11, x11, x7
    5dc4: 9a9f37ec     	cset	x12, hs
    5dc8: ab0e016b     	adds	x11, x11, x14
    5dcc: 9a06018c     	adc	x12, x12, x6
    5dd0: ab0b017f     	cmn	x11, x11
    5dd4: 9240f96b     	and	x11, x11, #0x7fffffffffffffff
    5dd8: 9a0c0182     	adc	x2, x12, x12
    5ddc: d2800263     	mov	x3, #0x13               // =19
    5de0: 9b027c67     	mul	x7, x3, x2
    5de4: ab070108     	adds	x8, x8, x7
    5de8: ba040129     	adcs	x9, x9, x4
    5dec: ba0d014a     	adcs	x10, x10, x13
    5df0: 9a1f016b     	adc	x11, x11, xzr
    5df4: a90227e8     	stp	x8, x9, [sp, #0x20]
    5df8: a9032fea     	stp	x10, x11, [sp, #0x30]
    5dfc: a9400ee2     	ldp	x2, x3, [x23]
    5e00: 9b037c49     	mul	x9, x2, x3
    5e04: 9bc37c4a     	umulh	x10, x2, x3
    5e08: a94116e4     	ldp	x4, x5, [x23, #0x10]
    5e0c: 9b057c4b     	mul	x11, x2, x5
    5e10: 9bc57c4c     	umulh	x12, x2, x5
    5e14: 9b047c47     	mul	x7, x2, x4
    5e18: 9bc47c46     	umulh	x6, x2, x4
    5e1c: ab07014a     	adds	x10, x10, x7
    5e20: ba06016b     	adcs	x11, x11, x6
    5e24: 9b047c67     	mul	x7, x3, x4
    5e28: 9bc47c66     	umulh	x6, x3, x4
    5e2c: 9a1f00c6     	adc	x6, x6, xzr
    5e30: ab07016b     	adds	x11, x11, x7
    5e34: 9b057c8d     	mul	x13, x4, x5
    5e38: 9bc57c8e     	umulh	x14, x4, x5
    5e3c: ba06018c     	adcs	x12, x12, x6
    5e40: 9b057c67     	mul	x7, x3, x5
    5e44: 9bc57c66     	umulh	x6, x3, x5
    5e48: 9a1f00c6     	adc	x6, x6, xzr
    5e4c: ab07018c     	adds	x12, x12, x7
    5e50: ba0601ad     	adcs	x13, x13, x6
    5e54: 9a1f01ce     	adc	x14, x14, xzr
    5e58: ab090129     	adds	x9, x9, x9
    5e5c: ba0a014a     	adcs	x10, x10, x10
    5e60: ba0b016b     	adcs	x11, x11, x11
    5e64: ba0c018c     	adcs	x12, x12, x12
    5e68: ba0d01ad     	adcs	x13, x13, x13
    5e6c: ba0e01ce     	adcs	x14, x14, x14
    5e70: 9a9f37e6     	cset	x6, hs
    5e74: 9bc27c47     	umulh	x7, x2, x2
    5e78: 9b027c48     	mul	x8, x2, x2
    5e7c: ab070129     	adds	x9, x9, x7
    5e80: 9b037c67     	mul	x7, x3, x3
    5e84: ba07014a     	adcs	x10, x10, x7
    5e88: 9bc37c67     	umulh	x7, x3, x3
    5e8c: ba07016b     	adcs	x11, x11, x7
    5e90: 9b047c87     	mul	x7, x4, x4
    5e94: ba07018c     	adcs	x12, x12, x7
    5e98: 9bc47c87     	umulh	x7, x4, x4
    5e9c: ba0701ad     	adcs	x13, x13, x7
    5ea0: 9b057ca7     	mul	x7, x5, x5
    5ea4: ba0701ce     	adcs	x14, x14, x7
    5ea8: 9bc57ca7     	umulh	x7, x5, x5
    5eac: 9a0700c6     	adc	x6, x6, x7
    5eb0: d28004c3     	mov	x3, #0x26               // =38
    5eb4: 9b0c7c67     	mul	x7, x3, x12
    5eb8: 9bcc7c64     	umulh	x4, x3, x12
    5ebc: ab070108     	adds	x8, x8, x7
    5ec0: 9b0d7c67     	mul	x7, x3, x13
    5ec4: 9bcd7c6d     	umulh	x13, x3, x13
    5ec8: ba070129     	adcs	x9, x9, x7
    5ecc: 9b0e7c67     	mul	x7, x3, x14
    5ed0: 9bce7c6e     	umulh	x14, x3, x14
    5ed4: ba07014a     	adcs	x10, x10, x7
    5ed8: 9b067c67     	mul	x7, x3, x6
    5edc: 9bc67c66     	umulh	x6, x3, x6
    5ee0: ba07016b     	adcs	x11, x11, x7
    5ee4: 9a9f37ec     	cset	x12, hs
    5ee8: ab0e016b     	adds	x11, x11, x14
    5eec: 9a06018c     	adc	x12, x12, x6
    5ef0: ab0b017f     	cmn	x11, x11
    5ef4: 9240f96b     	and	x11, x11, #0x7fffffffffffffff
    5ef8: 9a0c0182     	adc	x2, x12, x12
    5efc: d2800263     	mov	x3, #0x13               // =19
    5f00: 9b027c67     	mul	x7, x3, x2
    5f04: ab070108     	adds	x8, x8, x7
    5f08: ba040129     	adcs	x9, x9, x4
    5f0c: ba0d014a     	adcs	x10, x10, x13
    5f10: 9a1f016b     	adc	x11, x11, xzr
    5f14: a90427e8     	stp	x8, x9, [sp, #0x40]
    5f18: a9052fea     	stp	x10, x11, [sp, #0x50]
    5f1c: a9420ee2     	ldp	x2, x3, [x23, #0x20]
    5f20: 9b037c49     	mul	x9, x2, x3
    5f24: 9bc37c4a     	umulh	x10, x2, x3
    5f28: a94316e4     	ldp	x4, x5, [x23, #0x30]
    5f2c: 9b057c4b     	mul	x11, x2, x5
    5f30: 9bc57c4c     	umulh	x12, x2, x5
    5f34: 9b047c47     	mul	x7, x2, x4
    5f38: 9bc47c46     	umulh	x6, x2, x4
    5f3c: ab07014a     	adds	x10, x10, x7
    5f40: ba06016b     	adcs	x11, x11, x6
    5f44: 9b047c67     	mul	x7, x3, x4
    5f48: 9bc47c66     	umulh	x6, x3, x4
    5f4c: 9a1f00c6     	adc	x6, x6, xzr
    5f50: ab07016b     	adds	x11, x11, x7
    5f54: 9b057c8d     	mul	x13, x4, x5
    5f58: 9bc57c8e     	umulh	x14, x4, x5
    5f5c: ba06018c     	adcs	x12, x12, x6
    5f60: 9b057c67     	mul	x7, x3, x5
    5f64: 9bc57c66     	umulh	x6, x3, x5
    5f68: 9a1f00c6     	adc	x6, x6, xzr
    5f6c: ab07018c     	adds	x12, x12, x7
    5f70: ba0601ad     	adcs	x13, x13, x6
    5f74: 9a1f01ce     	adc	x14, x14, xzr
    5f78: ab090129     	adds	x9, x9, x9
    5f7c: ba0a014a     	adcs	x10, x10, x10
    5f80: ba0b016b     	adcs	x11, x11, x11
    5f84: ba0c018c     	adcs	x12, x12, x12
    5f88: ba0d01ad     	adcs	x13, x13, x13
    5f8c: ba0e01ce     	adcs	x14, x14, x14
    5f90: 9a9f37e6     	cset	x6, hs
    5f94: 9bc27c47     	umulh	x7, x2, x2
    5f98: 9b027c48     	mul	x8, x2, x2
    5f9c: ab070129     	adds	x9, x9, x7
    5fa0: 9b037c67     	mul	x7, x3, x3
    5fa4: ba07014a     	adcs	x10, x10, x7
    5fa8: 9bc37c67     	umulh	x7, x3, x3
    5fac: ba07016b     	adcs	x11, x11, x7
    5fb0: 9b047c87     	mul	x7, x4, x4
    5fb4: ba07018c     	adcs	x12, x12, x7
    5fb8: 9bc47c87     	umulh	x7, x4, x4
    5fbc: ba0701ad     	adcs	x13, x13, x7
    5fc0: 9b057ca7     	mul	x7, x5, x5
    5fc4: ba0701ce     	adcs	x14, x14, x7
    5fc8: 9bc57ca7     	umulh	x7, x5, x5
    5fcc: 9a0700c6     	adc	x6, x6, x7
    5fd0: d28004c3     	mov	x3, #0x26               // =38
    5fd4: 9b0c7c67     	mul	x7, x3, x12
    5fd8: 9bcc7c64     	umulh	x4, x3, x12
    5fdc: ab070108     	adds	x8, x8, x7
    5fe0: 9b0d7c67     	mul	x7, x3, x13
    5fe4: 9bcd7c6d     	umulh	x13, x3, x13
    5fe8: ba070129     	adcs	x9, x9, x7
    5fec: 9b0e7c67     	mul	x7, x3, x14
    5ff0: 9bce7c6e     	umulh	x14, x3, x14
    5ff4: ba07014a     	adcs	x10, x10, x7
    5ff8: 9b067c67     	mul	x7, x3, x6
    5ffc: 9bc67c66     	umulh	x6, x3, x6
    6000: ba07016b     	adcs	x11, x11, x7
    6004: 9a9f37ec     	cset	x12, hs
    6008: ab0e016b     	adds	x11, x11, x14
    600c: 9a06018c     	adc	x12, x12, x6
    6010: ab0b017f     	cmn	x11, x11
    6014: 9240f96b     	and	x11, x11, #0x7fffffffffffffff
    6018: 9a0c0182     	adc	x2, x12, x12
    601c: d2800263     	mov	x3, #0x13               // =19
    6020: 9b027c67     	mul	x7, x3, x2
    6024: ab070108     	adds	x8, x8, x7
    6028: ba040129     	adcs	x9, x9, x4
    602c: ba0d014a     	adcs	x10, x10, x13
    6030: 9a1f016b     	adc	x11, x11, xzr
    6034: a90627e8     	stp	x8, x9, [sp, #0x60]
    6038: a9072fea     	stp	x10, x11, [sp, #0x70]
    603c: a94213e3     	ldp	x3, x4, [sp, #0x20]
    6040: ab030063     	adds	x3, x3, x3
    6044: ba040084     	adcs	x4, x4, x4
    6048: a9431be5     	ldp	x5, x6, [sp, #0x30]
    604c: ba0500a5     	adcs	x5, x5, x5
    6050: ba0600c6     	adcs	x6, x6, x6
    6054: d28004c9     	mov	x9, #0x26               // =38
    6058: 9a9f2129     	csel	x9, x9, xzr, hs
    605c: ab090063     	adds	x3, x3, x9
    6060: ba1f0084     	adcs	x4, x4, xzr
    6064: ba1f00a5     	adcs	x5, x5, xzr
    6068: 9a1f00c6     	adc	x6, x6, xzr
    606c: a90213e3     	stp	x3, x4, [sp, #0x20]
    6070: a9031be5     	stp	x5, x6, [sp, #0x30]
    6074: a9400fe2     	ldp	x2, x3, [sp]
    6078: 9b037c49     	mul	x9, x2, x3
    607c: 9bc37c4a     	umulh	x10, x2, x3
    6080: a94117e4     	ldp	x4, x5, [sp, #0x10]
    6084: 9b057c4b     	mul	x11, x2, x5
    6088: 9bc57c4c     	umulh	x12, x2, x5
    608c: 9b047c47     	mul	x7, x2, x4
    6090: 9bc47c46     	umulh	x6, x2, x4
    6094: ab07014a     	adds	x10, x10, x7
    6098: ba06016b     	adcs	x11, x11, x6
    609c: 9b047c67     	mul	x7, x3, x4
    60a0: 9bc47c66     	umulh	x6, x3, x4
    60a4: 9a1f00c6     	adc	x6, x6, xzr
    60a8: ab07016b     	adds	x11, x11, x7
    60ac: 9b057c8d     	mul	x13, x4, x5
    60b0: 9bc57c8e     	umulh	x14, x4, x5
    60b4: ba06018c     	adcs	x12, x12, x6
    60b8: 9b057c67     	mul	x7, x3, x5
    60bc: 9bc57c66     	umulh	x6, x3, x5
    60c0: 9a1f00c6     	adc	x6, x6, xzr
    60c4: ab07018c     	adds	x12, x12, x7
    60c8: ba0601ad     	adcs	x13, x13, x6
    60cc: 9a1f01ce     	adc	x14, x14, xzr
    60d0: ab090129     	adds	x9, x9, x9
    60d4: ba0a014a     	adcs	x10, x10, x10
    60d8: ba0b016b     	adcs	x11, x11, x11
    60dc: ba0c018c     	adcs	x12, x12, x12
    60e0: ba0d01ad     	adcs	x13, x13, x13
    60e4: ba0e01ce     	adcs	x14, x14, x14
    60e8: 9a9f37e6     	cset	x6, hs
    60ec: 9bc27c47     	umulh	x7, x2, x2
    60f0: 9b027c48     	mul	x8, x2, x2
    60f4: ab070129     	adds	x9, x9, x7
    60f8: 9b037c67     	mul	x7, x3, x3
    60fc: ba07014a     	adcs	x10, x10, x7
    6100: 9bc37c67     	umulh	x7, x3, x3
    6104: ba07016b     	adcs	x11, x11, x7
    6108: 9b047c87     	mul	x7, x4, x4
    610c: ba07018c     	adcs	x12, x12, x7
    6110: 9bc47c87     	umulh	x7, x4, x4
    6114: ba0701ad     	adcs	x13, x13, x7
    6118: 9b057ca7     	mul	x7, x5, x5
    611c: ba0701ce     	adcs	x14, x14, x7
    6120: 9bc57ca7     	umulh	x7, x5, x5
    6124: 9a0700c6     	adc	x6, x6, x7
    6128: d28004c3     	mov	x3, #0x26               // =38
    612c: 9b0c7c67     	mul	x7, x3, x12
    6130: 9bcc7c64     	umulh	x4, x3, x12
    6134: ab070108     	adds	x8, x8, x7
    6138: 9b0d7c67     	mul	x7, x3, x13
    613c: 9bcd7c6d     	umulh	x13, x3, x13
    6140: ba070129     	adcs	x9, x9, x7
    6144: 9b0e7c67     	mul	x7, x3, x14
    6148: 9bce7c6e     	umulh	x14, x3, x14
    614c: ba07014a     	adcs	x10, x10, x7
    6150: 9b067c67     	mul	x7, x3, x6
    6154: 9bc67c66     	umulh	x6, x3, x6
    6158: ba07016b     	adcs	x11, x11, x7
    615c: 9a9f37ec     	cset	x12, hs
    6160: ab0e016b     	adds	x11, x11, x14
    6164: 9a06018c     	adc	x12, x12, x6
    6168: ab0b017f     	cmn	x11, x11
    616c: 9240f96b     	and	x11, x11, #0x7fffffffffffffff
    6170: 9a0c0182     	adc	x2, x12, x12
    6174: d2800263     	mov	x3, #0x13               // =19
    6178: 9b027c67     	mul	x7, x3, x2
    617c: ab070108     	adds	x8, x8, x7
    6180: ba040129     	adcs	x9, x9, x4
    6184: ba0d014a     	adcs	x10, x10, x13
    6188: 9a1f016b     	adc	x11, x11, xzr
    618c: a90027e8     	stp	x8, x9, [sp]
    6190: a9012fea     	stp	x10, x11, [sp, #0x10]
    6194: a94413e3     	ldp	x3, x4, [sp, #0x40]
    6198: a94623e7     	ldp	x7, x8, [sp, #0x60]
    619c: ab070063     	adds	x3, x3, x7
    61a0: ba080084     	adcs	x4, x4, x8
    61a4: a9451be5     	ldp	x5, x6, [sp, #0x50]
    61a8: a94723e7     	ldp	x7, x8, [sp, #0x70]
    61ac: ba0700a5     	adcs	x5, x5, x7
    61b0: ba0800c6     	adcs	x6, x6, x8
    61b4: d28004c9     	mov	x9, #0x26               // =38
    61b8: 9a9f2129     	csel	x9, x9, xzr, hs
    61bc: ab090063     	adds	x3, x3, x9
    61c0: ba1f0084     	adcs	x4, x4, xzr
    61c4: ba1f00a5     	adcs	x5, x5, xzr
    61c8: 9a1f00c6     	adc	x6, x6, xzr
    61cc: a90813e3     	stp	x3, x4, [sp, #0x80]
    61d0: a9091be5     	stp	x5, x6, [sp, #0x90]
    61d4: a9441be5     	ldp	x5, x6, [sp, #0x40]
    61d8: a9460fe4     	ldp	x4, x3, [sp, #0x60]
    61dc: eb0400a5     	subs	x5, x5, x4
    61e0: fa0300c6     	sbcs	x6, x6, x3
    61e4: a94523e7     	ldp	x7, x8, [sp, #0x50]
    61e8: a9470fe4     	ldp	x4, x3, [sp, #0x70]
    61ec: fa0400e7     	sbcs	x7, x7, x4
    61f0: fa030108     	sbcs	x8, x8, x3
    61f4: d28004c4     	mov	x4, #0x26               // =38
    61f8: 9a9f3083     	csel	x3, x4, xzr, lo
    61fc: eb0300a5     	subs	x5, x5, x3
    6200: fa1f00c6     	sbcs	x6, x6, xzr
    6204: fa1f00e7     	sbcs	x7, x7, xzr
    6208: da1f0108     	sbc	x8, x8, xzr
    620c: a9041be5     	stp	x5, x6, [sp, #0x40]
    6210: a90523e7     	stp	x7, x8, [sp, #0x50]
    6214: a94213e3     	ldp	x3, x4, [sp, #0x20]
    6218: a94423e7     	ldp	x7, x8, [sp, #0x40]
    621c: ab070063     	adds	x3, x3, x7
    6220: ba080084     	adcs	x4, x4, x8
    6224: a9431be5     	ldp	x5, x6, [sp, #0x30]
    6228: a94523e7     	ldp	x7, x8, [sp, #0x50]
    622c: ba0700a5     	adcs	x5, x5, x7
    6230: ba0800c6     	adcs	x6, x6, x8
    6234: d28004c9     	mov	x9, #0x26               // =38
    6238: 9a9f2129     	csel	x9, x9, xzr, hs
    623c: ab090063     	adds	x3, x3, x9
    6240: ba1f0084     	adcs	x4, x4, xzr
    6244: ba1f00a5     	adcs	x5, x5, xzr
    6248: 9a1f00c6     	adc	x6, x6, xzr
    624c: a90613e3     	stp	x3, x4, [sp, #0x60]
    6250: a9071be5     	stp	x5, x6, [sp, #0x70]
    6254: a9481be5     	ldp	x5, x6, [sp, #0x80]
    6258: a9400fe4     	ldp	x4, x3, [sp]
    625c: eb0400a5     	subs	x5, x5, x4
    6260: fa0300c6     	sbcs	x6, x6, x3
    6264: a94923e7     	ldp	x7, x8, [sp, #0x90]
    6268: a9410fe4     	ldp	x4, x3, [sp, #0x10]
    626c: fa0400e7     	sbcs	x7, x7, x4
    6270: fa030108     	sbcs	x8, x8, x3
    6274: d28004c4     	mov	x4, #0x26               // =38
    6278: 9a9f3083     	csel	x3, x4, xzr, lo
    627c: eb0300a5     	subs	x5, x5, x3
    6280: fa1f00c6     	sbcs	x6, x6, xzr
    6284: fa1f00e7     	sbcs	x7, x7, xzr
    6288: da1f0108     	sbc	x8, x8, xzr
    628c: a9021be5     	stp	x5, x6, [sp, #0x20]
    6290: a90323e7     	stp	x7, x8, [sp, #0x30]
    6294: a94413e3     	ldp	x3, x4, [sp, #0x40]
    6298: a94823e7     	ldp	x7, x8, [sp, #0x80]
    629c: 9b077c6c     	mul	x12, x3, x7
    62a0: 9bc77c6d     	umulh	x13, x3, x7
    62a4: 9b087c6b     	mul	x11, x3, x8
    62a8: 9bc87c6e     	umulh	x14, x3, x8
    62ac: ab0b01ad     	adds	x13, x13, x11
    62b0: a9492be9     	ldp	x9, x10, [sp, #0x90]
    62b4: 9b097c6b     	mul	x11, x3, x9
    62b8: 9bc97c6f     	umulh	x15, x3, x9
    62bc: ba0b01ce     	adcs	x14, x14, x11
    62c0: 9b0a7c6b     	mul	x11, x3, x10
    62c4: 9bca7c70     	umulh	x16, x3, x10
    62c8: ba0b01ef     	adcs	x15, x15, x11
    62cc: 9a1f0210     	adc	x16, x16, xzr
    62d0: a9451be5     	ldp	x5, x6, [sp, #0x50]
    62d4: 9b077c8b     	mul	x11, x4, x7
    62d8: ab0b01ad     	adds	x13, x13, x11
    62dc: 9b087c8b     	mul	x11, x4, x8
    62e0: ba0b01ce     	adcs	x14, x14, x11
    62e4: 9b097c8b     	mul	x11, x4, x9
    62e8: ba0b01ef     	adcs	x15, x15, x11
    62ec: 9b0a7c8b     	mul	x11, x4, x10
    62f0: ba0b0210     	adcs	x16, x16, x11
    62f4: 9bca7c83     	umulh	x3, x4, x10
    62f8: 9a1f0063     	adc	x3, x3, xzr
    62fc: 9bc77c8b     	umulh	x11, x4, x7
    6300: ab0b01ce     	adds	x14, x14, x11
    6304: 9bc87c8b     	umulh	x11, x4, x8
    6308: ba0b01ef     	adcs	x15, x15, x11
    630c: 9bc97c8b     	umulh	x11, x4, x9
    6310: ba0b0210     	adcs	x16, x16, x11
    6314: 9a1f0063     	adc	x3, x3, xzr
    6318: 9b077cab     	mul	x11, x5, x7
    631c: ab0b01ce     	adds	x14, x14, x11
    6320: 9b087cab     	mul	x11, x5, x8
    6324: ba0b01ef     	adcs	x15, x15, x11
    6328: 9b097cab     	mul	x11, x5, x9
    632c: ba0b0210     	adcs	x16, x16, x11
    6330: 9b0a7cab     	mul	x11, x5, x10
    6334: ba0b0063     	adcs	x3, x3, x11
    6338: 9bca7ca4     	umulh	x4, x5, x10
    633c: 9a1f0084     	adc	x4, x4, xzr
    6340: 9bc77cab     	umulh	x11, x5, x7
    6344: ab0b01ef     	adds	x15, x15, x11
    6348: 9bc87cab     	umulh	x11, x5, x8
    634c: ba0b0210     	adcs	x16, x16, x11
    6350: 9bc97cab     	umulh	x11, x5, x9
    6354: ba0b0063     	adcs	x3, x3, x11
    6358: 9a1f0084     	adc	x4, x4, xzr
    635c: 9b077ccb     	mul	x11, x6, x7
    6360: ab0b01ef     	adds	x15, x15, x11
    6364: 9b087ccb     	mul	x11, x6, x8
    6368: ba0b0210     	adcs	x16, x16, x11
    636c: 9b097ccb     	mul	x11, x6, x9
    6370: ba0b0063     	adcs	x3, x3, x11
    6374: 9b0a7ccb     	mul	x11, x6, x10
    6378: ba0b0084     	adcs	x4, x4, x11
    637c: 9bca7cc5     	umulh	x5, x6, x10
    6380: 9a1f00a5     	adc	x5, x5, xzr
    6384: 9bc77ccb     	umulh	x11, x6, x7
    6388: ab0b0210     	adds	x16, x16, x11
    638c: 9bc87ccb     	umulh	x11, x6, x8
    6390: ba0b0063     	adcs	x3, x3, x11
    6394: 9bc97ccb     	umulh	x11, x6, x9
    6398: ba0b0084     	adcs	x4, x4, x11
    639c: 9a1f00a5     	adc	x5, x5, xzr
    63a0: d28004c7     	mov	x7, #0x26               // =38
    63a4: 9b107ceb     	mul	x11, x7, x16
    63a8: 9bd07ce9     	umulh	x9, x7, x16
    63ac: ab0b018c     	adds	x12, x12, x11
    63b0: 9b037ceb     	mul	x11, x7, x3
    63b4: 9bc37ce3     	umulh	x3, x7, x3
    63b8: ba0b01ad     	adcs	x13, x13, x11
    63bc: 9b047ceb     	mul	x11, x7, x4
    63c0: 9bc47ce4     	umulh	x4, x7, x4
    63c4: ba0b01ce     	adcs	x14, x14, x11
    63c8: 9b057ceb     	mul	x11, x7, x5
    63cc: 9bc57ce5     	umulh	x5, x7, x5
    63d0: ba0b01ef     	adcs	x15, x15, x11
    63d4: 9a9f37f0     	cset	x16, hs
    63d8: ab0401ef     	adds	x15, x15, x4
    63dc: 9a050210     	adc	x16, x16, x5
    63e0: ab0f01ff     	cmn	x15, x15
    63e4: 9240f9ef     	and	x15, x15, #0x7fffffffffffffff
    63e8: 9a100208     	adc	x8, x16, x16
    63ec: d2800267     	mov	x7, #0x13               // =19
    63f0: 9b087ceb     	mul	x11, x7, x8
    63f4: ab0b018c     	adds	x12, x12, x11
    63f8: ba0901ad     	adcs	x13, x13, x9
    63fc: ba0301ce     	adcs	x14, x14, x3
    6400: 9a1f01ef     	adc	x15, x15, xzr
    6404: a90236cc     	stp	x12, x13, [x22, #0x20]
    6408: a9033ece     	stp	x14, x15, [x22, #0x30]
    640c: a94613e3     	ldp	x3, x4, [sp, #0x60]
    6410: a94423e7     	ldp	x7, x8, [sp, #0x40]
    6414: 9b077c6c     	mul	x12, x3, x7
    6418: 9bc77c6d     	umulh	x13, x3, x7
    641c: 9b087c6b     	mul	x11, x3, x8
    6420: 9bc87c6e     	umulh	x14, x3, x8
    6424: ab0b01ad     	adds	x13, x13, x11
    6428: a9452be9     	ldp	x9, x10, [sp, #0x50]
    642c: 9b097c6b     	mul	x11, x3, x9
    6430: 9bc97c6f     	umulh	x15, x3, x9
    6434: ba0b01ce     	adcs	x14, x14, x11
    6438: 9b0a7c6b     	mul	x11, x3, x10
    643c: 9bca7c70     	umulh	x16, x3, x10
    6440: ba0b01ef     	adcs	x15, x15, x11
    6444: 9a1f0210     	adc	x16, x16, xzr
    6448: a9471be5     	ldp	x5, x6, [sp, #0x70]
    644c: 9b077c8b     	mul	x11, x4, x7
    6450: ab0b01ad     	adds	x13, x13, x11
    6454: 9b087c8b     	mul	x11, x4, x8
    6458: ba0b01ce     	adcs	x14, x14, x11
    645c: 9b097c8b     	mul	x11, x4, x9
    6460: ba0b01ef     	adcs	x15, x15, x11
    6464: 9b0a7c8b     	mul	x11, x4, x10
    6468: ba0b0210     	adcs	x16, x16, x11
    646c: 9bca7c83     	umulh	x3, x4, x10
    6470: 9a1f0063     	adc	x3, x3, xzr
    6474: 9bc77c8b     	umulh	x11, x4, x7
    6478: ab0b01ce     	adds	x14, x14, x11
    647c: 9bc87c8b     	umulh	x11, x4, x8
    6480: ba0b01ef     	adcs	x15, x15, x11
    6484: 9bc97c8b     	umulh	x11, x4, x9
    6488: ba0b0210     	adcs	x16, x16, x11
    648c: 9a1f0063     	adc	x3, x3, xzr
    6490: 9b077cab     	mul	x11, x5, x7
    6494: ab0b01ce     	adds	x14, x14, x11
    6498: 9b087cab     	mul	x11, x5, x8
    649c: ba0b01ef     	adcs	x15, x15, x11
    64a0: 9b097cab     	mul	x11, x5, x9
    64a4: ba0b0210     	adcs	x16, x16, x11
    64a8: 9b0a7cab     	mul	x11, x5, x10
    64ac: ba0b0063     	adcs	x3, x3, x11
    64b0: 9bca7ca4     	umulh	x4, x5, x10
    64b4: 9a1f0084     	adc	x4, x4, xzr
    64b8: 9bc77cab     	umulh	x11, x5, x7
    64bc: ab0b01ef     	adds	x15, x15, x11
    64c0: 9bc87cab     	umulh	x11, x5, x8
    64c4: ba0b0210     	adcs	x16, x16, x11
    64c8: 9bc97cab     	umulh	x11, x5, x9
    64cc: ba0b0063     	adcs	x3, x3, x11
    64d0: 9a1f0084     	adc	x4, x4, xzr
    64d4: 9b077ccb     	mul	x11, x6, x7
    64d8: ab0b01ef     	adds	x15, x15, x11
    64dc: 9b087ccb     	mul	x11, x6, x8
    64e0: ba0b0210     	adcs	x16, x16, x11
    64e4: 9b097ccb     	mul	x11, x6, x9
    64e8: ba0b0063     	adcs	x3, x3, x11
    64ec: 9b0a7ccb     	mul	x11, x6, x10
    64f0: ba0b0084     	adcs	x4, x4, x11
    64f4: 9bca7cc5     	umulh	x5, x6, x10
    64f8: 9a1f00a5     	adc	x5, x5, xzr
    64fc: 9bc77ccb     	umulh	x11, x6, x7
    6500: ab0b0210     	adds	x16, x16, x11
    6504: 9bc87ccb     	umulh	x11, x6, x8
    6508: ba0b0063     	adcs	x3, x3, x11
    650c: 9bc97ccb     	umulh	x11, x6, x9
    6510: ba0b0084     	adcs	x4, x4, x11
    6514: 9a1f00a5     	adc	x5, x5, xzr
    6518: d28004c7     	mov	x7, #0x26               // =38
    651c: 9b107ceb     	mul	x11, x7, x16
    6520: 9bd07ce9     	umulh	x9, x7, x16
    6524: ab0b018c     	adds	x12, x12, x11
    6528: 9b037ceb     	mul	x11, x7, x3
    652c: 9bc37ce3     	umulh	x3, x7, x3
    6530: ba0b01ad     	adcs	x13, x13, x11
    6534: 9b047ceb     	mul	x11, x7, x4
    6538: 9bc47ce4     	umulh	x4, x7, x4
    653c: ba0b01ce     	adcs	x14, x14, x11
    6540: 9b057ceb     	mul	x11, x7, x5
    6544: 9bc57ce5     	umulh	x5, x7, x5
    6548: ba0b01ef     	adcs	x15, x15, x11
    654c: 9a9f37f0     	cset	x16, hs
    6550: ab0401ef     	adds	x15, x15, x4
    6554: 9a050210     	adc	x16, x16, x5
    6558: ab0f01ff     	cmn	x15, x15
    655c: 9240f9ef     	and	x15, x15, #0x7fffffffffffffff
    6560: 9a100208     	adc	x8, x16, x16
    6564: d2800267     	mov	x7, #0x13               // =19
    6568: 9b087ceb     	mul	x11, x7, x8
    656c: ab0b018c     	adds	x12, x12, x11
    6570: ba0901ad     	adcs	x13, x13, x9
    6574: ba0301ce     	adcs	x14, x14, x3
    6578: 9a1f01ef     	adc	x15, x15, xzr
    657c: a90436cc     	stp	x12, x13, [x22, #0x40]
    6580: a9053ece     	stp	x14, x15, [x22, #0x50]
    6584: a94213e3     	ldp	x3, x4, [sp, #0x20]
    6588: a94823e7     	ldp	x7, x8, [sp, #0x80]
    658c: 9b077c6c     	mul	x12, x3, x7
    6590: 9bc77c6d     	umulh	x13, x3, x7
    6594: 9b087c6b     	mul	x11, x3, x8
    6598: 9bc87c6e     	umulh	x14, x3, x8
    659c: ab0b01ad     	adds	x13, x13, x11
    65a0: a9492be9     	ldp	x9, x10, [sp, #0x90]
    65a4: 9b097c6b     	mul	x11, x3, x9
    65a8: 9bc97c6f     	umulh	x15, x3, x9
    65ac: ba0b01ce     	adcs	x14, x14, x11
    65b0: 9b0a7c6b     	mul	x11, x3, x10
    65b4: 9bca7c70     	umulh	x16, x3, x10
    65b8: ba0b01ef     	adcs	x15, x15, x11
    65bc: 9a1f0210     	adc	x16, x16, xzr
    65c0: a9431be5     	ldp	x5, x6, [sp, #0x30]
    65c4: 9b077c8b     	mul	x11, x4, x7
    65c8: ab0b01ad     	adds	x13, x13, x11
    65cc: 9b087c8b     	mul	x11, x4, x8
    65d0: ba0b01ce     	adcs	x14, x14, x11
    65d4: 9b097c8b     	mul	x11, x4, x9
    65d8: ba0b01ef     	adcs	x15, x15, x11
    65dc: 9b0a7c8b     	mul	x11, x4, x10
    65e0: ba0b0210     	adcs	x16, x16, x11
    65e4: 9bca7c83     	umulh	x3, x4, x10
    65e8: 9a1f0063     	adc	x3, x3, xzr
    65ec: 9bc77c8b     	umulh	x11, x4, x7
    65f0: ab0b01ce     	adds	x14, x14, x11
    65f4: 9bc87c8b     	umulh	x11, x4, x8
    65f8: ba0b01ef     	adcs	x15, x15, x11
    65fc: 9bc97c8b     	umulh	x11, x4, x9
    6600: ba0b0210     	adcs	x16, x16, x11
    6604: 9a1f0063     	adc	x3, x3, xzr
    6608: 9b077cab     	mul	x11, x5, x7
    660c: ab0b01ce     	adds	x14, x14, x11
    6610: 9b087cab     	mul	x11, x5, x8
    6614: ba0b01ef     	adcs	x15, x15, x11
    6618: 9b097cab     	mul	x11, x5, x9
    661c: ba0b0210     	adcs	x16, x16, x11
    6620: 9b0a7cab     	mul	x11, x5, x10
    6624: ba0b0063     	adcs	x3, x3, x11
    6628: 9bca7ca4     	umulh	x4, x5, x10
    662c: 9a1f0084     	adc	x4, x4, xzr
    6630: 9bc77cab     	umulh	x11, x5, x7
    6634: ab0b01ef     	adds	x15, x15, x11
    6638: 9bc87cab     	umulh	x11, x5, x8
    663c: ba0b0210     	adcs	x16, x16, x11
    6640: 9bc97cab     	umulh	x11, x5, x9
    6644: ba0b0063     	adcs	x3, x3, x11
    6648: 9a1f0084     	adc	x4, x4, xzr
    664c: 9b077ccb     	mul	x11, x6, x7
    6650: ab0b01ef     	adds	x15, x15, x11
    6654: 9b087ccb     	mul	x11, x6, x8
    6658: ba0b0210     	adcs	x16, x16, x11
    665c: 9b097ccb     	mul	x11, x6, x9
    6660: ba0b0063     	adcs	x3, x3, x11
    6664: 9b0a7ccb     	mul	x11, x6, x10
    6668: ba0b0084     	adcs	x4, x4, x11
    666c: 9bca7cc5     	umulh	x5, x6, x10
    6670: 9a1f00a5     	adc	x5, x5, xzr
    6674: 9bc77ccb     	umulh	x11, x6, x7
    6678: ab0b0210     	adds	x16, x16, x11
    667c: 9bc87ccb     	umulh	x11, x6, x8
    6680: ba0b0063     	adcs	x3, x3, x11
    6684: 9bc97ccb     	umulh	x11, x6, x9
    6688: ba0b0084     	adcs	x4, x4, x11
    668c: 9a1f00a5     	adc	x5, x5, xzr
    6690: d28004c7     	mov	x7, #0x26               // =38
    6694: 9b107ceb     	mul	x11, x7, x16
    6698: 9bd07ce9     	umulh	x9, x7, x16
    669c: ab0b018c     	adds	x12, x12, x11
    66a0: 9b037ceb     	mul	x11, x7, x3
    66a4: 9bc37ce3     	umulh	x3, x7, x3
    66a8: ba0b01ad     	adcs	x13, x13, x11
    66ac: 9b047ceb     	mul	x11, x7, x4
    66b0: 9bc47ce4     	umulh	x4, x7, x4
    66b4: ba0b01ce     	adcs	x14, x14, x11
    66b8: 9b057ceb     	mul	x11, x7, x5
    66bc: 9bc57ce5     	umulh	x5, x7, x5
    66c0: ba0b01ef     	adcs	x15, x15, x11
    66c4: 9a9f37f0     	cset	x16, hs
    66c8: ab0401ef     	adds	x15, x15, x4
    66cc: 9a050210     	adc	x16, x16, x5
    66d0: ab0f01ff     	cmn	x15, x15
    66d4: 9240f9ef     	and	x15, x15, #0x7fffffffffffffff
    66d8: 9a100208     	adc	x8, x16, x16
    66dc: d2800267     	mov	x7, #0x13               // =19
    66e0: 9b087ceb     	mul	x11, x7, x8
    66e4: ab0b018c     	adds	x12, x12, x11
    66e8: ba0901ad     	adcs	x13, x13, x9
    66ec: ba0301ce     	adcs	x14, x14, x3
    66f0: 9a1f01ef     	adc	x15, x15, xzr
    66f4: a90636cc     	stp	x12, x13, [x22, #0x60]
    66f8: a9073ece     	stp	x14, x15, [x22, #0x70]
    66fc: a94213e3     	ldp	x3, x4, [sp, #0x20]
    6700: a94623e7     	ldp	x7, x8, [sp, #0x60]
    6704: 9b077c6c     	mul	x12, x3, x7
    6708: 9bc77c6d     	umulh	x13, x3, x7
    670c: 9b087c6b     	mul	x11, x3, x8
    6710: 9bc87c6e     	umulh	x14, x3, x8
    6714: ab0b01ad     	adds	x13, x13, x11
    6718: a9472be9     	ldp	x9, x10, [sp, #0x70]
    671c: 9b097c6b     	mul	x11, x3, x9
    6720: 9bc97c6f     	umulh	x15, x3, x9
    6724: ba0b01ce     	adcs	x14, x14, x11
    6728: 9b0a7c6b     	mul	x11, x3, x10
    672c: 9bca7c70     	umulh	x16, x3, x10
    6730: ba0b01ef     	adcs	x15, x15, x11
    6734: 9a1f0210     	adc	x16, x16, xzr
    6738: a9431be5     	ldp	x5, x6, [sp, #0x30]
    673c: 9b077c8b     	mul	x11, x4, x7
    6740: ab0b01ad     	adds	x13, x13, x11
    6744: 9b087c8b     	mul	x11, x4, x8
    6748: ba0b01ce     	adcs	x14, x14, x11
    674c: 9b097c8b     	mul	x11, x4, x9
    6750: ba0b01ef     	adcs	x15, x15, x11
    6754: 9b0a7c8b     	mul	x11, x4, x10
    6758: ba0b0210     	adcs	x16, x16, x11
    675c: 9bca7c83     	umulh	x3, x4, x10
    6760: 9a1f0063     	adc	x3, x3, xzr
    6764: 9bc77c8b     	umulh	x11, x4, x7
    6768: ab0b01ce     	adds	x14, x14, x11
    676c: 9bc87c8b     	umulh	x11, x4, x8
    6770: ba0b01ef     	adcs	x15, x15, x11
    6774: 9bc97c8b     	umulh	x11, x4, x9
    6778: ba0b0210     	adcs	x16, x16, x11
    677c: 9a1f0063     	adc	x3, x3, xzr
    6780: 9b077cab     	mul	x11, x5, x7
    6784: ab0b01ce     	adds	x14, x14, x11
    6788: 9b087cab     	mul	x11, x5, x8
    678c: ba0b01ef     	adcs	x15, x15, x11
    6790: 9b097cab     	mul	x11, x5, x9
    6794: ba0b0210     	adcs	x16, x16, x11
    6798: 9b0a7cab     	mul	x11, x5, x10
    679c: ba0b0063     	adcs	x3, x3, x11
    67a0: 9bca7ca4     	umulh	x4, x5, x10
    67a4: 9a1f0084     	adc	x4, x4, xzr
    67a8: 9bc77cab     	umulh	x11, x5, x7
    67ac: ab0b01ef     	adds	x15, x15, x11
    67b0: 9bc87cab     	umulh	x11, x5, x8
    67b4: ba0b0210     	adcs	x16, x16, x11
    67b8: 9bc97cab     	umulh	x11, x5, x9
    67bc: ba0b0063     	adcs	x3, x3, x11
    67c0: 9a1f0084     	adc	x4, x4, xzr
    67c4: 9b077ccb     	mul	x11, x6, x7
    67c8: ab0b01ef     	adds	x15, x15, x11
    67cc: 9b087ccb     	mul	x11, x6, x8
    67d0: ba0b0210     	adcs	x16, x16, x11
    67d4: 9b097ccb     	mul	x11, x6, x9
    67d8: ba0b0063     	adcs	x3, x3, x11
    67dc: 9b0a7ccb     	mul	x11, x6, x10
    67e0: ba0b0084     	adcs	x4, x4, x11
    67e4: 9bca7cc5     	umulh	x5, x6, x10
    67e8: 9a1f00a5     	adc	x5, x5, xzr
    67ec: 9bc77ccb     	umulh	x11, x6, x7
    67f0: ab0b0210     	adds	x16, x16, x11
    67f4: 9bc87ccb     	umulh	x11, x6, x8
    67f8: ba0b0063     	adcs	x3, x3, x11
    67fc: 9bc97ccb     	umulh	x11, x6, x9
    6800: ba0b0084     	adcs	x4, x4, x11
    6804: 9a1f00a5     	adc	x5, x5, xzr
    6808: d28004c7     	mov	x7, #0x26               // =38
    680c: 9b107ceb     	mul	x11, x7, x16
    6810: 9bd07ce9     	umulh	x9, x7, x16
    6814: ab0b018c     	adds	x12, x12, x11
    6818: 9b037ceb     	mul	x11, x7, x3
    681c: 9bc37ce3     	umulh	x3, x7, x3
    6820: ba0b01ad     	adcs	x13, x13, x11
    6824: 9b047ceb     	mul	x11, x7, x4
    6828: 9bc47ce4     	umulh	x4, x7, x4
    682c: ba0b01ce     	adcs	x14, x14, x11
    6830: 9b057ceb     	mul	x11, x7, x5
    6834: 9bc57ce5     	umulh	x5, x7, x5
    6838: ba0b01ef     	adcs	x15, x15, x11
    683c: 9a9f37f0     	cset	x16, hs
    6840: ab0401ef     	adds	x15, x15, x4
    6844: 9a050210     	adc	x16, x16, x5
    6848: ab0f01ff     	cmn	x15, x15
    684c: 9240f9ef     	and	x15, x15, #0x7fffffffffffffff
    6850: 9a100208     	adc	x8, x16, x16
    6854: d2800267     	mov	x7, #0x13               // =19
    6858: 9b087ceb     	mul	x11, x7, x8
    685c: ab0b018c     	adds	x12, x12, x11
    6860: ba0901ad     	adcs	x13, x13, x9
    6864: ba0301ce     	adcs	x14, x14, x3
    6868: 9a1f01ef     	adc	x15, x15, xzr
    686c: a90036cc     	stp	x12, x13, [x22]
    6870: a9013ece     	stp	x14, x15, [x22, #0x10]
    6874: 910283ff     	add	sp, sp, #0xa0
    6878: d65f03c0     	ret

000000000000687c <edwards25519_scalarmuldouble_alt_pdouble>:
    687c: d10283ff     	sub	sp, sp, #0xa0
    6880: a94012e3     	ldp	x3, x4, [x23]
    6884: a94222e7     	ldp	x7, x8, [x23, #0x20]
    6888: ab070063     	adds	x3, x3, x7
    688c: ba080084     	adcs	x4, x4, x8
    6890: a9411ae5     	ldp	x5, x6, [x23, #0x10]
    6894: a94322e7     	ldp	x7, x8, [x23, #0x30]
    6898: ba0700a5     	adcs	x5, x5, x7
    689c: ba0800c6     	adcs	x6, x6, x8
    68a0: d28004c9     	mov	x9, #0x26               // =38
    68a4: 9a9f2129     	csel	x9, x9, xzr, hs
    68a8: ab090063     	adds	x3, x3, x9
    68ac: ba1f0084     	adcs	x4, x4, xzr
    68b0: ba1f00a5     	adcs	x5, x5, xzr
    68b4: 9a1f00c6     	adc	x6, x6, xzr
    68b8: a90013e3     	stp	x3, x4, [sp]
    68bc: a9011be5     	stp	x5, x6, [sp, #0x10]
    68c0: a9440ee2     	ldp	x2, x3, [x23, #0x40]
    68c4: 9b037c49     	mul	x9, x2, x3
    68c8: 9bc37c4a     	umulh	x10, x2, x3
    68cc: a94516e4     	ldp	x4, x5, [x23, #0x50]
    68d0: 9b057c4b     	mul	x11, x2, x5
    68d4: 9bc57c4c     	umulh	x12, x2, x5
    68d8: 9b047c47     	mul	x7, x2, x4
    68dc: 9bc47c46     	umulh	x6, x2, x4
    68e0: ab07014a     	adds	x10, x10, x7
    68e4: ba06016b     	adcs	x11, x11, x6
    68e8: 9b047c67     	mul	x7, x3, x4
    68ec: 9bc47c66     	umulh	x6, x3, x4
    68f0: 9a1f00c6     	adc	x6, x6, xzr
    68f4: ab07016b     	adds	x11, x11, x7
    68f8: 9b057c8d     	mul	x13, x4, x5
    68fc: 9bc57c8e     	umulh	x14, x4, x5
    6900: ba06018c     	adcs	x12, x12, x6
    6904: 9b057c67     	mul	x7, x3, x5
    6908: 9bc57c66     	umulh	x6, x3, x5
    690c: 9a1f00c6     	adc	x6, x6, xzr
    6910: ab07018c     	adds	x12, x12, x7
    6914: ba0601ad     	adcs	x13, x13, x6
    6918: 9a1f01ce     	adc	x14, x14, xzr
    691c: ab090129     	adds	x9, x9, x9
    6920: ba0a014a     	adcs	x10, x10, x10
    6924: ba0b016b     	adcs	x11, x11, x11
    6928: ba0c018c     	adcs	x12, x12, x12
    692c: ba0d01ad     	adcs	x13, x13, x13
    6930: ba0e01ce     	adcs	x14, x14, x14
    6934: 9a9f37e6     	cset	x6, hs
    6938: 9bc27c47     	umulh	x7, x2, x2
    693c: 9b027c48     	mul	x8, x2, x2
    6940: ab070129     	adds	x9, x9, x7
    6944: 9b037c67     	mul	x7, x3, x3
    6948: ba07014a     	adcs	x10, x10, x7
    694c: 9bc37c67     	umulh	x7, x3, x3
    6950: ba07016b     	adcs	x11, x11, x7
    6954: 9b047c87     	mul	x7, x4, x4
    6958: ba07018c     	adcs	x12, x12, x7
    695c: 9bc47c87     	umulh	x7, x4, x4
    6960: ba0701ad     	adcs	x13, x13, x7
    6964: 9b057ca7     	mul	x7, x5, x5
    6968: ba0701ce     	adcs	x14, x14, x7
    696c: 9bc57ca7     	umulh	x7, x5, x5
    6970: 9a0700c6     	adc	x6, x6, x7
    6974: d28004c3     	mov	x3, #0x26               // =38
    6978: 9b0c7c67     	mul	x7, x3, x12
    697c: 9bcc7c64     	umulh	x4, x3, x12
    6980: ab070108     	adds	x8, x8, x7
    6984: 9b0d7c67     	mul	x7, x3, x13
    6988: 9bcd7c6d     	umulh	x13, x3, x13
    698c: ba070129     	adcs	x9, x9, x7
    6990: 9b0e7c67     	mul	x7, x3, x14
    6994: 9bce7c6e     	umulh	x14, x3, x14
    6998: ba07014a     	adcs	x10, x10, x7
    699c: 9b067c67     	mul	x7, x3, x6
    69a0: 9bc67c66     	umulh	x6, x3, x6
    69a4: ba07016b     	adcs	x11, x11, x7
    69a8: 9a9f37ec     	cset	x12, hs
    69ac: ab0e016b     	adds	x11, x11, x14
    69b0: 9a06018c     	adc	x12, x12, x6
    69b4: ab0b017f     	cmn	x11, x11
    69b8: 9240f96b     	and	x11, x11, #0x7fffffffffffffff
    69bc: 9a0c0182     	adc	x2, x12, x12
    69c0: d2800263     	mov	x3, #0x13               // =19
    69c4: 9b027c67     	mul	x7, x3, x2
    69c8: ab070108     	adds	x8, x8, x7
    69cc: ba040129     	adcs	x9, x9, x4
    69d0: ba0d014a     	adcs	x10, x10, x13
    69d4: 9a1f016b     	adc	x11, x11, xzr
    69d8: a90227e8     	stp	x8, x9, [sp, #0x20]
    69dc: a9032fea     	stp	x10, x11, [sp, #0x30]
    69e0: a9400ee2     	ldp	x2, x3, [x23]
    69e4: 9b037c49     	mul	x9, x2, x3
    69e8: 9bc37c4a     	umulh	x10, x2, x3
    69ec: a94116e4     	ldp	x4, x5, [x23, #0x10]
    69f0: 9b057c4b     	mul	x11, x2, x5
    69f4: 9bc57c4c     	umulh	x12, x2, x5
    69f8: 9b047c47     	mul	x7, x2, x4
    69fc: 9bc47c46     	umulh	x6, x2, x4
    6a00: ab07014a     	adds	x10, x10, x7
    6a04: ba06016b     	adcs	x11, x11, x6
    6a08: 9b047c67     	mul	x7, x3, x4
    6a0c: 9bc47c66     	umulh	x6, x3, x4
    6a10: 9a1f00c6     	adc	x6, x6, xzr
    6a14: ab07016b     	adds	x11, x11, x7
    6a18: 9b057c8d     	mul	x13, x4, x5
    6a1c: 9bc57c8e     	umulh	x14, x4, x5
    6a20: ba06018c     	adcs	x12, x12, x6
    6a24: 9b057c67     	mul	x7, x3, x5
    6a28: 9bc57c66     	umulh	x6, x3, x5
    6a2c: 9a1f00c6     	adc	x6, x6, xzr
    6a30: ab07018c     	adds	x12, x12, x7
    6a34: ba0601ad     	adcs	x13, x13, x6
    6a38: 9a1f01ce     	adc	x14, x14, xzr
    6a3c: ab090129     	adds	x9, x9, x9
    6a40: ba0a014a     	adcs	x10, x10, x10
    6a44: ba0b016b     	adcs	x11, x11, x11
    6a48: ba0c018c     	adcs	x12, x12, x12
    6a4c: ba0d01ad     	adcs	x13, x13, x13
    6a50: ba0e01ce     	adcs	x14, x14, x14
    6a54: 9a9f37e6     	cset	x6, hs
    6a58: 9bc27c47     	umulh	x7, x2, x2
    6a5c: 9b027c48     	mul	x8, x2, x2
    6a60: ab070129     	adds	x9, x9, x7
    6a64: 9b037c67     	mul	x7, x3, x3
    6a68: ba07014a     	adcs	x10, x10, x7
    6a6c: 9bc37c67     	umulh	x7, x3, x3
    6a70: ba07016b     	adcs	x11, x11, x7
    6a74: 9b047c87     	mul	x7, x4, x4
    6a78: ba07018c     	adcs	x12, x12, x7
    6a7c: 9bc47c87     	umulh	x7, x4, x4
    6a80: ba0701ad     	adcs	x13, x13, x7
    6a84: 9b057ca7     	mul	x7, x5, x5
    6a88: ba0701ce     	adcs	x14, x14, x7
    6a8c: 9bc57ca7     	umulh	x7, x5, x5
    6a90: 9a0700c6     	adc	x6, x6, x7
    6a94: d28004c3     	mov	x3, #0x26               // =38
    6a98: 9b0c7c67     	mul	x7, x3, x12
    6a9c: 9bcc7c64     	umulh	x4, x3, x12
    6aa0: ab070108     	adds	x8, x8, x7
    6aa4: 9b0d7c67     	mul	x7, x3, x13
    6aa8: 9bcd7c6d     	umulh	x13, x3, x13
    6aac: ba070129     	adcs	x9, x9, x7
    6ab0: 9b0e7c67     	mul	x7, x3, x14
    6ab4: 9bce7c6e     	umulh	x14, x3, x14
    6ab8: ba07014a     	adcs	x10, x10, x7
    6abc: 9b067c67     	mul	x7, x3, x6
    6ac0: 9bc67c66     	umulh	x6, x3, x6
    6ac4: ba07016b     	adcs	x11, x11, x7
    6ac8: 9a9f37ec     	cset	x12, hs
    6acc: ab0e016b     	adds	x11, x11, x14
    6ad0: 9a06018c     	adc	x12, x12, x6
    6ad4: ab0b017f     	cmn	x11, x11
    6ad8: 9240f96b     	and	x11, x11, #0x7fffffffffffffff
    6adc: 9a0c0182     	adc	x2, x12, x12
    6ae0: d2800263     	mov	x3, #0x13               // =19
    6ae4: 9b027c67     	mul	x7, x3, x2
    6ae8: ab070108     	adds	x8, x8, x7
    6aec: ba040129     	adcs	x9, x9, x4
    6af0: ba0d014a     	adcs	x10, x10, x13
    6af4: 9a1f016b     	adc	x11, x11, xzr
    6af8: a90427e8     	stp	x8, x9, [sp, #0x40]
    6afc: a9052fea     	stp	x10, x11, [sp, #0x50]
    6b00: a9420ee2     	ldp	x2, x3, [x23, #0x20]
    6b04: 9b037c49     	mul	x9, x2, x3
    6b08: 9bc37c4a     	umulh	x10, x2, x3
    6b0c: a94316e4     	ldp	x4, x5, [x23, #0x30]
    6b10: 9b057c4b     	mul	x11, x2, x5
    6b14: 9bc57c4c     	umulh	x12, x2, x5
    6b18: 9b047c47     	mul	x7, x2, x4
    6b1c: 9bc47c46     	umulh	x6, x2, x4
    6b20: ab07014a     	adds	x10, x10, x7
    6b24: ba06016b     	adcs	x11, x11, x6
    6b28: 9b047c67     	mul	x7, x3, x4
    6b2c: 9bc47c66     	umulh	x6, x3, x4
    6b30: 9a1f00c6     	adc	x6, x6, xzr
    6b34: ab07016b     	adds	x11, x11, x7
    6b38: 9b057c8d     	mul	x13, x4, x5
    6b3c: 9bc57c8e     	umulh	x14, x4, x5
    6b40: ba06018c     	adcs	x12, x12, x6
    6b44: 9b057c67     	mul	x7, x3, x5
    6b48: 9bc57c66     	umulh	x6, x3, x5
    6b4c: 9a1f00c6     	adc	x6, x6, xzr
    6b50: ab07018c     	adds	x12, x12, x7
    6b54: ba0601ad     	adcs	x13, x13, x6
    6b58: 9a1f01ce     	adc	x14, x14, xzr
    6b5c: ab090129     	adds	x9, x9, x9
    6b60: ba0a014a     	adcs	x10, x10, x10
    6b64: ba0b016b     	adcs	x11, x11, x11
    6b68: ba0c018c     	adcs	x12, x12, x12
    6b6c: ba0d01ad     	adcs	x13, x13, x13
    6b70: ba0e01ce     	adcs	x14, x14, x14
    6b74: 9a9f37e6     	cset	x6, hs
    6b78: 9bc27c47     	umulh	x7, x2, x2
    6b7c: 9b027c48     	mul	x8, x2, x2
    6b80: ab070129     	adds	x9, x9, x7
    6b84: 9b037c67     	mul	x7, x3, x3
    6b88: ba07014a     	adcs	x10, x10, x7
    6b8c: 9bc37c67     	umulh	x7, x3, x3
    6b90: ba07016b     	adcs	x11, x11, x7
    6b94: 9b047c87     	mul	x7, x4, x4
    6b98: ba07018c     	adcs	x12, x12, x7
    6b9c: 9bc47c87     	umulh	x7, x4, x4
    6ba0: ba0701ad     	adcs	x13, x13, x7
    6ba4: 9b057ca7     	mul	x7, x5, x5
    6ba8: ba0701ce     	adcs	x14, x14, x7
    6bac: 9bc57ca7     	umulh	x7, x5, x5
    6bb0: 9a0700c6     	adc	x6, x6, x7
    6bb4: d28004c3     	mov	x3, #0x26               // =38
    6bb8: 9b0c7c67     	mul	x7, x3, x12
    6bbc: 9bcc7c64     	umulh	x4, x3, x12
    6bc0: ab070108     	adds	x8, x8, x7
    6bc4: 9b0d7c67     	mul	x7, x3, x13
    6bc8: 9bcd7c6d     	umulh	x13, x3, x13
    6bcc: ba070129     	adcs	x9, x9, x7
    6bd0: 9b0e7c67     	mul	x7, x3, x14
    6bd4: 9bce7c6e     	umulh	x14, x3, x14
    6bd8: ba07014a     	adcs	x10, x10, x7
    6bdc: 9b067c67     	mul	x7, x3, x6
    6be0: 9bc67c66     	umulh	x6, x3, x6
    6be4: ba07016b     	adcs	x11, x11, x7
    6be8: 9a9f37ec     	cset	x12, hs
    6bec: ab0e016b     	adds	x11, x11, x14
    6bf0: 9a06018c     	adc	x12, x12, x6
    6bf4: ab0b017f     	cmn	x11, x11
    6bf8: 9240f96b     	and	x11, x11, #0x7fffffffffffffff
    6bfc: 9a0c0182     	adc	x2, x12, x12
    6c00: d2800263     	mov	x3, #0x13               // =19
    6c04: 9b027c67     	mul	x7, x3, x2
    6c08: ab070108     	adds	x8, x8, x7
    6c0c: ba040129     	adcs	x9, x9, x4
    6c10: ba0d014a     	adcs	x10, x10, x13
    6c14: 9a1f016b     	adc	x11, x11, xzr
    6c18: a90627e8     	stp	x8, x9, [sp, #0x60]
    6c1c: a9072fea     	stp	x10, x11, [sp, #0x70]
    6c20: a94213e3     	ldp	x3, x4, [sp, #0x20]
    6c24: ab030063     	adds	x3, x3, x3
    6c28: ba040084     	adcs	x4, x4, x4
    6c2c: a9431be5     	ldp	x5, x6, [sp, #0x30]
    6c30: ba0500a5     	adcs	x5, x5, x5
    6c34: ba0600c6     	adcs	x6, x6, x6
    6c38: d28004c9     	mov	x9, #0x26               // =38
    6c3c: 9a9f2129     	csel	x9, x9, xzr, hs
    6c40: ab090063     	adds	x3, x3, x9
    6c44: ba1f0084     	adcs	x4, x4, xzr
    6c48: ba1f00a5     	adcs	x5, x5, xzr
    6c4c: 9a1f00c6     	adc	x6, x6, xzr
    6c50: a90213e3     	stp	x3, x4, [sp, #0x20]
    6c54: a9031be5     	stp	x5, x6, [sp, #0x30]
    6c58: a9400fe2     	ldp	x2, x3, [sp]
    6c5c: 9b037c49     	mul	x9, x2, x3
    6c60: 9bc37c4a     	umulh	x10, x2, x3
    6c64: a94117e4     	ldp	x4, x5, [sp, #0x10]
    6c68: 9b057c4b     	mul	x11, x2, x5
    6c6c: 9bc57c4c     	umulh	x12, x2, x5
    6c70: 9b047c47     	mul	x7, x2, x4
    6c74: 9bc47c46     	umulh	x6, x2, x4
    6c78: ab07014a     	adds	x10, x10, x7
    6c7c: ba06016b     	adcs	x11, x11, x6
    6c80: 9b047c67     	mul	x7, x3, x4
    6c84: 9bc47c66     	umulh	x6, x3, x4
    6c88: 9a1f00c6     	adc	x6, x6, xzr
    6c8c: ab07016b     	adds	x11, x11, x7
    6c90: 9b057c8d     	mul	x13, x4, x5
    6c94: 9bc57c8e     	umulh	x14, x4, x5
    6c98: ba06018c     	adcs	x12, x12, x6
    6c9c: 9b057c67     	mul	x7, x3, x5
    6ca0: 9bc57c66     	umulh	x6, x3, x5
    6ca4: 9a1f00c6     	adc	x6, x6, xzr
    6ca8: ab07018c     	adds	x12, x12, x7
    6cac: ba0601ad     	adcs	x13, x13, x6
    6cb0: 9a1f01ce     	adc	x14, x14, xzr
    6cb4: ab090129     	adds	x9, x9, x9
    6cb8: ba0a014a     	adcs	x10, x10, x10
    6cbc: ba0b016b     	adcs	x11, x11, x11
    6cc0: ba0c018c     	adcs	x12, x12, x12
    6cc4: ba0d01ad     	adcs	x13, x13, x13
    6cc8: ba0e01ce     	adcs	x14, x14, x14
    6ccc: 9a9f37e6     	cset	x6, hs
    6cd0: 9bc27c47     	umulh	x7, x2, x2
    6cd4: 9b027c48     	mul	x8, x2, x2
    6cd8: ab070129     	adds	x9, x9, x7
    6cdc: 9b037c67     	mul	x7, x3, x3
    6ce0: ba07014a     	adcs	x10, x10, x7
    6ce4: 9bc37c67     	umulh	x7, x3, x3
    6ce8: ba07016b     	adcs	x11, x11, x7
    6cec: 9b047c87     	mul	x7, x4, x4
    6cf0: ba07018c     	adcs	x12, x12, x7
    6cf4: 9bc47c87     	umulh	x7, x4, x4
    6cf8: ba0701ad     	adcs	x13, x13, x7
    6cfc: 9b057ca7     	mul	x7, x5, x5
    6d00: ba0701ce     	adcs	x14, x14, x7
    6d04: 9bc57ca7     	umulh	x7, x5, x5
    6d08: 9a0700c6     	adc	x6, x6, x7
    6d0c: d28004c3     	mov	x3, #0x26               // =38
    6d10: 9b0c7c67     	mul	x7, x3, x12
    6d14: 9bcc7c64     	umulh	x4, x3, x12
    6d18: ab070108     	adds	x8, x8, x7
    6d1c: 9b0d7c67     	mul	x7, x3, x13
    6d20: 9bcd7c6d     	umulh	x13, x3, x13
    6d24: ba070129     	adcs	x9, x9, x7
    6d28: 9b0e7c67     	mul	x7, x3, x14
    6d2c: 9bce7c6e     	umulh	x14, x3, x14
    6d30: ba07014a     	adcs	x10, x10, x7
    6d34: 9b067c67     	mul	x7, x3, x6
    6d38: 9bc67c66     	umulh	x6, x3, x6
    6d3c: ba07016b     	adcs	x11, x11, x7
    6d40: 9a9f37ec     	cset	x12, hs
    6d44: ab0e016b     	adds	x11, x11, x14
    6d48: 9a06018c     	adc	x12, x12, x6
    6d4c: ab0b017f     	cmn	x11, x11
    6d50: 9240f96b     	and	x11, x11, #0x7fffffffffffffff
    6d54: 9a0c0182     	adc	x2, x12, x12
    6d58: d2800263     	mov	x3, #0x13               // =19
    6d5c: 9b027c67     	mul	x7, x3, x2
    6d60: ab070108     	adds	x8, x8, x7
    6d64: ba040129     	adcs	x9, x9, x4
    6d68: ba0d014a     	adcs	x10, x10, x13
    6d6c: 9a1f016b     	adc	x11, x11, xzr
    6d70: a90027e8     	stp	x8, x9, [sp]
    6d74: a9012fea     	stp	x10, x11, [sp, #0x10]
    6d78: a94413e3     	ldp	x3, x4, [sp, #0x40]
    6d7c: a94623e7     	ldp	x7, x8, [sp, #0x60]
    6d80: ab070063     	adds	x3, x3, x7
    6d84: ba080084     	adcs	x4, x4, x8
    6d88: a9451be5     	ldp	x5, x6, [sp, #0x50]
    6d8c: a94723e7     	ldp	x7, x8, [sp, #0x70]
    6d90: ba0700a5     	adcs	x5, x5, x7
    6d94: ba0800c6     	adcs	x6, x6, x8
    6d98: d28004c9     	mov	x9, #0x26               // =38
    6d9c: 9a9f2129     	csel	x9, x9, xzr, hs
    6da0: ab090063     	adds	x3, x3, x9
    6da4: ba1f0084     	adcs	x4, x4, xzr
    6da8: ba1f00a5     	adcs	x5, x5, xzr
    6dac: 9a1f00c6     	adc	x6, x6, xzr
    6db0: a90813e3     	stp	x3, x4, [sp, #0x80]
    6db4: a9091be5     	stp	x5, x6, [sp, #0x90]
    6db8: a9441be5     	ldp	x5, x6, [sp, #0x40]
    6dbc: a9460fe4     	ldp	x4, x3, [sp, #0x60]
    6dc0: eb0400a5     	subs	x5, x5, x4
    6dc4: fa0300c6     	sbcs	x6, x6, x3
    6dc8: a94523e7     	ldp	x7, x8, [sp, #0x50]
    6dcc: a9470fe4     	ldp	x4, x3, [sp, #0x70]
    6dd0: fa0400e7     	sbcs	x7, x7, x4
    6dd4: fa030108     	sbcs	x8, x8, x3
    6dd8: d28004c4     	mov	x4, #0x26               // =38
    6ddc: 9a9f3083     	csel	x3, x4, xzr, lo
    6de0: eb0300a5     	subs	x5, x5, x3
    6de4: fa1f00c6     	sbcs	x6, x6, xzr
    6de8: fa1f00e7     	sbcs	x7, x7, xzr
    6dec: da1f0108     	sbc	x8, x8, xzr
    6df0: a9041be5     	stp	x5, x6, [sp, #0x40]
    6df4: a90523e7     	stp	x7, x8, [sp, #0x50]
    6df8: a94213e3     	ldp	x3, x4, [sp, #0x20]
    6dfc: a94423e7     	ldp	x7, x8, [sp, #0x40]
    6e00: ab070063     	adds	x3, x3, x7
    6e04: ba080084     	adcs	x4, x4, x8
    6e08: a9431be5     	ldp	x5, x6, [sp, #0x30]
    6e0c: a94523e7     	ldp	x7, x8, [sp, #0x50]
    6e10: ba0700a5     	adcs	x5, x5, x7
    6e14: ba0800c6     	adcs	x6, x6, x8
    6e18: d28004c9     	mov	x9, #0x26               // =38
    6e1c: 9a9f2129     	csel	x9, x9, xzr, hs
    6e20: ab090063     	adds	x3, x3, x9
    6e24: ba1f0084     	adcs	x4, x4, xzr
    6e28: ba1f00a5     	adcs	x5, x5, xzr
    6e2c: 9a1f00c6     	adc	x6, x6, xzr
    6e30: a90613e3     	stp	x3, x4, [sp, #0x60]
    6e34: a9071be5     	stp	x5, x6, [sp, #0x70]
    6e38: a9481be5     	ldp	x5, x6, [sp, #0x80]
    6e3c: a9400fe4     	ldp	x4, x3, [sp]
    6e40: eb0400a5     	subs	x5, x5, x4
    6e44: fa0300c6     	sbcs	x6, x6, x3
    6e48: a94923e7     	ldp	x7, x8, [sp, #0x90]
    6e4c: a9410fe4     	ldp	x4, x3, [sp, #0x10]
    6e50: fa0400e7     	sbcs	x7, x7, x4
    6e54: fa030108     	sbcs	x8, x8, x3
    6e58: d28004c4     	mov	x4, #0x26               // =38
    6e5c: 9a9f3083     	csel	x3, x4, xzr, lo
    6e60: eb0300a5     	subs	x5, x5, x3
    6e64: fa1f00c6     	sbcs	x6, x6, xzr
    6e68: fa1f00e7     	sbcs	x7, x7, xzr
    6e6c: da1f0108     	sbc	x8, x8, xzr
    6e70: a9021be5     	stp	x5, x6, [sp, #0x20]
    6e74: a90323e7     	stp	x7, x8, [sp, #0x30]
    6e78: a94413e3     	ldp	x3, x4, [sp, #0x40]
    6e7c: a94823e7     	ldp	x7, x8, [sp, #0x80]
    6e80: 9b077c6c     	mul	x12, x3, x7
    6e84: 9bc77c6d     	umulh	x13, x3, x7
    6e88: 9b087c6b     	mul	x11, x3, x8
    6e8c: 9bc87c6e     	umulh	x14, x3, x8
    6e90: ab0b01ad     	adds	x13, x13, x11
    6e94: a9492be9     	ldp	x9, x10, [sp, #0x90]
    6e98: 9b097c6b     	mul	x11, x3, x9
    6e9c: 9bc97c6f     	umulh	x15, x3, x9
    6ea0: ba0b01ce     	adcs	x14, x14, x11
    6ea4: 9b0a7c6b     	mul	x11, x3, x10
    6ea8: 9bca7c70     	umulh	x16, x3, x10
    6eac: ba0b01ef     	adcs	x15, x15, x11
    6eb0: 9a1f0210     	adc	x16, x16, xzr
    6eb4: a9451be5     	ldp	x5, x6, [sp, #0x50]
    6eb8: 9b077c8b     	mul	x11, x4, x7
    6ebc: ab0b01ad     	adds	x13, x13, x11
    6ec0: 9b087c8b     	mul	x11, x4, x8
    6ec4: ba0b01ce     	adcs	x14, x14, x11
    6ec8: 9b097c8b     	mul	x11, x4, x9
    6ecc: ba0b01ef     	adcs	x15, x15, x11
    6ed0: 9b0a7c8b     	mul	x11, x4, x10
    6ed4: ba0b0210     	adcs	x16, x16, x11
    6ed8: 9bca7c83     	umulh	x3, x4, x10
    6edc: 9a1f0063     	adc	x3, x3, xzr
    6ee0: 9bc77c8b     	umulh	x11, x4, x7
    6ee4: ab0b01ce     	adds	x14, x14, x11
    6ee8: 9bc87c8b     	umulh	x11, x4, x8
    6eec: ba0b01ef     	adcs	x15, x15, x11
    6ef0: 9bc97c8b     	umulh	x11, x4, x9
    6ef4: ba0b0210     	adcs	x16, x16, x11
    6ef8: 9a1f0063     	adc	x3, x3, xzr
    6efc: 9b077cab     	mul	x11, x5, x7
    6f00: ab0b01ce     	adds	x14, x14, x11
    6f04: 9b087cab     	mul	x11, x5, x8
    6f08: ba0b01ef     	adcs	x15, x15, x11
    6f0c: 9b097cab     	mul	x11, x5, x9
    6f10: ba0b0210     	adcs	x16, x16, x11
    6f14: 9b0a7cab     	mul	x11, x5, x10
    6f18: ba0b0063     	adcs	x3, x3, x11
    6f1c: 9bca7ca4     	umulh	x4, x5, x10
    6f20: 9a1f0084     	adc	x4, x4, xzr
    6f24: 9bc77cab     	umulh	x11, x5, x7
    6f28: ab0b01ef     	adds	x15, x15, x11
    6f2c: 9bc87cab     	umulh	x11, x5, x8
    6f30: ba0b0210     	adcs	x16, x16, x11
    6f34: 9bc97cab     	umulh	x11, x5, x9
    6f38: ba0b0063     	adcs	x3, x3, x11
    6f3c: 9a1f0084     	adc	x4, x4, xzr
    6f40: 9b077ccb     	mul	x11, x6, x7
    6f44: ab0b01ef     	adds	x15, x15, x11
    6f48: 9b087ccb     	mul	x11, x6, x8
    6f4c: ba0b0210     	adcs	x16, x16, x11
    6f50: 9b097ccb     	mul	x11, x6, x9
    6f54: ba0b0063     	adcs	x3, x3, x11
    6f58: 9b0a7ccb     	mul	x11, x6, x10
    6f5c: ba0b0084     	adcs	x4, x4, x11
    6f60: 9bca7cc5     	umulh	x5, x6, x10
    6f64: 9a1f00a5     	adc	x5, x5, xzr
    6f68: 9bc77ccb     	umulh	x11, x6, x7
    6f6c: ab0b0210     	adds	x16, x16, x11
    6f70: 9bc87ccb     	umulh	x11, x6, x8
    6f74: ba0b0063     	adcs	x3, x3, x11
    6f78: 9bc97ccb     	umulh	x11, x6, x9
    6f7c: ba0b0084     	adcs	x4, x4, x11
    6f80: 9a1f00a5     	adc	x5, x5, xzr
    6f84: d28004c7     	mov	x7, #0x26               // =38
    6f88: 9b107ceb     	mul	x11, x7, x16
    6f8c: 9bd07ce9     	umulh	x9, x7, x16
    6f90: ab0b018c     	adds	x12, x12, x11
    6f94: 9b037ceb     	mul	x11, x7, x3
    6f98: 9bc37ce3     	umulh	x3, x7, x3
    6f9c: ba0b01ad     	adcs	x13, x13, x11
    6fa0: 9b047ceb     	mul	x11, x7, x4
    6fa4: 9bc47ce4     	umulh	x4, x7, x4
    6fa8: ba0b01ce     	adcs	x14, x14, x11
    6fac: 9b057ceb     	mul	x11, x7, x5
    6fb0: 9bc57ce5     	umulh	x5, x7, x5
    6fb4: ba0b01ef     	adcs	x15, x15, x11
    6fb8: 9a9f37f0     	cset	x16, hs
    6fbc: ab0401ef     	adds	x15, x15, x4
    6fc0: 9a050210     	adc	x16, x16, x5
    6fc4: ab0f01ff     	cmn	x15, x15
    6fc8: 9240f9ef     	and	x15, x15, #0x7fffffffffffffff
    6fcc: 9a100208     	adc	x8, x16, x16
    6fd0: d2800267     	mov	x7, #0x13               // =19
    6fd4: 9b087ceb     	mul	x11, x7, x8
    6fd8: ab0b018c     	adds	x12, x12, x11
    6fdc: ba0901ad     	adcs	x13, x13, x9
    6fe0: ba0301ce     	adcs	x14, x14, x3
    6fe4: 9a1f01ef     	adc	x15, x15, xzr
    6fe8: a90236cc     	stp	x12, x13, [x22, #0x20]
    6fec: a9033ece     	stp	x14, x15, [x22, #0x30]
    6ff0: a94613e3     	ldp	x3, x4, [sp, #0x60]
    6ff4: a94423e7     	ldp	x7, x8, [sp, #0x40]
    6ff8: 9b077c6c     	mul	x12, x3, x7
    6ffc: 9bc77c6d     	umulh	x13, x3, x7
    7000: 9b087c6b     	mul	x11, x3, x8
    7004: 9bc87c6e     	umulh	x14, x3, x8
    7008: ab0b01ad     	adds	x13, x13, x11
    700c: a9452be9     	ldp	x9, x10, [sp, #0x50]
    7010: 9b097c6b     	mul	x11, x3, x9
    7014: 9bc97c6f     	umulh	x15, x3, x9
    7018: ba0b01ce     	adcs	x14, x14, x11
    701c: 9b0a7c6b     	mul	x11, x3, x10
    7020: 9bca7c70     	umulh	x16, x3, x10
    7024: ba0b01ef     	adcs	x15, x15, x11
    7028: 9a1f0210     	adc	x16, x16, xzr
    702c: a9471be5     	ldp	x5, x6, [sp, #0x70]
    7030: 9b077c8b     	mul	x11, x4, x7
    7034: ab0b01ad     	adds	x13, x13, x11
    7038: 9b087c8b     	mul	x11, x4, x8
    703c: ba0b01ce     	adcs	x14, x14, x11
    7040: 9b097c8b     	mul	x11, x4, x9
    7044: ba0b01ef     	adcs	x15, x15, x11
    7048: 9b0a7c8b     	mul	x11, x4, x10
    704c: ba0b0210     	adcs	x16, x16, x11
    7050: 9bca7c83     	umulh	x3, x4, x10
    7054: 9a1f0063     	adc	x3, x3, xzr
    7058: 9bc77c8b     	umulh	x11, x4, x7
    705c: ab0b01ce     	adds	x14, x14, x11
    7060: 9bc87c8b     	umulh	x11, x4, x8
    7064: ba0b01ef     	adcs	x15, x15, x11
    7068: 9bc97c8b     	umulh	x11, x4, x9
    706c: ba0b0210     	adcs	x16, x16, x11
    7070: 9a1f0063     	adc	x3, x3, xzr
    7074: 9b077cab     	mul	x11, x5, x7
    7078: ab0b01ce     	adds	x14, x14, x11
    707c: 9b087cab     	mul	x11, x5, x8
    7080: ba0b01ef     	adcs	x15, x15, x11
    7084: 9b097cab     	mul	x11, x5, x9
    7088: ba0b0210     	adcs	x16, x16, x11
    708c: 9b0a7cab     	mul	x11, x5, x10
    7090: ba0b0063     	adcs	x3, x3, x11
    7094: 9bca7ca4     	umulh	x4, x5, x10
    7098: 9a1f0084     	adc	x4, x4, xzr
    709c: 9bc77cab     	umulh	x11, x5, x7
    70a0: ab0b01ef     	adds	x15, x15, x11
    70a4: 9bc87cab     	umulh	x11, x5, x8
    70a8: ba0b0210     	adcs	x16, x16, x11
    70ac: 9bc97cab     	umulh	x11, x5, x9
    70b0: ba0b0063     	adcs	x3, x3, x11
    70b4: 9a1f0084     	adc	x4, x4, xzr
    70b8: 9b077ccb     	mul	x11, x6, x7
    70bc: ab0b01ef     	adds	x15, x15, x11
    70c0: 9b087ccb     	mul	x11, x6, x8
    70c4: ba0b0210     	adcs	x16, x16, x11
    70c8: 9b097ccb     	mul	x11, x6, x9
    70cc: ba0b0063     	adcs	x3, x3, x11
    70d0: 9b0a7ccb     	mul	x11, x6, x10
    70d4: ba0b0084     	adcs	x4, x4, x11
    70d8: 9bca7cc5     	umulh	x5, x6, x10
    70dc: 9a1f00a5     	adc	x5, x5, xzr
    70e0: 9bc77ccb     	umulh	x11, x6, x7
    70e4: ab0b0210     	adds	x16, x16, x11
    70e8: 9bc87ccb     	umulh	x11, x6, x8
    70ec: ba0b0063     	adcs	x3, x3, x11
    70f0: 9bc97ccb     	umulh	x11, x6, x9
    70f4: ba0b0084     	adcs	x4, x4, x11
    70f8: 9a1f00a5     	adc	x5, x5, xzr
    70fc: d28004c7     	mov	x7, #0x26               // =38
    7100: 9b107ceb     	mul	x11, x7, x16
    7104: 9bd07ce9     	umulh	x9, x7, x16
    7108: ab0b018c     	adds	x12, x12, x11
    710c: 9b037ceb     	mul	x11, x7, x3
    7110: 9bc37ce3     	umulh	x3, x7, x3
    7114: ba0b01ad     	adcs	x13, x13, x11
    7118: 9b047ceb     	mul	x11, x7, x4
    711c: 9bc47ce4     	umulh	x4, x7, x4
    7120: ba0b01ce     	adcs	x14, x14, x11
    7124: 9b057ceb     	mul	x11, x7, x5
    7128: 9bc57ce5     	umulh	x5, x7, x5
    712c: ba0b01ef     	adcs	x15, x15, x11
    7130: 9a9f37f0     	cset	x16, hs
    7134: ab0401ef     	adds	x15, x15, x4
    7138: 9a050210     	adc	x16, x16, x5
    713c: ab0f01ff     	cmn	x15, x15
    7140: 9240f9ef     	and	x15, x15, #0x7fffffffffffffff
    7144: 9a100208     	adc	x8, x16, x16
    7148: d2800267     	mov	x7, #0x13               // =19
    714c: 9b087ceb     	mul	x11, x7, x8
    7150: ab0b018c     	adds	x12, x12, x11
    7154: ba0901ad     	adcs	x13, x13, x9
    7158: ba0301ce     	adcs	x14, x14, x3
    715c: 9a1f01ef     	adc	x15, x15, xzr
    7160: a90436cc     	stp	x12, x13, [x22, #0x40]
    7164: a9053ece     	stp	x14, x15, [x22, #0x50]
    7168: a94213e3     	ldp	x3, x4, [sp, #0x20]
    716c: a94623e7     	ldp	x7, x8, [sp, #0x60]
    7170: 9b077c6c     	mul	x12, x3, x7
    7174: 9bc77c6d     	umulh	x13, x3, x7
    7178: 9b087c6b     	mul	x11, x3, x8
    717c: 9bc87c6e     	umulh	x14, x3, x8
    7180: ab0b01ad     	adds	x13, x13, x11
    7184: a9472be9     	ldp	x9, x10, [sp, #0x70]
    7188: 9b097c6b     	mul	x11, x3, x9
    718c: 9bc97c6f     	umulh	x15, x3, x9
    7190: ba0b01ce     	adcs	x14, x14, x11
    7194: 9b0a7c6b     	mul	x11, x3, x10
    7198: 9bca7c70     	umulh	x16, x3, x10
    719c: ba0b01ef     	adcs	x15, x15, x11
    71a0: 9a1f0210     	adc	x16, x16, xzr
    71a4: a9431be5     	ldp	x5, x6, [sp, #0x30]
    71a8: 9b077c8b     	mul	x11, x4, x7
    71ac: ab0b01ad     	adds	x13, x13, x11
    71b0: 9b087c8b     	mul	x11, x4, x8
    71b4: ba0b01ce     	adcs	x14, x14, x11
    71b8: 9b097c8b     	mul	x11, x4, x9
    71bc: ba0b01ef     	adcs	x15, x15, x11
    71c0: 9b0a7c8b     	mul	x11, x4, x10
    71c4: ba0b0210     	adcs	x16, x16, x11
    71c8: 9bca7c83     	umulh	x3, x4, x10
    71cc: 9a1f0063     	adc	x3, x3, xzr
    71d0: 9bc77c8b     	umulh	x11, x4, x7
    71d4: ab0b01ce     	adds	x14, x14, x11
    71d8: 9bc87c8b     	umulh	x11, x4, x8
    71dc: ba0b01ef     	adcs	x15, x15, x11
    71e0: 9bc97c8b     	umulh	x11, x4, x9
    71e4: ba0b0210     	adcs	x16, x16, x11
    71e8: 9a1f0063     	adc	x3, x3, xzr
    71ec: 9b077cab     	mul	x11, x5, x7
    71f0: ab0b01ce     	adds	x14, x14, x11
    71f4: 9b087cab     	mul	x11, x5, x8
    71f8: ba0b01ef     	adcs	x15, x15, x11
    71fc: 9b097cab     	mul	x11, x5, x9
    7200: ba0b0210     	adcs	x16, x16, x11
    7204: 9b0a7cab     	mul	x11, x5, x10
    7208: ba0b0063     	adcs	x3, x3, x11
    720c: 9bca7ca4     	umulh	x4, x5, x10
    7210: 9a1f0084     	adc	x4, x4, xzr
    7214: 9bc77cab     	umulh	x11, x5, x7
    7218: ab0b01ef     	adds	x15, x15, x11
    721c: 9bc87cab     	umulh	x11, x5, x8
    7220: ba0b0210     	adcs	x16, x16, x11
    7224: 9bc97cab     	umulh	x11, x5, x9
    7228: ba0b0063     	adcs	x3, x3, x11
    722c: 9a1f0084     	adc	x4, x4, xzr
    7230: 9b077ccb     	mul	x11, x6, x7
    7234: ab0b01ef     	adds	x15, x15, x11
    7238: 9b087ccb     	mul	x11, x6, x8
    723c: ba0b0210     	adcs	x16, x16, x11
    7240: 9b097ccb     	mul	x11, x6, x9
    7244: ba0b0063     	adcs	x3, x3, x11
    7248: 9b0a7ccb     	mul	x11, x6, x10
    724c: ba0b0084     	adcs	x4, x4, x11
    7250: 9bca7cc5     	umulh	x5, x6, x10
    7254: 9a1f00a5     	adc	x5, x5, xzr
    7258: 9bc77ccb     	umulh	x11, x6, x7
    725c: ab0b0210     	adds	x16, x16, x11
    7260: 9bc87ccb     	umulh	x11, x6, x8
    7264: ba0b0063     	adcs	x3, x3, x11
    7268: 9bc97ccb     	umulh	x11, x6, x9
    726c: ba0b0084     	adcs	x4, x4, x11
    7270: 9a1f00a5     	adc	x5, x5, xzr
    7274: d28004c7     	mov	x7, #0x26               // =38
    7278: 9b107ceb     	mul	x11, x7, x16
    727c: 9bd07ce9     	umulh	x9, x7, x16
    7280: ab0b018c     	adds	x12, x12, x11
    7284: 9b037ceb     	mul	x11, x7, x3
    7288: 9bc37ce3     	umulh	x3, x7, x3
    728c: ba0b01ad     	adcs	x13, x13, x11
    7290: 9b047ceb     	mul	x11, x7, x4
    7294: 9bc47ce4     	umulh	x4, x7, x4
    7298: ba0b01ce     	adcs	x14, x14, x11
    729c: 9b057ceb     	mul	x11, x7, x5
    72a0: 9bc57ce5     	umulh	x5, x7, x5
    72a4: ba0b01ef     	adcs	x15, x15, x11
    72a8: 9a9f37f0     	cset	x16, hs
    72ac: ab0401ef     	adds	x15, x15, x4
    72b0: 9a050210     	adc	x16, x16, x5
    72b4: ab0f01ff     	cmn	x15, x15
    72b8: 9240f9ef     	and	x15, x15, #0x7fffffffffffffff
    72bc: 9a100208     	adc	x8, x16, x16
    72c0: d2800267     	mov	x7, #0x13               // =19
    72c4: 9b087ceb     	mul	x11, x7, x8
    72c8: ab0b018c     	adds	x12, x12, x11
    72cc: ba0901ad     	adcs	x13, x13, x9
    72d0: ba0301ce     	adcs	x14, x14, x3
    72d4: 9a1f01ef     	adc	x15, x15, xzr
    72d8: a90036cc     	stp	x12, x13, [x22]
    72dc: a9013ece     	stp	x14, x15, [x22, #0x10]
    72e0: 910283ff     	add	sp, sp, #0xa0
    72e4: d65f03c0     	ret

00000000000072e8 <edwards25519_scalarmuldouble_alt_epadd>:
    72e8: d10303ff     	sub	sp, sp, #0xc0
    72ec: a94612e3     	ldp	x3, x4, [x23, #0x60]
    72f0: a9462307     	ldp	x7, x8, [x24, #0x60]
    72f4: 9b077c6c     	mul	x12, x3, x7
    72f8: 9bc77c6d     	umulh	x13, x3, x7
    72fc: 9b087c6b     	mul	x11, x3, x8
    7300: 9bc87c6e     	umulh	x14, x3, x8
    7304: ab0b01ad     	adds	x13, x13, x11
    7308: a9472b09     	ldp	x9, x10, [x24, #0x70]
    730c: 9b097c6b     	mul	x11, x3, x9
    7310: 9bc97c6f     	umulh	x15, x3, x9
    7314: ba0b01ce     	adcs	x14, x14, x11
    7318: 9b0a7c6b     	mul	x11, x3, x10
    731c: 9bca7c70     	umulh	x16, x3, x10
    7320: ba0b01ef     	adcs	x15, x15, x11
    7324: 9a1f0210     	adc	x16, x16, xzr
    7328: a9471ae5     	ldp	x5, x6, [x23, #0x70]
    732c: 9b077c8b     	mul	x11, x4, x7
    7330: ab0b01ad     	adds	x13, x13, x11
    7334: 9b087c8b     	mul	x11, x4, x8
    7338: ba0b01ce     	adcs	x14, x14, x11
    733c: 9b097c8b     	mul	x11, x4, x9
    7340: ba0b01ef     	adcs	x15, x15, x11
    7344: 9b0a7c8b     	mul	x11, x4, x10
    7348: ba0b0210     	adcs	x16, x16, x11
    734c: 9bca7c83     	umulh	x3, x4, x10
    7350: 9a1f0063     	adc	x3, x3, xzr
    7354: 9bc77c8b     	umulh	x11, x4, x7
    7358: ab0b01ce     	adds	x14, x14, x11
    735c: 9bc87c8b     	umulh	x11, x4, x8
    7360: ba0b01ef     	adcs	x15, x15, x11
    7364: 9bc97c8b     	umulh	x11, x4, x9
    7368: ba0b0210     	adcs	x16, x16, x11
    736c: 9a1f0063     	adc	x3, x3, xzr
    7370: 9b077cab     	mul	x11, x5, x7
    7374: ab0b01ce     	adds	x14, x14, x11
    7378: 9b087cab     	mul	x11, x5, x8
    737c: ba0b01ef     	adcs	x15, x15, x11
    7380: 9b097cab     	mul	x11, x5, x9
    7384: ba0b0210     	adcs	x16, x16, x11
    7388: 9b0a7cab     	mul	x11, x5, x10
    738c: ba0b0063     	adcs	x3, x3, x11
    7390: 9bca7ca4     	umulh	x4, x5, x10
    7394: 9a1f0084     	adc	x4, x4, xzr
    7398: 9bc77cab     	umulh	x11, x5, x7
    739c: ab0b01ef     	adds	x15, x15, x11
    73a0: 9bc87cab     	umulh	x11, x5, x8
    73a4: ba0b0210     	adcs	x16, x16, x11
    73a8: 9bc97cab     	umulh	x11, x5, x9
    73ac: ba0b0063     	adcs	x3, x3, x11
    73b0: 9a1f0084     	adc	x4, x4, xzr
    73b4: 9b077ccb     	mul	x11, x6, x7
    73b8: ab0b01ef     	adds	x15, x15, x11
    73bc: 9b087ccb     	mul	x11, x6, x8
    73c0: ba0b0210     	adcs	x16, x16, x11
    73c4: 9b097ccb     	mul	x11, x6, x9
    73c8: ba0b0063     	adcs	x3, x3, x11
    73cc: 9b0a7ccb     	mul	x11, x6, x10
    73d0: ba0b0084     	adcs	x4, x4, x11
    73d4: 9bca7cc5     	umulh	x5, x6, x10
    73d8: 9a1f00a5     	adc	x5, x5, xzr
    73dc: 9bc77ccb     	umulh	x11, x6, x7
    73e0: ab0b0210     	adds	x16, x16, x11
    73e4: 9bc87ccb     	umulh	x11, x6, x8
    73e8: ba0b0063     	adcs	x3, x3, x11
    73ec: 9bc97ccb     	umulh	x11, x6, x9
    73f0: ba0b0084     	adcs	x4, x4, x11
    73f4: 9a1f00a5     	adc	x5, x5, xzr
    73f8: d28004c7     	mov	x7, #0x26               // =38
    73fc: 9b107ceb     	mul	x11, x7, x16
    7400: 9bd07ce9     	umulh	x9, x7, x16
    7404: ab0b018c     	adds	x12, x12, x11
    7408: 9b037ceb     	mul	x11, x7, x3
    740c: 9bc37ce3     	umulh	x3, x7, x3
    7410: ba0b01ad     	adcs	x13, x13, x11
    7414: 9b047ceb     	mul	x11, x7, x4
    7418: 9bc47ce4     	umulh	x4, x7, x4
    741c: ba0b01ce     	adcs	x14, x14, x11
    7420: 9b057ceb     	mul	x11, x7, x5
    7424: 9bc57ce5     	umulh	x5, x7, x5
    7428: ba0b01ef     	adcs	x15, x15, x11
    742c: 9a9f37f0     	cset	x16, hs
    7430: ab0401ef     	adds	x15, x15, x4
    7434: 9a050210     	adc	x16, x16, x5
    7438: ab0f01ff     	cmn	x15, x15
    743c: 9240f9ef     	and	x15, x15, #0x7fffffffffffffff
    7440: 9a100208     	adc	x8, x16, x16
    7444: d2800267     	mov	x7, #0x13               // =19
    7448: 9b087ceb     	mul	x11, x7, x8
    744c: ab0b018c     	adds	x12, x12, x11
    7450: ba0901ad     	adcs	x13, x13, x9
    7454: ba0301ce     	adcs	x14, x14, x3
    7458: 9a1f01ef     	adc	x15, x15, xzr
    745c: a90037ec     	stp	x12, x13, [sp]
    7460: a9013fee     	stp	x14, x15, [sp, #0x10]
    7464: a9421ae5     	ldp	x5, x6, [x23, #0x20]
    7468: a9400ee4     	ldp	x4, x3, [x23]
    746c: eb0400a5     	subs	x5, x5, x4
    7470: fa0300c6     	sbcs	x6, x6, x3
    7474: a94322e7     	ldp	x7, x8, [x23, #0x30]
    7478: a9410ee4     	ldp	x4, x3, [x23, #0x10]
    747c: fa0400e7     	sbcs	x7, x7, x4
    7480: fa030108     	sbcs	x8, x8, x3
    7484: d28004c4     	mov	x4, #0x26               // =38
    7488: 9a9f3083     	csel	x3, x4, xzr, lo
    748c: eb0300a5     	subs	x5, x5, x3
    7490: fa1f00c6     	sbcs	x6, x6, xzr
    7494: fa1f00e7     	sbcs	x7, x7, xzr
    7498: da1f0108     	sbc	x8, x8, xzr
    749c: a9021be5     	stp	x5, x6, [sp, #0x20]
    74a0: a90323e7     	stp	x7, x8, [sp, #0x30]
    74a4: a9421b05     	ldp	x5, x6, [x24, #0x20]
    74a8: a9400f04     	ldp	x4, x3, [x24]
    74ac: eb0400a5     	subs	x5, x5, x4
    74b0: fa0300c6     	sbcs	x6, x6, x3
    74b4: a9432307     	ldp	x7, x8, [x24, #0x30]
    74b8: a9410f04     	ldp	x4, x3, [x24, #0x10]
    74bc: fa0400e7     	sbcs	x7, x7, x4
    74c0: fa030108     	sbcs	x8, x8, x3
    74c4: d28004c4     	mov	x4, #0x26               // =38
    74c8: 9a9f3083     	csel	x3, x4, xzr, lo
    74cc: eb0300a5     	subs	x5, x5, x3
    74d0: fa1f00c6     	sbcs	x6, x6, xzr
    74d4: fa1f00e7     	sbcs	x7, x7, xzr
    74d8: da1f0108     	sbc	x8, x8, xzr
    74dc: a9041be5     	stp	x5, x6, [sp, #0x40]
    74e0: a90523e7     	stp	x7, x8, [sp, #0x50]
    74e4: a94212e3     	ldp	x3, x4, [x23, #0x20]
    74e8: a94022e7     	ldp	x7, x8, [x23]
    74ec: ab070063     	adds	x3, x3, x7
    74f0: ba080084     	adcs	x4, x4, x8
    74f4: a9431ae5     	ldp	x5, x6, [x23, #0x30]
    74f8: a94122e7     	ldp	x7, x8, [x23, #0x10]
    74fc: ba0700a5     	adcs	x5, x5, x7
    7500: ba0800c6     	adcs	x6, x6, x8
    7504: d28004c9     	mov	x9, #0x26               // =38
    7508: 9a9f2129     	csel	x9, x9, xzr, hs
    750c: ab090063     	adds	x3, x3, x9
    7510: ba1f0084     	adcs	x4, x4, xzr
    7514: ba1f00a5     	adcs	x5, x5, xzr
    7518: 9a1f00c6     	adc	x6, x6, xzr
    751c: a90613e3     	stp	x3, x4, [sp, #0x60]
    7520: a9071be5     	stp	x5, x6, [sp, #0x70]
    7524: a9421303     	ldp	x3, x4, [x24, #0x20]
    7528: a9402307     	ldp	x7, x8, [x24]
    752c: ab070063     	adds	x3, x3, x7
    7530: ba080084     	adcs	x4, x4, x8
    7534: a9431b05     	ldp	x5, x6, [x24, #0x30]
    7538: a9412307     	ldp	x7, x8, [x24, #0x10]
    753c: ba0700a5     	adcs	x5, x5, x7
    7540: ba0800c6     	adcs	x6, x6, x8
    7544: d28004c9     	mov	x9, #0x26               // =38
    7548: 9a9f2129     	csel	x9, x9, xzr, hs
    754c: ab090063     	adds	x3, x3, x9
    7550: ba1f0084     	adcs	x4, x4, xzr
    7554: ba1f00a5     	adcs	x5, x5, xzr
    7558: 9a1f00c6     	adc	x6, x6, xzr
    755c: a90813e3     	stp	x3, x4, [sp, #0x80]
    7560: a9091be5     	stp	x5, x6, [sp, #0x90]
    7564: a9441303     	ldp	x3, x4, [x24, #0x40]
    7568: ab030063     	adds	x3, x3, x3
    756c: ba040084     	adcs	x4, x4, x4
    7570: a9451b05     	ldp	x5, x6, [x24, #0x50]
    7574: ba0500a5     	adcs	x5, x5, x5
    7578: ba0600c6     	adcs	x6, x6, x6
    757c: d28004c9     	mov	x9, #0x26               // =38
    7580: 9a9f2129     	csel	x9, x9, xzr, hs
    7584: ab090063     	adds	x3, x3, x9
    7588: ba1f0084     	adcs	x4, x4, xzr
    758c: ba1f00a5     	adcs	x5, x5, xzr
    7590: 9a1f00c6     	adc	x6, x6, xzr
    7594: a90a13e3     	stp	x3, x4, [sp, #0xa0]
    7598: a90b1be5     	stp	x5, x6, [sp, #0xb0]
    759c: a94213e3     	ldp	x3, x4, [sp, #0x20]
    75a0: a94423e7     	ldp	x7, x8, [sp, #0x40]
    75a4: 9b077c6c     	mul	x12, x3, x7
    75a8: 9bc77c6d     	umulh	x13, x3, x7
    75ac: 9b087c6b     	mul	x11, x3, x8
    75b0: 9bc87c6e     	umulh	x14, x3, x8
    75b4: ab0b01ad     	adds	x13, x13, x11
    75b8: a9452be9     	ldp	x9, x10, [sp, #0x50]
    75bc: 9b097c6b     	mul	x11, x3, x9
    75c0: 9bc97c6f     	umulh	x15, x3, x9
    75c4: ba0b01ce     	adcs	x14, x14, x11
    75c8: 9b0a7c6b     	mul	x11, x3, x10
    75cc: 9bca7c70     	umulh	x16, x3, x10
    75d0: ba0b01ef     	adcs	x15, x15, x11
    75d4: 9a1f0210     	adc	x16, x16, xzr
    75d8: a9431be5     	ldp	x5, x6, [sp, #0x30]
    75dc: 9b077c8b     	mul	x11, x4, x7
    75e0: ab0b01ad     	adds	x13, x13, x11
    75e4: 9b087c8b     	mul	x11, x4, x8
    75e8: ba0b01ce     	adcs	x14, x14, x11
    75ec: 9b097c8b     	mul	x11, x4, x9
    75f0: ba0b01ef     	adcs	x15, x15, x11
    75f4: 9b0a7c8b     	mul	x11, x4, x10
    75f8: ba0b0210     	adcs	x16, x16, x11
    75fc: 9bca7c83     	umulh	x3, x4, x10
    7600: 9a1f0063     	adc	x3, x3, xzr
    7604: 9bc77c8b     	umulh	x11, x4, x7
    7608: ab0b01ce     	adds	x14, x14, x11
    760c: 9bc87c8b     	umulh	x11, x4, x8
    7610: ba0b01ef     	adcs	x15, x15, x11
    7614: 9bc97c8b     	umulh	x11, x4, x9
    7618: ba0b0210     	adcs	x16, x16, x11
    761c: 9a1f0063     	adc	x3, x3, xzr
    7620: 9b077cab     	mul	x11, x5, x7
    7624: ab0b01ce     	adds	x14, x14, x11
    7628: 9b087cab     	mul	x11, x5, x8
    762c: ba0b01ef     	adcs	x15, x15, x11
    7630: 9b097cab     	mul	x11, x5, x9
    7634: ba0b0210     	adcs	x16, x16, x11
    7638: 9b0a7cab     	mul	x11, x5, x10
    763c: ba0b0063     	adcs	x3, x3, x11
    7640: 9bca7ca4     	umulh	x4, x5, x10
    7644: 9a1f0084     	adc	x4, x4, xzr
    7648: 9bc77cab     	umulh	x11, x5, x7
    764c: ab0b01ef     	adds	x15, x15, x11
    7650: 9bc87cab     	umulh	x11, x5, x8
    7654: ba0b0210     	adcs	x16, x16, x11
    7658: 9bc97cab     	umulh	x11, x5, x9
    765c: ba0b0063     	adcs	x3, x3, x11
    7660: 9a1f0084     	adc	x4, x4, xzr
    7664: 9b077ccb     	mul	x11, x6, x7
    7668: ab0b01ef     	adds	x15, x15, x11
    766c: 9b087ccb     	mul	x11, x6, x8
    7670: ba0b0210     	adcs	x16, x16, x11
    7674: 9b097ccb     	mul	x11, x6, x9
    7678: ba0b0063     	adcs	x3, x3, x11
    767c: 9b0a7ccb     	mul	x11, x6, x10
    7680: ba0b0084     	adcs	x4, x4, x11
    7684: 9bca7cc5     	umulh	x5, x6, x10
    7688: 9a1f00a5     	adc	x5, x5, xzr
    768c: 9bc77ccb     	umulh	x11, x6, x7
    7690: ab0b0210     	adds	x16, x16, x11
    7694: 9bc87ccb     	umulh	x11, x6, x8
    7698: ba0b0063     	adcs	x3, x3, x11
    769c: 9bc97ccb     	umulh	x11, x6, x9
    76a0: ba0b0084     	adcs	x4, x4, x11
    76a4: 9a1f00a5     	adc	x5, x5, xzr
    76a8: d28004c7     	mov	x7, #0x26               // =38
    76ac: 9b107ceb     	mul	x11, x7, x16
    76b0: 9bd07ce9     	umulh	x9, x7, x16
    76b4: ab0b018c     	adds	x12, x12, x11
    76b8: 9b037ceb     	mul	x11, x7, x3
    76bc: 9bc37ce3     	umulh	x3, x7, x3
    76c0: ba0b01ad     	adcs	x13, x13, x11
    76c4: 9b047ceb     	mul	x11, x7, x4
    76c8: 9bc47ce4     	umulh	x4, x7, x4
    76cc: ba0b01ce     	adcs	x14, x14, x11
    76d0: 9b057ceb     	mul	x11, x7, x5
    76d4: 9bc57ce5     	umulh	x5, x7, x5
    76d8: ba0b01ef     	adcs	x15, x15, x11
    76dc: 9a9f37f0     	cset	x16, hs
    76e0: ab0401ef     	adds	x15, x15, x4
    76e4: 9a050210     	adc	x16, x16, x5
    76e8: ab0f01ff     	cmn	x15, x15
    76ec: 9240f9ef     	and	x15, x15, #0x7fffffffffffffff
    76f0: 9a100208     	adc	x8, x16, x16
    76f4: d2800267     	mov	x7, #0x13               // =19
    76f8: 9b087ceb     	mul	x11, x7, x8
    76fc: ab0b018c     	adds	x12, x12, x11
    7700: ba0901ad     	adcs	x13, x13, x9
    7704: ba0301ce     	adcs	x14, x14, x3
    7708: 9a1f01ef     	adc	x15, x15, xzr
    770c: a90237ec     	stp	x12, x13, [sp, #0x20]
    7710: a9033fee     	stp	x14, x15, [sp, #0x30]
    7714: a94613e3     	ldp	x3, x4, [sp, #0x60]
    7718: a94823e7     	ldp	x7, x8, [sp, #0x80]
    771c: 9b077c6c     	mul	x12, x3, x7
    7720: 9bc77c6d     	umulh	x13, x3, x7
    7724: 9b087c6b     	mul	x11, x3, x8
    7728: 9bc87c6e     	umulh	x14, x3, x8
    772c: ab0b01ad     	adds	x13, x13, x11
    7730: a9492be9     	ldp	x9, x10, [sp, #0x90]
    7734: 9b097c6b     	mul	x11, x3, x9
    7738: 9bc97c6f     	umulh	x15, x3, x9
    773c: ba0b01ce     	adcs	x14, x14, x11
    7740: 9b0a7c6b     	mul	x11, x3, x10
    7744: 9bca7c70     	umulh	x16, x3, x10
    7748: ba0b01ef     	adcs	x15, x15, x11
    774c: 9a1f0210     	adc	x16, x16, xzr
    7750: a9471be5     	ldp	x5, x6, [sp, #0x70]
    7754: 9b077c8b     	mul	x11, x4, x7
    7758: ab0b01ad     	adds	x13, x13, x11
    775c: 9b087c8b     	mul	x11, x4, x8
    7760: ba0b01ce     	adcs	x14, x14, x11
    7764: 9b097c8b     	mul	x11, x4, x9
    7768: ba0b01ef     	adcs	x15, x15, x11
    776c: 9b0a7c8b     	mul	x11, x4, x10
    7770: ba0b0210     	adcs	x16, x16, x11
    7774: 9bca7c83     	umulh	x3, x4, x10
    7778: 9a1f0063     	adc	x3, x3, xzr
    777c: 9bc77c8b     	umulh	x11, x4, x7
    7780: ab0b01ce     	adds	x14, x14, x11
    7784: 9bc87c8b     	umulh	x11, x4, x8
    7788: ba0b01ef     	adcs	x15, x15, x11
    778c: 9bc97c8b     	umulh	x11, x4, x9
    7790: ba0b0210     	adcs	x16, x16, x11
    7794: 9a1f0063     	adc	x3, x3, xzr
    7798: 9b077cab     	mul	x11, x5, x7
    779c: ab0b01ce     	adds	x14, x14, x11
    77a0: 9b087cab     	mul	x11, x5, x8
    77a4: ba0b01ef     	adcs	x15, x15, x11
    77a8: 9b097cab     	mul	x11, x5, x9
    77ac: ba0b0210     	adcs	x16, x16, x11
    77b0: 9b0a7cab     	mul	x11, x5, x10
    77b4: ba0b0063     	adcs	x3, x3, x11
    77b8: 9bca7ca4     	umulh	x4, x5, x10
    77bc: 9a1f0084     	adc	x4, x4, xzr
    77c0: 9bc77cab     	umulh	x11, x5, x7
    77c4: ab0b01ef     	adds	x15, x15, x11
    77c8: 9bc87cab     	umulh	x11, x5, x8
    77cc: ba0b0210     	adcs	x16, x16, x11
    77d0: 9bc97cab     	umulh	x11, x5, x9
    77d4: ba0b0063     	adcs	x3, x3, x11
    77d8: 9a1f0084     	adc	x4, x4, xzr
    77dc: 9b077ccb     	mul	x11, x6, x7
    77e0: ab0b01ef     	adds	x15, x15, x11
    77e4: 9b087ccb     	mul	x11, x6, x8
    77e8: ba0b0210     	adcs	x16, x16, x11
    77ec: 9b097ccb     	mul	x11, x6, x9
    77f0: ba0b0063     	adcs	x3, x3, x11
    77f4: 9b0a7ccb     	mul	x11, x6, x10
    77f8: ba0b0084     	adcs	x4, x4, x11
    77fc: 9bca7cc5     	umulh	x5, x6, x10
    7800: 9a1f00a5     	adc	x5, x5, xzr
    7804: 9bc77ccb     	umulh	x11, x6, x7
    7808: ab0b0210     	adds	x16, x16, x11
    780c: 9bc87ccb     	umulh	x11, x6, x8
    7810: ba0b0063     	adcs	x3, x3, x11
    7814: 9bc97ccb     	umulh	x11, x6, x9
    7818: ba0b0084     	adcs	x4, x4, x11
    781c: 9a1f00a5     	adc	x5, x5, xzr
    7820: d28004c7     	mov	x7, #0x26               // =38
    7824: 9b107ceb     	mul	x11, x7, x16
    7828: 9bd07ce9     	umulh	x9, x7, x16
    782c: ab0b018c     	adds	x12, x12, x11
    7830: 9b037ceb     	mul	x11, x7, x3
    7834: 9bc37ce3     	umulh	x3, x7, x3
    7838: ba0b01ad     	adcs	x13, x13, x11
    783c: 9b047ceb     	mul	x11, x7, x4
    7840: 9bc47ce4     	umulh	x4, x7, x4
    7844: ba0b01ce     	adcs	x14, x14, x11
    7848: 9b057ceb     	mul	x11, x7, x5
    784c: 9bc57ce5     	umulh	x5, x7, x5
    7850: ba0b01ef     	adcs	x15, x15, x11
    7854: 9a9f37f0     	cset	x16, hs
    7858: ab0401ef     	adds	x15, x15, x4
    785c: 9a050210     	adc	x16, x16, x5
    7860: ab0f01ff     	cmn	x15, x15
    7864: 9240f9ef     	and	x15, x15, #0x7fffffffffffffff
    7868: 9a100208     	adc	x8, x16, x16
    786c: d2800267     	mov	x7, #0x13               // =19
    7870: 9b087ceb     	mul	x11, x7, x8
    7874: ab0b018c     	adds	x12, x12, x11
    7878: ba0901ad     	adcs	x13, x13, x9
    787c: ba0301ce     	adcs	x14, x14, x3
    7880: 9a1f01ef     	adc	x15, x15, xzr
    7884: a90637ec     	stp	x12, x13, [sp, #0x60]
    7888: a9073fee     	stp	x14, x15, [sp, #0x70]
    788c: d29e2b20     	mov	x0, #0xf159             // =61785
    7890: d2962ac1     	mov	x1, #0xb156             // =45398
    7894: d29a2602     	mov	x2, #0xd130             // =53552
    7898: d29f9ce3     	mov	x3, #0xfce7             // =64743
    789c: f2a4d640     	movk	x0, #0x26b2, lsl #16
    78a0: f2b05061     	movk	x1, #0x8283, lsl #16
    78a4: f2bdde62     	movk	x2, #0xeef3, lsl #16
    78a8: f2aadbe3     	movk	x3, #0x56df, lsl #16
    78ac: f2d37280     	movk	x0, #0x9b94, lsl #32
    78b0: f2c29341     	movk	x1, #0x149a, lsl #32
    78b4: f2d01e42     	movk	x2, #0x80f2, lsl #32
    78b8: f2db3b83     	movk	x3, #0xd9dc, lsl #32
    78bc: f2fd7ac0     	movk	x0, #0xebd6, lsl #48
    78c0: f2e01c01     	movk	x1, #0xe0, lsl #48
    78c4: f2e331c2     	movk	x2, #0x198e, lsl #48
    78c8: f2e480c3     	movk	x3, #0x2406, lsl #48
    78cc: a90407e0     	stp	x0, x1, [sp, #0x40]
    78d0: a9050fe2     	stp	x2, x3, [sp, #0x50]
    78d4: a94413e3     	ldp	x3, x4, [sp, #0x40]
    78d8: a94023e7     	ldp	x7, x8, [sp]
    78dc: 9b077c6c     	mul	x12, x3, x7
    78e0: 9bc77c6d     	umulh	x13, x3, x7
    78e4: 9b087c6b     	mul	x11, x3, x8
    78e8: 9bc87c6e     	umulh	x14, x3, x8
    78ec: ab0b01ad     	adds	x13, x13, x11
    78f0: a9412be9     	ldp	x9, x10, [sp, #0x10]
    78f4: 9b097c6b     	mul	x11, x3, x9
    78f8: 9bc97c6f     	umulh	x15, x3, x9
    78fc: ba0b01ce     	adcs	x14, x14, x11
    7900: 9b0a7c6b     	mul	x11, x3, x10
    7904: 9bca7c70     	umulh	x16, x3, x10
    7908: ba0b01ef     	adcs	x15, x15, x11
    790c: 9a1f0210     	adc	x16, x16, xzr
    7910: a9451be5     	ldp	x5, x6, [sp, #0x50]
    7914: 9b077c8b     	mul	x11, x4, x7
    7918: ab0b01ad     	adds	x13, x13, x11
    791c: 9b087c8b     	mul	x11, x4, x8
    7920: ba0b01ce     	adcs	x14, x14, x11
    7924: 9b097c8b     	mul	x11, x4, x9
    7928: ba0b01ef     	adcs	x15, x15, x11
    792c: 9b0a7c8b     	mul	x11, x4, x10
    7930: ba0b0210     	adcs	x16, x16, x11
    7934: 9bca7c83     	umulh	x3, x4, x10
    7938: 9a1f0063     	adc	x3, x3, xzr
    793c: 9bc77c8b     	umulh	x11, x4, x7
    7940: ab0b01ce     	adds	x14, x14, x11
    7944: 9bc87c8b     	umulh	x11, x4, x8
    7948: ba0b01ef     	adcs	x15, x15, x11
    794c: 9bc97c8b     	umulh	x11, x4, x9
    7950: ba0b0210     	adcs	x16, x16, x11
    7954: 9a1f0063     	adc	x3, x3, xzr
    7958: 9b077cab     	mul	x11, x5, x7
    795c: ab0b01ce     	adds	x14, x14, x11
    7960: 9b087cab     	mul	x11, x5, x8
    7964: ba0b01ef     	adcs	x15, x15, x11
    7968: 9b097cab     	mul	x11, x5, x9
    796c: ba0b0210     	adcs	x16, x16, x11
    7970: 9b0a7cab     	mul	x11, x5, x10
    7974: ba0b0063     	adcs	x3, x3, x11
    7978: 9bca7ca4     	umulh	x4, x5, x10
    797c: 9a1f0084     	adc	x4, x4, xzr
    7980: 9bc77cab     	umulh	x11, x5, x7
    7984: ab0b01ef     	adds	x15, x15, x11
    7988: 9bc87cab     	umulh	x11, x5, x8
    798c: ba0b0210     	adcs	x16, x16, x11
    7990: 9bc97cab     	umulh	x11, x5, x9
    7994: ba0b0063     	adcs	x3, x3, x11
    7998: 9a1f0084     	adc	x4, x4, xzr
    799c: 9b077ccb     	mul	x11, x6, x7
    79a0: ab0b01ef     	adds	x15, x15, x11
    79a4: 9b087ccb     	mul	x11, x6, x8
    79a8: ba0b0210     	adcs	x16, x16, x11
    79ac: 9b097ccb     	mul	x11, x6, x9
    79b0: ba0b0063     	adcs	x3, x3, x11
    79b4: 9b0a7ccb     	mul	x11, x6, x10
    79b8: ba0b0084     	adcs	x4, x4, x11
    79bc: 9bca7cc5     	umulh	x5, x6, x10
    79c0: 9a1f00a5     	adc	x5, x5, xzr
    79c4: 9bc77ccb     	umulh	x11, x6, x7
    79c8: ab0b0210     	adds	x16, x16, x11
    79cc: 9bc87ccb     	umulh	x11, x6, x8
    79d0: ba0b0063     	adcs	x3, x3, x11
    79d4: 9bc97ccb     	umulh	x11, x6, x9
    79d8: ba0b0084     	adcs	x4, x4, x11
    79dc: 9a1f00a5     	adc	x5, x5, xzr
    79e0: d28004c7     	mov	x7, #0x26               // =38
    79e4: 9b107ceb     	mul	x11, x7, x16
    79e8: 9bd07ce9     	umulh	x9, x7, x16
    79ec: ab0b018c     	adds	x12, x12, x11
    79f0: 9b037ceb     	mul	x11, x7, x3
    79f4: 9bc37ce3     	umulh	x3, x7, x3
    79f8: ba0b01ad     	adcs	x13, x13, x11
    79fc: 9b047ceb     	mul	x11, x7, x4
    7a00: 9bc47ce4     	umulh	x4, x7, x4
    7a04: ba0b01ce     	adcs	x14, x14, x11
    7a08: 9b057ceb     	mul	x11, x7, x5
    7a0c: 9bc57ce5     	umulh	x5, x7, x5
    7a10: ba0b01ef     	adcs	x15, x15, x11
    7a14: 9a9f37f0     	cset	x16, hs
    7a18: ab0401ef     	adds	x15, x15, x4
    7a1c: 9a050210     	adc	x16, x16, x5
    7a20: ab0f01ff     	cmn	x15, x15
    7a24: 9240f9ef     	and	x15, x15, #0x7fffffffffffffff
    7a28: 9a100208     	adc	x8, x16, x16
    7a2c: d2800267     	mov	x7, #0x13               // =19
    7a30: 9b087ceb     	mul	x11, x7, x8
    7a34: ab0b018c     	adds	x12, x12, x11
    7a38: ba0901ad     	adcs	x13, x13, x9
    7a3c: ba0301ce     	adcs	x14, x14, x3
    7a40: 9a1f01ef     	adc	x15, x15, xzr
    7a44: a90437ec     	stp	x12, x13, [sp, #0x40]
    7a48: a9053fee     	stp	x14, x15, [sp, #0x50]
    7a4c: a94412e3     	ldp	x3, x4, [x23, #0x40]
    7a50: a94a23e7     	ldp	x7, x8, [sp, #0xa0]
    7a54: 9b077c6c     	mul	x12, x3, x7
    7a58: 9bc77c6d     	umulh	x13, x3, x7
    7a5c: 9b087c6b     	mul	x11, x3, x8
    7a60: 9bc87c6e     	umulh	x14, x3, x8
    7a64: ab0b01ad     	adds	x13, x13, x11
    7a68: a94b2be9     	ldp	x9, x10, [sp, #0xb0]
    7a6c: 9b097c6b     	mul	x11, x3, x9
    7a70: 9bc97c6f     	umulh	x15, x3, x9
    7a74: ba0b01ce     	adcs	x14, x14, x11
    7a78: 9b0a7c6b     	mul	x11, x3, x10
    7a7c: 9bca7c70     	umulh	x16, x3, x10
    7a80: ba0b01ef     	adcs	x15, x15, x11
    7a84: 9a1f0210     	adc	x16, x16, xzr
    7a88: a9451ae5     	ldp	x5, x6, [x23, #0x50]
    7a8c: 9b077c8b     	mul	x11, x4, x7
    7a90: ab0b01ad     	adds	x13, x13, x11
    7a94: 9b087c8b     	mul	x11, x4, x8
    7a98: ba0b01ce     	adcs	x14, x14, x11
    7a9c: 9b097c8b     	mul	x11, x4, x9
    7aa0: ba0b01ef     	adcs	x15, x15, x11
    7aa4: 9b0a7c8b     	mul	x11, x4, x10
    7aa8: ba0b0210     	adcs	x16, x16, x11
    7aac: 9bca7c83     	umulh	x3, x4, x10
    7ab0: 9a1f0063     	adc	x3, x3, xzr
    7ab4: 9bc77c8b     	umulh	x11, x4, x7
    7ab8: ab0b01ce     	adds	x14, x14, x11
    7abc: 9bc87c8b     	umulh	x11, x4, x8
    7ac0: ba0b01ef     	adcs	x15, x15, x11
    7ac4: 9bc97c8b     	umulh	x11, x4, x9
    7ac8: ba0b0210     	adcs	x16, x16, x11
    7acc: 9a1f0063     	adc	x3, x3, xzr
    7ad0: 9b077cab     	mul	x11, x5, x7
    7ad4: ab0b01ce     	adds	x14, x14, x11
    7ad8: 9b087cab     	mul	x11, x5, x8
    7adc: ba0b01ef     	adcs	x15, x15, x11
    7ae0: 9b097cab     	mul	x11, x5, x9
    7ae4: ba0b0210     	adcs	x16, x16, x11
    7ae8: 9b0a7cab     	mul	x11, x5, x10
    7aec: ba0b0063     	adcs	x3, x3, x11
    7af0: 9bca7ca4     	umulh	x4, x5, x10
    7af4: 9a1f0084     	adc	x4, x4, xzr
    7af8: 9bc77cab     	umulh	x11, x5, x7
    7afc: ab0b01ef     	adds	x15, x15, x11
    7b00: 9bc87cab     	umulh	x11, x5, x8
    7b04: ba0b0210     	adcs	x16, x16, x11
    7b08: 9bc97cab     	umulh	x11, x5, x9
    7b0c: ba0b0063     	adcs	x3, x3, x11
    7b10: 9a1f0084     	adc	x4, x4, xzr
    7b14: 9b077ccb     	mul	x11, x6, x7
    7b18: ab0b01ef     	adds	x15, x15, x11
    7b1c: 9b087ccb     	mul	x11, x6, x8
    7b20: ba0b0210     	adcs	x16, x16, x11
    7b24: 9b097ccb     	mul	x11, x6, x9
    7b28: ba0b0063     	adcs	x3, x3, x11
    7b2c: 9b0a7ccb     	mul	x11, x6, x10
    7b30: ba0b0084     	adcs	x4, x4, x11
    7b34: 9bca7cc5     	umulh	x5, x6, x10
    7b38: 9a1f00a5     	adc	x5, x5, xzr
    7b3c: 9bc77ccb     	umulh	x11, x6, x7
    7b40: ab0b0210     	adds	x16, x16, x11
    7b44: 9bc87ccb     	umulh	x11, x6, x8
    7b48: ba0b0063     	adcs	x3, x3, x11
    7b4c: 9bc97ccb     	umulh	x11, x6, x9
    7b50: ba0b0084     	adcs	x4, x4, x11
    7b54: 9a1f00a5     	adc	x5, x5, xzr
    7b58: d28004c7     	mov	x7, #0x26               // =38
    7b5c: 9b107ceb     	mul	x11, x7, x16
    7b60: 9bd07ce9     	umulh	x9, x7, x16
    7b64: ab0b018c     	adds	x12, x12, x11
    7b68: 9b037ceb     	mul	x11, x7, x3
    7b6c: 9bc37ce3     	umulh	x3, x7, x3
    7b70: ba0b01ad     	adcs	x13, x13, x11
    7b74: 9b047ceb     	mul	x11, x7, x4
    7b78: 9bc47ce4     	umulh	x4, x7, x4
    7b7c: ba0b01ce     	adcs	x14, x14, x11
    7b80: 9b057ceb     	mul	x11, x7, x5
    7b84: 9bc57ce5     	umulh	x5, x7, x5
    7b88: ba0b01ef     	adcs	x15, x15, x11
    7b8c: 9a9f37f0     	cset	x16, hs
    7b90: ab0401ef     	adds	x15, x15, x4
    7b94: 9a050210     	adc	x16, x16, x5
    7b98: ab0f01ff     	cmn	x15, x15
    7b9c: 9240f9ef     	and	x15, x15, #0x7fffffffffffffff
    7ba0: 9a100208     	adc	x8, x16, x16
    7ba4: d2800267     	mov	x7, #0x13               // =19
    7ba8: 9b087ceb     	mul	x11, x7, x8
    7bac: ab0b018c     	adds	x12, x12, x11
    7bb0: ba0901ad     	adcs	x13, x13, x9
    7bb4: ba0301ce     	adcs	x14, x14, x3
    7bb8: 9a1f01ef     	adc	x15, x15, xzr
    7bbc: a90837ec     	stp	x12, x13, [sp, #0x80]
    7bc0: a9093fee     	stp	x14, x15, [sp, #0x90]
    7bc4: a9461be5     	ldp	x5, x6, [sp, #0x60]
    7bc8: a9420fe4     	ldp	x4, x3, [sp, #0x20]
    7bcc: eb0400a5     	subs	x5, x5, x4
    7bd0: fa0300c6     	sbcs	x6, x6, x3
    7bd4: a94723e7     	ldp	x7, x8, [sp, #0x70]
    7bd8: a9430fe4     	ldp	x4, x3, [sp, #0x30]
    7bdc: fa0400e7     	sbcs	x7, x7, x4
    7be0: fa030108     	sbcs	x8, x8, x3
    7be4: d28004c4     	mov	x4, #0x26               // =38
    7be8: 9a9f3083     	csel	x3, x4, xzr, lo
    7bec: eb0300a5     	subs	x5, x5, x3
    7bf0: fa1f00c6     	sbcs	x6, x6, xzr
    7bf4: fa1f00e7     	sbcs	x7, x7, xzr
    7bf8: da1f0108     	sbc	x8, x8, xzr
    7bfc: a9001be5     	stp	x5, x6, [sp]
    7c00: a90123e7     	stp	x7, x8, [sp, #0x10]
    7c04: a94613e3     	ldp	x3, x4, [sp, #0x60]
    7c08: a94223e7     	ldp	x7, x8, [sp, #0x20]
    7c0c: ab070063     	adds	x3, x3, x7
    7c10: ba080084     	adcs	x4, x4, x8
    7c14: a9471be5     	ldp	x5, x6, [sp, #0x70]
    7c18: a94323e7     	ldp	x7, x8, [sp, #0x30]
    7c1c: ba0700a5     	adcs	x5, x5, x7
    7c20: ba0800c6     	adcs	x6, x6, x8
    7c24: d28004c9     	mov	x9, #0x26               // =38
    7c28: 9a9f2129     	csel	x9, x9, xzr, hs
    7c2c: ab090063     	adds	x3, x3, x9
    7c30: ba1f0084     	adcs	x4, x4, xzr
    7c34: ba1f00a5     	adcs	x5, x5, xzr
    7c38: 9a1f00c6     	adc	x6, x6, xzr
    7c3c: a90a13e3     	stp	x3, x4, [sp, #0xa0]
    7c40: a90b1be5     	stp	x5, x6, [sp, #0xb0]
    7c44: a9481be5     	ldp	x5, x6, [sp, #0x80]
    7c48: a9440fe4     	ldp	x4, x3, [sp, #0x40]
    7c4c: eb0400a5     	subs	x5, x5, x4
    7c50: fa0300c6     	sbcs	x6, x6, x3
    7c54: a94923e7     	ldp	x7, x8, [sp, #0x90]
    7c58: a9450fe4     	ldp	x4, x3, [sp, #0x50]
    7c5c: fa0400e7     	sbcs	x7, x7, x4
    7c60: fa030108     	sbcs	x8, x8, x3
    7c64: d28004c4     	mov	x4, #0x26               // =38
    7c68: 9a9f3083     	csel	x3, x4, xzr, lo
    7c6c: eb0300a5     	subs	x5, x5, x3
    7c70: fa1f00c6     	sbcs	x6, x6, xzr
    7c74: fa1f00e7     	sbcs	x7, x7, xzr
    7c78: da1f0108     	sbc	x8, x8, xzr
    7c7c: a9021be5     	stp	x5, x6, [sp, #0x20]
    7c80: a90323e7     	stp	x7, x8, [sp, #0x30]
    7c84: a94813e3     	ldp	x3, x4, [sp, #0x80]
    7c88: a94423e7     	ldp	x7, x8, [sp, #0x40]
    7c8c: ab070063     	adds	x3, x3, x7
    7c90: ba080084     	adcs	x4, x4, x8
    7c94: a9491be5     	ldp	x5, x6, [sp, #0x90]
    7c98: a94523e7     	ldp	x7, x8, [sp, #0x50]
    7c9c: ba0700a5     	adcs	x5, x5, x7
    7ca0: ba0800c6     	adcs	x6, x6, x8
    7ca4: d28004c9     	mov	x9, #0x26               // =38
    7ca8: 9a9f2129     	csel	x9, x9, xzr, hs
    7cac: ab090063     	adds	x3, x3, x9
    7cb0: ba1f0084     	adcs	x4, x4, xzr
    7cb4: ba1f00a5     	adcs	x5, x5, xzr
    7cb8: 9a1f00c6     	adc	x6, x6, xzr
    7cbc: a90613e3     	stp	x3, x4, [sp, #0x60]
    7cc0: a9071be5     	stp	x5, x6, [sp, #0x70]
    7cc4: a94013e3     	ldp	x3, x4, [sp]
    7cc8: a94a23e7     	ldp	x7, x8, [sp, #0xa0]
    7ccc: 9b077c6c     	mul	x12, x3, x7
    7cd0: 9bc77c6d     	umulh	x13, x3, x7
    7cd4: 9b087c6b     	mul	x11, x3, x8
    7cd8: 9bc87c6e     	umulh	x14, x3, x8
    7cdc: ab0b01ad     	adds	x13, x13, x11
    7ce0: a94b2be9     	ldp	x9, x10, [sp, #0xb0]
    7ce4: 9b097c6b     	mul	x11, x3, x9
    7ce8: 9bc97c6f     	umulh	x15, x3, x9
    7cec: ba0b01ce     	adcs	x14, x14, x11
    7cf0: 9b0a7c6b     	mul	x11, x3, x10
    7cf4: 9bca7c70     	umulh	x16, x3, x10
    7cf8: ba0b01ef     	adcs	x15, x15, x11
    7cfc: 9a1f0210     	adc	x16, x16, xzr
    7d00: a9411be5     	ldp	x5, x6, [sp, #0x10]
    7d04: 9b077c8b     	mul	x11, x4, x7
    7d08: ab0b01ad     	adds	x13, x13, x11
    7d0c: 9b087c8b     	mul	x11, x4, x8
    7d10: ba0b01ce     	adcs	x14, x14, x11
    7d14: 9b097c8b     	mul	x11, x4, x9
    7d18: ba0b01ef     	adcs	x15, x15, x11
    7d1c: 9b0a7c8b     	mul	x11, x4, x10
    7d20: ba0b0210     	adcs	x16, x16, x11
    7d24: 9bca7c83     	umulh	x3, x4, x10
    7d28: 9a1f0063     	adc	x3, x3, xzr
    7d2c: 9bc77c8b     	umulh	x11, x4, x7
    7d30: ab0b01ce     	adds	x14, x14, x11
    7d34: 9bc87c8b     	umulh	x11, x4, x8
    7d38: ba0b01ef     	adcs	x15, x15, x11
    7d3c: 9bc97c8b     	umulh	x11, x4, x9
    7d40: ba0b0210     	adcs	x16, x16, x11
    7d44: 9a1f0063     	adc	x3, x3, xzr
    7d48: 9b077cab     	mul	x11, x5, x7
    7d4c: ab0b01ce     	adds	x14, x14, x11
    7d50: 9b087cab     	mul	x11, x5, x8
    7d54: ba0b01ef     	adcs	x15, x15, x11
    7d58: 9b097cab     	mul	x11, x5, x9
    7d5c: ba0b0210     	adcs	x16, x16, x11
    7d60: 9b0a7cab     	mul	x11, x5, x10
    7d64: ba0b0063     	adcs	x3, x3, x11
    7d68: 9bca7ca4     	umulh	x4, x5, x10
    7d6c: 9a1f0084     	adc	x4, x4, xzr
    7d70: 9bc77cab     	umulh	x11, x5, x7
    7d74: ab0b01ef     	adds	x15, x15, x11
    7d78: 9bc87cab     	umulh	x11, x5, x8
    7d7c: ba0b0210     	adcs	x16, x16, x11
    7d80: 9bc97cab     	umulh	x11, x5, x9
    7d84: ba0b0063     	adcs	x3, x3, x11
    7d88: 9a1f0084     	adc	x4, x4, xzr
    7d8c: 9b077ccb     	mul	x11, x6, x7
    7d90: ab0b01ef     	adds	x15, x15, x11
    7d94: 9b087ccb     	mul	x11, x6, x8
    7d98: ba0b0210     	adcs	x16, x16, x11
    7d9c: 9b097ccb     	mul	x11, x6, x9
    7da0: ba0b0063     	adcs	x3, x3, x11
    7da4: 9b0a7ccb     	mul	x11, x6, x10
    7da8: ba0b0084     	adcs	x4, x4, x11
    7dac: 9bca7cc5     	umulh	x5, x6, x10
    7db0: 9a1f00a5     	adc	x5, x5, xzr
    7db4: 9bc77ccb     	umulh	x11, x6, x7
    7db8: ab0b0210     	adds	x16, x16, x11
    7dbc: 9bc87ccb     	umulh	x11, x6, x8
    7dc0: ba0b0063     	adcs	x3, x3, x11
    7dc4: 9bc97ccb     	umulh	x11, x6, x9
    7dc8: ba0b0084     	adcs	x4, x4, x11
    7dcc: 9a1f00a5     	adc	x5, x5, xzr
    7dd0: d28004c7     	mov	x7, #0x26               // =38
    7dd4: 9b107ceb     	mul	x11, x7, x16
    7dd8: 9bd07ce9     	umulh	x9, x7, x16
    7ddc: ab0b018c     	adds	x12, x12, x11
    7de0: 9b037ceb     	mul	x11, x7, x3
    7de4: 9bc37ce3     	umulh	x3, x7, x3
    7de8: ba0b01ad     	adcs	x13, x13, x11
    7dec: 9b047ceb     	mul	x11, x7, x4
    7df0: 9bc47ce4     	umulh	x4, x7, x4
    7df4: ba0b01ce     	adcs	x14, x14, x11
    7df8: 9b057ceb     	mul	x11, x7, x5
    7dfc: 9bc57ce5     	umulh	x5, x7, x5
    7e00: ba0b01ef     	adcs	x15, x15, x11
    7e04: 9a9f37f0     	cset	x16, hs
    7e08: ab0401ef     	adds	x15, x15, x4
    7e0c: 9a050210     	adc	x16, x16, x5
    7e10: ab0f01ff     	cmn	x15, x15
    7e14: 9240f9ef     	and	x15, x15, #0x7fffffffffffffff
    7e18: 9a100208     	adc	x8, x16, x16
    7e1c: d2800267     	mov	x7, #0x13               // =19
    7e20: 9b087ceb     	mul	x11, x7, x8
    7e24: ab0b018c     	adds	x12, x12, x11
    7e28: ba0901ad     	adcs	x13, x13, x9
    7e2c: ba0301ce     	adcs	x14, x14, x3
    7e30: 9a1f01ef     	adc	x15, x15, xzr
    7e34: a90636cc     	stp	x12, x13, [x22, #0x60]
    7e38: a9073ece     	stp	x14, x15, [x22, #0x70]
    7e3c: a94013e3     	ldp	x3, x4, [sp]
    7e40: a94223e7     	ldp	x7, x8, [sp, #0x20]
    7e44: 9b077c6c     	mul	x12, x3, x7
    7e48: 9bc77c6d     	umulh	x13, x3, x7
    7e4c: 9b087c6b     	mul	x11, x3, x8
    7e50: 9bc87c6e     	umulh	x14, x3, x8
    7e54: ab0b01ad     	adds	x13, x13, x11
    7e58: a9432be9     	ldp	x9, x10, [sp, #0x30]
    7e5c: 9b097c6b     	mul	x11, x3, x9
    7e60: 9bc97c6f     	umulh	x15, x3, x9
    7e64: ba0b01ce     	adcs	x14, x14, x11
    7e68: 9b0a7c6b     	mul	x11, x3, x10
    7e6c: 9bca7c70     	umulh	x16, x3, x10
    7e70: ba0b01ef     	adcs	x15, x15, x11
    7e74: 9a1f0210     	adc	x16, x16, xzr
    7e78: a9411be5     	ldp	x5, x6, [sp, #0x10]
    7e7c: 9b077c8b     	mul	x11, x4, x7
    7e80: ab0b01ad     	adds	x13, x13, x11
    7e84: 9b087c8b     	mul	x11, x4, x8
    7e88: ba0b01ce     	adcs	x14, x14, x11
    7e8c: 9b097c8b     	mul	x11, x4, x9
    7e90: ba0b01ef     	adcs	x15, x15, x11
    7e94: 9b0a7c8b     	mul	x11, x4, x10
    7e98: ba0b0210     	adcs	x16, x16, x11
    7e9c: 9bca7c83     	umulh	x3, x4, x10
    7ea0: 9a1f0063     	adc	x3, x3, xzr
    7ea4: 9bc77c8b     	umulh	x11, x4, x7
    7ea8: ab0b01ce     	adds	x14, x14, x11
    7eac: 9bc87c8b     	umulh	x11, x4, x8
    7eb0: ba0b01ef     	adcs	x15, x15, x11
    7eb4: 9bc97c8b     	umulh	x11, x4, x9
    7eb8: ba0b0210     	adcs	x16, x16, x11
    7ebc: 9a1f0063     	adc	x3, x3, xzr
    7ec0: 9b077cab     	mul	x11, x5, x7
    7ec4: ab0b01ce     	adds	x14, x14, x11
    7ec8: 9b087cab     	mul	x11, x5, x8
    7ecc: ba0b01ef     	adcs	x15, x15, x11
    7ed0: 9b097cab     	mul	x11, x5, x9
    7ed4: ba0b0210     	adcs	x16, x16, x11
    7ed8: 9b0a7cab     	mul	x11, x5, x10
    7edc: ba0b0063     	adcs	x3, x3, x11
    7ee0: 9bca7ca4     	umulh	x4, x5, x10
    7ee4: 9a1f0084     	adc	x4, x4, xzr
    7ee8: 9bc77cab     	umulh	x11, x5, x7
    7eec: ab0b01ef     	adds	x15, x15, x11
    7ef0: 9bc87cab     	umulh	x11, x5, x8
    7ef4: ba0b0210     	adcs	x16, x16, x11
    7ef8: 9bc97cab     	umulh	x11, x5, x9
    7efc: ba0b0063     	adcs	x3, x3, x11
    7f00: 9a1f0084     	adc	x4, x4, xzr
    7f04: 9b077ccb     	mul	x11, x6, x7
    7f08: ab0b01ef     	adds	x15, x15, x11
    7f0c: 9b087ccb     	mul	x11, x6, x8
    7f10: ba0b0210     	adcs	x16, x16, x11
    7f14: 9b097ccb     	mul	x11, x6, x9
    7f18: ba0b0063     	adcs	x3, x3, x11
    7f1c: 9b0a7ccb     	mul	x11, x6, x10
    7f20: ba0b0084     	adcs	x4, x4, x11
    7f24: 9bca7cc5     	umulh	x5, x6, x10
    7f28: 9a1f00a5     	adc	x5, x5, xzr
    7f2c: 9bc77ccb     	umulh	x11, x6, x7
    7f30: ab0b0210     	adds	x16, x16, x11
    7f34: 9bc87ccb     	umulh	x11, x6, x8
    7f38: ba0b0063     	adcs	x3, x3, x11
    7f3c: 9bc97ccb     	umulh	x11, x6, x9
    7f40: ba0b0084     	adcs	x4, x4, x11
    7f44: 9a1f00a5     	adc	x5, x5, xzr
    7f48: d28004c7     	mov	x7, #0x26               // =38
    7f4c: 9b107ceb     	mul	x11, x7, x16
    7f50: 9bd07ce9     	umulh	x9, x7, x16
    7f54: ab0b018c     	adds	x12, x12, x11
    7f58: 9b037ceb     	mul	x11, x7, x3
    7f5c: 9bc37ce3     	umulh	x3, x7, x3
    7f60: ba0b01ad     	adcs	x13, x13, x11
    7f64: 9b047ceb     	mul	x11, x7, x4
    7f68: 9bc47ce4     	umulh	x4, x7, x4
    7f6c: ba0b01ce     	adcs	x14, x14, x11
    7f70: 9b057ceb     	mul	x11, x7, x5
    7f74: 9bc57ce5     	umulh	x5, x7, x5
    7f78: ba0b01ef     	adcs	x15, x15, x11
    7f7c: 9a9f37f0     	cset	x16, hs
    7f80: ab0401ef     	adds	x15, x15, x4
    7f84: 9a050210     	adc	x16, x16, x5
    7f88: ab0f01ff     	cmn	x15, x15
    7f8c: 9240f9ef     	and	x15, x15, #0x7fffffffffffffff
    7f90: 9a100208     	adc	x8, x16, x16
    7f94: d2800267     	mov	x7, #0x13               // =19
    7f98: 9b087ceb     	mul	x11, x7, x8
    7f9c: ab0b018c     	adds	x12, x12, x11
    7fa0: ba0901ad     	adcs	x13, x13, x9
    7fa4: ba0301ce     	adcs	x14, x14, x3
    7fa8: 9a1f01ef     	adc	x15, x15, xzr
    7fac: a90036cc     	stp	x12, x13, [x22]
    7fb0: a9013ece     	stp	x14, x15, [x22, #0x10]
    7fb4: a94613e3     	ldp	x3, x4, [sp, #0x60]
    7fb8: a94a23e7     	ldp	x7, x8, [sp, #0xa0]
    7fbc: 9b077c6c     	mul	x12, x3, x7
    7fc0: 9bc77c6d     	umulh	x13, x3, x7
    7fc4: 9b087c6b     	mul	x11, x3, x8
    7fc8: 9bc87c6e     	umulh	x14, x3, x8
    7fcc: ab0b01ad     	adds	x13, x13, x11
    7fd0: a94b2be9     	ldp	x9, x10, [sp, #0xb0]
    7fd4: 9b097c6b     	mul	x11, x3, x9
    7fd8: 9bc97c6f     	umulh	x15, x3, x9
    7fdc: ba0b01ce     	adcs	x14, x14, x11
    7fe0: 9b0a7c6b     	mul	x11, x3, x10
    7fe4: 9bca7c70     	umulh	x16, x3, x10
    7fe8: ba0b01ef     	adcs	x15, x15, x11
    7fec: 9a1f0210     	adc	x16, x16, xzr
    7ff0: a9471be5     	ldp	x5, x6, [sp, #0x70]
    7ff4: 9b077c8b     	mul	x11, x4, x7
    7ff8: ab0b01ad     	adds	x13, x13, x11
    7ffc: 9b087c8b     	mul	x11, x4, x8
    8000: ba0b01ce     	adcs	x14, x14, x11
    8004: 9b097c8b     	mul	x11, x4, x9
    8008: ba0b01ef     	adcs	x15, x15, x11
    800c: 9b0a7c8b     	mul	x11, x4, x10
    8010: ba0b0210     	adcs	x16, x16, x11
    8014: 9bca7c83     	umulh	x3, x4, x10
    8018: 9a1f0063     	adc	x3, x3, xzr
    801c: 9bc77c8b     	umulh	x11, x4, x7
    8020: ab0b01ce     	adds	x14, x14, x11
    8024: 9bc87c8b     	umulh	x11, x4, x8
    8028: ba0b01ef     	adcs	x15, x15, x11
    802c: 9bc97c8b     	umulh	x11, x4, x9
    8030: ba0b0210     	adcs	x16, x16, x11
    8034: 9a1f0063     	adc	x3, x3, xzr
    8038: 9b077cab     	mul	x11, x5, x7
    803c: ab0b01ce     	adds	x14, x14, x11
    8040: 9b087cab     	mul	x11, x5, x8
    8044: ba0b01ef     	adcs	x15, x15, x11
    8048: 9b097cab     	mul	x11, x5, x9
    804c: ba0b0210     	adcs	x16, x16, x11
    8050: 9b0a7cab     	mul	x11, x5, x10
    8054: ba0b0063     	adcs	x3, x3, x11
    8058: 9bca7ca4     	umulh	x4, x5, x10
    805c: 9a1f0084     	adc	x4, x4, xzr
    8060: 9bc77cab     	umulh	x11, x5, x7
    8064: ab0b01ef     	adds	x15, x15, x11
    8068: 9bc87cab     	umulh	x11, x5, x8
    806c: ba0b0210     	adcs	x16, x16, x11
    8070: 9bc97cab     	umulh	x11, x5, x9
    8074: ba0b0063     	adcs	x3, x3, x11
    8078: 9a1f0084     	adc	x4, x4, xzr
    807c: 9b077ccb     	mul	x11, x6, x7
    8080: ab0b01ef     	adds	x15, x15, x11
    8084: 9b087ccb     	mul	x11, x6, x8
    8088: ba0b0210     	adcs	x16, x16, x11
    808c: 9b097ccb     	mul	x11, x6, x9
    8090: ba0b0063     	adcs	x3, x3, x11
    8094: 9b0a7ccb     	mul	x11, x6, x10
    8098: ba0b0084     	adcs	x4, x4, x11
    809c: 9bca7cc5     	umulh	x5, x6, x10
    80a0: 9a1f00a5     	adc	x5, x5, xzr
    80a4: 9bc77ccb     	umulh	x11, x6, x7
    80a8: ab0b0210     	adds	x16, x16, x11
    80ac: 9bc87ccb     	umulh	x11, x6, x8
    80b0: ba0b0063     	adcs	x3, x3, x11
    80b4: 9bc97ccb     	umulh	x11, x6, x9
    80b8: ba0b0084     	adcs	x4, x4, x11
    80bc: 9a1f00a5     	adc	x5, x5, xzr
    80c0: d28004c7     	mov	x7, #0x26               // =38
    80c4: 9b107ceb     	mul	x11, x7, x16
    80c8: 9bd07ce9     	umulh	x9, x7, x16
    80cc: ab0b018c     	adds	x12, x12, x11
    80d0: 9b037ceb     	mul	x11, x7, x3
    80d4: 9bc37ce3     	umulh	x3, x7, x3
    80d8: ba0b01ad     	adcs	x13, x13, x11
    80dc: 9b047ceb     	mul	x11, x7, x4
    80e0: 9bc47ce4     	umulh	x4, x7, x4
    80e4: ba0b01ce     	adcs	x14, x14, x11
    80e8: 9b057ceb     	mul	x11, x7, x5
    80ec: 9bc57ce5     	umulh	x5, x7, x5
    80f0: ba0b01ef     	adcs	x15, x15, x11
    80f4: 9a9f37f0     	cset	x16, hs
    80f8: ab0401ef     	adds	x15, x15, x4
    80fc: 9a050210     	adc	x16, x16, x5
    8100: ab0f01ff     	cmn	x15, x15
    8104: 9240f9ef     	and	x15, x15, #0x7fffffffffffffff
    8108: 9a100208     	adc	x8, x16, x16
    810c: d2800267     	mov	x7, #0x13               // =19
    8110: 9b087ceb     	mul	x11, x7, x8
    8114: ab0b018c     	adds	x12, x12, x11
    8118: ba0901ad     	adcs	x13, x13, x9
    811c: ba0301ce     	adcs	x14, x14, x3
    8120: 9a1f01ef     	adc	x15, x15, xzr
    8124: a90236cc     	stp	x12, x13, [x22, #0x20]
    8128: a9033ece     	stp	x14, x15, [x22, #0x30]
    812c: a94213e3     	ldp	x3, x4, [sp, #0x20]
    8130: a94623e7     	ldp	x7, x8, [sp, #0x60]
    8134: 9b077c6c     	mul	x12, x3, x7
    8138: 9bc77c6d     	umulh	x13, x3, x7
    813c: 9b087c6b     	mul	x11, x3, x8
    8140: 9bc87c6e     	umulh	x14, x3, x8
    8144: ab0b01ad     	adds	x13, x13, x11
    8148: a9472be9     	ldp	x9, x10, [sp, #0x70]
    814c: 9b097c6b     	mul	x11, x3, x9
    8150: 9bc97c6f     	umulh	x15, x3, x9
    8154: ba0b01ce     	adcs	x14, x14, x11
    8158: 9b0a7c6b     	mul	x11, x3, x10
    815c: 9bca7c70     	umulh	x16, x3, x10
    8160: ba0b01ef     	adcs	x15, x15, x11
    8164: 9a1f0210     	adc	x16, x16, xzr
    8168: a9431be5     	ldp	x5, x6, [sp, #0x30]
    816c: 9b077c8b     	mul	x11, x4, x7
    8170: ab0b01ad     	adds	x13, x13, x11
    8174: 9b087c8b     	mul	x11, x4, x8
    8178: ba0b01ce     	adcs	x14, x14, x11
    817c: 9b097c8b     	mul	x11, x4, x9
    8180: ba0b01ef     	adcs	x15, x15, x11
    8184: 9b0a7c8b     	mul	x11, x4, x10
    8188: ba0b0210     	adcs	x16, x16, x11
    818c: 9bca7c83     	umulh	x3, x4, x10
    8190: 9a1f0063     	adc	x3, x3, xzr
    8194: 9bc77c8b     	umulh	x11, x4, x7
    8198: ab0b01ce     	adds	x14, x14, x11
    819c: 9bc87c8b     	umulh	x11, x4, x8
    81a0: ba0b01ef     	adcs	x15, x15, x11
    81a4: 9bc97c8b     	umulh	x11, x4, x9
    81a8: ba0b0210     	adcs	x16, x16, x11
    81ac: 9a1f0063     	adc	x3, x3, xzr
    81b0: 9b077cab     	mul	x11, x5, x7
    81b4: ab0b01ce     	adds	x14, x14, x11
    81b8: 9b087cab     	mul	x11, x5, x8
    81bc: ba0b01ef     	adcs	x15, x15, x11
    81c0: 9b097cab     	mul	x11, x5, x9
    81c4: ba0b0210     	adcs	x16, x16, x11
    81c8: 9b0a7cab     	mul	x11, x5, x10
    81cc: ba0b0063     	adcs	x3, x3, x11
    81d0: 9bca7ca4     	umulh	x4, x5, x10
    81d4: 9a1f0084     	adc	x4, x4, xzr
    81d8: 9bc77cab     	umulh	x11, x5, x7
    81dc: ab0b01ef     	adds	x15, x15, x11
    81e0: 9bc87cab     	umulh	x11, x5, x8
    81e4: ba0b0210     	adcs	x16, x16, x11
    81e8: 9bc97cab     	umulh	x11, x5, x9
    81ec: ba0b0063     	adcs	x3, x3, x11
    81f0: 9a1f0084     	adc	x4, x4, xzr
    81f4: 9b077ccb     	mul	x11, x6, x7
    81f8: ab0b01ef     	adds	x15, x15, x11
    81fc: 9b087ccb     	mul	x11, x6, x8
    8200: ba0b0210     	adcs	x16, x16, x11
    8204: 9b097ccb     	mul	x11, x6, x9
    8208: ba0b0063     	adcs	x3, x3, x11
    820c: 9b0a7ccb     	mul	x11, x6, x10
    8210: ba0b0084     	adcs	x4, x4, x11
    8214: 9bca7cc5     	umulh	x5, x6, x10
    8218: 9a1f00a5     	adc	x5, x5, xzr
    821c: 9bc77ccb     	umulh	x11, x6, x7
    8220: ab0b0210     	adds	x16, x16, x11
    8224: 9bc87ccb     	umulh	x11, x6, x8
    8228: ba0b0063     	adcs	x3, x3, x11
    822c: 9bc97ccb     	umulh	x11, x6, x9
    8230: ba0b0084     	adcs	x4, x4, x11
    8234: 9a1f00a5     	adc	x5, x5, xzr
    8238: d28004c7     	mov	x7, #0x26               // =38
    823c: 9b107ceb     	mul	x11, x7, x16
    8240: 9bd07ce9     	umulh	x9, x7, x16
    8244: ab0b018c     	adds	x12, x12, x11
    8248: 9b037ceb     	mul	x11, x7, x3
    824c: 9bc37ce3     	umulh	x3, x7, x3
    8250: ba0b01ad     	adcs	x13, x13, x11
    8254: 9b047ceb     	mul	x11, x7, x4
    8258: 9bc47ce4     	umulh	x4, x7, x4
    825c: ba0b01ce     	adcs	x14, x14, x11
    8260: 9b057ceb     	mul	x11, x7, x5
    8264: 9bc57ce5     	umulh	x5, x7, x5
    8268: ba0b01ef     	adcs	x15, x15, x11
    826c: 9a9f37f0     	cset	x16, hs
    8270: ab0401ef     	adds	x15, x15, x4
    8274: 9a050210     	adc	x16, x16, x5
    8278: ab0f01ff     	cmn	x15, x15
    827c: 9240f9ef     	and	x15, x15, #0x7fffffffffffffff
    8280: 9a100208     	adc	x8, x16, x16
    8284: d2800267     	mov	x7, #0x13               // =19
    8288: 9b087ceb     	mul	x11, x7, x8
    828c: ab0b018c     	adds	x12, x12, x11
    8290: ba0901ad     	adcs	x13, x13, x9
    8294: ba0301ce     	adcs	x14, x14, x3
    8298: 9a1f01ef     	adc	x15, x15, xzr
    829c: a90436cc     	stp	x12, x13, [x22, #0x40]
    82a0: a9053ece     	stp	x14, x15, [x22, #0x50]
    82a4: 910303ff     	add	sp, sp, #0xc0
    82a8: d65f03c0     	ret

00000000000082ac <edwards25519_scalarmuldouble_alt_pepadd>:
    82ac: d10303ff     	sub	sp, sp, #0xc0
    82b0: a94412e3     	ldp	x3, x4, [x23, #0x40]
    82b4: ab030063     	adds	x3, x3, x3
    82b8: ba040084     	adcs	x4, x4, x4
    82bc: a9451ae5     	ldp	x5, x6, [x23, #0x50]
    82c0: ba0500a5     	adcs	x5, x5, x5
    82c4: ba0600c6     	adcs	x6, x6, x6
    82c8: d28004c9     	mov	x9, #0x26               // =38
    82cc: 9a9f2129     	csel	x9, x9, xzr, hs
    82d0: ab090063     	adds	x3, x3, x9
    82d4: ba1f0084     	adcs	x4, x4, xzr
    82d8: ba1f00a5     	adcs	x5, x5, xzr
    82dc: 9a1f00c6     	adc	x6, x6, xzr
    82e0: a90013e3     	stp	x3, x4, [sp]
    82e4: a9011be5     	stp	x5, x6, [sp, #0x10]
    82e8: a9421ae5     	ldp	x5, x6, [x23, #0x20]
    82ec: a9400ee4     	ldp	x4, x3, [x23]
    82f0: eb0400a5     	subs	x5, x5, x4
    82f4: fa0300c6     	sbcs	x6, x6, x3
    82f8: a94322e7     	ldp	x7, x8, [x23, #0x30]
    82fc: a9410ee4     	ldp	x4, x3, [x23, #0x10]
    8300: fa0400e7     	sbcs	x7, x7, x4
    8304: fa030108     	sbcs	x8, x8, x3
    8308: d28004c4     	mov	x4, #0x26               // =38
    830c: 9a9f3083     	csel	x3, x4, xzr, lo
    8310: eb0300a5     	subs	x5, x5, x3
    8314: fa1f00c6     	sbcs	x6, x6, xzr
    8318: fa1f00e7     	sbcs	x7, x7, xzr
    831c: da1f0108     	sbc	x8, x8, xzr
    8320: a9021be5     	stp	x5, x6, [sp, #0x20]
    8324: a90323e7     	stp	x7, x8, [sp, #0x30]
    8328: a94212e3     	ldp	x3, x4, [x23, #0x20]
    832c: a94022e7     	ldp	x7, x8, [x23]
    8330: ab070063     	adds	x3, x3, x7
    8334: ba080084     	adcs	x4, x4, x8
    8338: a9431ae5     	ldp	x5, x6, [x23, #0x30]
    833c: a94122e7     	ldp	x7, x8, [x23, #0x10]
    8340: ba0700a5     	adcs	x5, x5, x7
    8344: ba0800c6     	adcs	x6, x6, x8
    8348: d28004c9     	mov	x9, #0x26               // =38
    834c: 9a9f2129     	csel	x9, x9, xzr, hs
    8350: ab090063     	adds	x3, x3, x9
    8354: ba1f0084     	adcs	x4, x4, xzr
    8358: ba1f00a5     	adcs	x5, x5, xzr
    835c: 9a1f00c6     	adc	x6, x6, xzr
    8360: a90413e3     	stp	x3, x4, [sp, #0x40]
    8364: a9051be5     	stp	x5, x6, [sp, #0x50]
    8368: a94612e3     	ldp	x3, x4, [x23, #0x60]
    836c: a9442307     	ldp	x7, x8, [x24, #0x40]
    8370: 9b077c6c     	mul	x12, x3, x7
    8374: 9bc77c6d     	umulh	x13, x3, x7
    8378: 9b087c6b     	mul	x11, x3, x8
    837c: 9bc87c6e     	umulh	x14, x3, x8
    8380: ab0b01ad     	adds	x13, x13, x11
    8384: a9452b09     	ldp	x9, x10, [x24, #0x50]
    8388: 9b097c6b     	mul	x11, x3, x9
    838c: 9bc97c6f     	umulh	x15, x3, x9
    8390: ba0b01ce     	adcs	x14, x14, x11
    8394: 9b0a7c6b     	mul	x11, x3, x10
    8398: 9bca7c70     	umulh	x16, x3, x10
    839c: ba0b01ef     	adcs	x15, x15, x11
    83a0: 9a1f0210     	adc	x16, x16, xzr
    83a4: a9471ae5     	ldp	x5, x6, [x23, #0x70]
    83a8: 9b077c8b     	mul	x11, x4, x7
    83ac: ab0b01ad     	adds	x13, x13, x11
    83b0: 9b087c8b     	mul	x11, x4, x8
    83b4: ba0b01ce     	adcs	x14, x14, x11
    83b8: 9b097c8b     	mul	x11, x4, x9
    83bc: ba0b01ef     	adcs	x15, x15, x11
    83c0: 9b0a7c8b     	mul	x11, x4, x10
    83c4: ba0b0210     	adcs	x16, x16, x11
    83c8: 9bca7c83     	umulh	x3, x4, x10
    83cc: 9a1f0063     	adc	x3, x3, xzr
    83d0: 9bc77c8b     	umulh	x11, x4, x7
    83d4: ab0b01ce     	adds	x14, x14, x11
    83d8: 9bc87c8b     	umulh	x11, x4, x8
    83dc: ba0b01ef     	adcs	x15, x15, x11
    83e0: 9bc97c8b     	umulh	x11, x4, x9
    83e4: ba0b0210     	adcs	x16, x16, x11
    83e8: 9a1f0063     	adc	x3, x3, xzr
    83ec: 9b077cab     	mul	x11, x5, x7
    83f0: ab0b01ce     	adds	x14, x14, x11
    83f4: 9b087cab     	mul	x11, x5, x8
    83f8: ba0b01ef     	adcs	x15, x15, x11
    83fc: 9b097cab     	mul	x11, x5, x9
    8400: ba0b0210     	adcs	x16, x16, x11
    8404: 9b0a7cab     	mul	x11, x5, x10
    8408: ba0b0063     	adcs	x3, x3, x11
    840c: 9bca7ca4     	umulh	x4, x5, x10
    8410: 9a1f0084     	adc	x4, x4, xzr
    8414: 9bc77cab     	umulh	x11, x5, x7
    8418: ab0b01ef     	adds	x15, x15, x11
    841c: 9bc87cab     	umulh	x11, x5, x8
    8420: ba0b0210     	adcs	x16, x16, x11
    8424: 9bc97cab     	umulh	x11, x5, x9
    8428: ba0b0063     	adcs	x3, x3, x11
    842c: 9a1f0084     	adc	x4, x4, xzr
    8430: 9b077ccb     	mul	x11, x6, x7
    8434: ab0b01ef     	adds	x15, x15, x11
    8438: 9b087ccb     	mul	x11, x6, x8
    843c: ba0b0210     	adcs	x16, x16, x11
    8440: 9b097ccb     	mul	x11, x6, x9
    8444: ba0b0063     	adcs	x3, x3, x11
    8448: 9b0a7ccb     	mul	x11, x6, x10
    844c: ba0b0084     	adcs	x4, x4, x11
    8450: 9bca7cc5     	umulh	x5, x6, x10
    8454: 9a1f00a5     	adc	x5, x5, xzr
    8458: 9bc77ccb     	umulh	x11, x6, x7
    845c: ab0b0210     	adds	x16, x16, x11
    8460: 9bc87ccb     	umulh	x11, x6, x8
    8464: ba0b0063     	adcs	x3, x3, x11
    8468: 9bc97ccb     	umulh	x11, x6, x9
    846c: ba0b0084     	adcs	x4, x4, x11
    8470: 9a1f00a5     	adc	x5, x5, xzr
    8474: d28004c7     	mov	x7, #0x26               // =38
    8478: 9b107ceb     	mul	x11, x7, x16
    847c: 9bd07ce9     	umulh	x9, x7, x16
    8480: ab0b018c     	adds	x12, x12, x11
    8484: 9b037ceb     	mul	x11, x7, x3
    8488: 9bc37ce3     	umulh	x3, x7, x3
    848c: ba0b01ad     	adcs	x13, x13, x11
    8490: 9b047ceb     	mul	x11, x7, x4
    8494: 9bc47ce4     	umulh	x4, x7, x4
    8498: ba0b01ce     	adcs	x14, x14, x11
    849c: 9b057ceb     	mul	x11, x7, x5
    84a0: 9bc57ce5     	umulh	x5, x7, x5
    84a4: ba0b01ef     	adcs	x15, x15, x11
    84a8: 9a9f37f0     	cset	x16, hs
    84ac: ab0401ef     	adds	x15, x15, x4
    84b0: 9a050210     	adc	x16, x16, x5
    84b4: ab0f01ff     	cmn	x15, x15
    84b8: 9240f9ef     	and	x15, x15, #0x7fffffffffffffff
    84bc: 9a100208     	adc	x8, x16, x16
    84c0: d2800267     	mov	x7, #0x13               // =19
    84c4: 9b087ceb     	mul	x11, x7, x8
    84c8: ab0b018c     	adds	x12, x12, x11
    84cc: ba0901ad     	adcs	x13, x13, x9
    84d0: ba0301ce     	adcs	x14, x14, x3
    84d4: 9a1f01ef     	adc	x15, x15, xzr
    84d8: a90637ec     	stp	x12, x13, [sp, #0x60]
    84dc: a9073fee     	stp	x14, x15, [sp, #0x70]
    84e0: a94213e3     	ldp	x3, x4, [sp, #0x20]
    84e4: a9402307     	ldp	x7, x8, [x24]
    84e8: 9b077c6c     	mul	x12, x3, x7
    84ec: 9bc77c6d     	umulh	x13, x3, x7
    84f0: 9b087c6b     	mul	x11, x3, x8
    84f4: 9bc87c6e     	umulh	x14, x3, x8
    84f8: ab0b01ad     	adds	x13, x13, x11
    84fc: a9412b09     	ldp	x9, x10, [x24, #0x10]
    8500: 9b097c6b     	mul	x11, x3, x9
    8504: 9bc97c6f     	umulh	x15, x3, x9
    8508: ba0b01ce     	adcs	x14, x14, x11
    850c: 9b0a7c6b     	mul	x11, x3, x10
    8510: 9bca7c70     	umulh	x16, x3, x10
    8514: ba0b01ef     	adcs	x15, x15, x11
    8518: 9a1f0210     	adc	x16, x16, xzr
    851c: a9431be5     	ldp	x5, x6, [sp, #0x30]
    8520: 9b077c8b     	mul	x11, x4, x7
    8524: ab0b01ad     	adds	x13, x13, x11
    8528: 9b087c8b     	mul	x11, x4, x8
    852c: ba0b01ce     	adcs	x14, x14, x11
    8530: 9b097c8b     	mul	x11, x4, x9
    8534: ba0b01ef     	adcs	x15, x15, x11
    8538: 9b0a7c8b     	mul	x11, x4, x10
    853c: ba0b0210     	adcs	x16, x16, x11
    8540: 9bca7c83     	umulh	x3, x4, x10
    8544: 9a1f0063     	adc	x3, x3, xzr
    8548: 9bc77c8b     	umulh	x11, x4, x7
    854c: ab0b01ce     	adds	x14, x14, x11
    8550: 9bc87c8b     	umulh	x11, x4, x8
    8554: ba0b01ef     	adcs	x15, x15, x11
    8558: 9bc97c8b     	umulh	x11, x4, x9
    855c: ba0b0210     	adcs	x16, x16, x11
    8560: 9a1f0063     	adc	x3, x3, xzr
    8564: 9b077cab     	mul	x11, x5, x7
    8568: ab0b01ce     	adds	x14, x14, x11
    856c: 9b087cab     	mul	x11, x5, x8
    8570: ba0b01ef     	adcs	x15, x15, x11
    8574: 9b097cab     	mul	x11, x5, x9
    8578: ba0b0210     	adcs	x16, x16, x11
    857c: 9b0a7cab     	mul	x11, x5, x10
    8580: ba0b0063     	adcs	x3, x3, x11
    8584: 9bca7ca4     	umulh	x4, x5, x10
    8588: 9a1f0084     	adc	x4, x4, xzr
    858c: 9bc77cab     	umulh	x11, x5, x7
    8590: ab0b01ef     	adds	x15, x15, x11
    8594: 9bc87cab     	umulh	x11, x5, x8
    8598: ba0b0210     	adcs	x16, x16, x11
    859c: 9bc97cab     	umulh	x11, x5, x9
    85a0: ba0b0063     	adcs	x3, x3, x11
    85a4: 9a1f0084     	adc	x4, x4, xzr
    85a8: 9b077ccb     	mul	x11, x6, x7
    85ac: ab0b01ef     	adds	x15, x15, x11
    85b0: 9b087ccb     	mul	x11, x6, x8
    85b4: ba0b0210     	adcs	x16, x16, x11
    85b8: 9b097ccb     	mul	x11, x6, x9
    85bc: ba0b0063     	adcs	x3, x3, x11
    85c0: 9b0a7ccb     	mul	x11, x6, x10
    85c4: ba0b0084     	adcs	x4, x4, x11
    85c8: 9bca7cc5     	umulh	x5, x6, x10
    85cc: 9a1f00a5     	adc	x5, x5, xzr
    85d0: 9bc77ccb     	umulh	x11, x6, x7
    85d4: ab0b0210     	adds	x16, x16, x11
    85d8: 9bc87ccb     	umulh	x11, x6, x8
    85dc: ba0b0063     	adcs	x3, x3, x11
    85e0: 9bc97ccb     	umulh	x11, x6, x9
    85e4: ba0b0084     	adcs	x4, x4, x11
    85e8: 9a1f00a5     	adc	x5, x5, xzr
    85ec: d28004c7     	mov	x7, #0x26               // =38
    85f0: 9b107ceb     	mul	x11, x7, x16
    85f4: 9bd07ce9     	umulh	x9, x7, x16
    85f8: ab0b018c     	adds	x12, x12, x11
    85fc: 9b037ceb     	mul	x11, x7, x3
    8600: 9bc37ce3     	umulh	x3, x7, x3
    8604: ba0b01ad     	adcs	x13, x13, x11
    8608: 9b047ceb     	mul	x11, x7, x4
    860c: 9bc47ce4     	umulh	x4, x7, x4
    8610: ba0b01ce     	adcs	x14, x14, x11
    8614: 9b057ceb     	mul	x11, x7, x5
    8618: 9bc57ce5     	umulh	x5, x7, x5
    861c: ba0b01ef     	adcs	x15, x15, x11
    8620: 9a9f37f0     	cset	x16, hs
    8624: ab0401ef     	adds	x15, x15, x4
    8628: 9a050210     	adc	x16, x16, x5
    862c: ab0f01ff     	cmn	x15, x15
    8630: 9240f9ef     	and	x15, x15, #0x7fffffffffffffff
    8634: 9a100208     	adc	x8, x16, x16
    8638: d2800267     	mov	x7, #0x13               // =19
    863c: 9b087ceb     	mul	x11, x7, x8
    8640: ab0b018c     	adds	x12, x12, x11
    8644: ba0901ad     	adcs	x13, x13, x9
    8648: ba0301ce     	adcs	x14, x14, x3
    864c: 9a1f01ef     	adc	x15, x15, xzr
    8650: a90237ec     	stp	x12, x13, [sp, #0x20]
    8654: a9033fee     	stp	x14, x15, [sp, #0x30]
    8658: a94413e3     	ldp	x3, x4, [sp, #0x40]
    865c: a9422307     	ldp	x7, x8, [x24, #0x20]
    8660: 9b077c6c     	mul	x12, x3, x7
    8664: 9bc77c6d     	umulh	x13, x3, x7
    8668: 9b087c6b     	mul	x11, x3, x8
    866c: 9bc87c6e     	umulh	x14, x3, x8
    8670: ab0b01ad     	adds	x13, x13, x11
    8674: a9432b09     	ldp	x9, x10, [x24, #0x30]
    8678: 9b097c6b     	mul	x11, x3, x9
    867c: 9bc97c6f     	umulh	x15, x3, x9
    8680: ba0b01ce     	adcs	x14, x14, x11
    8684: 9b0a7c6b     	mul	x11, x3, x10
    8688: 9bca7c70     	umulh	x16, x3, x10
    868c: ba0b01ef     	adcs	x15, x15, x11
    8690: 9a1f0210     	adc	x16, x16, xzr
    8694: a9451be5     	ldp	x5, x6, [sp, #0x50]
    8698: 9b077c8b     	mul	x11, x4, x7
    869c: ab0b01ad     	adds	x13, x13, x11
    86a0: 9b087c8b     	mul	x11, x4, x8
    86a4: ba0b01ce     	adcs	x14, x14, x11
    86a8: 9b097c8b     	mul	x11, x4, x9
    86ac: ba0b01ef     	adcs	x15, x15, x11
    86b0: 9b0a7c8b     	mul	x11, x4, x10
    86b4: ba0b0210     	adcs	x16, x16, x11
    86b8: 9bca7c83     	umulh	x3, x4, x10
    86bc: 9a1f0063     	adc	x3, x3, xzr
    86c0: 9bc77c8b     	umulh	x11, x4, x7
    86c4: ab0b01ce     	adds	x14, x14, x11
    86c8: 9bc87c8b     	umulh	x11, x4, x8
    86cc: ba0b01ef     	adcs	x15, x15, x11
    86d0: 9bc97c8b     	umulh	x11, x4, x9
    86d4: ba0b0210     	adcs	x16, x16, x11
    86d8: 9a1f0063     	adc	x3, x3, xzr
    86dc: 9b077cab     	mul	x11, x5, x7
    86e0: ab0b01ce     	adds	x14, x14, x11
    86e4: 9b087cab     	mul	x11, x5, x8
    86e8: ba0b01ef     	adcs	x15, x15, x11
    86ec: 9b097cab     	mul	x11, x5, x9
    86f0: ba0b0210     	adcs	x16, x16, x11
    86f4: 9b0a7cab     	mul	x11, x5, x10
    86f8: ba0b0063     	adcs	x3, x3, x11
    86fc: 9bca7ca4     	umulh	x4, x5, x10
    8700: 9a1f0084     	adc	x4, x4, xzr
    8704: 9bc77cab     	umulh	x11, x5, x7
    8708: ab0b01ef     	adds	x15, x15, x11
    870c: 9bc87cab     	umulh	x11, x5, x8
    8710: ba0b0210     	adcs	x16, x16, x11
    8714: 9bc97cab     	umulh	x11, x5, x9
    8718: ba0b0063     	adcs	x3, x3, x11
    871c: 9a1f0084     	adc	x4, x4, xzr
    8720: 9b077ccb     	mul	x11, x6, x7
    8724: ab0b01ef     	adds	x15, x15, x11
    8728: 9b087ccb     	mul	x11, x6, x8
    872c: ba0b0210     	adcs	x16, x16, x11
    8730: 9b097ccb     	mul	x11, x6, x9
    8734: ba0b0063     	adcs	x3, x3, x11
    8738: 9b0a7ccb     	mul	x11, x6, x10
    873c: ba0b0084     	adcs	x4, x4, x11
    8740: 9bca7cc5     	umulh	x5, x6, x10
    8744: 9a1f00a5     	adc	x5, x5, xzr
    8748: 9bc77ccb     	umulh	x11, x6, x7
    874c: ab0b0210     	adds	x16, x16, x11
    8750: 9bc87ccb     	umulh	x11, x6, x8
    8754: ba0b0063     	adcs	x3, x3, x11
    8758: 9bc97ccb     	umulh	x11, x6, x9
    875c: ba0b0084     	adcs	x4, x4, x11
    8760: 9a1f00a5     	adc	x5, x5, xzr
    8764: d28004c7     	mov	x7, #0x26               // =38
    8768: 9b107ceb     	mul	x11, x7, x16
    876c: 9bd07ce9     	umulh	x9, x7, x16
    8770: ab0b018c     	adds	x12, x12, x11
    8774: 9b037ceb     	mul	x11, x7, x3
    8778: 9bc37ce3     	umulh	x3, x7, x3
    877c: ba0b01ad     	adcs	x13, x13, x11
    8780: 9b047ceb     	mul	x11, x7, x4
    8784: 9bc47ce4     	umulh	x4, x7, x4
    8788: ba0b01ce     	adcs	x14, x14, x11
    878c: 9b057ceb     	mul	x11, x7, x5
    8790: 9bc57ce5     	umulh	x5, x7, x5
    8794: ba0b01ef     	adcs	x15, x15, x11
    8798: 9a9f37f0     	cset	x16, hs
    879c: ab0401ef     	adds	x15, x15, x4
    87a0: 9a050210     	adc	x16, x16, x5
    87a4: ab0f01ff     	cmn	x15, x15
    87a8: 9240f9ef     	and	x15, x15, #0x7fffffffffffffff
    87ac: 9a100208     	adc	x8, x16, x16
    87b0: d2800267     	mov	x7, #0x13               // =19
    87b4: 9b087ceb     	mul	x11, x7, x8
    87b8: ab0b018c     	adds	x12, x12, x11
    87bc: ba0901ad     	adcs	x13, x13, x9
    87c0: ba0301ce     	adcs	x14, x14, x3
    87c4: 9a1f01ef     	adc	x15, x15, xzr
    87c8: a90437ec     	stp	x12, x13, [sp, #0x40]
    87cc: a9053fee     	stp	x14, x15, [sp, #0x50]
    87d0: a9401be5     	ldp	x5, x6, [sp]
    87d4: a9460fe4     	ldp	x4, x3, [sp, #0x60]
    87d8: eb0400a5     	subs	x5, x5, x4
    87dc: fa0300c6     	sbcs	x6, x6, x3
    87e0: a94123e7     	ldp	x7, x8, [sp, #0x10]
    87e4: a9470fe4     	ldp	x4, x3, [sp, #0x70]
    87e8: fa0400e7     	sbcs	x7, x7, x4
    87ec: fa030108     	sbcs	x8, x8, x3
    87f0: d28004c4     	mov	x4, #0x26               // =38
    87f4: 9a9f3083     	csel	x3, x4, xzr, lo
    87f8: eb0300a5     	subs	x5, x5, x3
    87fc: fa1f00c6     	sbcs	x6, x6, xzr
    8800: fa1f00e7     	sbcs	x7, x7, xzr
    8804: da1f0108     	sbc	x8, x8, xzr
    8808: a9081be5     	stp	x5, x6, [sp, #0x80]
    880c: a90923e7     	stp	x7, x8, [sp, #0x90]
    8810: a94013e3     	ldp	x3, x4, [sp]
    8814: a94623e7     	ldp	x7, x8, [sp, #0x60]
    8818: ab070063     	adds	x3, x3, x7
    881c: ba080084     	adcs	x4, x4, x8
    8820: a9411be5     	ldp	x5, x6, [sp, #0x10]
    8824: a94723e7     	ldp	x7, x8, [sp, #0x70]
    8828: ba0700a5     	adcs	x5, x5, x7
    882c: ba0800c6     	adcs	x6, x6, x8
    8830: d28004c9     	mov	x9, #0x26               // =38
    8834: 9a9f2129     	csel	x9, x9, xzr, hs
    8838: ab090063     	adds	x3, x3, x9
    883c: ba1f0084     	adcs	x4, x4, xzr
    8840: ba1f00a5     	adcs	x5, x5, xzr
    8844: 9a1f00c6     	adc	x6, x6, xzr
    8848: a90013e3     	stp	x3, x4, [sp]
    884c: a9011be5     	stp	x5, x6, [sp, #0x10]
    8850: a9441be5     	ldp	x5, x6, [sp, #0x40]
    8854: a9420fe4     	ldp	x4, x3, [sp, #0x20]
    8858: eb0400a5     	subs	x5, x5, x4
    885c: fa0300c6     	sbcs	x6, x6, x3
    8860: a94523e7     	ldp	x7, x8, [sp, #0x50]
    8864: a9430fe4     	ldp	x4, x3, [sp, #0x30]
    8868: fa0400e7     	sbcs	x7, x7, x4
    886c: fa030108     	sbcs	x8, x8, x3
    8870: d28004c4     	mov	x4, #0x26               // =38
    8874: 9a9f3083     	csel	x3, x4, xzr, lo
    8878: eb0300a5     	subs	x5, x5, x3
    887c: fa1f00c6     	sbcs	x6, x6, xzr
    8880: fa1f00e7     	sbcs	x7, x7, xzr
    8884: da1f0108     	sbc	x8, x8, xzr
    8888: a90a1be5     	stp	x5, x6, [sp, #0xa0]
    888c: a90b23e7     	stp	x7, x8, [sp, #0xb0]
    8890: a94413e3     	ldp	x3, x4, [sp, #0x40]
    8894: a94223e7     	ldp	x7, x8, [sp, #0x20]
    8898: ab070063     	adds	x3, x3, x7
    889c: ba080084     	adcs	x4, x4, x8
    88a0: a9451be5     	ldp	x5, x6, [sp, #0x50]
    88a4: a94323e7     	ldp	x7, x8, [sp, #0x30]
    88a8: ba0700a5     	adcs	x5, x5, x7
    88ac: ba0800c6     	adcs	x6, x6, x8
    88b0: d28004c9     	mov	x9, #0x26               // =38
    88b4: 9a9f2129     	csel	x9, x9, xzr, hs
    88b8: ab090063     	adds	x3, x3, x9
    88bc: ba1f0084     	adcs	x4, x4, xzr
    88c0: ba1f00a5     	adcs	x5, x5, xzr
    88c4: 9a1f00c6     	adc	x6, x6, xzr
    88c8: a90213e3     	stp	x3, x4, [sp, #0x20]
    88cc: a9031be5     	stp	x5, x6, [sp, #0x30]
    88d0: a94813e3     	ldp	x3, x4, [sp, #0x80]
    88d4: a94023e7     	ldp	x7, x8, [sp]
    88d8: 9b077c6c     	mul	x12, x3, x7
    88dc: 9bc77c6d     	umulh	x13, x3, x7
    88e0: 9b087c6b     	mul	x11, x3, x8
    88e4: 9bc87c6e     	umulh	x14, x3, x8
    88e8: ab0b01ad     	adds	x13, x13, x11
    88ec: a9412be9     	ldp	x9, x10, [sp, #0x10]
    88f0: 9b097c6b     	mul	x11, x3, x9
    88f4: 9bc97c6f     	umulh	x15, x3, x9
    88f8: ba0b01ce     	adcs	x14, x14, x11
    88fc: 9b0a7c6b     	mul	x11, x3, x10
    8900: 9bca7c70     	umulh	x16, x3, x10
    8904: ba0b01ef     	adcs	x15, x15, x11
    8908: 9a1f0210     	adc	x16, x16, xzr
    890c: a9491be5     	ldp	x5, x6, [sp, #0x90]
    8910: 9b077c8b     	mul	x11, x4, x7
    8914: ab0b01ad     	adds	x13, x13, x11
    8918: 9b087c8b     	mul	x11, x4, x8
    891c: ba0b01ce     	adcs	x14, x14, x11
    8920: 9b097c8b     	mul	x11, x4, x9
    8924: ba0b01ef     	adcs	x15, x15, x11
    8928: 9b0a7c8b     	mul	x11, x4, x10
    892c: ba0b0210     	adcs	x16, x16, x11
    8930: 9bca7c83     	umulh	x3, x4, x10
    8934: 9a1f0063     	adc	x3, x3, xzr
    8938: 9bc77c8b     	umulh	x11, x4, x7
    893c: ab0b01ce     	adds	x14, x14, x11
    8940: 9bc87c8b     	umulh	x11, x4, x8
    8944: ba0b01ef     	adcs	x15, x15, x11
    8948: 9bc97c8b     	umulh	x11, x4, x9
    894c: ba0b0210     	adcs	x16, x16, x11
    8950: 9a1f0063     	adc	x3, x3, xzr
    8954: 9b077cab     	mul	x11, x5, x7
    8958: ab0b01ce     	adds	x14, x14, x11
    895c: 9b087cab     	mul	x11, x5, x8
    8960: ba0b01ef     	adcs	x15, x15, x11
    8964: 9b097cab     	mul	x11, x5, x9
    8968: ba0b0210     	adcs	x16, x16, x11
    896c: 9b0a7cab     	mul	x11, x5, x10
    8970: ba0b0063     	adcs	x3, x3, x11
    8974: 9bca7ca4     	umulh	x4, x5, x10
    8978: 9a1f0084     	adc	x4, x4, xzr
    897c: 9bc77cab     	umulh	x11, x5, x7
    8980: ab0b01ef     	adds	x15, x15, x11
    8984: 9bc87cab     	umulh	x11, x5, x8
    8988: ba0b0210     	adcs	x16, x16, x11
    898c: 9bc97cab     	umulh	x11, x5, x9
    8990: ba0b0063     	adcs	x3, x3, x11
    8994: 9a1f0084     	adc	x4, x4, xzr
    8998: 9b077ccb     	mul	x11, x6, x7
    899c: ab0b01ef     	adds	x15, x15, x11
    89a0: 9b087ccb     	mul	x11, x6, x8
    89a4: ba0b0210     	adcs	x16, x16, x11
    89a8: 9b097ccb     	mul	x11, x6, x9
    89ac: ba0b0063     	adcs	x3, x3, x11
    89b0: 9b0a7ccb     	mul	x11, x6, x10
    89b4: ba0b0084     	adcs	x4, x4, x11
    89b8: 9bca7cc5     	umulh	x5, x6, x10
    89bc: 9a1f00a5     	adc	x5, x5, xzr
    89c0: 9bc77ccb     	umulh	x11, x6, x7
    89c4: ab0b0210     	adds	x16, x16, x11
    89c8: 9bc87ccb     	umulh	x11, x6, x8
    89cc: ba0b0063     	adcs	x3, x3, x11
    89d0: 9bc97ccb     	umulh	x11, x6, x9
    89d4: ba0b0084     	adcs	x4, x4, x11
    89d8: 9a1f00a5     	adc	x5, x5, xzr
    89dc: d28004c7     	mov	x7, #0x26               // =38
    89e0: 9b107ceb     	mul	x11, x7, x16
    89e4: 9bd07ce9     	umulh	x9, x7, x16
    89e8: ab0b018c     	adds	x12, x12, x11
    89ec: 9b037ceb     	mul	x11, x7, x3
    89f0: 9bc37ce3     	umulh	x3, x7, x3
    89f4: ba0b01ad     	adcs	x13, x13, x11
    89f8: 9b047ceb     	mul	x11, x7, x4
    89fc: 9bc47ce4     	umulh	x4, x7, x4
    8a00: ba0b01ce     	adcs	x14, x14, x11
    8a04: 9b057ceb     	mul	x11, x7, x5
    8a08: 9bc57ce5     	umulh	x5, x7, x5
    8a0c: ba0b01ef     	adcs	x15, x15, x11
    8a10: 9a9f37f0     	cset	x16, hs
    8a14: ab0401ef     	adds	x15, x15, x4
    8a18: 9a050210     	adc	x16, x16, x5
    8a1c: ab0f01ff     	cmn	x15, x15
    8a20: 9240f9ef     	and	x15, x15, #0x7fffffffffffffff
    8a24: 9a100208     	adc	x8, x16, x16
    8a28: d2800267     	mov	x7, #0x13               // =19
    8a2c: 9b087ceb     	mul	x11, x7, x8
    8a30: ab0b018c     	adds	x12, x12, x11
    8a34: ba0901ad     	adcs	x13, x13, x9
    8a38: ba0301ce     	adcs	x14, x14, x3
    8a3c: 9a1f01ef     	adc	x15, x15, xzr
    8a40: a90436cc     	stp	x12, x13, [x22, #0x40]
    8a44: a9053ece     	stp	x14, x15, [x22, #0x50]
    8a48: a94a13e3     	ldp	x3, x4, [sp, #0xa0]
    8a4c: a94823e7     	ldp	x7, x8, [sp, #0x80]
    8a50: 9b077c6c     	mul	x12, x3, x7
    8a54: 9bc77c6d     	umulh	x13, x3, x7
    8a58: 9b087c6b     	mul	x11, x3, x8
    8a5c: 9bc87c6e     	umulh	x14, x3, x8
    8a60: ab0b01ad     	adds	x13, x13, x11
    8a64: a9492be9     	ldp	x9, x10, [sp, #0x90]
    8a68: 9b097c6b     	mul	x11, x3, x9
    8a6c: 9bc97c6f     	umulh	x15, x3, x9
    8a70: ba0b01ce     	adcs	x14, x14, x11
    8a74: 9b0a7c6b     	mul	x11, x3, x10
    8a78: 9bca7c70     	umulh	x16, x3, x10
    8a7c: ba0b01ef     	adcs	x15, x15, x11
    8a80: 9a1f0210     	adc	x16, x16, xzr
    8a84: a94b1be5     	ldp	x5, x6, [sp, #0xb0]
    8a88: 9b077c8b     	mul	x11, x4, x7
    8a8c: ab0b01ad     	adds	x13, x13, x11
    8a90: 9b087c8b     	mul	x11, x4, x8
    8a94: ba0b01ce     	adcs	x14, x14, x11
    8a98: 9b097c8b     	mul	x11, x4, x9
    8a9c: ba0b01ef     	adcs	x15, x15, x11
    8aa0: 9b0a7c8b     	mul	x11, x4, x10
    8aa4: ba0b0210     	adcs	x16, x16, x11
    8aa8: 9bca7c83     	umulh	x3, x4, x10
    8aac: 9a1f0063     	adc	x3, x3, xzr
    8ab0: 9bc77c8b     	umulh	x11, x4, x7
    8ab4: ab0b01ce     	adds	x14, x14, x11
    8ab8: 9bc87c8b     	umulh	x11, x4, x8
    8abc: ba0b01ef     	adcs	x15, x15, x11
    8ac0: 9bc97c8b     	umulh	x11, x4, x9
    8ac4: ba0b0210     	adcs	x16, x16, x11
    8ac8: 9a1f0063     	adc	x3, x3, xzr
    8acc: 9b077cab     	mul	x11, x5, x7
    8ad0: ab0b01ce     	adds	x14, x14, x11
    8ad4: 9b087cab     	mul	x11, x5, x8
    8ad8: ba0b01ef     	adcs	x15, x15, x11
    8adc: 9b097cab     	mul	x11, x5, x9
    8ae0: ba0b0210     	adcs	x16, x16, x11
    8ae4: 9b0a7cab     	mul	x11, x5, x10
    8ae8: ba0b0063     	adcs	x3, x3, x11
    8aec: 9bca7ca4     	umulh	x4, x5, x10
    8af0: 9a1f0084     	adc	x4, x4, xzr
    8af4: 9bc77cab     	umulh	x11, x5, x7
    8af8: ab0b01ef     	adds	x15, x15, x11
    8afc: 9bc87cab     	umulh	x11, x5, x8
    8b00: ba0b0210     	adcs	x16, x16, x11
    8b04: 9bc97cab     	umulh	x11, x5, x9
    8b08: ba0b0063     	adcs	x3, x3, x11
    8b0c: 9a1f0084     	adc	x4, x4, xzr
    8b10: 9b077ccb     	mul	x11, x6, x7
    8b14: ab0b01ef     	adds	x15, x15, x11
    8b18: 9b087ccb     	mul	x11, x6, x8
    8b1c: ba0b0210     	adcs	x16, x16, x11
    8b20: 9b097ccb     	mul	x11, x6, x9
    8b24: ba0b0063     	adcs	x3, x3, x11
    8b28: 9b0a7ccb     	mul	x11, x6, x10
    8b2c: ba0b0084     	adcs	x4, x4, x11
    8b30: 9bca7cc5     	umulh	x5, x6, x10
    8b34: 9a1f00a5     	adc	x5, x5, xzr
    8b38: 9bc77ccb     	umulh	x11, x6, x7
    8b3c: ab0b0210     	adds	x16, x16, x11
    8b40: 9bc87ccb     	umulh	x11, x6, x8
    8b44: ba0b0063     	adcs	x3, x3, x11
    8b48: 9bc97ccb     	umulh	x11, x6, x9
    8b4c: ba0b0084     	adcs	x4, x4, x11
    8b50: 9a1f00a5     	adc	x5, x5, xzr
    8b54: d28004c7     	mov	x7, #0x26               // =38
    8b58: 9b107ceb     	mul	x11, x7, x16
    8b5c: 9bd07ce9     	umulh	x9, x7, x16
    8b60: ab0b018c     	adds	x12, x12, x11
    8b64: 9b037ceb     	mul	x11, x7, x3
    8b68: 9bc37ce3     	umulh	x3, x7, x3
    8b6c: ba0b01ad     	adcs	x13, x13, x11
    8b70: 9b047ceb     	mul	x11, x7, x4
    8b74: 9bc47ce4     	umulh	x4, x7, x4
    8b78: ba0b01ce     	adcs	x14, x14, x11
    8b7c: 9b057ceb     	mul	x11, x7, x5
    8b80: 9bc57ce5     	umulh	x5, x7, x5
    8b84: ba0b01ef     	adcs	x15, x15, x11
    8b88: 9a9f37f0     	cset	x16, hs
    8b8c: ab0401ef     	adds	x15, x15, x4
    8b90: 9a050210     	adc	x16, x16, x5
    8b94: ab0f01ff     	cmn	x15, x15
    8b98: 9240f9ef     	and	x15, x15, #0x7fffffffffffffff
    8b9c: 9a100208     	adc	x8, x16, x16
    8ba0: d2800267     	mov	x7, #0x13               // =19
    8ba4: 9b087ceb     	mul	x11, x7, x8
    8ba8: ab0b018c     	adds	x12, x12, x11
    8bac: ba0901ad     	adcs	x13, x13, x9
    8bb0: ba0301ce     	adcs	x14, x14, x3
    8bb4: 9a1f01ef     	adc	x15, x15, xzr
    8bb8: a90036cc     	stp	x12, x13, [x22]
    8bbc: a9013ece     	stp	x14, x15, [x22, #0x10]
    8bc0: a94013e3     	ldp	x3, x4, [sp]
    8bc4: a94223e7     	ldp	x7, x8, [sp, #0x20]
    8bc8: 9b077c6c     	mul	x12, x3, x7
    8bcc: 9bc77c6d     	umulh	x13, x3, x7
    8bd0: 9b087c6b     	mul	x11, x3, x8
    8bd4: 9bc87c6e     	umulh	x14, x3, x8
    8bd8: ab0b01ad     	adds	x13, x13, x11
    8bdc: a9432be9     	ldp	x9, x10, [sp, #0x30]
    8be0: 9b097c6b     	mul	x11, x3, x9
    8be4: 9bc97c6f     	umulh	x15, x3, x9
    8be8: ba0b01ce     	adcs	x14, x14, x11
    8bec: 9b0a7c6b     	mul	x11, x3, x10
    8bf0: 9bca7c70     	umulh	x16, x3, x10
    8bf4: ba0b01ef     	adcs	x15, x15, x11
    8bf8: 9a1f0210     	adc	x16, x16, xzr
    8bfc: a9411be5     	ldp	x5, x6, [sp, #0x10]
    8c00: 9b077c8b     	mul	x11, x4, x7
    8c04: ab0b01ad     	adds	x13, x13, x11
    8c08: 9b087c8b     	mul	x11, x4, x8
    8c0c: ba0b01ce     	adcs	x14, x14, x11
    8c10: 9b097c8b     	mul	x11, x4, x9
    8c14: ba0b01ef     	adcs	x15, x15, x11
    8c18: 9b0a7c8b     	mul	x11, x4, x10
    8c1c: ba0b0210     	adcs	x16, x16, x11
    8c20: 9bca7c83     	umulh	x3, x4, x10
    8c24: 9a1f0063     	adc	x3, x3, xzr
    8c28: 9bc77c8b     	umulh	x11, x4, x7
    8c2c: ab0b01ce     	adds	x14, x14, x11
    8c30: 9bc87c8b     	umulh	x11, x4, x8
    8c34: ba0b01ef     	adcs	x15, x15, x11
    8c38: 9bc97c8b     	umulh	x11, x4, x9
    8c3c: ba0b0210     	adcs	x16, x16, x11
    8c40: 9a1f0063     	adc	x3, x3, xzr
    8c44: 9b077cab     	mul	x11, x5, x7
    8c48: ab0b01ce     	adds	x14, x14, x11
    8c4c: 9b087cab     	mul	x11, x5, x8
    8c50: ba0b01ef     	adcs	x15, x15, x11
    8c54: 9b097cab     	mul	x11, x5, x9
    8c58: ba0b0210     	adcs	x16, x16, x11
    8c5c: 9b0a7cab     	mul	x11, x5, x10
    8c60: ba0b0063     	adcs	x3, x3, x11
    8c64: 9bca7ca4     	umulh	x4, x5, x10
    8c68: 9a1f0084     	adc	x4, x4, xzr
    8c6c: 9bc77cab     	umulh	x11, x5, x7
    8c70: ab0b01ef     	adds	x15, x15, x11
    8c74: 9bc87cab     	umulh	x11, x5, x8
    8c78: ba0b0210     	adcs	x16, x16, x11
    8c7c: 9bc97cab     	umulh	x11, x5, x9
    8c80: ba0b0063     	adcs	x3, x3, x11
    8c84: 9a1f0084     	adc	x4, x4, xzr
    8c88: 9b077ccb     	mul	x11, x6, x7
    8c8c: ab0b01ef     	adds	x15, x15, x11
    8c90: 9b087ccb     	mul	x11, x6, x8
    8c94: ba0b0210     	adcs	x16, x16, x11
    8c98: 9b097ccb     	mul	x11, x6, x9
    8c9c: ba0b0063     	adcs	x3, x3, x11
    8ca0: 9b0a7ccb     	mul	x11, x6, x10
    8ca4: ba0b0084     	adcs	x4, x4, x11
    8ca8: 9bca7cc5     	umulh	x5, x6, x10
    8cac: 9a1f00a5     	adc	x5, x5, xzr
    8cb0: 9bc77ccb     	umulh	x11, x6, x7
    8cb4: ab0b0210     	adds	x16, x16, x11
    8cb8: 9bc87ccb     	umulh	x11, x6, x8
    8cbc: ba0b0063     	adcs	x3, x3, x11
    8cc0: 9bc97ccb     	umulh	x11, x6, x9
    8cc4: ba0b0084     	adcs	x4, x4, x11
    8cc8: 9a1f00a5     	adc	x5, x5, xzr
    8ccc: d28004c7     	mov	x7, #0x26               // =38
    8cd0: 9b107ceb     	mul	x11, x7, x16
    8cd4: 9bd07ce9     	umulh	x9, x7, x16
    8cd8: ab0b018c     	adds	x12, x12, x11
    8cdc: 9b037ceb     	mul	x11, x7, x3
    8ce0: 9bc37ce3     	umulh	x3, x7, x3
    8ce4: ba0b01ad     	adcs	x13, x13, x11
    8ce8: 9b047ceb     	mul	x11, x7, x4
    8cec: 9bc47ce4     	umulh	x4, x7, x4
    8cf0: ba0b01ce     	adcs	x14, x14, x11
    8cf4: 9b057ceb     	mul	x11, x7, x5
    8cf8: 9bc57ce5     	umulh	x5, x7, x5
    8cfc: ba0b01ef     	adcs	x15, x15, x11
    8d00: 9a9f37f0     	cset	x16, hs
    8d04: ab0401ef     	adds	x15, x15, x4
    8d08: 9a050210     	adc	x16, x16, x5
    8d0c: ab0f01ff     	cmn	x15, x15
    8d10: 9240f9ef     	and	x15, x15, #0x7fffffffffffffff
    8d14: 9a100208     	adc	x8, x16, x16
    8d18: d2800267     	mov	x7, #0x13               // =19
    8d1c: 9b087ceb     	mul	x11, x7, x8
    8d20: ab0b018c     	adds	x12, x12, x11
    8d24: ba0901ad     	adcs	x13, x13, x9
    8d28: ba0301ce     	adcs	x14, x14, x3
    8d2c: 9a1f01ef     	adc	x15, x15, xzr
    8d30: a90236cc     	stp	x12, x13, [x22, #0x20]
    8d34: a9033ece     	stp	x14, x15, [x22, #0x30]
    8d38: a94a13e3     	ldp	x3, x4, [sp, #0xa0]
    8d3c: a94223e7     	ldp	x7, x8, [sp, #0x20]
    8d40: 9b077c6c     	mul	x12, x3, x7
    8d44: 9bc77c6d     	umulh	x13, x3, x7
    8d48: 9b087c6b     	mul	x11, x3, x8
    8d4c: 9bc87c6e     	umulh	x14, x3, x8
    8d50: ab0b01ad     	adds	x13, x13, x11
    8d54: a9432be9     	ldp	x9, x10, [sp, #0x30]
    8d58: 9b097c6b     	mul	x11, x3, x9
    8d5c: 9bc97c6f     	umulh	x15, x3, x9
    8d60: ba0b01ce     	adcs	x14, x14, x11
    8d64: 9b0a7c6b     	mul	x11, x3, x10
    8d68: 9bca7c70     	umulh	x16, x3, x10
    8d6c: ba0b01ef     	adcs	x15, x15, x11
    8d70: 9a1f0210     	adc	x16, x16, xzr
    8d74: a94b1be5     	ldp	x5, x6, [sp, #0xb0]
    8d78: 9b077c8b     	mul	x11, x4, x7
    8d7c: ab0b01ad     	adds	x13, x13, x11
    8d80: 9b087c8b     	mul	x11, x4, x8
    8d84: ba0b01ce     	adcs	x14, x14, x11
    8d88: 9b097c8b     	mul	x11, x4, x9
    8d8c: ba0b01ef     	adcs	x15, x15, x11
    8d90: 9b0a7c8b     	mul	x11, x4, x10
    8d94: ba0b0210     	adcs	x16, x16, x11
    8d98: 9bca7c83     	umulh	x3, x4, x10
    8d9c: 9a1f0063     	adc	x3, x3, xzr
    8da0: 9bc77c8b     	umulh	x11, x4, x7
    8da4: ab0b01ce     	adds	x14, x14, x11
    8da8: 9bc87c8b     	umulh	x11, x4, x8
    8dac: ba0b01ef     	adcs	x15, x15, x11
    8db0: 9bc97c8b     	umulh	x11, x4, x9
    8db4: ba0b0210     	adcs	x16, x16, x11
    8db8: 9a1f0063     	adc	x3, x3, xzr
    8dbc: 9b077cab     	mul	x11, x5, x7
    8dc0: ab0b01ce     	adds	x14, x14, x11
    8dc4: 9b087cab     	mul	x11, x5, x8
    8dc8: ba0b01ef     	adcs	x15, x15, x11
    8dcc: 9b097cab     	mul	x11, x5, x9
    8dd0: ba0b0210     	adcs	x16, x16, x11
    8dd4: 9b0a7cab     	mul	x11, x5, x10
    8dd8: ba0b0063     	adcs	x3, x3, x11
    8ddc: 9bca7ca4     	umulh	x4, x5, x10
    8de0: 9a1f0084     	adc	x4, x4, xzr
    8de4: 9bc77cab     	umulh	x11, x5, x7
    8de8: ab0b01ef     	adds	x15, x15, x11
    8dec: 9bc87cab     	umulh	x11, x5, x8
    8df0: ba0b0210     	adcs	x16, x16, x11
    8df4: 9bc97cab     	umulh	x11, x5, x9
    8df8: ba0b0063     	adcs	x3, x3, x11
    8dfc: 9a1f0084     	adc	x4, x4, xzr
    8e00: 9b077ccb     	mul	x11, x6, x7
    8e04: ab0b01ef     	adds	x15, x15, x11
    8e08: 9b087ccb     	mul	x11, x6, x8
    8e0c: ba0b0210     	adcs	x16, x16, x11
    8e10: 9b097ccb     	mul	x11, x6, x9
    8e14: ba0b0063     	adcs	x3, x3, x11
    8e18: 9b0a7ccb     	mul	x11, x6, x10
    8e1c: ba0b0084     	adcs	x4, x4, x11
    8e20: 9bca7cc5     	umulh	x5, x6, x10
    8e24: 9a1f00a5     	adc	x5, x5, xzr
    8e28: 9bc77ccb     	umulh	x11, x6, x7
    8e2c: ab0b0210     	adds	x16, x16, x11
    8e30: 9bc87ccb     	umulh	x11, x6, x8
    8e34: ba0b0063     	adcs	x3, x3, x11
    8e38: 9bc97ccb     	umulh	x11, x6, x9
    8e3c: ba0b0084     	adcs	x4, x4, x11
    8e40: 9a1f00a5     	adc	x5, x5, xzr
    8e44: d28004c7     	mov	x7, #0x26               // =38
    8e48: 9b107ceb     	mul	x11, x7, x16
    8e4c: 9bd07ce9     	umulh	x9, x7, x16
    8e50: ab0b018c     	adds	x12, x12, x11
    8e54: 9b037ceb     	mul	x11, x7, x3
    8e58: 9bc37ce3     	umulh	x3, x7, x3
    8e5c: ba0b01ad     	adcs	x13, x13, x11
    8e60: 9b047ceb     	mul	x11, x7, x4
    8e64: 9bc47ce4     	umulh	x4, x7, x4
    8e68: ba0b01ce     	adcs	x14, x14, x11
    8e6c: 9b057ceb     	mul	x11, x7, x5
    8e70: 9bc57ce5     	umulh	x5, x7, x5
    8e74: ba0b01ef     	adcs	x15, x15, x11
    8e78: 9a9f37f0     	cset	x16, hs
    8e7c: ab0401ef     	adds	x15, x15, x4
    8e80: 9a050210     	adc	x16, x16, x5
    8e84: ab0f01ff     	cmn	x15, x15
    8e88: 9240f9ef     	and	x15, x15, #0x7fffffffffffffff
    8e8c: 9a100208     	adc	x8, x16, x16
    8e90: d2800267     	mov	x7, #0x13               // =19
    8e94: 9b087ceb     	mul	x11, x7, x8
    8e98: ab0b018c     	adds	x12, x12, x11
    8e9c: ba0901ad     	adcs	x13, x13, x9
    8ea0: ba0301ce     	adcs	x14, x14, x3
    8ea4: 9a1f01ef     	adc	x15, x15, xzr
    8ea8: a90636cc     	stp	x12, x13, [x22, #0x60]
    8eac: a9073ece     	stp	x14, x15, [x22, #0x70]
    8eb0: 910303ff     	add	sp, sp, #0xc0
    8eb4: d65f03c0     	ret

0000000000008eb8 <msg_schedule>:
    8eb8: d2800003     	mov	x3, #0x0                // =0
    8ebc: 39400025     	ldrb	w5, [x1]
    8ec0: d2800002     	mov	x2, #0x0                // =0
    8ec4: 91002021     	add	x1, x1, #0x8
    8ec8: 385f9024     	ldurb	w4, [x1, #-0x7]
    8ecc: 385fa026     	ldurb	w6, [x1, #-0x6]
    8ed0: b3401ca2     	bfxil	x2, x5, #0, #8
    8ed4: 385fb025     	ldurb	w5, [x1, #-0x5]
    8ed8: b3781c82     	bfi	x2, x4, #8, #8
    8edc: 385fc024     	ldurb	w4, [x1, #-0x4]
    8ee0: b3701cc2     	bfi	x2, x6, #16, #8
    8ee4: 385fd026     	ldurb	w6, [x1, #-0x3]
    8ee8: b3681ca2     	bfi	x2, x5, #24, #8
    8eec: 385fe025     	ldurb	w5, [x1, #-0x2]
    8ef0: b3601c82     	bfi	x2, x4, #32, #8
    8ef4: 385ff024     	ldurb	w4, [x1, #-0x1]
    8ef8: b3581cc2     	bfi	x2, x6, #40, #8
    8efc: b3501ca2     	bfi	x2, x5, #48, #8
    8f00: b3481c82     	bfi	x2, x4, #56, #8
    8f04: dac00c42     	rev	x2, x2
    8f08: f8237802     	str	x2, [x0, x3, lsl #3]
    8f0c: 91000463     	add	x3, x3, #0x1
    8f10: f100407f     	cmp	x3, #0x10
    8f14: 54fffd41     	b.ne	0x8ebc <msg_schedule+0x4>
    8f18: aa0003e2     	mov	x2, x0
    8f1c: 9108200b     	add	x11, x0, #0x208
    8f20: a9452009     	ldp	x9, x8, [x0, #0x50]
    8f24: a9461807     	ldp	x7, x6, [x0, #0x60]
    8f28: a9470003     	ldp	x3, x0, [x0, #0x70]
    8f2c: f940244a     	ldr	x10, [x2, #0x48]
    8f30: f8408444     	ldr	x4, [x2], #0x8
    8f34: 8b0a0085     	add	x5, x4, x10
    8f38: 93c3f461     	ror	x1, x3, #0x3d
    8f3c: f9400044     	ldr	x4, [x2]
    8f40: cac34c21     	eor	x1, x1, x3, ror #19
    8f44: aa0903ea     	mov	x10, x9
    8f48: aa0803e9     	mov	x9, x8
    8f4c: aa0703e8     	mov	x8, x7
    8f50: ca431821     	eor	x1, x1, x3, lsr #6
    8f54: aa0603e7     	mov	x7, x6
    8f58: aa0303e6     	mov	x6, x3
    8f5c: aa0003e3     	mov	x3, x0
    8f60: 91002042     	add	x2, x2, #0x8
    8f64: 93c42080     	ror	x0, x4, #0x8
    8f68: cac40400     	eor	x0, x0, x4, ror #1
    8f6c: ca441c00     	eor	x0, x0, x4, lsr #7
    8f70: 8b010000     	add	x0, x0, x1
    8f74: 8b050000     	add	x0, x0, x5
    8f78: f9003840     	str	x0, [x2, #0x70]
    8f7c: eb02017f     	cmp	x11, x2
    8f80: 54fffda1     	b.ne	0x8f34 <msg_schedule+0x7c>
    8f84: d65f03c0     	ret

0000000000008f88 <sha512_process_block>:
    8f88: d10b43ff     	sub	sp, sp, #0x2d0
    8f8c: aa0003ec     	mov	x12, x0
    8f90: 910143e0     	add	x0, sp, #0x50
    8f94: a9007bfd     	stp	x29, x30, [sp]
    8f98: 910003fd     	mov	x29, sp
    8f9c: 97ffffc7     	bl	0x8eb8 <msg_schedule>
    8fa0: f2400d9f     	tst	x12, #0xf
    8fa4: 54000961     	b.ne	0x90d0 <sha512_process_block+0x148>
    8fa8: a9401d86     	ldp	x6, x7, [x12]
    8fac: a9411584     	ldp	x4, x5, [x12, #0x10]
    8fb0: a9420d82     	ldp	x2, x3, [x12, #0x20]
    8fb4: a9430580     	ldp	x0, x1, [x12, #0x30]
    8fb8: a9011fe6     	stp	x6, x7, [sp, #0x10]
    8fbc: a90217e4     	stp	x4, x5, [sp, #0x20]
    8fc0: a9030fe2     	stp	x2, x3, [sp, #0x30]
    8fc4: a90407e0     	stp	x0, x1, [sp, #0x40]
    8fc8: 9000000e     	adrp	x14, 0x8000 <edwards25519_scalarmuldouble_alt_epadd+0xd18>
    8fcc: d2800026     	mov	x6, #0x1                // =1
    8fd0: 910001ce     	add	x14, x14, #0x0
    8fd4: a94123e5     	ldp	x5, x8, [sp, #0x10]
    8fd8: a94237e7     	ldp	x7, x13, [sp, #0x20]
    8fdc: a9432be3     	ldp	x3, x10, [sp, #0x30]
    8fe0: a9442fe9     	ldp	x9, x11, [sp, #0x40]
    8fe4: 14000007     	b	0x9000 <sha512_process_block+0x78>
    8fe8: aa0803e7     	mov	x7, x8
    8fec: aa0a03e9     	mov	x9, x10
    8ff0: aa0503e8     	mov	x8, x5
    8ff4: aa0303ea     	mov	x10, x3
    8ff8: aa0003e5     	mov	x5, x0
    8ffc: aa0203e3     	mov	x3, x2
    9000: d37df0c1     	lsl	x1, x6, #3
    9004: 910143e4     	add	x4, sp, #0x50
    9008: 93c34860     	ror	x0, x3, #0x12
    900c: 8b0101c2     	add	x2, x14, x1
    9010: 8b01008f     	add	x15, x4, x1
    9014: cac33800     	eor	x0, x0, x3, ror #14
    9018: 93c588a1     	ror	x1, x5, #0x22
    901c: f85f8050     	ldur	x16, [x2, #-0x8]
    9020: cac57021     	eor	x1, x1, x5, ror #28
    9024: 8a230124     	bic	x4, x9, x3
    9028: cac3a400     	eor	x0, x0, x3, ror #41
    902c: 8a0a0072     	and	x18, x3, x10
    9030: ca0800e2     	eor	x2, x7, x8
    9034: f85f81f1     	ldur	x17, [x15, #-0x8]
    9038: ca120084     	eor	x4, x4, x18
    903c: cac59c21     	eor	x1, x1, x5, ror #39
    9040: 8b040000     	add	x0, x0, x4
    9044: 8a050042     	and	x2, x2, x5
    9048: 8a0800e4     	and	x4, x7, x8
    904c: 910004c6     	add	x6, x6, #0x1
    9050: ca040042     	eor	x2, x2, x4
    9054: 8b020021     	add	x1, x1, x2
    9058: 8b110202     	add	x2, x16, x17
    905c: 8b020000     	add	x0, x0, x2
    9060: 8b0b0000     	add	x0, x0, x11
    9064: aa0903eb     	mov	x11, x9
    9068: 8b0001a2     	add	x2, x13, x0
    906c: 8b010000     	add	x0, x0, x1
    9070: aa0703ed     	mov	x13, x7
    9074: f10144df     	cmp	x6, #0x51
    9078: 54fffb81     	b.ne	0x8fe8 <sha512_process_block+0x60>
    907c: a9401186     	ldp	x6, x4, [x12]
    9080: a9407bfd     	ldp	x29, x30, [sp]
    9084: 8b0000c6     	add	x6, x6, x0
    9088: 8b050084     	add	x4, x4, x5
    908c: a9419580     	ldp	x0, x5, [x12, #0x18]
    9090: a9001186     	stp	x6, x4, [x12]
    9094: 8b070000     	add	x0, x0, x7
    9098: 8b0200a5     	add	x5, x5, x2
    909c: f9400981     	ldr	x1, [x12, #0x10]
    90a0: f9001185     	str	x5, [x12, #0x20]
    90a4: 8b080021     	add	x1, x1, x8
    90a8: a9010181     	stp	x1, x0, [x12, #0x10]
    90ac: a9428584     	ldp	x4, x1, [x12, #0x28]
    90b0: f9401d80     	ldr	x0, [x12, #0x38]
    90b4: 8b030082     	add	x2, x4, x3
    90b8: 8b0a0021     	add	x1, x1, x10
    90bc: a9028582     	stp	x2, x1, [x12, #0x28]
    90c0: 8b090000     	add	x0, x0, x9
    90c4: f9001d80     	str	x0, [x12, #0x38]
    90c8: 910b43ff     	add	sp, sp, #0x2d0
    90cc: d65f03c0     	ret
    90d0: a9400181     	ldp	x1, x0, [x12]
    90d4: f9400982     	ldr	x2, [x12, #0x10]
    90d8: a90103e1     	stp	x1, x0, [sp, #0x10]
    90dc: a9418181     	ldp	x1, x0, [x12, #0x18]
    90e0: f90013e2     	str	x2, [sp, #0x20]
    90e4: f9401582     	ldr	x2, [x12, #0x28]
    90e8: a90283e1     	stp	x1, x0, [sp, #0x28]
    90ec: a9430181     	ldp	x1, x0, [x12, #0x30]
    90f0: f9001fe2     	str	x2, [sp, #0x38]
    90f4: a90403e1     	stp	x1, x0, [sp, #0x40]
    90f8: 17ffffb4     	b	0x8fc8 <sha512_process_block+0x40>

00000000000090fc <sha512_process_blocks>:
    90fc: b4000262     	cbz	x2, 0x9148 <sha512_process_blocks+0x4c>
    9100: a9bd7bfd     	stp	x29, x30, [sp, #-0x30]!
    9104: 910003fd     	mov	x29, sp
    9108: a90153f3     	stp	x19, x20, [sp, #0x10]
    910c: aa0103f3     	mov	x19, x1
    9110: d1000454     	sub	x20, x2, #0x1
    9114: f90013f5     	str	x21, [sp, #0x20]
    9118: aa0003f5     	mov	x21, x0
    911c: aa1303e1     	mov	x1, x19
    9120: aa1503e0     	mov	x0, x21
    9124: d1000694     	sub	x20, x20, #0x1
    9128: 91020273     	add	x19, x19, #0x80
    912c: 97ffff97     	bl	0x8f88 <sha512_process_block>
    9130: b100069f     	cmn	x20, #0x1
    9134: 54ffff41     	b.ne	0x911c <sha512_process_blocks+0x20>
    9138: a94153f3     	ldp	x19, x20, [sp, #0x10]
    913c: f94013f5     	ldr	x21, [sp, #0x20]
    9140: a8c37bfd     	ldp	x29, x30, [sp], #0x30
    9144: d65f03c0     	ret
    9148: d65f03c0     	ret

000000000000914c <sha512_init>:
    914c: d2992101     	mov	x1, #0xc908             // =51464
    9150: d294e767     	mov	x7, #0xa73b             // =42811
    9154: a9047c1f     	stp	xzr, xzr, [x0, #0x40]
    9158: f2be7781     	movk	x1, #0xf3bc, lsl #16
    915c: f2b09947     	movk	x7, #0x84ca, lsl #16
    9160: f2dccce1     	movk	x1, #0xe667, lsl #32
    9164: f2d5d0a7     	movk	x7, #0xae85, lsl #32
    9168: f2ed4121     	movk	x1, #0x6a09, lsl #48
    916c: f2f76ce7     	movk	x7, #0xbb67, lsl #48
    9170: 3903401f     	strb	wzr, [x0, #0xd0]
    9174: d29f0566     	mov	x6, #0xf82b             // =63531
    9178: d286de25     	mov	x5, #0x36f1             // =14065
    917c: d2905a24     	mov	x4, #0x82d1             // =33489
    9180: d28d83e3     	mov	x3, #0x6c1f             // =27679
    9184: a9001c01     	stp	x1, x7, [x0]
    9188: d297ad62     	mov	x2, #0xbd6b             // =48491
    918c: d2842f21     	mov	x1, #0x2179             // =8569
    9190: f2bfd286     	movk	x6, #0xfe94, lsl #16
    9194: f2abe3a5     	movk	x5, #0x5f1d, lsl #16
    9198: f2b5bcc4     	movk	x4, #0xade6, lsl #16
    919c: f2a567c3     	movk	x3, #0x2b3e, lsl #16
    91a0: f2bf6822     	movk	x2, #0xfb41, lsl #16
    91a4: f2a26fc1     	movk	x1, #0x137e, lsl #16
    91a8: f2de6e46     	movk	x6, #0xf372, lsl #32
    91ac: f2dea745     	movk	x5, #0xf53a, lsl #32
    91b0: f2ca4fe4     	movk	x4, #0x527f, lsl #32
    91b4: f2cd1183     	movk	x3, #0x688c, lsl #32
    91b8: f2db3562     	movk	x2, #0xd9ab, lsl #32
    91bc: f2d9a321     	movk	x1, #0xcd19, lsl #32
    91c0: f2e78dc6     	movk	x6, #0x3c6e, lsl #48
    91c4: f2f4a9e5     	movk	x5, #0xa54f, lsl #48
    91c8: f2ea21c4     	movk	x4, #0x510e, lsl #48
    91cc: f2f360a3     	movk	x3, #0x9b05, lsl #48
    91d0: f2e3f062     	movk	x2, #0x1f83, lsl #48
    91d4: f2eb7c01     	movk	x1, #0x5be0, lsl #48
    91d8: a9011406     	stp	x6, x5, [x0, #0x10]
    91dc: a9020c04     	stp	x4, x3, [x0, #0x20]
    91e0: f9001802     	str	x2, [x0, #0x30]
    91e4: f9001c01     	str	x1, [x0, #0x38]
    91e8: d65f03c0     	ret

00000000000091ec <sha512_update>:
    91ec: a9bd7bfd     	stp	x29, x30, [sp, #-0x30]!
    91f0: 910003fd     	mov	x29, sp
    91f4: a90153f3     	stp	x19, x20, [sp, #0x10]
    91f8: f90013f5     	str	x21, [sp, #0x20]
    91fc: aa0003f5     	mov	x21, x0
    9200: aa0103f3     	mov	x19, x1
    9204: aa0203f4     	mov	x20, x2
    9208: d37df283     	lsl	x3, x20, #3
    920c: d37dfe85     	lsr	x5, x20, #61
    9210: f94022a0     	ldr	x0, [x21, #0x40]
    9214: f94026a2     	ldr	x2, [x21, #0x48]
    9218: ab030000     	adds	x0, x0, x3
    921c: 9a050042     	adc	x2, x2, x5
    9220: a9040aa0     	stp	x0, x2, [x21, #0x40]
    9224: 394342a4     	ldrb	w4, [x21, #0xd0]
    9228: b40002a4     	cbz	x4, 0x927c <sha512_update+0x90>
    922c: d2801000     	mov	x0, #0x80               // =128
    9230: cb040000     	sub	x0, x0, x4
    9234: eb14001f     	cmp	x0, x20
    9238: 54000049     	b.ls	0x9240 <sha512_update+0x54>
    923c: aa1403e0     	mov	x0, x20
    9240: 910142a1     	add	x1, x21, #0x50
    9244: aa1f03e2     	mov	x2, xzr
    9248: 14000005     	b	0x925c <sha512_update+0x70>
    924c: 38626a63     	ldrb	w3, [x19, x2]
    9250: 38246823     	strb	w3, [x1, x4]
    9254: 91000442     	add	x2, x2, #0x1
    9258: 91000484     	add	x4, x4, #0x1
    925c: eb00005f     	cmp	x2, x0
    9260: 54ffff61     	b.ne	0x924c <sha512_update+0x60>
    9264: 8b000273     	add	x19, x19, x0
    9268: cb000294     	sub	x20, x20, x0
    926c: f102009f     	cmp	x4, #0x80
    9270: 54000281     	b.ne	0x92c0 <sha512_update+0xd4>
    9274: aa1503e0     	mov	x0, x21
    9278: 97ffff44     	bl	0x8f88 <sha512_process_block>
    927c: f102029f     	cmp	x20, #0x80
    9280: 54000103     	b.lo	0x92a0 <sha512_update+0xb4>
    9284: aa1503e0     	mov	x0, x21
    9288: aa1303e1     	mov	x1, x19
    928c: d347fe82     	lsr	x2, x20, #7
    9290: d379e043     	lsl	x3, x2, #7
    9294: 8b030273     	add	x19, x19, x3
    9298: 92401a94     	and	x20, x20, #0x7f
    929c: 97ffff98     	bl	0x90fc <sha512_process_blocks>
    92a0: aa1f03e4     	mov	x4, xzr
    92a4: 910142a1     	add	x1, x21, #0x50
    92a8: 14000004     	b	0x92b8 <sha512_update+0xcc>
    92ac: 38646a62     	ldrb	w2, [x19, x4]
    92b0: 38246822     	strb	w2, [x1, x4]
    92b4: 91000484     	add	x4, x4, #0x1
    92b8: eb14009f     	cmp	x4, x20
    92bc: 54ffff81     	b.ne	0x92ac <sha512_update+0xc0>
    92c0: 390342a4     	strb	w4, [x21, #0xd0]
    92c4: a94153f3     	ldp	x19, x20, [sp, #0x10]
    92c8: f94013f5     	ldr	x21, [sp, #0x20]
    92cc: a8c37bfd     	ldp	x29, x30, [sp], #0x30
    92d0: d65f03c0     	ret

00000000000092d4 <sha512_final>:
    92d4: a9bd7bfd     	stp	x29, x30, [sp, #-0x30]!
    92d8: 910003fd     	mov	x29, sp
    92dc: a90153f3     	stp	x19, x20, [sp, #0x10]
    92e0: aa0003f4     	mov	x20, x0
    92e4: aa0103f3     	mov	x19, x1
    92e8: f90013f5     	str	x21, [sp, #0x20]
    92ec: 91014275     	add	x21, x19, #0x50
    92f0: 39434262     	ldrb	w2, [x19, #0xd0]
    92f4: 52801003     	mov	w3, #0x80               // =128
    92f8: 38226aa3     	strb	w3, [x21, x2]
    92fc: 91000442     	add	x2, x2, #0x1
    9300: f101c05f     	cmp	x2, #0x70
    9304: 54000149     	b.ls	0x932c <sha512_final+0x58>
    9308: 14000003     	b	0x9314 <sha512_final+0x40>
    930c: 38226abf     	strb	wzr, [x21, x2]
    9310: 91000442     	add	x2, x2, #0x1
    9314: f102005f     	cmp	x2, #0x80
    9318: 54ffffa1     	b.ne	0x930c <sha512_final+0x38>
    931c: aa1303e0     	mov	x0, x19
    9320: aa1503e1     	mov	x1, x21
    9324: 97ffff19     	bl	0x8f88 <sha512_process_block>
    9328: aa1f03e2     	mov	x2, xzr
    932c: 14000003     	b	0x9338 <sha512_final+0x64>
    9330: 38226abf     	strb	wzr, [x21, x2]
    9334: 91000442     	add	x2, x2, #0x1
    9338: f101c05f     	cmp	x2, #0x70
    933c: 54ffffa1     	b.ne	0x9330 <sha512_final+0x5c>
    9340: f9402660     	ldr	x0, [x19, #0x48]
    9344: dac00c00     	rev	x0, x0
    9348: f9006260     	str	x0, [x19, #0xc0]
    934c: f9402260     	ldr	x0, [x19, #0x40]
    9350: dac00c00     	rev	x0, x0
    9354: f9006660     	str	x0, [x19, #0xc8]
    9358: aa1303e0     	mov	x0, x19
    935c: aa1503e1     	mov	x1, x21
    9360: 97ffff0a     	bl	0x8f88 <sha512_process_block>
    9364: f9400260     	ldr	x0, [x19]
    9368: dac00c00     	rev	x0, x0
    936c: f9000280     	str	x0, [x20]
    9370: f9400660     	ldr	x0, [x19, #0x8]
    9374: dac00c00     	rev	x0, x0
    9378: f9000680     	str	x0, [x20, #0x8]
    937c: f9400a60     	ldr	x0, [x19, #0x10]
    9380: dac00c00     	rev	x0, x0
    9384: f9000a80     	str	x0, [x20, #0x10]
    9388: f9400e60     	ldr	x0, [x19, #0x18]
    938c: dac00c00     	rev	x0, x0
    9390: f9000e80     	str	x0, [x20, #0x18]
    9394: f9401260     	ldr	x0, [x19, #0x20]
    9398: dac00c00     	rev	x0, x0
    939c: f9001280     	str	x0, [x20, #0x20]
    93a0: f9401660     	ldr	x0, [x19, #0x28]
    93a4: dac00c00     	rev	x0, x0
    93a8: f9001680     	str	x0, [x20, #0x28]
    93ac: f9401a60     	ldr	x0, [x19, #0x30]
    93b0: dac00c00     	rev	x0, x0
    93b4: f9001a80     	str	x0, [x20, #0x30]
    93b8: f9401e60     	ldr	x0, [x19, #0x38]
    93bc: dac00c00     	rev	x0, x0
    93c0: f9001e80     	str	x0, [x20, #0x38]
    93c4: a94153f3     	ldp	x19, x20, [sp, #0x10]
    93c8: f94013f5     	ldr	x21, [sp, #0x20]
    93cc: a8c37bfd     	ldp	x29, x30, [sp], #0x30
    93d0: d65f03c0     	ret

Disassembly of section .rela.text:

0000000000000000 <.rela.text>:
       0: 0000149c     	udf	#0x149c
       4: 00000000     	udf	#0x0
       8: 00000113     	udf	#0x113
       c: 00000048     	udf	#0x48
		...
      18: 000014a0     	udf	#0x14a0
      1c: 00000000     	udf	#0x0
      20: 00000115     	udf	#0x115
      24: 00000048     	udf	#0x48
		...
      30: 00003b20     	udf	#0x3b20
      34: 00000000     	udf	#0x0
      38: 00000113     	udf	#0x113
      3c: 00000049     	udf	#0x49
		...
      48: 00003b24     	udf	#0x3b24
      4c: 00000000     	udf	#0x0
      50: 00000115     	udf	#0x115
      54: 00000049     	udf	#0x49
		...
      60: 000041d4     	udf	#0x41d4
      64: 00000000     	udf	#0x0
      68: 00000113     	udf	#0x113
      6c: 00000049     	udf	#0x49
		...
      78: 000041d8     	udf	#0x41d8
      7c: 00000000     	udf	#0x0
      80: 00000115     	udf	#0x115
      84: 00000049     	udf	#0x49
		...
      90: 00008fc8     	udf	#0x8fc8
      94: 00000000     	udf	#0x0
      98: 00000113     	udf	#0x113
      9c: 0000004a     	udf	#0x4a
		...
      a8: 00008fd0     	udf	#0x8fd0
      ac: 00000000     	udf	#0x0
      b0: 00000115     	udf	#0x115
      b4: 0000004a     	udf	#0x4a
		...

Disassembly of section .rodata:

0000000000000000 <K>:
       0: 22 ae 28 d7  	.word	0xd728ae22
       4: 98 2f 8a 42  	.word	0x428a2f98
       8: cd 65 ef 23  	.word	0x23ef65cd
       c: 91 44 37 71  	.word	0x71374491
      10: 2f 3b 4d ec  	.word	0xec4d3b2f
      14: cf fb c0 b5  	.word	0xb5c0fbcf
      18: bc db 89 81  	.word	0x8189dbbc
      1c: a5 db b5 e9  	.word	0xe9b5dba5
      20: 38 b5 48 f3  	.word	0xf348b538
      24: 5b c2 56 39  	.word	0x3956c25b
      28: 19 d0 05 b6  	.word	0xb605d019
      2c: f1 11 f1 59  	.word	0x59f111f1
      30: 9b 4f 19 af  	.word	0xaf194f9b
      34: a4 82 3f 92  	.word	0x923f82a4
      38: 18 81 6d da  	.word	0xda6d8118
      3c: d5 5e 1c ab  	.word	0xab1c5ed5
      40: 42 02 03 a3  	.word	0xa3030242
      44: 98 aa 07 d8  	.word	0xd807aa98
      48: be 6f 70 45  	.word	0x45706fbe
      4c: 01 5b 83 12  	.word	0x12835b01
      50: 8c b2 e4 4e  	.word	0x4ee4b28c
      54: be 85 31 24  	.word	0x243185be
      58: e2 b4 ff d5  	.word	0xd5ffb4e2
      5c: c3 7d 0c 55  	.word	0x550c7dc3
      60: 6f 89 7b f2  	.word	0xf27b896f
      64: 74 5d be 72  	.word	0x72be5d74
      68: b1 96 16 3b  	.word	0x3b1696b1
      6c: fe b1 de 80  	.word	0x80deb1fe
      70: 35 12 c7 25  	.word	0x25c71235
      74: a7 06 dc 9b  	.word	0x9bdc06a7
      78: 94 26 69 cf  	.word	0xcf692694
      7c: 74 f1 9b c1  	.word	0xc19bf174
      80: d2 4a f1 9e  	.word	0x9ef14ad2
      84: c1 69 9b e4  	.word	0xe49b69c1
      88: e3 25 4f 38  	.word	0x384f25e3
      8c: 86 47 be ef  	.word	0xefbe4786
      90: b5 d5 8c 8b  	.word	0x8b8cd5b5
      94: c6 9d c1 0f  	.word	0x0fc19dc6
      98: 65 9c ac 77  	.word	0x77ac9c65
      9c: cc a1 0c 24  	.word	0x240ca1cc
      a0: 75 02 2b 59  	.word	0x592b0275
      a4: 6f 2c e9 2d  	.word	0x2de92c6f
      a8: 83 e4 a6 6e  	.word	0x6ea6e483
      ac: aa 84 74 4a  	.word	0x4a7484aa
      b0: d4 fb 41 bd  	.word	0xbd41fbd4
      b4: dc a9 b0 5c  	.word	0x5cb0a9dc
      b8: b5 53 11 83  	.word	0x831153b5
      bc: da 88 f9 76  	.word	0x76f988da
      c0: ab df 66 ee  	.word	0xee66dfab
      c4: 52 51 3e 98  	.word	0x983e5152
      c8: 10 32 b4 2d  	.word	0x2db43210
      cc: 6d c6 31 a8  	.word	0xa831c66d
      d0: 3f 21 fb 98  	.word	0x98fb213f
      d4: c8 27 03 b0  	.word	0xb00327c8
      d8: e4 0e ef be  	.word	0xbeef0ee4
      dc: c7 7f 59 bf  	.word	0xbf597fc7
      e0: c2 8f a8 3d  	.word	0x3da88fc2
      e4: f3 0b e0 c6  	.word	0xc6e00bf3
      e8: 25 a7 0a 93  	.word	0x930aa725
      ec: 47 91 a7 d5  	.word	0xd5a79147
      f0: 6f 82 03 e0  	.word	0xe003826f
      f4: 51 63 ca 06  	.word	0x06ca6351
      f8: 70 6e 0e 0a  	.word	0x0a0e6e70
      fc: 67 29 29 14  	.word	0x14292967
     100: fc 2f d2 46  	.word	0x46d22ffc
     104: 85 0a b7 27  	.word	0x27b70a85
     108: 26 c9 26 5c  	.word	0x5c26c926
     10c: 38 21 1b 2e  	.word	0x2e1b2138
     110: ed 2a c4 5a  	.word	0x5ac42aed
     114: fc 6d 2c 4d  	.word	0x4d2c6dfc
     118: df b3 95 9d  	.word	0x9d95b3df
     11c: 13 0d 38 53  	.word	0x53380d13
     120: de 63 af 8b  	.word	0x8baf63de
     124: 54 73 0a 65  	.word	0x650a7354
     128: a8 b2 77 3c  	.word	0x3c77b2a8
     12c: bb 0a 6a 76  	.word	0x766a0abb
     130: e6 ae ed 47  	.word	0x47edaee6
     134: 2e c9 c2 81  	.word	0x81c2c92e
     138: 3b 35 82 14  	.word	0x1482353b
     13c: 85 2c 72 92  	.word	0x92722c85
     140: 64 03 f1 4c  	.word	0x4cf10364
     144: a1 e8 bf a2  	.word	0xa2bfe8a1
     148: 01 30 42 bc  	.word	0xbc423001
     14c: 4b 66 1a a8  	.word	0xa81a664b
     150: 91 97 f8 d0  	.word	0xd0f89791
     154: 70 8b 4b c2  	.word	0xc24b8b70
     158: 30 be 54 06  	.word	0x0654be30
     15c: a3 51 6c c7  	.word	0xc76c51a3
     160: 18 52 ef d6  	.word	0xd6ef5218
     164: 19 e8 92 d1  	.word	0xd192e819
     168: 10 a9 65 55  	.word	0x5565a910
     16c: 24 06 99 d6  	.word	0xd6990624
     170: 2a 20 71 57  	.word	0x5771202a
     174: 85 35 0e f4  	.word	0xf40e3585
     178: b8 d1 bb 32  	.word	0x32bbd1b8
     17c: 70 a0 6a 10  	.word	0x106aa070
     180: c8 d0 d2 b8  	.word	0xb8d2d0c8
     184: 16 c1 a4 19  	.word	0x19a4c116
     188: 53 ab 41 51  	.word	0x5141ab53
     18c: 08 6c 37 1e  	.word	0x1e376c08
     190: 99 eb 8e df  	.word	0xdf8eeb99
     194: 4c 77 48 27  	.word	0x2748774c
     198: a8 48 9b e1  	.word	0xe19b48a8
     19c: b5 bc b0 34  	.word	0x34b0bcb5
     1a0: 63 5a c9 c5  	.word	0xc5c95a63
     1a4: b3 0c 1c 39  	.word	0x391c0cb3
     1a8: cb 8a 41 e3  	.word	0xe3418acb
     1ac: 4a aa d8 4e  	.word	0x4ed8aa4a
     1b0: 73 e3 63 77  	.word	0x7763e373
     1b4: 4f ca 9c 5b  	.word	0x5b9cca4f
     1b8: a3 b8 b2 d6  	.word	0xd6b2b8a3
     1bc: f3 6f 2e 68  	.word	0x682e6ff3
     1c0: fc b2 ef 5d  	.word	0x5defb2fc
     1c4: ee 82 8f 74  	.word	0x748f82ee
     1c8: 60 2f 17 43  	.word	0x43172f60
     1cc: 6f 63 a5 78  	.word	0x78a5636f
     1d0: 72 ab f0 a1  	.word	0xa1f0ab72
     1d4: 14 78 c8 84  	.word	0x84c87814
     1d8: ec 39 64 1a  	.word	0x1a6439ec
     1dc: 08 02 c7 8c  	.word	0x8cc70208
     1e0: 28 1e 63 23  	.word	0x23631e28
     1e4: fa ff be 90  	.word	0x90befffa
     1e8: e9 bd 82 de  	.word	0xde82bde9
     1ec: eb 6c 50 a4  	.word	0xa4506ceb
     1f0: 15 79 c6 b2  	.word	0xb2c67915
     1f4: f7 a3 f9 be  	.word	0xbef9a3f7
     1f8: 2b 53 72 e3  	.word	0xe372532b
     1fc: f2 78 71 c6  	.word	0xc67178f2
     200: 9c 61 26 ea  	.word	0xea26619c
     204: ce 3e 27 ca  	.word	0xca273ece
     208: 07 c2 c0 21  	.word	0x21c0c207
     20c: c7 b8 86 d1  	.word	0xd186b8c7
     210: 1e eb e0 cd  	.word	0xcde0eb1e
     214: d6 7d da ea  	.word	0xeada7dd6
     218: 78 d1 6e ee  	.word	0xee6ed178
     21c: 7f 4f 7d f5  	.word	0xf57d4f7f
     220: ba 6f 17 72  	.word	0x72176fba
     224: aa 67 f0 06  	.word	0x06f067aa
     228: a6 98 c8 a2  	.word	0xa2c898a6
     22c: c5 7d 63 0a  	.word	0x0a637dc5
     230: ae 0d f9 be  	.word	0xbef90dae
     234: 04 98 3f 11  	.word	0x113f9804
     238: 1b 47 1c 13  	.word	0x131c471b
     23c: 35 0b 71 1b  	.word	0x1b710b35
     240: 84 7d 04 23  	.word	0x23047d84
     244: f5 77 db 28  	.word	0x28db77f5
     248: 93 24 c7 40  	.word	0x40c72493
     24c: 7b ab ca 32  	.word	0x32caab7b
     250: bc be c9 15  	.word	0x15c9bebc
     254: 0a be 9e 3c  	.word	0x3c9ebe0a
     258: 4c 0d 10 9c  	.word	0x9c100d4c
     25c: c4 67 1d 43  	.word	0x431d67c4
     260: b6 42 3e cb  	.word	0xcb3e42b6
     264: be d4 c5 4c  	.word	0x4cc5d4be
     268: 2a 7e 65 fc  	.word	0xfc657e2a
     26c: 9c 29 7f 59  	.word	0x597f299c
     270: ec fa d6 3a  	.word	0x3ad6faec
     274: ab 6f cb 5f  	.word	0x5fcb6fab
     278: 17 58 47 4a  	.word	0x4a475817
     27c: 8c 19 44 6c  	.word	0x6c44198c

0000000000000280 <edwards25519_scalarmulbase_alt_constant>:
     280: 00 00 00 00  	.word	0x00000000
     284: 00 00 00 00  	.word	0x00000000
     288: 00 00 00 00  	.word	0x00000000
     28c: 00 00 00 00  	.word	0x00000000
     290: 00 00 00 00  	.word	0x00000000
     294: 00 00 00 00  	.word	0x00000000
     298: 00 00 00 00  	.word	0x00000000
     29c: 00 00 00 00  	.word	0x00000000
     2a0: 01 00 00 00  	.word	0x00000001
     2a4: 00 00 00 00  	.word	0x00000000
     2a8: 00 00 00 00  	.word	0x00000000
     2ac: 00 00 00 00  	.word	0x00000000
     2b0: 00 00 00 00  	.word	0x00000000
     2b4: 00 00 00 00  	.word	0x00000000
     2b8: 00 00 00 00  	.word	0x00000000
     2bc: 00 00 00 00  	.word	0x00000000
     2c0: 00 00 00 00  	.word	0x00000000
     2c4: 00 00 00 00  	.word	0x00000000
     2c8: 00 00 00 00  	.word	0x00000000
     2cc: 00 00 00 00  	.word	0x00000000
     2d0: 00 00 00 00  	.word	0x00000000
     2d4: 00 00 00 00  	.word	0x00000000
     2d8: 00 00 00 00  	.word	0x00000000
     2dc: 00 00 00 00  	.word	0x00000000
     2e0: e7 20 72 7c  	.word	0x7c7220e7
     2e4: 6d 94 5f 52  	.word	0x525f946d
     2e8: 44 54 e3 f1  	.word	0xf1e35444
     2ec: b2 b0 36 46  	.word	0x4636b0b2
     2f0: 0f ae 92 e8  	.word	0xe892ae0f
     2f4: 70 9d 6e 79  	.word	0x796e9d70
     2f8: b1 ad 37 a9  	.word	0xa937adb1
     2fc: 5f c0 de 03  	.word	0x03dec05f
     300: 15 55 37 c6  	.word	0xc6375515
     304: 1c 27 1c 6d  	.word	0x6d1c271c
     308: 14 4f ca a4  	.word	0xa4ca4f14
     30c: c4 88 25 46  	.word	0x462588c4
     310: 39 fc 5a e5  	.word	0xe55afc39
     314: fe 29 11 69  	.word	0x691129fe
     318: f5 72 84 4d  	.word	0x4d8472f5
     31c: 78 9f 94 15  	.word	0x15949f78
     320: 49 00 ad af  	.word	0xafad0049
     324: 10 e5 89 bd  	.word	0xbd89e510
     328: 0e 86 b9 73  	.word	0x73b9860e
     32c: c0 08 1f 4d  	.word	0x4d1f08c0
     330: 9d af 00 2d  	.word	0x2d00af9d
     334: 8b 6e 71 07  	.word	0x07716e8b
     338: 14 97 85 8f  	.word	0x8f859714
     33c: f6 85 d6 70  	.word	0x70d685f6

0000000000000340 <edwards25519_scalarmuldouble_alt_constant>:
     340: 3e 91 40 d7  	.word	0xd740913e
     344: 05 39 10 9d  	.word	0x9d103905
     348: b3 be 40 d1  	.word	0xd140beb3
     34c: 05 9f 39 fd  	.word	0xfd399f05
     350: 09 8a 8f 68  	.word	0x688f8a09
     354: 34 84 c1 a5  	.word	0xa5c18434
     358: 67 12 f8 98  	.word	0x98f81267
     35c: 92 2f fd 44  	.word	0x44fd2f92
     360: 85 3b 8c f5  	.word	0xf58c3b85
     364: c6 93 bc 2f  	.word	0x2fbc93c6
     368: 19 0e 8c fb  	.word	0xfb8c0e19
     36c: c6 2d 93 cf  	.word	0xcf932dc6
     370: c2 42 3d 64  	.word	0x643d42c2
     374: 98 48 0b 27  	.word	0x270b4898
     378: 65 ba d4 33  	.word	0x33d4ba65
     37c: 3a 9d cf 07  	.word	0x07cf9d3a
     380: 68 aa 7a 87  	.word	0x877aaa68
     384: 05 12 c9 ab  	.word	0xabc91205
     388: 9e c4 aa cc  	.word	0xccaac49e
     38c: 23 e8 d9 26  	.word	0x26d9e823
     390: 8c 59 43 dd  	.word	0xdd43598c
     394: cb 7d 1b 5a  	.word	0x5a1b7dcb
     398: a8 65 0c 9f  	.word	0x9f0c65a8
     39c: 68 7b 11 6f  	.word	0x6f117b68
     3a0: a8 d5 b4 42  	.word	0x42b4d5a8
     3a4: 60 a5 99 8a  	.word	0x8a99a560
     3a8: f6 ac 60 4e  	.word	0x4e60acf6
     3ac: 0c 81 2b 8f  	.word	0x8f2b810c
     3b0: aa 37 6e b1  	.word	0xb16e37aa
     3b4: 6b 23 9e e0  	.word	0xe09e236b
     3b8: 55 25 c9 69  	.word	0x69c92555
     3bc: a6 95 b5 6b  	.word	0x6bb595a6
     3c0: d7 71 3c 93  	.word	0x933c71d7
     3c4: fc e7 24 92  	.word	0x9224e7fc
     3c8: b5 f5 0f 7a  	.word	0x7a0ff5b5
     3cc: 96 9d 46 9f  	.word	0x9f469d96
     3d0: 02 07 d6 e1  	.word	0xe1d60702
     3d4: 65 9a a6 5a  	.word	0x5aa69a65
     3d8: 2e 2e 7d a8  	.word	0xa87d2e2e
     3dc: 3f 06 0c 59  	.word	0x590c063f
     3e0: 5f 7a 9b a5  	.word	0xa59b7a5f
     3e4: b3 a8 fa 43  	.word	0x43faa8b3
     3e8: 78 cf 9a 5d  	.word	0x5d9acf78
     3ec: dd 6b c1 36  	.word	0x36c16bdd
     3f0: 31 6a 3d 0b  	.word	0x0b3d6a31
     3f4: 84 a0 0f 50  	.word	0x500fa084
     3f8: 73 0b a5 3e  	.word	0x3ea50b73
     3fc: b1 f5 1a 70  	.word	0x701af5b1
     400: 65 d2 fc a4  	.word	0xa4fcd265
     404: e8 1f 61 56  	.word	0x56611fe8
     408: 7d ba c1 e5  	.word	0xe5c1ba7d
     40c: fd 53 d3 3b  	.word	0x3bd353fd
     410: bd d6 4b 21  	.word	0x214bd6bd
     414: 1a f3 31 81  	.word	0x8131f31a
     418: 62 da 5b 55  	.word	0x555bda62
     41c: 87 15 b9 2a  	.word	0x2ab91587
     420: 30 97 ee 4c  	.word	0x4cee9730
     424: a8 b0 25 af  	.word	0xaf25b0a8
     428: 8a 4b 86 e8  	.word	0xe8864b8a
     42c: 30 84 5a 02  	.word	0x025a8430
     430: 32 67 01 9f  	.word	0x9f016732
     434: 02 50 1b c1  	.word	0xc11b5002
     438: f4 f8 80 9a  	.word	0x9a80f8f4
     43c: 1b 4e 16 7a  	.word	0x7a164e1b
     440: 89 d8 d0 0d  	.word	0x0dd0d889
     444: 3f 93 ae 14  	.word	0x14ae933f
     448: 62 da 35 1c  	.word	0x1c35da62
     44c: 22 23 94 58  	.word	0x58942322
     450: 4c db f2 8c  	.word	0x8cf2db4c
     454: 45 e5 70 d1  	.word	0xd170e545
     458: c6 b4 b9 12  	.word	0x12b9b4c6
     45c: af 26 28 5a  	.word	0x5a2826af
     460: bf 18 68 05  	.word	0x056818bf
     464: 0a 05 fe 95  	.word	0x95fe050a
     468: a9 fa 60 56  	.word	0x5660faa9
     46c: 71 89 7e 32  	.word	0x327e8971
     470: 73 50 a0 06  	.word	0x06a05073
     474: cd e3 e8 c3  	.word	0xc3e8e3cd
     478: 9a a4 45 74  	.word	0x7445a49a
     47c: 4c 3f 93 27  	.word	0x27933f4c
     480: 9f 09 fc 8e  	.word	0x8efc099f
     484: b9 51 73 28  	.word	0x287351b9
     488: 38 25 fd 7d  	.word	0x7dfd2538
     48c: f4 c6 65 67  	.word	0x6765c6f4
     490: 65 92 0a fb  	.word	0xfb0a9265
     494: 3d 8d 34 ca  	.word	0xca348d3d
     498: 27 87 e5 21  	.word	0x21e58727
     49c: 03 91 0e 68  	.word	0x680e9103
     4a0: 09 ff 76 c4  	.word	0xc476ff09
     4a4: e9 fb 13 5a  	.word	0x5a13fbe9
     4a8: 72 c1 5c 7b  	.word	0x7b5cc172
     4ac: 45 39 9e 6e  	.word	0x6e9e3945
     4b0: 94 44 2b 10  	.word	0x102b4494
     4b4: f9 dc db 5d  	.word	0x5ddbdcf9
     4b8: 2b 3e 55 63  	.word	0x63553e2b
     4bc: bf 0c 9d 7f  	.word	0x7f9d0cbf
     4c0: ba d6 47 a4  	.word	0xa447d6ba
     4c4: c3 82 91 7f  	.word	0x7f9182c3
     4c8: b7 29 27 4b  	.word	0x4b2729b7
     4cc: d1 14 00 d5  	.word	0xd50014d1
     4d0: 87 a0 64 b8  	.word	0xb864a087
     4d4: 1c f1 3c e3  	.word	0xe33cf11c
     4d8: f3 55 1b eb  	.word	0xeb1b55f3
     4dc: 73 7e 4a 15  	.word	0x154a7e73
     4e0: 33 bb a5 08  	.word	0x08a5bb33
     4e4: 44 bc 12 a2  	.word	0xa212bc44
     4e8: 02 ed 5e c7  	.word	0xc75eed02
     4ec: c3 48 50 8d  	.word	0x8d5048c3
     4f0: 44 ec bf 5a  	.word	0x5abfec44
     4f4: 0c eb 1b dd  	.word	0xdd1beb0c
     4f8: eb 06 e2 46  	.word	0x46e206eb
     4fc: f1 cc 45 29  	.word	0x2945ccf1
     500: 85 82 2a 81  	.word	0x812a8285
     504: f1 db bb bc  	.word	0xbcbbdbf1
     508: fc d1 bd d0  	.word	0xd0bdd1fc
     50c: 07 08 0e 27  	.word	0x270e0807
     510: 2d a7 bd 1b  	.word	0x1bbda72d
     514: 0b 67 1b b4  	.word	0xb41b670b
     518: 9a b6 3b 6b  	.word	0x6b3bb69a
     51c: 69 be aa 43  	.word	0x43aabe69
     520: a4 8c 7d 7b  	.word	0x7b7d8ca4
     524: b6 06 98 49  	.word	0x499806b6
     528: 39 27 d2 27  	.word	0x27d22739
     52c: 84 e2 5b 57  	.word	0x575be284
     530: b9 53 45 20  	.word	0x204553b9
     534: e7 5c 08 bb  	.word	0xbb085ce7
     538: 84 78 41 ae  	.word	0xae417884
     53c: 41 4c b6 38  	.word	0x38b64c41
     540: 31 71 15 77  	.word	0x77157131
     544: eb ee 0c 3a  	.word	0x3a0ceeeb
     548: 88 af c8 00  	.word	0x00c8af88
     54c: 89 15 27 9b  	.word	0x9b271589
     550: 36 a7 59 da  	.word	0xda59a736
     554: 68 b6 65 80  	.word	0x8065b668
     558: bd 38 cc a2  	.word	0xa2cc38bd
     55c: b6 7b e5 51  	.word	0x51e57bb6
     560: 71 4b ea 02  	.word	0x02ea4b71
     564: 67 32 ac 85  	.word	0x85ac3267
     568: 01 bb a1 41  	.word	0x41a1bb01
     56c: 03 e0 70 be  	.word	0xbe70e003
     570: 44 c1 3b 08  	.word	0x083bc144
     574: 4b a2 e4 53  	.word	0x53e4a24b
     578: e3 61 0d 9f  	.word	0x9f0d61e3
     57c: 1a e9 b8 10  	.word	0x10b8e91a
     580: b1 21 32 aa  	.word	0xaa3221b1
     584: 9a 2c 6f ba  	.word	0xba6f2c9a
     588: a7 23 ba 3b  	.word	0x3bba23a7
     58c: 53 21 a0 6c  	.word	0x6ca02153
     590: 3a 2c 19 92  	.word	0x92192c3a
     594: 4f 76 ea 9d  	.word	0x9dea764f
     598: e0 17 53 2e  	.word	0x2e5317e0
     59c: 5d dd 6e 1d  	.word	0x1d6edd5d
     5a0: bf a3 4e 94  	.word	0x944ea3bf
     5a4: d0 5c 1a 6b  	.word	0x6b1a5cd0
     5a8: d2 c0 9d b3  	.word	0xb39dc0d2
     5ac: 3a 35 70 74  	.word	0x7470353a
     5b0: 49 2e 54 28  	.word	0x28542e49
     5b4: 82 52 b2 71  	.word	0x71b25282
     5b8: 7e 92 3c 28  	.word	0x283c927e
     5bc: 69 ea 1b 46  	.word	0x461bea69
     5c0: a2 b3 b8 01  	.word	0x01b8b3a2
     5c4: c8 6d 83 f1  	.word	0xf1836dc8
     5c8: 9a a4 3e 05  	.word	0x053ea49a
     5cc: 47 5f 03 b3  	.word	0xb3035f47
     5d0: f3 ad 77 58  	.word	0x5877adf3
     5d4: ba 41 9c 52  	.word	0x529c41ba
     5d8: a7 90 0f 6a  	.word	0x6a0f90a7
     5dc: 1c bb 9f 7a  	.word	0x7a9fbb1c
     5e0: d9 34 92 f3  	.word	0xf39234d9
     5e4: ed 5d a7 e2  	.word	0xe2a75ded
     5e8: f9 58 b5 e1  	.word	0xe1b558f9
     5ec: 80 76 3d 96  	.word	0x963d7680
     5f0: fb 23 3c 6e  	.word	0x6e3c23fb
     5f4: ac 41 27 2c  	.word	0x2c2741ac
     5f8: c3 01 0e 32  	.word	0x320e01c3
     5fc: a1 24 90 3a  	.word	0x3a9024a1
     600: 8f 3e dd 04  	.word	0x04dd3e8f
     604: 66 59 b7 59  	.word	0x59b75966
     608: 2c 70 88 e2  	.word	0xe288702c
     60c: 77 03 b3 6c  	.word	0x6cb30377
     610: 23 c3 d9 5e  	.word	0x5ed9c323
     614: 66 9c 33 b1  	.word	0xb1339c66
     618: 2f e5 bc 61  	.word	0x61bce52f
     61c: 60 e7 15 09  	.word	0x0915e760
     620: 1a 91 a2 c9  	.word	0xc9a2911a
     624: d9 f5 c1 e7  	.word	0xe7c1f5d9
     628: d7 a7 cc 8b  	.word	0x8bcca7d7
     62c: 78 71 a3 b8  	.word	0xb8a37178
     630: 32 2a b6 0e  	.word	0x0eb62a32
     634: 19 12 64 63  	.word	0x63641219
     638: 95 4e cc 2e  	.word	0x2ecc4e95
     63c: 5c 7c 90 26  	.word	0x26907c5c
     640: f3 2d 3e 55  	.word	0x553e2df3
     644: ca 51 c8 7e  	.word	0x7ec851ca
     648: b3 78 48 a6  	.word	0xa64878b3
     64c: cb 84 12 a7  	.word	0xa71284cb
     650: e7 d1 88 32  	.word	0x3288d1e7
     654: 19 e4 b5 e6  	.word	0xe6b5e419
     658: 83 88 9a 5a  	.word	0x5a9a8883
     65c: ec 10 f2 4c  	.word	0x4cf210ec
     660: f6 21 90 2d  	.word	0x2d9021f6
     664: a5 04 2d 32  	.word	0x322d04a5
     668: 9c bf c6 75  	.word	0x75c6bf9c
     66c: 33 9f c1 b9  	.word	0xb9c19f33
     670: 09 0b d2 42  	.word	0x42d20b09
     674: 43 3a 7a 58  	.word	0x587a3a43
     678: 61 fe 64 aa  	.word	0xaa64fe61
     67c: f8 1c 3b 14  	.word	0x143b1cf8
     680: ab ca 8a 96  	.word	0x968acaab
     684: 7d 7c 86 9f  	.word	0x9f867c7d
     688: 29 27 09 27  	.word	0x27092729
     68c: 8e 25 54 5f  	.word	0x5f54258e
     690: 75 09 18 ea  	.word	0xea180975
     694: 4b d3 a7 d0  	.word	0xd0a7d34b
     698: e1 26 41 37  	.word	0x374126e1
     69c: a3 46 b5 21  	.word	0x21b546a3
     6a0: 43 83 88 a2  	.word	0xa2888343
     6a4: 58 f8 4f a9  	.word	0xa94ff858
     6a8: 3c ed 13 53  	.word	0x5313ed3c
     6ac: 56 d4 0e ce  	.word	0xce0ed456
     6b0: fa 34 bf b5  	.word	0xb5bf34fa
     6b4: cf 3d 5c f5  	.word	0xf55c3dcf
     6b8: 71 b3 ea c9  	.word	0xc9eab371
     6bc: a5 3c 65 0a  	.word	0x0a653ca5
     6c0: 8f 21 85 d1  	.word	0xd185218f
     6c4: 45 7a 0a 49  	.word	0x490a7a45
     6c8: 35 93 04 46  	.word	0x46049335
     6cc: 78 37 15 9a  	.word	0x9a153778
     6d0: f6 e1 31 cc  	.word	0xcc31e1f6
     6d4: 09 ea 60 00  	.word	0x0060ea09
     6d8: 65 e9 6e f8  	.word	0xf86ee965
     6dc: 77 15 04 7e  	.word	0x7e041577
     6e0: f3 67 5b ce  	.word	0xce5b67f3
     6e4: 96 a4 b2 66  	.word	0x66b2a496
     6e8: 96 97 56 bd  	.word	0xbd569796
     6ec: d8 92 54 ff  	.word	0xff5492d8
     6f0: d0 2c 59 4a  	.word	0x4a592cd0
     6f4: 29 ec 3c 50  	.word	0x503cec29
     6f8: b2 ac 13 08  	.word	0x0813acb2
     6fc: 65 43 69 56  	.word	0x56694365
     700: 98 07 62 26  	.word	0x26620798
     704: 0c db 18 b8  	.word	0xb818db0c
     708: 4a 35 6e 60  	.word	0x606e354a
     70c: d9 31 5c 5d  	.word	0x5d5c31d9
     710: c7 cd a8 00  	.word	0x00a8cdc7
     714: 4f fa 82 09  	.word	0x0982fa4f
     718: d4 e2 53 46  	.word	0x4653e2d4
     71c: cd 2b e1 17  	.word	0x17e12bcd
     720: 9d b6 ab 1d  	.word	0x1dabb69d
     724: eb f9 72 56  	.word	0x5672f9eb
     728: fc 53 e8 af  	.word	0xafe853fc
     72c: 35 b5 70 ba  	.word	0xba70b535
     730: 6d d6 96 27  	.word	0x2796d66d
     734: 75 0f ac 47  	.word	0x47ac0f75
     738: 75 72 11 94  	.word	0x94117275
     73c: 17 35 a5 32  	.word	0x32a53517
     740: 37 84 64 df  	.word	0xdf648437
     744: a6 44 a6 d3  	.word	0xd3a644a6
     748: dd bf 0f 88  	.word	0x880fbfdd
     74c: 59 65 3b 70  	.word	0x703b6559
     750: a5 1a 3a ad  	.word	0xad3a1aa5
     754: 40 25 85 cb  	.word	0xcb852540
     758: 68 64 4c 8e  	.word	0x8e4c6468
     75c: f7 b3 00 09  	.word	0x0900b3f7
     760: 1b 65 9d 67  	.word	0x679d651b
     764: 9f 1b 85 0a  	.word	0x0a851b9f
     768: f2 42 33 03  	.word	0x033342f2
     76c: 61 cb 08 e1  	.word	0xe108cb61
     770: a3 30 8b e8  	.word	0xe88b30a3
     774: 7f f5 01 d6  	.word	0xd601f57f
     778: 14 d7 2d ed  	.word	0xed2dd714
     77c: ca 3a 1f 37  	.word	0x371f3aca
     780: 31 ad 16 c8  	.word	0xc816ad31
     784: be 0f 28 ed  	.word	0xed280fbe
     788: e3 ef e6 d8  	.word	0xd8e6efe3
     78c: 5b 59 d9 52  	.word	0x52d9595b
     790: f5 23 c6 f6  	.word	0xf6c623f5
     794: 72 17 e7 0f  	.word	0x0fe71772
     798: 3c 29 1e 05  	.word	0x051e293c
     79c: 0b 03 14 43  	.word	0x4314030b
     7a0: ad bc f0 fb  	.word	0xfbf0bcad
     7a4: 5e 00 60 d5  	.word	0xd560005e
     7a8: 5e 0c 87 d1  	.word	0xd1870c5e
     7ac: 2e 0f b7 8e  	.word	0x8eb70f2e
     7b0: a0 e6 84 d0  	.word	0xd084e6a0
     7b4: 33 90 1f 20  	.word	0x201f9033
     7b8: 70 66 7b ce  	.word	0xce7b6670
     7bc: e1 5a 3a 4c  	.word	0x4c3a5ae1
     7c0: 95 fa b8 dc  	.word	0xdcb8fa95
     7c4: 34 a4 38 41  	.word	0x4138a434
     7c8: 0b 84 96 6c  	.word	0x6c96840b
     7cc: 7d f6 0c 87  	.word	0x870cf67d
     7d0: 2c e8 7b 29  	.word	0x297be82c
     7d4: 74 85 38 de  	.word	0xde388574
     7d8: 5a a5 62 72  	.word	0x7262a55a
     7dc: b2 4d 81 7c  	.word	0x7c814db2
     7e0: dd a0 3d c9  	.word	0xc93da0dd
     7e4: e4 75 f8 ba  	.word	0xbaf875e4
     7e8: 4d 29 b9 71  	.word	0x71b9294d
     7ec: a7 82 32 b9  	.word	0xb93282a7
     7f0: 60 c4 c6 f4  	.word	0xf4c6c460
     7f4: b7 3f d6 80  	.word	0x80d63fb7
     7f8: 81 c1 66 ea  	.word	0xea66c181
     7fc: 3d c7 e9 6d  	.word	0x6de9c73d
     800: f2 f8 4d a0  	.word	0xa04df8f2
     804: d5 04 89 47  	.word	0x478904d5
     808: d3 42 01 b1  	.word	0xb10142d3
     80c: 4a ae fb fa  	.word	0xfafbae4a
     810: 98 09 5d 55  	.word	0x555d0998
     814: 63 ac c8 f6  	.word	0xf6c8ac63
     818: 04 b1 90 2f  	.word	0x2f90b104
     81c: 41 4a ac 5a  	.word	0x5aac4a41
     820: 08 29 c9 3a  	.word	0x3ac92908
     824: 6b 32 4f c6  	.word	0xc64f326b
     828: e0 e1 63 e6  	.word	0xe663e1e0
     82c: 82 b2 51 55  	.word	0x5551b282
     830: 83 4b 1a 4a  	.word	0x4a1a4b83
     834: f5 35 6b 47  	.word	0x476b35f5
     838: c2 68 9f 18  	.word	0x189f68c2
     83c: fe a3 9d 1b  	.word	0x1b9da3fe
     840: 34 51 7f bd  	.word	0xbd7f5134
     844: 0a 0d 3a 60  	.word	0x603a0d0a
     848: 46 ae d3 e1  	.word	0xe1d3ae46
     84c: 32 c9 89 80  	.word	0x8089c932
     850: 63 bd 98 87  	.word	0x8798bd63
     854: 39 91 25 df  	.word	0xdf259139
     858: 35 02 ba 74  	.word	0x74ba0235
     85c: d2 5c 14 1c  	.word	0x1c145cd2
     860: 43 d7 f3 75  	.word	0x75f3d743
     864: 64 38 e8 32  	.word	0x32e83864
     868: ef d9 e5 6a  	.word	0x6ae5d9ef
     86c: af 8b 5b 36  	.word	0x365b8baf
     870: 1e 68 5b 38  	.word	0x385b681e
     874: b6 38 52 82  	.word	0x825238b6
     878: e1 65 7d 16  	.word	0x167d65e1
     87c: c1 29 49 23  	.word	0x234929c1
     880: e8 ad 77 a0  	.word	0xa077ade8
     884: ab ec 4d 98  	.word	0x984decab
     888: 9d 38 eb 19  	.word	0x19eb389d
     88c: ad 77 3f 38  	.word	0x383f77ad
     890: 94 d7 54 29  	.word	0x2954d794
     894: 7e 6b ec c7  	.word	0xc7ec6b7e
     898: 7a 3a 7c eb  	.word	0xeb7c3a7a
     89c: 3a 7b c7 59  	.word	0x59c77b3a
     8a0: cf 9f 09 1d  	.word	0x1d099fcf
     8a4: c2 5c 14 48  	.word	0x48145cc2
     8a8: e5 d7 28 cc  	.word	0xcc28d7e5
     8ac: 92 c1 35 45  	.word	0x4535c192
     8b0: 01 7e 24 48  	.word	0x48247e01
     8b4: e5 c1 e7 80  	.word	0x80e7c1e5
     8b8: ee 73 29 3b  	.word	0x3b2973ee
     8bc: 74 28 5f 4a  	.word	0x4a5f2874
     8c0: 62 cf 5c 22  	.word	0x225ccf62
     8c4: 25 d7 ad d3  	.word	0xd3add725
     8c8: 5d 2c 15 b2  	.word	0xb2152c5d
     8cc: 81 33 1a 91  	.word	0x911a3381
     8d0: 7d f8 08 5b  	.word	0x5b08f87d
     8d4: ad 9f b3 d8  	.word	0xd8b39fad
     8d8: 3b fe 99 47  	.word	0x4799fe3b
     8dc: 6b 60 05 6f  	.word	0x6f05606b
     8e0: 62 a9 7b 17  	.word	0x177ba962
     8e4: 92 9e fe 9f  	.word	0x9ffe9e92
     8e8: e1 ca e5 0d  	.word	0x0de5cae1
     8ec: 1d e7 ae 98  	.word	0x98aee71d
     8f0: 44 10 83 2d  	.word	0x2d831044
     8f4: 94 ae f4 3f  	.word	0x3ff4ae94
     8f8: c8 3a 53 58  	.word	0x58533ac8
     8fc: 2e e1 4d 71  	.word	0x714de12e
     900: 83 64 1b f9  	.word	0xf91b6483
     904: 49 31 43 5b  	.word	0x5b433149
     908: 62 bf 2c 5a  	.word	0x5a2cbf62
     90c: 65 dc b5 ad  	.word	0xadb5dc65
     910: b3 27 28 63  	.word	0x632827b3
     914: 12 84 fa 87  	.word	0x87fa8412
     918: d8 f8 49 ab  	.word	0xab49f8d8
     91c: 91 5e 89 60  	.word	0x60895e91
     920: 18 6c f8 0c  	.word	0x0cf86c18
     924: ed f2 ec e9  	.word	0xe9ecf2ed
     928: d4 df 35 07  	.word	0x0735dfd4
     92c: 12 06 6d b4  	.word	0xb46d0612
     930: e7 6b b9 04  	.word	0x04b96be7
     934: 98 a0 9d bc  	.word	0xbc9da098
     938: 6b c2 6d d9  	.word	0xd96dc26b
     93c: 2f e6 e2 73  	.word	0x73e2e62f
     940: 5e 51 aa 49  	.word	0x49aa515e
     944: 54 63 5b ed  	.word	0xed5b6354
     948: 3a 82 c6 0b  	.word	0x0bc6823a
     94c: 9f c4 65 a8  	.word	0xa865c49f
     950: c4 d1 42 5b  	.word	0x5b42d1c4
     954: e9 1f 0c 85  	.word	0x850c1fe9
     958: b9 15 d3 03  	.word	0x03d315b9
     95c: 6f 6d d7 30  	.word	0x30d76d6f
     960: 1d 9c 2f 63  	.word	0x632f9c1d
     964: 0e dd cc 2e  	.word	0x2eccdd0e
     968: 15 31 89 76  	.word	0x76893115
     96c: 96 b6 d0 51  	.word	0x51d0b696
     970: 58 7a 63 a8  	.word	0xa8637a58
     974: 6b b7 df 52  	.word	0x52dfb76b
     978: 39 ef 0e a0  	.word	0xa00eef39
     97c: 49 7d d3 6d  	.word	0x6dd37d49
     980: c7 e4 06 21  	.word	0x2106e4c7
     984: 17 44 44 6c  	.word	0x6c444417
     988: 69 7f 8d 92  	.word	0x928d7f69
     98c: 80 d6 53 fb  	.word	0xfb53d680
     990: 26 3f 4d 69  	.word	0x694d3f26
     994: a4 9e 73 b4  	.word	0xb4739ea4
     998: b0 4b 86 2e  	.word	0x2e864bb0
     99c: 11 97 c6 10  	.word	0x10c69711
     9a0: de 5f be 7d  	.word	0x7dbe5fde
     9a4: 27 c4 93 64  	.word	0x6493c427
     9a8: a2 7e ad 19  	.word	0x19ad7ea2
     9ac: ad 4f 5d 26  	.word	0x265d4fad
     9b0: 90 45 30 46  	.word	0x46304590
     9b4: c8 df 00 0e  	.word	0x0e00dfc8
     9b8: 09 fe 66 ed  	.word	0xed66fe09
     9bc: ab 1c e6 25  	.word	0x25e61cab
     9c0: 05 c8 58 83  	.word	0x8358c805
     9c4: a0 2a a6 0c  	.word	0x0ca62aa0
     9c8: 47 42 20 7a  	.word	0x7a204247
     9cc: e3 4a 3d 6a  	.word	0x6a3d4ae3
     9d0: dc ed 11 3b  	.word	0x3b11eddc
     9d4: a6 d3 64 74  	.word	0x7464d3a6
     9d8: ef 06 08 55  	.word	0x550806ef
     9dc: af 9b bf 03  	.word	0x03bf9baf
     9e0: 04 66 58 cc  	.word	0xcc586604
     9e4: 28 e1 13 3f  	.word	0x3f13e128
     9e8: 7e 74 59 b4  	.word	0xb459747e
     9ec: ec 73 58 6f  	.word	0x6f5873ec
     9f0: f5 68 12 cc  	.word	0xcc1268f5
     9f4: ed 3d b6 a0  	.word	0xa0b63ded
     9f8: 2c e2 86 45  	.word	0x4586e22c
     9fc: 63 78 6d 56  	.word	0x566d7863
     a00: 34 08 c1 9c  	.word	0x9cc10834
     a04: 9f a4 37 16  	.word	0x1637a49f
     a08: 51 c4 9b a8  	.word	0xa89bc451
     a0c: d5 56 8e bc  	.word	0xbc8e56d5
     a10: db d2 7f 7f  	.word	0x7f7fd2db
     a14: 0f ec b5 1c  	.word	0x1cb5ec0f
     a18: d9 35 cc 5e  	.word	0x5ecc35d9
     a1c: ca 5b 97 33  	.word	0x33975bca
     a20: d0 2f 5a c6  	.word	0xc65a2fd0
     a24: 85 42 05 a1  	.word	0xa1054285
     a28: c3 67 16 f3  	.word	0xf31667c3
     a2c: 2a 11 64 6c  	.word	0x6c64112a
     a30: 58 ee 1a 73  	.word	0x731aee58
     a34: 40 e2 0a 68  	.word	0x680ae240
     a38: 2a b2 93 47  	.word	0x4793b22a
     a3c: f3 a5 fb 14  	.word	0x14fba5f3
     a40: d4 f7 85 69  	.word	0x6985f7d4
     a44: 16 46 d7 3c  	.word	0x3cd74616
     a48: 57 00 c8 c9  	.word	0xc9c80057
     a4c: 84 5e 3e 59  	.word	0x593e5e84
     a50: 1e 13 61 7b  	.word	0x7b61131e
     a54: b6 f2 c3 2f  	.word	0x2fc3f2b6
     a58: 6c 52 fc 83  	.word	0x83fc526c
     a5c: ea 9c 82 14  	.word	0x14829cea
     a60: c2 95 dd 97  	.word	0x97dd95c2
     a64: 84 7b 43 ff  	.word	0xff437b84
     a68: a7 b5 4e aa  	.word	0xaa4eb5a7
     a6c: 30 4e 74 6c  	.word	0x6c744e30
     a70: 8b e8 85 3c  	.word	0x3c85e88b
     a74: 61 5d 0c 9e  	.word	0x9e0c5d61
     a78: 73 81 75 5f  	.word	0x5f758173
     a7c: 1e c7 d9 2f  	.word	0x2fd9c71e
     a80: b8 ec 71 4e  	.word	0x4e71ecb8
     a84: 2f 0b e7 21  	.word	0x21e70b2f
     a88: e3 77 a4 40  	.word	0x40a477e3
     a8c: b9 dd 56 e6  	.word	0xe656ddb9
     a90: 80 4f 1d ce  	.word	0xce1d4f80
     a94: ce 56 65 bf  	.word	0xbf6556ce
     a98: 7e 7b 5d 53  	.word	0x535d7b7e
     a9c: c4 3b fc 05  	.word	0x05fc3bc4
     aa0: dd de af 52  	.word	0x52afdedd
     aa4: ae b3 b8 24  	.word	0x24b8b3ae
     aa8: cf 30 3b ed  	.word	0xed3b30cf
     aac: 8c 63 95 34  	.word	0x3495638c
     ab0: 95 81 be a9  	.word	0xa9be8195
     ab4: 83 bc a4 33  	.word	0x33a4bc83
     ab8: 04 1f 65 5c  	.word	0x5c651f04
     abc: 47 67 37 37  	.word	0x37376747
     ac0: d9 ad d1 40  	.word	0x40d1add9
     ac4: fd 99 ba 2f  	.word	0x2fba99fd
     ac8: 27 d0 f4 96  	.word	0x96f4d027
     acc: 6f 16 07 b3  	.word	0xb307166f
     ad0: ae 3b f0 15  	.word	0x15f03bae
     ad4: 52 f0 63 43  	.word	0x4363f052
     ad8: 99 f9 18 3b  	.word	0x3b18f999
     adc: 6c a5 be 1f  	.word	0x1fbea56c
     ae0: 90 65 24 14  	.word	0x14246590
     ae4: cb 95 40 63  	.word	0x634095cb
     ae8: 35 55 c1 16  	.word	0x16c15535
     aec: 40 14 12 ef  	.word	0xef121440
     af0: 60 bc 10 89  	.word	0x8910bc60
     af4: 0c 14 38 9e  	.word	0x9e38140c
     af8: 8c 7c 90 30  	.word	0x30907c8c
     afc: 57 90 f5 6b  	.word	0x6bf59057
     b00: 8a 5b 41 e1  	.word	0xe1415b8a
     b04: f1 78 a7 0f  	.word	0x0fa778f1
     b08: 7e a7 c3 ba  	.word	0xbac3a77e
     b0c: f7 9f 40 06  	.word	0x06409ff7
     b10: 50 9a a2 9a  	.word	0x9aa29a50
     b14: b8 d7 52 6f  	.word	0x6f52d7b8
     b18: 56 5a 63 7a  	.word	0x7a635a56
     b1c: f6 1c 52 02  	.word	0x02521cf6
     b20: 94 52 9d 0a  	.word	0x0a9d5294
     b24: 0b ee 3f 51  	.word	0x513fee0b
     b28: 66 5a df 0f  	.word	0x0fdf5a66
     b2c: 5c e7 98 8f  	.word	0x8f98e75c
     b30: ce 07 e1 bf  	.word	0xbfe107ce
     b34: 88 86 61 d4  	.word	0xd4618688
     b38: ed 2c 38 71  	.word	0x71382ced
     b3c: 7e 0a a0 3f  	.word	0x3fa00a7e
     b40: e4 5e 2f 77  	.word	0x772f5ee4
     b44: 20 67 14 b1  	.word	0xb1146720
     b48: ce 9a 07 96  	.word	0x96079ace
     b4c: b1 94 f8 e8  	.word	0xe8f894b1
     b50: 4a 82 ac 00  	.word	0x00ac824a
     b54: 4d 22 f8 4a  	.word	0x4af8224d
     b58: c4 6c cd f7  	.word	0xf7cd6cc4
     b5c: d9 53 17 00  	.word	0x001753d9
     b60: 34 db 3d 96  	.word	0x963ddb34
     b64: 2d 23 69 3c  	.word	0x3c69232d
     b68: 58 38 97 b4  	.word	0xb4973858
     b6c: da 87 de 1d  	.word	0x1dde87da
     b70: 85 f2 91 a0  	.word	0xa091f285
     b74: f9 d1 d7 aa  	.word	0xaad7d1f9
     b78: b6 ed 48 a0  	.word	0xa048edb6
     b7c: 2f fe b5 12  	.word	0x12b5fe2f
     b80: 4d e3 fc 96  	.word	0x96fce34d
     b84: c4 fb f0 71  	.word	0x71f0fbc4
     b88: ed 5b f3 ad  	.word	0xadf35bed
     b8c: 6b 82 b9 73  	.word	0x73b9826b
     b90: 61 c5 28 ff  	.word	0xff28c561
     b94: 61 72 04 d2  	.word	0xd2047261
     b98: 6f 20 b1 6f  	.word	0x6fb1206f
     b9c: f9 76 9b 74  	.word	0x749b76f9
     ba0: 92 1e 6f ad  	.word	0xad6f1e92
     ba4: 26 7c 2b df  	.word	0xdf2b7c26
     ba8: 13 89 4b 50  	.word	0x504b8913
     bac: 23 d3 66 4b  	.word	0x4b66d323
     bb0: c3 8b 1c 75  	.word	0x751c8bc3
     bb4: c0 9d 40 8c  	.word	0x8c409dc0
     bb8: b8 c7 96 07  	.word	0x0796c7b8
     bbc: c2 93 7e 6f  	.word	0x6f7e93c2
     bc0: 05 ae a6 ae  	.word	0xaea6ae05
     bc4: 04 f6 5a 1f  	.word	0x1f5af604
     bc8: 99 9c e4 be  	.word	0xbee49c99
     bcc: f1 51 23 c1  	.word	0xc12351f1
     bd0: 66 6b ff ee  	.word	0xeeff6b66
     bd4: b5 08 a8 61  	.word	0x61a808b5
     bd8: 51 21 e0 01  	.word	0x01e02151
     bdc: 0f c1 ce 0f  	.word	0x0fcec10f
     be0: 44 1e fe 49  	.word	0x49fe1e44
     be4: a6 58 4d 64  	.word	0x644d58a6
     be8: 7e 77 ad 31  	.word	0x31ad777e
     bec: a2 ae fc 21  	.word	0x21fcaea2
     bf0: d2 d0 7f 88  	.word	0x887fd0d2
     bf4: 5a 1c 44 02  	.word	0x02441c5a
     bf8: f3 11 c5 83  	.word	0x83c511f3
     bfc: 71 aa 01 49  	.word	0x4901aa71
     c00: 45 4e 24 c4  	.word	0xc4244e45
     c04: 9d d2 f2 3d  	.word	0x3df2d29d
     c08: 0a de d8 93  	.word	0x93d8de0a
     c0c: 74 0e 02 2b  	.word	0x2b020e74
     c10: 4d 21 0c 82  	.word	0x820c214d
     c14: 7e 06 c8 6c  	.word	0x6cc8067e
     c18: 0a b9 ea 6f  	.word	0x6feab90a
     c1c: 16 79 37 41  	.word	0x41377916
     c20: f0 f8 1a 8c  	.word	0x8c1af8f0
     c24: 54 b7 b1 08  	.word	0x08b1b754
     c28: b4 99 62 24  	.word	0x246299b4
     c2c: 7c 7a 0f ce  	.word	0xce0f7a7c
     c30: 39 d9 06 1e  	.word	0x1e06d939
     c34: f9 b0 60 f7  	.word	0xf760b0f9
     c38: 13 12 6d 72  	.word	0x726d1213
     c3c: 7b 88 bb 41  	.word	0x41bb887b
     c40: d8 49 7c 56  	.word	0x567c49d8
     c44: 6c 80 67 92  	.word	0x9267806c
     c48: 6a 1e 79 ca  	.word	0xca791e6a
     c4c: cc 04 6d 06  	.word	0x066d04cc
     c50: 4b 39 cc e3  	.word	0xe3cc394b
     c54: 45 56 9f a6  	.word	0xa69f5645
     c58: d2 8c 78 a0  	.word	0xa0788cd2
     c5c: 86 b6 95 5c  	.word	0x5c95b686
     c60: d2 f7 39 aa  	.word	0xaa39f7d2
     c64: e0 80 d9 97  	.word	0x97d980e0
     c68: 1c b5 c6 52  	.word	0x52c6b51c
     c6c: 42 38 d0 35  	.word	0x35d03842
     c70: aa 55 cd 07  	.word	0x07cd55aa
     c74: 93 f4 43 7d  	.word	0x7d43f493
     c78: 62 c3 8a b7  	.word	0xb78ac362
     c7c: cf 36 bd 56  	.word	0x56bd36cf
     c80: 54 a9 14 0d  	.word	0x0d14a954
     c84: c1 19 c5 2a  	.word	0x2ac519c1
     c88: 90 fa b5 94  	.word	0x94b5fa90
     c8c: b4 74 f4 ea  	.word	0xeaf474b4
     c90: 5a 7a f8 a9  	.word	0xa9f87a5a
     c94: 82 83 af e6  	.word	0xe6af8382
     c98: 94 e0 9b 87  	.word	0x879be094
     c9c: b1 6d ea 0d  	.word	0x0dea6db1
     ca0: ab e5 44 73  	.word	0x7344e5ab
     ca4: 54 bf 66 aa  	.word	0xaa66bf54
     ca8: 09 43 1b 8f  	.word	0x8f1b4309
     cac: 88 58 12 da  	.word	0xda125888
     cb0: 2f 4b 56 fd  	.word	0xfd564b2f
     cb4: b3 d2 87 5e  	.word	0x5e87d2b3
     cb8: dd b1 83 54  	.word	0x5483b1dd
     cbc: 88 78 2c 5b  	.word	0x5b2c7888
     cc0: 7a 79 a8 d6  	.word	0xd6a8797a
     cc4: 74 eb ba 15  	.word	0x15baeb74
     cc8: 32 17 c4 fa  	.word	0xfac41732
     ccc: f1 5c f5 7e  	.word	0x7ef55cf1
     cd0: c5 05 8b 3c  	.word	0x3c8b05c5
     cd4: 5a 1f 00 29  	.word	0x29001f5a
     cd8: fb cc ea 52  	.word	0x52eaccfb
     cdc: 87 cc d7 0a  	.word	0x0ad7cc87
     ce0: cf 08 34 79  	.word	0x793408cf
     ce4: 62 13 15 52  	.word	0x52151362
     ce8: 94 3d 96 19  	.word	0x19963d94
     cec: 03 17 0f eb  	.word	0xeb0f1703
     cf0: 66 94 3d 88  	.word	0x883d9466
     cf4: fa b2 33 a8  	.word	0xa833b2fa
     cf8: 78 3c 00 75  	.word	0x75003c78
     cfc: a7 7f 3a 09  	.word	0x093a7fa7
     d00: be d7 16 3a  	.word	0x3a16d7be
     d04: e6 7d 10 e5  	.word	0xe5107de6
     d08: cf 32 f3 9a  	.word	0x9af332cf
     d0c: dc ff 77 a3  	.word	0xa377ffdc
     d10: 7f 67 0b 44  	.word	0x440b677f
     d14: 18 bf d5 70  	.word	0x70d5bf18
     d18: 03 14 a3 a4  	.word	0xa4a31403
     d1c: 19 2b 25 6a  	.word	0x6a252b19
     d20: 86 12 a9 60  	.word	0x60a91286
     d24: 44 60 e9 b8  	.word	0xb8e96044
     d28: de d3 78 77  	.word	0x7778d3de
     d2c: 04 d8 3f 7f  	.word	0x7f3fd804
     d30: 2d 5e 8a bf  	.word	0xbf8a5e2d
     d34: 31 1e d0 67  	.word	0x67d01e31
     d38: 3e 65 7b c2  	.word	0xc27b653e
     d3c: 06 8a 03 7b  	.word	0x7b038a06
     d40: f3 90 69 d3  	.word	0xd36990f3
     d44: d5 19 d9 9e  	.word	0x9ed919d5
     d48: f2 b9 4e db  	.word	0xdb4eb9f2
     d4c: bb ae 13 52  	.word	0x5213aebb
     d50: 35 91 b9 4c  	.word	0x4cb99135
     d54: 05 ea 08 c7  	.word	0xc708ea05
     d58: 56 0e 26 72  	.word	0x72260e56
     d5c: 7f d5 de 58  	.word	0x58ded57f
     d60: 77 3d 41 e9  	.word	0xe9413d77
     d64: ad 9d e7 78  	.word	0x78e79dad
     d68: 7d e6 29 97  	.word	0x9729e67d
     d6c: d5 f9 57 f2  	.word	0xf257f9d5
     d70: e6 a7 7a e3  	.word	0xe37aa7e6
     d74: 0e 91 db 59  	.word	0x59db910e
     d78: 9c 03 9e bb  	.word	0xbb9e039c
     d7c: 5b 1b a1 6a  	.word	0x6aa11b5b
     d80: 8b d4 0f 5b  	.word	0x5b0fd48b
     d84: 26 53 6d da  	.word	0xda6d5326
     d88: 88 a9 bf 93  	.word	0x93bfa988
     d8c: 31 82 60 89  	.word	0x89608231
     d90: 28 7e d5 61  	.word	0x61d57e28
     d94: 32 c9 8a d7  	.word	0xd78ac932
     d98: 43 81 5c 3a  	.word	0x3a5c8143
     d9c: 2d 94 f2 79  	.word	0x79f2942d
     da0: e9 8d c8 b6  	.word	0xb6c88de9
     da4: 25 2f da 97  	.word	0x97da2f25
     da8: 69 01 f2 ac  	.word	0xacf20169
     dac: ea a7 1b 25  	.word	0x251ba7ea
     db0: e4 b4 4e ef  	.word	0xef4eb4e4
     db4: 87 4f b4 09  	.word	0x09b44f87
     db8: a5 7d 6a bc  	.word	0xbc6a7da5
     dbc: 1b ab 90 7d  	.word	0x7d90ab1b
     dc0: fe 6b 01 a7  	.word	0xa7016bfe
     dc4: 83 a6 cc 9a  	.word	0x9acca683
     dc8: 6d 0b c5 f2  	.word	0xf2c50b6d
     dcc: 4d 5f 50 90  	.word	0x90505f4d
     dd0: aa 35 e4 cc  	.word	0xcce435aa
     dd4: 5f 0d 61 6b  	.word	0x6b610d5f
     dd8: 96 ff 98 61  	.word	0x6198ff96
     ddc: 44 0d a1 19  	.word	0x19a10d44
     de0: 97 c3 b3 96  	.word	0x96b3c397
     de4: f4 a3 07 1a  	.word	0x1a07a3f4
     de8: 32 25 4e 8f  	.word	0x8f4e2532
     dec: 18 aa ce 11  	.word	0x11ceaa18
     df0: f0 1b 75 a7  	.word	0xa7751bf0
     df4: d5 98 94 7d  	.word	0x7d9498d5
     df8: a0 d8 8d 50  	.word	0x508dd8a0
     dfc: 1f 16 ed 19  	.word	0x19ed161f
     e00: ca e6 dc 87  	.word	0x87dce6ca
     e04: d6 2c 0a 56  	.word	0x560a2cd6
     e08: 4d cf 64 86  	.word	0x8664cf4d
     e0c: c4 68 35 7f  	.word	0x7f3568c4
     e10: 38 3a 80 22  	.word	0x22803a38
     e14: 52 e9 41 87  	.word	0x8741e952
     e18: fc 53 56 59  	.word	0x595653fc
     e1c: b1 da 3b 48  	.word	0x483bdab1
     e20: 49 fa 34 87  	.word	0x8734fa49
     e24: 14 0f 78 fa  	.word	0xfa780f14
     e28: e0 34 05 36  	.word	0x360534e0
     e2c: 70 0b 6f 10  	.word	0x106f0b70
     e30: bd 07 e3 e3  	.word	0xe3e307bd
     e34: 6f 77 10 22  	.word	0x2210776f
     e38: fe a0 e6 dd  	.word	0xdde6a0fe
     e3c: 09 c1 86 32  	.word	0x3286c109
     e40: f6 80 da b4  	.word	0xb4da80f6
     e44: 0a 4d cf d6  	.word	0xd6cf4d0a
     e48: e0 7f 30 f8  	.word	0xf8307fe0
     e4c: 45 3e 48 82  	.word	0x82483e45
     e50: a4 9d 6f ae  	.word	0xae6f9da4
     e54: 69 52 00 05  	.word	0x05005269
     e58: 7a 87 f7 9c  	.word	0x9cf7877a
     e5c: 90 52 70 1c  	.word	0x1c705290
     e60: d4 98 4e 87  	.word	0x874e98d4
     e64: e2 7d ee 32  	.word	0x32ee7de2
     e68: 60 0c 7e b9  	.word	0xb97e0c60
     e6c: e9 62 c3 14  	.word	0x14c362e9
     e70: 8a a3 60 6a  	.word	0x6a60a38a
     e74: de dc 81 57  	.word	0x5781dcde
     e78: 40 a8 7a aa  	.word	0xaa7aa840
     e7c: ea d5 7d 21  	.word	0x217dd5ea
     e80: b0 1e 8e 24  	.word	0x248e1eb0
     e84: d0 c4 b7 9d  	.word	0x9db7c4d0
     e88: 52 bf 74 4d  	.word	0x4d74bf52
     e8c: e1 97 76 e0  	.word	0xe07697e1
     e90: 54 23 56 3c  	.word	0x3c562354
     e94: 17 9b 6a 1e  	.word	0x1e6a9b17
     e98: 65 49 5a 79  	.word	0x795a4965
     e9c: 1f c2 a7 7f  	.word	0x7fa7c21f
     ea0: c8 0e 8c be  	.word	0xbe8c0ec8
     ea4: b9 1f df 8b  	.word	0x8bdf1fb9
     ea8: 82 02 0a e3  	.word	0xe30a0282
     eac: f8 e7 ba 00  	.word	0x00bae7f8
     eb0: 6c 4f 6c ad  	.word	0xad6c4f6c
     eb4: 1d 99 63 49  	.word	0x4963991d
     eb8: 0a f6 f6 5d  	.word	0x5df6f60a
     ebc: 6e 8a 05 07  	.word	0x07058a6e
     ec0: 7f f6 31 db  	.word	0xdb31f67f
     ec4: c4 02 eb e9  	.word	0xe9eb02c4
     ec8: 2b fb bc 10  	.word	0x10bcfb2b
     ecc: 89 fd 25 ed  	.word	0xed25fd89
     ed0: b4 dd 5c 5c  	.word	0x5c5cddb4
     ed4: 1f 13 c8 46  	.word	0x46c8131f
     ed8: ce 9b cb a0  	.word	0xa0cb9bce
     edc: 13 1c b2 33  	.word	0x33b21c13
     ee0: 31 8e 7d 08  	.word	0x087d8e31
     ee4: f8 92 06 36  	.word	0x360692f8
     ee8: f7 63 71 d2  	.word	0xd27163f7
     eec: 37 c6 dc f4  	.word	0xf4dcc637
     ef0: 63 59 ea 65  	.word	0x65ea5963
     ef4: 20 e6 a4 25  	.word	0x25a4e620
     ef8: d9 60 c1 5a  	.word	0x5ac160d9
     efc: 2e f7 9b 65  	.word	0x659bf72e
     f00: 5b 8c e3 5e  	.word	0x5ee38c5b
     f04: b0 b9 af 9a  	.word	0x9aafb9b0
     f08: c7 13 1a 07  	.word	0x071a13c7
     f0c: 4e 2d 9d bf  	.word	0xbf9d2d4e
     f10: 0a 29 33 e9  	.word	0xe933290a
     f14: 6d 6e ee 8e  	.word	0x8eee6e6d
     f18: 17 97 10 ae  	.word	0xae109717
     f1c: 17 ab 3b 1c  	.word	0x1c3bab17
     f20: b0 b7 ca c7  	.word	0xc7cab7b0
     f24: 16 b2 9a 1c  	.word	0x1c9ab216
     f28: cc c3 bb 07  	.word	0x07bbc3cc
     f2c: 74 d3 65 7d  	.word	0x7d65d374
     f30: d5 58 4a 50  	.word	0x504a58d5
     f34: 50 47 74 52  	.word	0x52744750
     f38: 90 29 1a 13  	.word	0x131a2990
     f3c: 6b 60 f2 09  	.word	0x09f2606b
     f40: be 46 43 74  	.word	0x744346be
     f44: 44 7d e8 40  	.word	0x40e87d44
     f48: 25 2b b5 15  	.word	0x15b52b25
     f4c: d4 da 48 1d  	.word	0x1d48dad4
     f50: 3e 60 3b a1  	.word	0xa13b603e
     f54: 18 8a 3a 7c  	.word	0x7c3a8a18
     f58: f7 bd cd 2f  	.word	0x2fcdbdf7
     f5c: c1 28 b7 4e  	.word	0x4eb728c1
     f60: ae 91 66 7c  	.word	0x7c6691ae
     f64: 59 4c 23 7e  	.word	0x7e234c59
     f68: c8 b4 85 0a  	.word	0x0a85b4c8
     f6c: 3d 9d 88 64  	.word	0x64889d3d
     f70: e7 fa 4a 35  	.word	0x354afae7
     f74: 0c c9 e2 da  	.word	0xdae2c90c
     f78: 1d 9e 6a 0c  	.word	0x0c6a9e1d
     f7c: 07 1e 87 0a  	.word	0x0a871e07
     f80: 89 89 bc 4b  	.word	0x4bbc8989
     f84: 99 b5 01 33  	.word	0x3301b599
     f88: 60 42 dd 5b  	.word	0x5bdd4260
     f8c: 3a ae 6b 73  	.word	0x736bae3a
     f90: 3c 9e d5 19  	.word	0x19d59e3c
     f94: e2 ad 61 0d  	.word	0x0d61ade2
     f98: 64 d4 85 26  	.word	0x2685d464
     f9c: 0f 30 e7 3e  	.word	0x3ee7300f
     fa0: b7 d6 7d 9e  	.word	0x9e7dd6b7
     fa4: e4 55 d2 f5  	.word	0xf5d255e4
     fa8: ac 1e 0b 61  	.word	0x610b1eac
     fac: 5c 11 16 80  	.word	0x8016115c
     fb0: ca 87 e1 92  	.word	0x92e187ca
     fb4: 5d 97 99 3c  	.word	0x3c99975d
     fb8: c2 25 91 97  	.word	0x979125c2
     fbc: 62 57 81 13  	.word	0x13815762
     fc0: 18 75 1e 84  	.word	0x841e7518
     fc4: 47 79 fa 43  	.word	0x43fa7947
     fc8: d7 46 9c 63  	.word	0x639c46d7
     fcc: 59 fa c6 e5  	.word	0xe5c6fa59
     fd0: 74 2b 05 e3  	.word	0xe3052b74
     fd4: 1d 5e 06 a1  	.word	0xa1065e1d
     fd8: 30 90 b8 cf  	.word	0xcfb89030
     fdc: a2 c6 47 7d  	.word	0x7d47c6a2
     fe0: e0 d6 f0 8e  	.word	0x8ef0d6e0
     fe4: 14 d0 da 3f  	.word	0x3fdad014
     fe8: 3c 6f 54 91  	.word	0x91546f3c
     fec: 9a 74 3e 9d  	.word	0x9d3e749a
     ff0: 57 81 bb 26  	.word	0x26bb8157
     ff4: 10 62 ec 71  	.word	0x71ec6210
     ff8: 80 ec c9 34  	.word	0x34c9ec80
     ffc: 8d f5 8c 14  	.word	0x148cf58d
    1000: 27 f0 34 79  	.word	0x7934f027
    1004: f6 92 a4 46  	.word	0x46a492f6
    1008: a9 0a 84 f6  	.word	0xf6840aa9
    100c: be 84 99 46  	.word	0x469984be
    1010: 54 18 61 89  	.word	0x89611854
    1014: 2a bc a1 5c  	.word	0x5ca1bc2a
    1018: d4 bb 5d bd  	.word	0xbd5dbbd4
    101c: 1e fa f2 3f  	.word	0x3ff2fa1e
    1020: 6d 75 e4 9a  	.word	0x9ae4756d
    1024: 7d 2f 57 e2  	.word	0xe2572f7d
    1028: 7f 48 f3 88  	.word	0x88f3487f
    102c: bb 45 c3 56  	.word	0x56c345bb
    1030: 8d a8 60 69  	.word	0x6960a88d
    1034: 6d 0b d1 9f  	.word	0x9fd10b6d
    1038: b9 a1 ae 4e  	.word	0x4eaea1b9
    103c: ad eb 8f 27  	.word	0x278febad
    1040: 66 39 93 8c  	.word	0x8c933966
    1044: 1f 68 aa b1  	.word	0xb1aa681f
    1048: 98 0c 29 20  	.word	0x20290c98
    104c: 9c 94 21 8c  	.word	0x8c21949c
    1050: 52 3c 9d 21  	.word	0x219d3c52
    1054: 91 52 11 39  	.word	0x39115291
    1058: 7b 67 9c fe  	.word	0xfe9c677b
    105c: 02 dd 04 41  	.word	0x4104dd02
    1060: 2a 42 24 11  	.word	0x1124422a
    1064: 5e bf b2 72  	.word	0x72b2bf5e
    1068: b5 3a a3 98  	.word	0x98a33ab5
    106c: 33 0c fa a1  	.word	0xa1fa0c33
    1070: 66 b6 52 fa  	.word	0xfa52b666
    1074: 01 61 cb 94  	.word	0x94cb6101
    1078: d5 53 af af  	.word	0xafaf53d5
    107c: 00 3b 86 2c  	.word	0x2c863b00
    1080: b8 6a 09 db  	.word	0xdb096ab8
    1084: 06 4e 21 81  	.word	0x81214e06
    1088: 35 4f e4 0c  	.word	0x0ce44f35
    108c: c9 b6 a8 21  	.word	0x21a8b6c9
    1090: f5 2a 9e 40  	.word	0x409e2af5
    1094: 2a c1 24 65  	.word	0x6524c12a
    1098: 81 a4 fc 8e  	.word	0x8efca481
    109c: a4 b5 65 01  	.word	0x0165b5a4
    10a0: 76 6a 84 a0  	.word	0xa0846a76
    10a4: 74 a4 90 f1  	.word	0xf190a474
    10a8: c0 7c 2f cd  	.word	0xcd2f7cc0
    10ac: 84 f9 ef 12  	.word	0x12eff984
    10b0: 8f 2b aa 58  	.word	0x58aa2b8f
    10b4: 06 29 5e 69  	.word	0x695e2906
    10b8: b8 c8 fe bf  	.word	0xbffec8b8
    10bc: d9 67 1b 59  	.word	0x591b67d9
    10c0: fa 9b b4 80  	.word	0x80b49bfa
    10c4: 1c 0d 2f 31  	.word	0x312f0d1c
    10c8: 8a ec f3 ab  	.word	0xabf3ec8a
    10cc: 5e 51 79 59  	.word	0x5979515e
    10d0: 88 1c f0 9e  	.word	0x9ef01c88
    10d4: c0 33 70 72  	.word	0x727033c0
    10d8: cb 7b 8f ca  	.word	0xca8f7bcb
    10dc: c7 2e e0 3d  	.word	0x3de02ec7
    10e0: 5d b5 18 9f  	.word	0x9f18b55d
    10e4: 71 b3 b9 99  	.word	0x99b9b371
    10e8: 1e 64 8c a1  	.word	0xa18c641e
    10ec: fa e5 65 e4  	.word	0xe465e5fa
    10f0: ed 05 9f c2  	.word	0xc29f05ed
    10f4: 36 11 08 61  	.word	0x61081136
    10f8: 8b 12 30 70  	.word	0x7030128b
    10fc: 86 4f 9b 48  	.word	0x489b4f86
    1100: ef 92 eb 3a  	.word	0x3aeb92ef
    1104: 2d 10 32 d2  	.word	0xd232102d
    1108: 61 a8 16 61  	.word	0x6116a861
    110c: b4 53 62 e1  	.word	0xe16253b4
    1110: 24 aa 0b 19  	.word	0x190baa24
    1114: e7 ab 7e 3d  	.word	0x3d7eabe7
    1118: bf be 6c 49  	.word	0x496cbebf
    111c: ba fb f5 49  	.word	0x49f5fbba
    1120: d4 cf 5b 8a  	.word	0x8a5bcfd4
    1124: 10 9a 94 30  	.word	0x30949a10
    1128: eb 73 64 bc  	.word	0xbc6473eb
    112c: 70 dd 40 dc  	.word	0xdc40dd70
    1130: 1c 0d 7c 30  	.word	0x307c0d1c
    1134: c1 94 c2 92  	.word	0x92c294c1
    1138: 74 6e fa cb  	.word	0xcbfa6e74
    113c: 6d a8 04 56  	.word	0x5604a86d
    1140: 2e 57 9c 1e  	.word	0x1e9c572e
    1144: 8c 62 5d 15  	.word	0x155d628c
    1148: 41 47 88 c5  	.word	0xc5884741
    114c: ac 86 4d 8a  	.word	0x8a4d86ac
    1150: eb 63 57 51  	.word	0x515763eb
    1154: f6 52 a3 91  	.word	0x91a352f6
    1158: 5b 51 67 88  	.word	0x8867515b
    115c: c2 a6 a1 06  	.word	0x06a1a6c2
    1160: b6 64 17 7c  	.word	0x7c1764b6
    1164: d4 d1 88 72  	.word	0x7288d1d4
    1168: 51 8b 41 e0  	.word	0xe0418b51
    116c: 40 11 54 72  	.word	0x72541140
    1170: d1 f6 ac 18  	.word	0x18acf6d1
    1174: 60 1a 03 9f  	.word	0x9f031a60
    1178: c6 42 27 fe  	.word	0xfe2742c6
    117c: 89 9e 98 20  	.word	0x20989e89
    1180: 7f cc 2d 3a  	.word	0x3a2dcc7f
    1184: fd 77 97 49  	.word	0x499777fd
    1188: 92 d8 4f a5  	.word	0xa54fd892
    118c: 2c 7c 85 32  	.word	0x32857c2c
    1190: a0 e3 07 d2  	.word	0xd207e3a0
    1194: 64 d8 79 a2  	.word	0xa279d864
    1198: 29 7e a6 0c  	.word	0x0ca67e29
    119c: 1d ed 03 04  	.word	0x0403ed1d
    11a0: 2e ec ea 85  	.word	0x85eaec2e
    11a4: 8b 27 74 16  	.word	0x1674278b
    11a8: df 2b cb 7a  	.word	0x7acb2bdf
    11ac: 07 dc 21 56  	.word	0x5621dc07
    11b0: 5a f4 cb 61  	.word	0x61cbf45a
    11b4: 16 4c 0a 64  	.word	0x640a4c16
    11b8: d3 95 05 f7  	.word	0xf70595d3
    11bc: 50 99 0b 73  	.word	0x730b9950
    11c0: 52 c5 4e 87  	.word	0x874ec552
    11c4: 35 2d 4b c9  	.word	0xc94b2d35
    11c8: 8d 6f 24 98  	.word	0x98246f8d
    11cc: cf c8 e6 c5  	.word	0xc5e6c8cf
    11d0: ce 35 c0 16  	.word	0x16c035ce
    11d4: fa 46 cb f7  	.word	0xf7cb46fa
    11d8: cc 3d 30 08  	.word	0x08303dcc
    11dc: 43 45 d7 5b  	.word	0x5bd74543
    11e0: c2 4c b2 28  	.word	0x28b24cc2
    11e4: 95 d1 9a 7f  	.word	0x7f9ad195
    11e8: 81 c1 35 63  	.word	0x6335c181
    11ec: 65 54 6b 7f  	.word	0x7f6b5465
    11f0: 36 72 c0 4f  	.word	0x4fc07236
    11f4: 6e b6 b8 66  	.word	0x66b8b66e
    11f8: 83 ad 80 73  	.word	0x7380ad83
    11fc: 00 78 3a 13  	.word	0x133a7800
    1200: 2a 79 e7 15  	.word	0x15e7792a
    1204: 21 93 c4 85  	.word	0x85c49321
    1208: c9 dd cd bd  	.word	0xbdcdddc9
    120c: a2 89 4c c6  	.word	0xc64c89a2
    1210: 62 d7 a3 ad  	.word	0xada3d762
    1214: a8 3d 1e 9d  	.word	0x9d1e3da8
    1218: 2c f8 67 30  	.word	0x3067f82c
    121c: 12 db b7 5b  	.word	0x5bb7db12
    1220: be 62 ca c6  	.word	0xc6ca62be
    1224: 67 f4 61 09  	.word	0x0961f467
    1228: ee 52 19 21  	.word	0x211952ee
    122c: d6 21 ec 04  	.word	0x04ec21d6
    1230: 70 47 d5 9b  	.word	0x9bd54770
    1234: 77 60 23 18  	.word	0x18236077
    1238: d2 e0 f0 58  	.word	0x58f0e0d2
    123c: 6d ca 0d 74  	.word	0x740dca6d
    1240: 0b af f0 d3  	.word	0xd3f0af0b
    1244: f5 0b b7 50  	.word	0x50b70bf5
    1248: f7 71 2e e3  	.word	0xe32e71f7
    124c: 8a f4 ea 4f  	.word	0x4feaf48a
    1250: 34 bd 5b a5  	.word	0xa55bbd34
    1254: d3 4e e8 60  	.word	0x60e84ed3
    1258: ed d1 50 3f  	.word	0x3f50d1ed
    125c: 9b 48 ed 00  	.word	0x00ed489b
    1260: e5 1a 26 ed  	.word	0xed261ae5
    1264: 2a c7 06 39  	.word	0x3906c72a
    1268: f7 00 e1 88  	.word	0x88e100f7
    126c: d9 8f b6 9a  	.word	0x9ab68fd9
    1270: 97 01 36 f3  	.word	0xf3360197
    1274: 9a 05 e9 f5  	.word	0xf5e9059a
    1278: 47 6d 2b bf  	.word	0xbf2b6d47
    127c: 78 dc 53 0e  	.word	0x0e53dc78
    1280: 7a 87 71 79  	.word	0x7971877a
    1284: bf 29 08 b9  	.word	0xb90829bf
    1288: 31 e6 17 6d  	.word	0x6d17e631
    128c: 63 44 44 5e  	.word	0x5e444463
    1290: 93 68 27 18  	.word	0x18276893
    1294: 2e c5 05 4d  	.word	0x4d05c52e
    1298: f5 4a 4a 5a  	.word	0x5a4a4af5
    129c: 9a 2d 63 27  	.word	0x27632d9a
    12a0: ce 60 b2 54  	.word	0x54b260ce
    12a4: 51 f0 1f d1  	.word	0xd11ff051
    12a8: 70 52 f9 72  	.word	0x72f95270
    12ac: 8e c3 6d d8  	.word	0xd86dc38e
    12b0: 38 c1 7c 26  	.word	0x267cc138
    12b4: 0d cd 1f 60  	.word	0x601fcd0d
    12b8: cd 0c e9 29  	.word	0x29e90ccd
    12bc: 64 91 67 2b  	.word	0x2b679164
    12c0: db ff ea 87  	.word	0x87eaffdb
    12c4: d1 85 82 a9  	.word	0xa98285d1
    12c8: 64 a8 d0 d8  	.word	0xd8d0a864
    12cc: bb fb b4 a5  	.word	0xa5b4fbbb
    12d0: f7 63 26 02  	.word	0x022663f7
    12d4: 7f f2 58 b6  	.word	0xb658f27f
    12d8: 82 e2 9c d9  	.word	0xd99ce282
    12dc: 22 2b bc 3b  	.word	0x3bbc2b22
    12e0: 58 0a 3c 58  	.word	0x583c0a58
    12e4: 52 c9 17 b9  	.word	0xb917c952
    12e8: f3 c6 e4 0f  	.word	0x0fe4c6f3
    12ec: b8 f9 3f 65  	.word	0x653ff9b8
    12f0: 0c 3c df bc  	.word	0xbcdf3c0c
    12f4: d7 a7 0d 9b  	.word	0x9b0da7d7
    12f8: 0e d6 54 ab  	.word	0xab54d60e
    12fc: b6 ee a0 43  	.word	0x43a0eeb6
    1300: 87 54 4a 6d  	.word	0x6d4a5487
    1304: a4 66 69 39  	.word	0x396966a4
    1308: ba b3 2b ac  	.word	0xac2bb3ba
    130c: 8a a1 11 f8  	.word	0xf811a18a
    1310: 6b b2 28 56  	.word	0x5628b26b
    1314: 5b 68 e4 66  	.word	0x66e4685b
    1318: 92 9b 92 9d  	.word	0x9d929b92
    131c: 02 77 a4 70  	.word	0x70a47702
    1320: e8 5f 87 57  	.word	0x57875fe8
    1324: 23 32 c6 3a  	.word	0x3ac63223
    1328: 8f cb fb f5  	.word	0xf5fbcb8f
    132c: ec f4 d4 d9  	.word	0xd9d4f4ec
    1330: 20 b6 2b 38  	.word	0x382bb620
    1334: 93 84 ee 8d  	.word	0x8dee8493
    1338: dc 9f 79 4c  	.word	0x4c799fdc
    133c: a1 ea c5 50  	.word	0x50c5eaa1
    1340: 3c fb f2 d6  	.word	0xd6f2fb3c
    1344: 8b dc 0e dd  	.word	0xdd0edc8b
    1348: a0 b7 c7 9c  	.word	0x9cc7b7a0
    134c: a7 3a c6 54  	.word	0x54c63aa7
    1350: 1a 9f 8d 2c  	.word	0x2c8d9f1a
    1354: 2b 03 0b ae  	.word	0xae0b032b
    1358: fb 67 29 60  	.word	0x602967fb
    135c: 07 e1 9c 6f  	.word	0x6f9ce107
    1360: 2a c2 e1 cd  	.word	0xcde1c22a
    1364: b1 54 10 ad  	.word	0xad1054b1
    1368: df 32 eb 48  	.word	0x48eb32df
    136c: 02 e9 a8 c4  	.word	0xc4a8e902
    1370: ea c0 cd ac  	.word	0xaccdc0ea
    1374: 33 7b 3e 5f  	.word	0x5f3e7b33
    1378: 3e 96 79 fc  	.word	0xfc79963e
    137c: 13 47 36 72  	.word	0x72364713
    1380: b5 e0 20 35  	.word	0x3520e0b5
    1384: 06 93 96 13  	.word	0x13969306
    1388: fe 03 ea 88  	.word	0x88ea03fe
    138c: 7c cf 7f 43  	.word	0x437fcf7c
    1390: bc 59 c9 d3  	.word	0xd3c959bc
    1394: 0b c4 d4 f7  	.word	0xf7d4c40b
    1398: d9 de 93 f8  	.word	0xf893ded9
    139c: d1 54 91 69  	.word	0x699154d1
    13a0: 26 75 b2 b4  	.word	0xb4b27526
    13a4: 75 5c 5d 31  	.word	0x315d5c75
    13a8: a5 da 36 02  	.word	0x0236daa5
    13ac: 2d 84 cb cc  	.word	0xcccb842d
    13b0: 8e ee 5f 34  	.word	0x345fee8e
    13b4: a3 c8 f0 22  	.word	0x22f0c8a3
    13b8: ed db 39 7d  	.word	0x7d39dbed
    13bc: 61 5a 97 73  	.word	0x73975a61
    13c0: 10 da 75 63  	.word	0x6375da10
    13c4: f9 4d 02 e4  	.word	0xe4024df9
    13c8: 70 c8 30 18  	.word	0x1830c870
    13cc: 1a 25 d3 78  	.word	0x78d3251a
    13d0: 1c d9 8c 65  	.word	0x658cd91c
    13d4: 48 19 2b 90  	.word	0x902b1948
    13d8: 8a 43 b7 29  	.word	0x29b7438a
    13dc: 0b b1 18 7e  	.word	0x7e18b10b
    13e0: 46 3e 43 f4  	.word	0xf4433e46
    13e4: 92 f3 37 6f  	.word	0x6f37f392
    13e8: 18 6b 56 1f  	.word	0x1f566b18
    13ec: a1 b9 19 0e  	.word	0x0e19b9a1
    13f0: 62 d6 d1 1f  	.word	0x1fd1d662
    13f4: 8a b7 0f 22  	.word	0x220fb78a
    13f8: 4d c9 81 a3  	.word	0xa381c94d
    13fc: 58 42 2a 36  	.word	0x362a4258
    1400: 2f eb 6b 2b  	.word	0x2b6beb2f
    1404: 13 d9 71 90  	.word	0x9071d913
    1408: 47 82 41 28  	.word	0x28418247
    140c: ad e9 26 0f  	.word	0x0f26e9ad
    1410: 5d 92 ec bd  	.word	0xbdec925d
    1414: c9 1e b9 ea  	.word	0xeab91ec9
    1418: de f2 8a f4  	.word	0xf48af2de
    141c: c8 5b e6 4b  	.word	0x4be65bc8
    1420: 28 70 6e a3  	.word	0xa36e7028
    1424: eb 7f 48 78  	.word	0x78487feb
    1428: 34 ce d8 1d  	.word	0x1dd8ce34
    142c: 00 13 3f 5f  	.word	0x5f3f1300
    1430: 89 c4 30 4b  	.word	0x4b30c489
    1434: 2d b1 4f 93  	.word	0x934fb12d
    1438: 2b 0a 7f 39  	.word	0x397f0a2b
    143c: 4d 24 6c 05  	.word	0x056c244d
    1440: 34 62 c2 57  	.word	0x57c26234
    1444: a2 fb 50 1d  	.word	0x1d50fba2
    1448: 8b 67 b0 de  	.word	0xdeb0678b
    144c: 3a 82 d4 7b  	.word	0x7bd4823a
    1450: f5 8a 53 a6  	.word	0xa6538af5
    1454: 6e dc b0 c2  	.word	0xc2b0dc6e
    1458: 3e a7 1d 35  	.word	0x351da73e
    145c: c6 ee 65 56  	.word	0x5665eec6
    1460: 10 b2 bf 43  	.word	0x43bfb210
    1464: 09 e0 3e db  	.word	0xdb3ee009
    1468: c2 0a 80 20  	.word	0x20800ac2
    146c: 87 01 72 49  	.word	0x49720187
    1470: 67 86 bd 73  	.word	0x73bd8667
    1474: 61 5d ab 26  	.word	0x26ab5d61
    1478: 38 49 20 ab  	.word	0xab204938
    147c: c2 09 b2 20  	.word	0x20b209c2
    1480: 4b b3 7f c0  	.word	0xc07fb34b
    1484: 2a 34 9e 54  	.word	0x549e342a
    1488: 93 3d 37 21  	.word	0x21373d93
    148c: 08 22 d8 02  	.word	0x02d82208
    1490: 67 f5 d1 ac  	.word	0xacd1f567
    1494: 70 2d 26 bc  	.word	0xbc262d70
    1498: 84 c7 ca fb  	.word	0xfbcac784
    149c: fd c9 92 7a  	.word	0x7a92c9fd
    14a0: 89 32 bd 16  	.word	0x16bd3289
    14a4: 45 a9 cc 1f  	.word	0x1fcca945
    14a8: 28 04 42 41  	.word	0x41420428
    14ac: aa 65 8d 44  	.word	0x448d65aa
    14b0: 62 5d a5 16  	.word	0x16a55d62
    14b4: b2 b7 c3 59  	.word	0x59c3b7b2
    14b8: d8 2c 61 4e  	.word	0x4e612cd8
    14bc: c6 2c 99 49  	.word	0x49992cc6
    14c0: de 01 f8 70  	.word	0x70f801de
    14c4: ea 1b bd 65  	.word	0x65bd1bea
    14c8: 8a e2 49 fe  	.word	0xfe49e28a
    14cc: c0 b7 ef 1b  	.word	0x1befb7c0
    14d0: 4a ae b2 b1  	.word	0xb1b2ae4a
    14d4: cd 06 63 a8  	.word	0xa86306cd
    14d8: 09 2a 5c 26  	.word	0x265c2a09
    14dc: cd c0 7a 3b  	.word	0x3b7ac0cd
    14e0: ec bc 01 8c  	.word	0x8c01bcec
    14e4: 43 ee 2b 82  	.word	0x822bee43
    14e8: 3b c7 fb c0  	.word	0xc0fbc73b
    14ec: 25 b5 0c 53  	.word	0x530cb525
    14f0: e9 3f 95 c1  	.word	0xc1953fe9
    14f4: 34 90 51 48  	.word	0x48519034
    14f8: 5b 0f 9a e0  	.word	0xe09a0f5b
    14fc: 61 c2 5c 26  	.word	0x265cc261
    1500: a7 39 ed 22  	.word	0x22ed39a7
    1504: 4f 4e d5 f0  	.word	0xf0d54e4f
    1508: 0a 15 08 56  	.word	0x5608150a
    150c: 1e e9 aa a2  	.word	0xa2aae91e
    1510: 75 e8 da ed  	.word	0xeddae875
    1514: e9 b2 21 f4  	.word	0xf421b2e9
    1518: 92 e9 7d 6b  	.word	0x6b7de992
    151c: 1d 53 bc 31  	.word	0x31bc531d
    1520: 71 f9 80 a9  	.word	0xa980f971
    1524: 4d 13 3d df  	.word	0xdf3d134d
    1528: a7 22 1a 22  	.word	0x221a22a7
    152c: d1 b8 4f 7a  	.word	0x7a4fb8d1
    1530: d8 d6 aa 35  	.word	0x35aad6d8
    1534: 20 d4 f7 3d  	.word	0x3df7d420
    1538: 5e 12 1a 6a  	.word	0x6a1a125e
    153c: cc ed 14 2a  	.word	0x2a14edcc
    1540: 4e ce cf 52  	.word	0x52cfce4e
    1544: 07 ee 48 df  	.word	0xdf48ee07
    1548: b7 08 ec 06  	.word	0x06ec08b7
    154c: f3 fa ff c3  	.word	0xc3fffaf3
    1550: c4 59 54 b9  	.word	0xb95459c4
    1554: 2a 0b 71 05  	.word	0x05710b2a
    1558: 8d a3 3e 96  	.word	0x963ea38d
    155c: fa 25 1d 16  	.word	0x161d25fa
    1560: 3c 43 78 04  	.word	0x0478433c
    1564: 57 8c 1a 23  	.word	0x231a8c57
    1568: 9d 43 81 c2  	.word	0xc281439d
    156c: 0e 27 b5 b7  	.word	0xb7b5270e
    1570: 9f 07 d9 e3  	.word	0xe3d9079f
    1574: ea 99 aa db  	.word	0xdbaa99ea
    1578: d9 03 2b 6c  	.word	0x6c2b03d9
    157c: 25 f5 03 2c  	.word	0x2c03f525
    1580: 7d a4 53 7b  	.word	0x7b53a47d
    1584: 75 18 0f 79  	.word	0x790f1875
    1588: 79 58 0c cf  	.word	0xcf0c5879
    158c: 30 01 7b 30  	.word	0x307b0130
    1590: f9 f7 7e 25  	.word	0x257ef7f9
    1594: 77 3d 90 31  	.word	0x31903d77
    1598: af bb 96 bd  	.word	0xbd96bbaf
    159c: bd 68 94 69  	.word	0x699468bd
    15a0: cf fe da f4  	.word	0xf4dafecf
    15a4: 46 2f 1f bd  	.word	0xbd1f2f46
    15a8: f7 d6 7f a4  	.word	0xa47fd6f7
    15ac: 14 01 ef 7c  	.word	0x7cef0114
    15b0: 7f b3 47 4a  	.word	0x4a47b37f
    15b4: da fd 1f d3  	.word	0xd31ffdda
    15b8: 85 57 90 73  	.word	0x73905785
    15bc: a4 19 52 52  	.word	0x525219a4
    15c0: 48 19 a9 6a  	.word	0x6aa91948
    15c4: e6 3d dd d8  	.word	0xd8dd3de6
    15c8: cc d2 c0 2f  	.word	0x2fc0d2cc
    15cc: c2 64 50 48  	.word	0x485064c2
    15d0: 2f ea fd 34  	.word	0x34fdea2f
    15d4: 66 24 48 9b  	.word	0x9b482466
    15d8: 3a 2e 4a 6c  	.word	0x6c4a2e3a
    15dc: 4e 1c 3e 29  	.word	0x293e1c4e
    15e0: e1 12 51 92  	.word	0x925112e1
    15e4: 4b 13 6e 37  	.word	0x376e134b
    15e8: a0 5d a1 dc  	.word	0xdca15da0
    15ec: b5 78 37 70  	.word	0x703778b5
    15f0: 11 31 1c 46  	.word	0x461c3111
    15f4: af 89 45 b0  	.word	0xb04589af
    15f8: 23 28 03 7f  	.word	0x7f032823
    15fc: 44 5c 60 5b  	.word	0x5b605c44
    1600: 89 7c c4 20  	.word	0x20c47c89
    1604: 59 80 65 b9  	.word	0xb9658059
    1608: cc 8f 3b 92  	.word	0x923b8fcc
    160c: 0c 10 f0 e7  	.word	0xe7f0100c
    1610: 77 ef e2 02  	.word	0x02e2ef77
    1614: 65 25 01 00  	.word	0x00012565
    1618: ee b3 ae a8  	.word	0xa8aeb3ee
    161c: ce 6d a7 24  	.word	0x24a76dce
    1620: 4c f0 e7 f0  	.word	0xf0e7f04c
    1624: c6 fe e9 3b  	.word	0x3be9fec6
    1628: 62 49 e3 75  	.word	0x75e34962
    162c: 9e 57 6a 86  	.word	0x866a579e
    1630: 1a e6 1d 1e  	.word	0x1e1de61a
    1634: 16 ef 42 55  	.word	0x5542ef16
    1638: d5 bd 5a cc  	.word	0xcc5abdd5
    163c: f4 fe 12 2f  	.word	0x2f12fef4
    1640: 40 c7 c0 df  	.word	0xdfc0c740
    1644: b2 22 45 0a  	.word	0x0a4522b2
    1648: 07 a4 c9 40  	.word	0x40c9a407
    164c: 7f 6e d0 10  	.word	0x10d06e7f
    1650: 68 f6 cf 78  	.word	0x78cff668
    1654: 41 14 cf c6  	.word	0xc6cf1441
    1658: 90 37 a4 18  	.word	0x18a43790
    165c: 25 7b 60 5e  	.word	0x5e607b25
    1660: 18 18 df 6c  	.word	0x6cdf1818
    1664: 8f 1d b3 58  	.word	0x58b31d8f
    1668: a2 58 62 c3  	.word	0xc36258a2
    166c: 4f a7 cf 35  	.word	0x35cfa74f
    1670: 6e 1d e6 66  	.word	0x66e61d6e
    1674: 4f ff b3 e1  	.word	0xe1b3ff4f
    1678: f7 d5 cd 6c  	.word	0x6ccdd5f7
    167c: ab ac 67 50  	.word	0x5067acab
    1680: 14 cf 96 a5  	.word	0xa596cf14
    1684: 1c 43 2c a0  	.word	0xa02c431c
    1688: 00 e4 d3 ae  	.word	0xaed3e400
    168c: 40 2d c4 e3  	.word	0xe3c42d40
    1690: db 26 0f 2e  	.word	0x2e0f26db
    1694: 80 26 45 d2  	.word	0xd2452680
    1698: 68 70 45 9e  	.word	0x9e457068
    169c: 13 33 1f 20  	.word	0x201f3313
    16a0: 51 9d 03 08  	.word	0x08039d51
    16a4: 6b 7f 52 fd  	.word	0xfd527f6b
    16a8: 06 00 7c 01  	.word	0x017c0006
    16ac: 64 49 b1 18  	.word	0x18b14964
    16b0: a8 a4 25 2e  	.word	0x2e25a4a8
    16b4: b0 0e 22 d5  	.word	0xd5220eb0
    16b8: 75 03 46 62  	.word	0x62460375
    16bc: 88 ba 7c 39  	.word	0x397cba88
    16c0: b2 59 59 f0  	.word	0xf05959b2
    16c4: 93 30 c1 30  	.word	0x30c13093
    16c8: 76 79 a9 e9  	.word	0xe9a97976
    16cc: 8d a1 3a e2  	.word	0xe23aa18d
    16d0: 26 5e 1d 72  	.word	0x721d5e26
    16d4: 91 d4 2f 22  	.word	0x222fd491
    16d8: 3a 6c 6e 76  	.word	0x766e6c3a
    16dc: 20 d3 39 23  	.word	0x2339d320
    16e0: e7 79 13 c8  	.word	0xc81379e7
    16e4: fb c3 15 78  	.word	0x7815c3fb
    16e8: f1 2a e1 dd  	.word	0xdde12af1
    16ec: 20 94 61 a6  	.word	0xa6619420
    16f0: d5 fd a8 85  	.word	0x85a8fdd5
    16f4: f8 c0 a9 ff  	.word	0xffa9c0f8
    16f8: 52 c2 e1 c1  	.word	0xc1e1c252
    16fc: 22 40 1b 77  	.word	0x771b4022
    1700: a7 2f 3a 51  	.word	0x513a2fa7
    1704: 86 d9 7d d8  	.word	0xd87dd986
    1708: 08 cf d4 f9  	.word	0xf9d4cf08
    170c: 71 9b ac f5  	.word	0xf5ac9b71
    1710: b3 83 a2 1e  	.word	0x1ea283b3
    1714: 1b c3 6b d0  	.word	0xd06bc31b
    1718: 76 1a 97 19  	.word	0x19971a76
    171c: 92 18 1a 33  	.word	0x331a1892
    1720: c6 80 4f fb  	.word	0xfb4f80c6
    1724: 45 6f 16 f5  	.word	0xf5166f45
    1728: cf 75 c7 61  	.word	0x61c775cf
    172c: de c7 36 9c  	.word	0x9c36c7de
    1730: 1c d9 41 90  	.word	0x9041d91c
    1734: 1b e8 d4 e3  	.word	0xe3d4e81b
    1738: 21 fe bd 83  	.word	0x83bdfe21
    173c: 6b 7c 16 31  	.word	0x31167c6b
    1740: af 72 75 9d  	.word	0x9d7572af
    1744: 3a 2f 51 26  	.word	0x26512f3a
    1748: 9e 4a 07 68  	.word	0x68074a9e
    174c: 88 e2 cb 5b  	.word	0x5bcbe288
    1750: c4 f7 80 11  	.word	0x1180f7c4
    1754: c1 c1 ed 84  	.word	0x84edc1c1
    1758: 7b a6 49 f6  	.word	0xf649a67b
    175c: 9f 61 c9 1a  	.word	0x1ac9619f
    1760: 68 10 4b 52  	.word	0x524b1068
    1764: 42 38 2b f2  	.word	0xf22b3842
    1768: 87 e9 9c ee  	.word	0xee9ce987
    176c: 3b 34 68 50  	.word	0x5068343b
    1770: c8 50 62 4a  	.word	0x4a6250c8
    1774: 84 71 9d fc  	.word	0xfc9d7184
    1778: 11 b1 08 1f  	.word	0x1f08b111
    177c: 34 36 24 61  	.word	0x61243634
    1780: 8d 89 4e 87  	.word	0x874e898d
    1784: db 41 9d d9  	.word	0xd99d41db
    1788: 20 dc 07 6c  	.word	0x6c07dc20
    178c: f1 a5 fe 09  	.word	0x09fea5f1
    1790: bc 9b 0f d0  	.word	0xd00f9bbc
    1794: 67 2c 3d 79  	.word	0x793d2c67
    1798: 40 ff 5e 9e  	.word	0x9e5eff40
    179c: 30 e2 eb 46  	.word	0x46ebe230
    17a0: 38 26 2d 1a  	.word	0x1a2d2638
    17a4: e3 49 63 8b  	.word	0x8b6349e3
    17a8: 35 fd d3 9b  	.word	0x9bd3fd35
    17ac: 00 b7 df 9d  	.word	0x9ddfb700
    17b0: a4 6b a0 a3  	.word	0xa3a06ba4
    17b4: b8 f1 8b 7f  	.word	0x7f8bf1b8
    17b8: 45 04 d9 78  	.word	0x78d90445
    17bc: 31 aa 22 15  	.word	0x1522aa31
    17c0: 38 49 61 69  	.word	0x69614938
    17c4: 53 2f 38 2c  	.word	0x2c382f53
    17c8: 10 6d 2d b7  	.word	0xb72d6d10
    17cc: 9a 40 fe da  	.word	0xdafe409a
    17d0: 27 f2 46 b6  	.word	0xb646f227
    17d4: 91 33 c8 e8  	.word	0xe8c83391
    17d8: 6c 30 24 05  	.word	0x0524306c
    17dc: f5 70 fe 45  	.word	0x45fe70f5
    17e0: 8c 0b 0c 96  	.word	0x960c0b8c
    17e4: a6 75 48 da  	.word	0xda4875a6
    17e8: 20 2f 0e ef  	.word	0xef0e2f20
    17ec: 76 d0 68 5b  	.word	0x5b68d076
    17f0: d4 8f 0b 3d  	.word	0x3d0b8fd4
    17f4: cf 51 fb 07  	.word	0x07fb51cf
    17f8: d4 92 e3 a0  	.word	0xa0e392d4
    17fc: 23 16 8d 42  	.word	0x428d1623
    1800: 91 14 95 c8  	.word	0xc8951491
    1804: 20 49 f2 62  	.word	0x62f24920
    1808: a2 0c 63 3f  	.word	0x3f630ca2
    180c: c8 07 f0 05  	.word	0x05f007c8
    1810: b8 d4 c9 f5  	.word	0xf5c9d4b8
    1814: d2 45 bb 6f  	.word	0x6fbb45d2
    1818: 45 22 7a b5  	.word	0xb57a2245
    181c: 6d 9f 61 16  	.word	0x16619f6d
    1820: fd 08 a3 01  	.word	0x01a308fd
    1824: 44 4a 4f 08  	.word	0x084f4a44
    1828: ac ca a5 76  	.word	0x76a5caac
    182c: c3 19 22 a8  	.word	0xa82219c3
    1830: 7d bc d1 43  	.word	0x43d1bc7d
    1834: 46 de b8 de  	.word	0xdeb8de46
    1838: c6 38 bd 60  	.word	0x60bd38c6
    183c: 2d 59 81 1d  	.word	0x1d81592d
    1840: 38 4c 2a ec  	.word	0xec2a4c38
    1844: be d7 33 d8  	.word	0xd833d7be
    1848: ed 20 cc 0a  	.word	0x0acc20ed
    184c: 83 62 91 2c  	.word	0x2c916283
    1850: 81 75 df 92  	.word	0x92df7581
    1854: aa 47 3a e9  	.word	0xe93a47aa
    1858: 81 4a 3c 33  	.word	0x333c4a81
    185c: a3 67 2d 70  	.word	0x702d67a3
    1860: a1 c8 89 2f  	.word	0x2f89c8a1
    1864: 9a 36 4a 3a  	.word	0x3a4a369a
    1868: 0d e8 8d 7c  	.word	0x7c8de80d
    186c: 1d 7a 13 63  	.word	0x63137a1d
    1870: 15 a0 ed 78  	.word	0x78eda015
    1874: 8a 00 ac bc  	.word	0xbcac008a
    1878: 3f b0 83 b4  	.word	0xb483b03f
    187c: a5 b3 b8 2c  	.word	0x2cb8b3a5
    1880: a1 90 1b cb  	.word	0xcb1b90a1
    1884: cb 17 e4 36  	.word	0x36e417cb
    1888: 4e 79 11 7f  	.word	0x7f11794e
    188c: aa dd b3 33  	.word	0x33b3ddaa
    1890: 07 c6 5b 88  	.word	0x885bc607
    1894: 08 08 51 3f  	.word	0x3f510808
    1898: 0d 02 a8 e6  	.word	0xe6a8020d
    189c: c0 1d 14 24  	.word	0x24141dc0
    18a0: 9d ee ef 3f  	.word	0x3fefee9d
    18a4: 77 3c f7 59  	.word	0x59f73c77
    18a8: 9d 98 cf c1  	.word	0xc1cf989d
    18ac: 89 ef f1 b3  	.word	0xb3f1ef89
    18b0: 5f 54 2e e0  	.word	0xe02e545f
    18b4: 42 fb 5d e3  	.word	0xe35dfb42
    18b8: 7c b4 a1 47  	.word	0x47a1b47c
    18bc: 0b 12 66 57  	.word	0x5766120b
    18c0: 7d 15 83 bd  	.word	0xbd83157d
    18c4: cc 5d 92 91  	.word	0x91925dcc
    18c8: 94 80 cc 22  	.word	0x22cc8094
    18cc: 53 20 a1 3c  	.word	0x3ca12053
    18d0: e4 d6 90 3f  	.word	0x3f90d6e4
    18d4: 18 7f e5 28  	.word	0x28e57f18
    18d8: 7b 76 2e de  	.word	0xde2e767b
    18dc: ce 14 47 1a  	.word	0x1a4714ce
    18e0: ff b7 b6 b8  	.word	0xb8b6b7ff
    18e4: 0f ba 20 db  	.word	0xdb20ba0f
    18e8: a1 1f 51 77  	.word	0x77511fa1
    18ec: b6 c3 32 b7  	.word	0xb732c3b6
    18f0: 89 2d f0 99  	.word	0x99f02d89
    18f4: c0 51 2b a9  	.word	0xa92b51c0
    18f8: f1 a5 9c 48  	.word	0x489ca5f1
    18fc: ad 75 38 4f  	.word	0x4f3875ad
    1900: 22 ab 32 49  	.word	0x4932ab22
    1904: 2f 76 fc c7  	.word	0xc7fc762f
    1908: 1b 3c 4c 2f  	.word	0x2f4c3c1b
    190c: f7 ed c0 7a  	.word	0x7ac0edf7
    1910: e8 95 a8 9a  	.word	0x9aa895e8
    1914: aa 55 6b 5f  	.word	0x5f6b55aa
    1918: 81 00 0a ad  	.word	0xad0a0081
    191c: 4d 27 80 36  	.word	0x3680274d
    1920: c0 ee 73 ee  	.word	0xee73eec0
    1924: f6 13 ed 79  	.word	0x79ed13f6
    1928: b1 0b 11 69  	.word	0x69110bb1
    192c: 6d 52 c6 a5  	.word	0xa5c6526d
    1930: 0c 86 03 86  	.word	0x8603860c
    1934: c3 28 89 e4  	.word	0xe48928c3
    1938: f5 59 70 fd  	.word	0xfd7059f5
    193c: 46 14 2a 72  	.word	0x722a1446
    1940: 19 88 cf a8  	.word	0xa8cf8819
    1944: e9 9f 95 d0  	.word	0xd0959fe9
    1948: 9c a9 75 84  	.word	0x8475a99c
    194c: 50 95 a9 d0  	.word	0xd0a99550
    1950: c5 9c b0 20  	.word	0x20b09cc5
    1954: 33 17 ac 6e  	.word	0x6eac1733
    1958: 95 10 1b 33  	.word	0x331b1095
    195c: 04 cf 8e 62  	.word	0x628ecf04
    1960: bc dd d0 a9  	.word	0xa9d0ddbc
    1964: 18 b1 bc 98  	.word	0x98bcb118
    1968: 2b 80 b4 08  	.word	0x08b4802b
    196c: 34 9e 44 ee  	.word	0xee449e34
    1970: 04 b1 a6 b8  	.word	0xb8a6b104
    1974: 26 92 08 87  	.word	0x87089226
    1978: 5d 91 c7 45  	.word	0x45c7915d
    197c: 9a 34 5f 68  	.word	0x685f349a
    1980: f1 cc 74 5c  	.word	0x5c74ccf1
    1984: f8 ac 41 9b  	.word	0x9b41acf8
    1988: 51 52 26 08  	.word	0x08265251
    198c: 81 31 73 b6  	.word	0xb6733181
    1990: 47 b1 ad 11  	.word	0x11adb147
    1994: ed 2a c9 99  	.word	0x99c92aed
    1998: 0f b4 ec 34  	.word	0x34ecb40f
    199c: 0d d7 47 7a  	.word	0x7a47d70d
    19a0: f5 a4 43 cc  	.word	0xcc43a4f5
    19a4: cb c4 a0 60  	.word	0x60a0c4cb
    19a8: a9 be 77 36  	.word	0x3677bea9
    19ac: ca 66 5c 77  	.word	0x775c66ca
    19b0: ed f5 f8 2f  	.word	0x2ff8f5ed
    19b4: 75 a1 7a a1  	.word	0xa17aa175
    19b8: c0 fd 01 0e  	.word	0x0e01fdc0
    19bc: 02 d9 de 11  	.word	0x11ded902
    19c0: 04 e7 ef ca  	.word	0xcaefe704
    19c4: 09 78 0e 89  	.word	0x890e7809
    19c8: 6c 8c 0e e3  	.word	0xe30e8c6c
    19cc: 6d 29 28 87  	.word	0x8728296d
    19d0: c9 b1 ae 92  	.word	0x92aeb1c9
    19d4: a3 d2 5c 4c  	.word	0x4c5cd2a3
    19d8: 1f 53 71 57  	.word	0x5771531f
    19dc: d1 63 42 19  	.word	0x194263d1
    19e0: b7 93 ea 3b  	.word	0x3bea93b7
    19e4: b0 95 1f 47  	.word	0x471f95b0
    19e8: d3 ab 13 33  	.word	0x3313abd3
    19ec: d4 d7 52 05  	.word	0x0552d7d4
    19f0: 7b 3f 7e e1  	.word	0xe17e3f7b
    19f4: e2 70 93 bd  	.word	0xbd9370e2
    19f8: ec 5b 0e b2  	.word	0xb20e5bec
    19fc: 1d 0f 12 7b  	.word	0x7b120f1d
    1a00: 7a 2d 50 86  	.word	0x86502d7a
    1a04: 3d fb d2 17  	.word	0x17d2fb3d
    1a08: 52 93 a6 50  	.word	0x50a69352
    1a0c: 44 d8 64 b5  	.word	0xb564d844
    1a10: 5d d7 0e a6  	.word	0xa60ed75d
    1a14: c8 62 a9 7d  	.word	0x7da962c8
    1a18: aa 36 87 31  	.word	0x318736aa
    1a1c: 5b f8 d0 00  	.word	0x00d0f85b
    1a20: fd 84 7c 77  	.word	0x777c84fd
    1a24: 2e 14 8b 97  	.word	0x978b142e
    1a28: 62 c0 a8 05  	.word	0x05a8c062
    1a2c: 47 64 02 f4  	.word	0xf4026447
    1a30: c7 12 e6 e7  	.word	0xe7e612c7
    1a34: 1b d5 7a a6  	.word	0xa67ad51b
    1a38: 33 6a dd 98  	.word	0x98dd6a33
    1a3c: 96 45 7b 2f  	.word	0x2f7b4596
    1a40: c1 21 76 fd  	.word	0xfd7621c1
    1a44: 1e 3c 75 a6  	.word	0xa6753c1e
    1a48: f5 71 56 44  	.word	0x445671f5
    1a4c: a7 b4 c0 69  	.word	0x69c0b4a7
    1a50: 11 3c b2 05  	.word	0x05b23c11
    1a54: 74 52 1f 97  	.word	0x971f5274
    1a58: cd c7 a8 51  	.word	0x51a8c7cd
    1a5c: 48 c7 7b 38  	.word	0x387bc748
    1a60: a8 a9 52 4a  	.word	0x4a52a9a8
    1a64: 4d 4b 89 81  	.word	0x81894b4d
    1a68: 2f 83 b8 f6  	.word	0xf6b8832f
    1a6c: 12 3e d9 ad  	.word	0xadd93e12
    1a70: 38 d6 1b b6  	.word	0xb61bd638
    1a74: 48 85 4d 18  	.word	0x184d8548
    1a78: cd f6 c9 d6  	.word	0xd6c9f6cd
    1a7c: db 62 1c 3f  	.word	0x3f1c62db
    1a80: 1f 0c 91 91  	.word	0x91910c1f
    1a84: 00 1f 8f 2e  	.word	0x2e8f1f00
    1a88: 2c e1 f2 bf  	.word	0xbff2e12c
    1a8c: e0 4f df a4  	.word	0xa4df4fe0
    1a90: 38 74 92 ee  	.word	0xee927438
    1a94: 0a 56 c6 60  	.word	0x60c6560a
    1a98: fa c8 ef ac  	.word	0xacefc8fa
    1a9c: 3f 28 38 63  	.word	0x6338283f
    1aa0: 3d 69 8f 14  	.word	0x148f693d
    1aa4: 40 3e ad 3f  	.word	0x3fad3e40
    1aa8: 72 9a eb 94  	.word	0x94eb9a72
    1aac: e1 56 26 05  	.word	0x052656e1
    1ab0: 2f 4e 4f 18  	.word	0x184f4e2f
    1ab4: fd cb 4d 2f  	.word	0x2f4dcbfd
    1ab8: 8b e1 82 c4  	.word	0xc482e18b
    1abc: b1 8d 6f 40  	.word	0x406f8db1
    1ac0: e4 1e 19 7f  	.word	0x7f191ee4
    1ac4: 2c 0d 63 9e  	.word	0x9e630d2c
    1ac8: 70 f6 3f bc  	.word	0xbc3ff670
    1acc: 01 83 bf 4f  	.word	0x4fbf8301
    1ad0: c4 73 fb 7a  	.word	0x7afb73c4
    1ad4: 4e 8e 7d 78  	.word	0x787d8e4e
    1ad8: a5 8f f5 e8  	.word	0xe8f58fa5
    1adc: 5b 3d d8 50  	.word	0x50d83d5b
    1ae0: 97 18 1a c1  	.word	0xc11a1897
    1ae4: 16 39 68 85  	.word	0x85683916
    1ae8: 08 d0 06 e5  	.word	0xe506d008
    1aec: ef a4 69 2d  	.word	0x2d69a4ef
    1af0: 01 bd 64 f6  	.word	0xf664bd01
    1af4: 78 13 af 39  	.word	0x39af1378
    1af8: c6 17 15 36  	.word	0x361517c6
    1afc: 31 21 94 65  	.word	0x65942131
    1b00: 6d b6 d3 b4  	.word	0xb4d3b66d
    1b04: 90 cf ac c0  	.word	0xc0accf90
    1b08: 60 2e 73 61  	.word	0x61732e60
    1b0c: e5 9d 05 a7  	.word	0xa7059de5
    1b10: ba b0 c6 70  	.word	0x70c6b0ba
    1b14: 78 1f 3d 03  	.word	0x033d1f78
    1b18: e4 46 d9 26  	.word	0x26d946e4
    1b1c: cd 61 41 58  	.word	0x584161cd
    1b20: a2 7c d2 72  	.word	0x72d27ca2
    1b24: a0 b1 f2 bb  	.word	0xbbf2b1a0
    1b28: 04 c7 de fb  	.word	0xfbdec704
    1b2c: 59 3c 39 bf  	.word	0xbf393c59
    1b30: 1e b8 62 e2  	.word	0xe262b81e
    1b34: ce bb 8d e9  	.word	0xe98dbbce
    1b38: 89 b5 29 30  	.word	0x3029b589
    1b3c: 0b bd ee 02  	.word	0x02eebd0b
    1b40: 5f ac 0d a6  	.word	0xa60dac5f
    1b44: 56 87 36 61  	.word	0x61368756
    1b48: 57 dc ab eb  	.word	0xebabdc57
    1b4c: 6a 2f e0 17  	.word	0x17e02f6a
    1b50: 7d 0f ce 4c  	.word	0x4cce0f7d
    1b54: 2d 3f 19 7f  	.word	0x7f193f2d
    1b58: f0 dc ec 89  	.word	0x89ecdcf0
    1b5c: 77 4a 23 20  	.word	0x20234a77
    1b60: e8 c5 85 7b  	.word	0x7b85c5e8
    1b64: 9f b6 65 87  	.word	0x8765b69f
    1b68: b2 ba 68 d1  	.word	0xd168bab2
    1b6c: 8b 67 f0 6f  	.word	0x6ff0678b
    1b70: 9b 0f 33 1d  	.word	0x1d330f9b
    1b74: 7c e7 70 3a  	.word	0x3a70e77c
    1b78: 7c 8e af b0  	.word	0xb0af8e7c
    1b7c: 51 6d 5f 3a  	.word	0x3a5f6d51
    1b80: 52 b2 78 71  	.word	0x7178b252
    1b84: b6 0d d2 76  	.word	0x76d20db6
    1b88: 60 d1 1e d5  	.word	0xd51ed160
    1b8c: f9 34 1c 07  	.word	0x071c34f9
    1b90: 70 11 e4 b3  	.word	0xb3e41170
    1b94: 20 4a 2a f6  	.word	0xf62a4a20
    1b98: 66 e3 ff 3c  	.word	0x3cffe366
    1b9c: 35 82 d6 7c  	.word	0x7cd68235
    1ba0: b6 fa 87 d8  	.word	0xd887fab6
    1ba4: 5b a4 e1 0b  	.word	0x0be1a45b
    1ba8: 6e 3b 40 ba  	.word	0xba403b6e
    1bac: 32 6a 84 2a  	.word	0x2a846a32
    1bb0: 00 60 6e e9  	.word	0xe96e6000
    1bb4: 12 10 92 d9  	.word	0xd9921012
    1bb8: 43 09 dc 3b  	.word	0x3bdc0943
    1bbc: 86 c8 38 28  	.word	0x2838c886
    1bc0: f3 f4 ac 68  	.word	0x68acf4f3
    1bc4: 60 cd 65 a6  	.word	0xa665cd60
    1bc8: d3 e3 d7 3c  	.word	0x3cd7e3d3
    1bcc: 18 2d d9 42  	.word	0x42d92d18
    1bd0: d9 25 60 33  	.word	0x336025d9
    1bd4: 9d 38 59 57  	.word	0x5759389d
    1bd8: ff d8 2c 2b  	.word	0x2b2cd8ff
    1bdc: 3b 25 f0 3e  	.word	0x3ef0253b
    1be0: 30 50 46 4a  	.word	0x4a465030
    1be4: cf b0 6b d1  	.word	0xd16bb0cf
    1be8: ab 77 c5 15  	.word	0x15c577ab
    1bec: 41 6b 49 fa  	.word	0xfa496b41
    1bf0: 9d 41 ab f4  	.word	0xf4ab419d
    1bf4: 8a ae cf 82  	.word	0x82cfae8a
    1bf8: 12 28 a8 06  	.word	0x06a82812
    1bfc: a6 b8 dc 21  	.word	0x21dcb8a6
    1c00: c8 9f 9d 8c  	.word	0x8c9d9fc8
    1c04: 46 04 60 5c  	.word	0x5c600446
    1c08: cb a3 2a d4  	.word	0xd42aa3cb
    1c0c: 6e 09 40 25  	.word	0x2540096e
    1c10: 9c 2f ee 12  	.word	0x12ee2f9c
    1c14: 4c 4d 5b 12  	.word	0x125b4d4c
    1c18: ab 1d a3 94  	.word	0x94a31dab
    1c1c: 81 d0 c3 0b  	.word	0x0bc3d081
    1c20: ba 31 77 be  	.word	0xbe7731ba
    1c24: fa 00 8d 9a  	.word	0x9a8d00fa
    1c28: 89 18 9e 62  	.word	0x629e1889
    1c2c: 7e 60 03 82  	.word	0x8203607e
    1c30: 7f d9 f3 43  	.word	0x43f3d97f
    1c34: 37 02 cc b2  	.word	0xb2cc0237
    1c38: 8b 67 6f 6c  	.word	0x6c6f678b
    1c3c: bf 0d 84 5d  	.word	0x5d840dbf
    1c40: 8b e1 9f 30  	.word	0x309fe18b
    1c44: 0d 38 6e 70  	.word	0x706e380d
    1c48: c7 65 e1 b9  	.word	0xb9e165c7
    1c4c: a6 2d b0 6e  	.word	0x6eb02da6
    1c50: ab 20 ae 7d  	.word	0x7dae20ab
    1c54: 99 ba bb 57  	.word	0x57bbba99
    1c58: dd 96 c1 2a  	.word	0x2ac196dd
    1c5c: 23 76 42 3a  	.word	0x3a427623
    1c60: fa 84 70 8a  	.word	0x8a7084fa
    1c64: 2c 43 42 4b  	.word	0x4b42432c
    1c68: 45 e5 b9 df  	.word	0xdfb9e545
    1c6c: e3 19 8a 89  	.word	0x898a19e3
    1c70: 5d e4 58 9c  	.word	0x9c58e45d
    1c74: 21 00 9f be  	.word	0xbe9f0021
    1c78: d1 eb 6d a1  	.word	0xa16debd1
    1c7c: ce 77 f1 1f  	.word	0x1ff177ce
    1c80: cb 7e 44 db  	.word	0xdb447ecb
    1c84: 72 c1 f8 3b  	.word	0x3bf8c172
    1c88: bd 2d 28 c6  	.word	0xc6282dbd
    1c8c: 1f c4 cf 5f  	.word	0x5fcfc41f
    1c90: fe 15 aa 75  	.word	0x75aa15fe
    1c94: c0 ff ac 80  	.word	0x80acffc0
    1c98: f9 a9 e1 24  	.word	0x24e1a9f9
    1c9c: e8 c9 70 07  	.word	0x0770c9e8
    1ca0: fd b5 b5 45  	.word	0x45b5b5fd
    1ca4: 9a d9 61 cf  	.word	0xcf61d99a
    1ca8: 24 79 3a 1b  	.word	0x1b3a7924
    1cac: e9 84 09 86  	.word	0x860984e9
    1cb0: 89 3e 3e 30  	.word	0x303e3e89
    1cb4: 19 09 30 e7  	.word	0xe7300919
    1cb8: 1e 0b 50 41  	.word	0x41500b1e
    1cbc: fd 64 f2 39  	.word	0x39f264fd
    1cc0: 9c e2 e7 db  	.word	0xdbe7e29c
    1cc4: 17 34 ad a7  	.word	0xa7ad3417
    1cc8: 9c 13 9c 2b  	.word	0x2b9c139c
    1ccc: 6a 37 94 bd  	.word	0xbd94376a
    1cd0: a9 7b 59 93  	.word	0x93597ba9
    1cd4: 8e 1b e9 a0  	.word	0xa0e91b8e
    1cd8: 40 98 88 68  	.word	0x68889840
    1cdc: 34 d7 12 17  	.word	0x1712d734
    1ce0: e1 7b 09 fe  	.word	0xfe097be1
    1ce4: ab 4a 9b d1  	.word	0xd19b4aab
    1ce8: 29 19 e0 df  	.word	0xdfe01929
    1cec: e1 fc 6d a4  	.word	0xa46dfce1
    1cf0: ff f1 a6 2c  	.word	0x2ca6f1ff
    1cf4: 94 08 c9 c3  	.word	0xc3c90894
    1cf8: 4e f1 35 2c  	.word	0x2c35f14e
    1cfc: 27 21 c6 65  	.word	0x65c62127
    1d00: dd 93 31 ce  	.word	0xce3193dd
    1d04: f8 89 2b e7  	.word	0xe72b89f8
    1d08: bb c0 25 a1  	.word	0xa125c0bb
    1d0c: 56 33 10 4d  	.word	0x4d103356
    1d10: 83 fe 1c 2e  	.word	0x2e1cfe83
    1d14: 3d a9 19 04  	.word	0x0419a93d
    1d18: 72 e2 9c b1  	.word	0xb19ce272
    1d1c: 0a 80 f9 22  	.word	0x22f9800a
    1d20: cb f8 9e 3e  	.word	0x3e9ef8cb
    1d24: 8a 36 5a 60  	.word	0x605a368a
    1d28: 15 47 50 a5  	.word	0xa5504715
    1d2c: 22 c0 e9 e3  	.word	0xe3e9c022
    1d30: 8f 24 24 5f  	.word	0x5f24248f
    1d34: b0 48 3d 55  	.word	0x553d48b0
    1d38: e5 26 76 64  	.word	0x647626e5
    1d3c: cd 16 f4 13  	.word	0x13f416cd
    1d40: ac fd 6e 9a  	.word	0x9a6efdac
    1d44: dd 9f 02 42  	.word	0x42029fdd
    1d48: 41 49 a5 34  	.word	0x34a54941
    1d4c: be ce 12 b9  	.word	0xb912cebe
    1d50: 7b f3 bd 87  	.word	0x87bdf37b
    1d54: b9 64 0f 64  	.word	0x640f64b9
    1d58: b4 ca 98 85  	.word	0x8598cab4
    1d5c: d3 a4 71 41  	.word	0x4171a4d3
    1d60: 8c 4c c9 99  	.word	0x99c94c8c
    1d64: aa 58 27 fa  	.word	0xfa2758aa
    1d68: 07 b8 00 b0  	.word	0xb000b807
    1d6c: 6f 6f 00 23  	.word	0x23006f6f
    1d70: 92 53 da ad  	.word	0xadda5392
    1d74: dd 91 d2 fb  	.word	0xfbd291dd
    1d78: ab d1 4b 57  	.word	0x574bd1ab
    1d7c: fa 14 82 50  	.word	0x508214fa
    1d80: 4b fe d6 3e  	.word	0x3ed6fe4b
    1d84: 15 69 02 c2  	.word	0xc2026915
    1d88: c4 77 1d 51  	.word	0x511d77c4
    1d8c: 39 67 5a a6  	.word	0xa65a6739
    1d90: 94 af 14 2c  	.word	0x2c14af94
    1d94: 46 26 de cb  	.word	0xcbde2646
    1d98: 4b a7 ab 6f  	.word	0x6faba74b
    1d9c: ec 60 f9 22  	.word	0x22f960ec
    1da0: d6 03 d0 53  	.word	0x53d003d6
    1da4: bb 15 1a 46  	.word	0x461a15bb
    1da8: 65 c9 f3 bc  	.word	0xbcf3c965
    1dac: 88 28 10 b2  	.word	0xb2102888
    1db0: 5a 3a 68 6c  	.word	0x6c683a5a
    1db4: 75 76 c5 27  	.word	0x27c57675
    1db8: 47 b4 6c c8  	.word	0xc86cb447
    1dbc: a4 58 77 3a  	.word	0x3a7758a4
    1dc0: 76 50 ae 93  	.word	0x93ae5076
    1dc4: f6 11 81 54  	.word	0x548111f6
    1dc8: a6 54 fd 1d  	.word	0x1dfd54a6
    1dcc: df 21 ae 1d  	.word	0x1dae21df
    1dd0: 65 5e 11 f3  	.word	0xf3115e65
    1dd4: 90 8c 24 12  	.word	0x12248c90
    1dd8: 94 f4 e7 8d  	.word	0x8de7f494
    1ddc: 5f d1 9f 5d  	.word	0x5d9fd15f
    1de0: 7f 72 63 6d  	.word	0x6d63727f
    1de4: d3 08 14 03  	.word	0x031408d3
    1de8: 33 b5 c7 d7  	.word	0xd7c7b533
    1dec: ef 9a 37 6a  	.word	0x6a379aef
    1df0: 4b e2 ae cc  	.word	0xccaee24b
    1df4: c5 8f e1 a9  	.word	0xa9e18fc5
    1df8: d3 be 8f 4f  	.word	0x4f8fbed3
    1dfc: 91 35 2f 33  	.word	0x332f3591
    1e00: 1e 52 d7 ee  	.word	0xeed7521e
    1e04: 2a 4d 24 3f  	.word	0x3f244d2a
    1e08: 15 96 2e 43  	.word	0x432e9615
    1e0c: 28 90 3a 8e  	.word	0x8e3a9028
    1e10: d4 16 9c 2e  	.word	0x2e9c16d4
    1e14: 77 ba 64 e1  	.word	0xe164ba77
    1e18: d8 98 eb 47  	.word	0x47eb98d8
    1e1c: fa 87 c1 3b  	.word	0x3bc187fa
    1e20: 0c c2 86 ea  	.word	0xea86c20c
    1e24: 15 01 47 6d  	.word	0x6d470115
    1e28: 25 d1 46 6c  	.word	0x6c46d125
    1e2c: cb b7 8a 99  	.word	0x998ab7cb
    1e30: 88 01 66 3a  	.word	0x3a660188
    1e34: b5 32 78 d7  	.word	0xd77832b5
    1e38: 03 ba 6f 90  	.word	0x906fba03
    1e3c: ce 81 0d 45  	.word	0x450d81ce
    1e40: 02 39 45 d8  	.word	0xd8453902
    1e44: 2a 4d ae f8  	.word	0xf8ae4d2a
    1e48: 1d 2d db e8  	.word	0xe8db2d1d
    1e4c: 8e 05 18 70  	.word	0x7018058e
    1e50: 1e c1 d2 c7  	.word	0xc7d2c11e
    1e54: 5f 99 b3 aa  	.word	0xaab3995f
    1e58: 79 ca cc 24  	.word	0x24ccca79
    1e5c: 23 6d b1 53  	.word	0x53b16d23
    1e60: b5 e0 ca b2  	.word	0xb2cae0b5
    1e64: 66 4d 26 23  	.word	0x23264d66
    1e68: 76 65 ca eb  	.word	0xebca6576
    1e6c: 33 ed ba 7d  	.word	0x7dbaed33
    1e70: c8 4a d2 f0  	.word	0xf0d24ac8
    1e74: d6 be 0e 03  	.word	0x030ebed6
    1e78: 10 55 63 f7  	.word	0xf7635510
    1e7c: 78 7f 88 2a  	.word	0x2a887f78
    1e80: 4f 2d 01 5c  	.word	0x5c012d4f
    1e84: e7 b9 23 2a  	.word	0x2a23b9e7
    1e88: ea f2 e1 ca  	.word	0xcae1f2ea
    1e8c: 51 46 97 0c  	.word	0x0c974651
    1e90: ca 70 5d 67  	.word	0x675d70ca
    1e94: 73 32 b6 2f  	.word	0x2fb63273
    1e98: f5 03 44 86  	.word	0x864403f5
    1e9c: 0b 25 a7 0b  	.word	0x0ba7250b
    1ea0: 21 64 9c 02  	.word	0x029c6421
    1ea4: fd 18 0d bb  	.word	0xbb0d18fd
    1ea8: 02 8f 29 89  	.word	0x89298f02
    1eac: 21 14 2d bc  	.word	0xbc2d1421
    1eb0: 96 0e 25 8b  	.word	0x8b250e96
    1eb4: e6 f8 47 83  	.word	0x8347f8e6
    1eb8: c9 71 2d 03  	.word	0x032d71c9
    1ebc: e8 2f 9f 7b  	.word	0x7b9f2fe8
    1ec0: 9c 6d f8 86  	.word	0x86f86d9c
    1ec4: 93 58 63 dd  	.word	0xdd635893
    1ec8: a4 85 3a e1  	.word	0xe13a85a4
    1ecc: 76 91 69 61  	.word	0x61699176
    1ed0: 57 7d aa 4e  	.word	0x4eaa7d57
    1ed4: 95 11 51 2e  	.word	0x2e511195
    1ed8: fb bd 60 fb  	.word	0xfb60bdfb
    1edc: 57 1b c2 32  	.word	0x32c21b57
    1ee0: 80 07 9e 31  	.word	0x319e0780
    1ee4: cd 23 78 d8  	.word	0xd87823cd
    1ee8: c5 75 77 89  	.word	0x897775c5
    1eec: c1 cf c4 ef  	.word	0xefc4cfc1
    1ef0: f7 b3 0a 9a  	.word	0x9a0ab3f7
    1ef4: 12 fb 54 48  	.word	0x4854fb12
    1ef8: 71 c3 38 72  	.word	0x7238c371
    1efc: 41 9d c4 12  	.word	0x12c49d41
    1f00: 69 37 e8 ff  	.word	0xffe83769
    1f04: 33 b5 50 09  	.word	0x0950b533
    1f08: d1 6b 1d 8e  	.word	0x8e1d6bd1
    1f0c: 1d 1c 86 21  	.word	0x21861c1d
    1f10: 10 e5 02 13  	.word	0x1302e510
    1f14: 38 d8 22 f0  	.word	0xf022d838
    1f18: b4 ca 91 63  	.word	0x6391cab4
    1f1c: 0c 20 09 25  	.word	0x2509200c
    1f20: 42 95 79 83  	.word	0x83799542
    1f24: 17 a0 b3 09  	.word	0x09b3a017
    1f28: 3f ee d5 aa  	.word	0xaad5ee3f
    1f2c: 8f d0 6d 62  	.word	0x626dd08f
    1f30: 9f 14 70 eb  	.word	0xeb70149f
    1f34: ee bc 00 ba  	.word	0xba00bcee
    1f38: c9 44 a4 a0  	.word	0xa0a444c9
    1f3c: 46 b2 21 14  	.word	0x1421b246
    1f40: c7 a7 24 8c  	.word	0x8c24a7c7
    1f44: 8e 3a a4 4a  	.word	0x4aa43a8e
    1f48: f5 5e f0 d8  	.word	0xd8f05ef5
    1f4c: 40 f5 c1 04  	.word	0x04c1f540
    1f50: dc b9 3e 0b  	.word	0x0b3eb9dc
    1f54: 0c 5e ba ad  	.word	0xadba5e0c
    1f58: e3 9c a4 48  	.word	0x48a49ce3
    1f5c: 44 50 b5 2a  	.word	0x2ab55044
    1f60: ec 5d 0f 6f  	.word	0x6f0f5dec
    1f64: 26 27 d2 2e  	.word	0x2ed22726
    1f68: 24 08 d5 5e  	.word	0x5ed50824
    1f6c: 41 ee 24 98  	.word	0x9824ee41
    1f70: 15 d4 68 94  	.word	0x9468d415
    1f74: 7c ec 7b 80  	.word	0x807bec7c
    1f78: 3f e2 21 b5  	.word	0xb521e23f
    1f7c: e1 ba 93 70  	.word	0x7093bae1
    1f80: fa 3a 5d 1c  	.word	0x1c5d3afa
    1f84: 63 ac 07 dc  	.word	0xdc07ac63
    1f88: 6c 8c df f9  	.word	0xf9df8c6c
    1f8c: 71 51 61 58  	.word	0x58615171
    1f90: b0 e2 73 9d  	.word	0x9d73e2b0
    1f94: d8 79 a0 72  	.word	0x72a079d8
    1f98: 5d e1 ea b4  	.word	0xb4eae15d
    1f9c: ce f4 01 73  	.word	0x7301f4ce
    1fa0: 41 2c 72 d6  	.word	0xd6722c41
    1fa4: 59 e7 09 64  	.word	0x6409e759
    1fa8: 9b 72 bf 72  	.word	0x72bf729b
    1fac: cf e1 74 a6  	.word	0xa674e1cf
    1fb0: 69 e5 21 3c  	.word	0x3c21e569
    1fb4: eb 24 0a bc  	.word	0xbc0a24eb
    1fb8: 23 cb ba 4e  	.word	0x4ebacb23
    1fbc: d2 67 01 39  	.word	0x390167d2
    1fc0: 1c 3f 35 ba  	.word	0xba353f1c
    1fc4: 3b 8e f5 27  	.word	0x27f58e3b
    1fc8: 61 43 6a bf  	.word	0xbf6a4361
    1fcc: 4d 76 47 4c  	.word	0x4c47764d
    1fd0: 50 26 56 6e  	.word	0x6e562650
    1fd4: e5 c4 bb af  	.word	0xafbbc4e5
    1fd8: 5d a4 e1 aa  	.word	0xaae1a45d
    1fdc: e6 2e db 07  	.word	0x07db2ee6
    1fe0: 0b 12 f2 a2  	.word	0xa2f2120b
    1fe4: 4b 05 bb d7  	.word	0xd7bb054b
    1fe8: b7 89 05 b1  	.word	0xb10589b7
    1fec: ae ce b9 e2  	.word	0xe2b9ceae
    1ff0: be ed c0 f3  	.word	0xf3c0edbe
    1ff4: c8 ba e8 3f  	.word	0x3fe8bac8
    1ff8: 69 cb 12 71  	.word	0x7112cb69
    1ffc: 76 40 bd 4c  	.word	0x4cbd4076
    2000: 76 81 c5 29  	.word	0x29c58176
    2004: c0 3c 60 0b  	.word	0x0b603cc0
    2008: 61 5d b1 5c  	.word	0x5cb15d61
    200c: 82 e3 88 59  	.word	0x5988e382
    2010: 8d ad f0 dc  	.word	0xdcf0ad8d
    2014: 13 14 b6 2b  	.word	0x2bb61413
    2018: 87 32 18 74  	.word	0x74183287
    201c: 6c ec 8e 7b  	.word	0x7b8eec6c
    2020: b0 7c d2 2c  	.word	0x2cd27cb0
    2024: 78 40 ca e4  	.word	0xe4ca4078
    2028: bd 67 e9 fb  	.word	0xfbe967bd
    202c: 23 c3 f9 da  	.word	0xdaf9c323
    2030: 9e 1e d4 8a  	.word	0x8ad41e9e
    2034: 4a d3 9b b2  	.word	0xb29bd34a
    2038: 4d de 6e 62  	.word	0x626ede4d
    203c: 97 04 81 72  	.word	0x72810497
    2040: 73 6b 38 fc  	.word	0xfc386b73
    2044: 70 e5 fe 32  	.word	0x32fee570
    2048: c7 8c 3a da  	.word	0xda3a8cc7
    204c: 41 01 8b da  	.word	0xda8b0141
    2050: 59 83 96 c8  	.word	0xc8968359
    2054: 0a fd 5f 97  	.word	0x975ffd0a
    2058: 55 a8 32 b1  	.word	0xb132a855
    205c: a1 09 e8 6e  	.word	0x6ee809a1
    2060: 3a 86 fd fc  	.word	0xfcfd863a
    2064: 31 bb 44 94  	.word	0x9444bb31
    2068: c5 48 4e 3e  	.word	0x3e4e48c5
    206c: 0a 69 e3 2f  	.word	0x2fe3690a
    2070: 25 fa 88 d0  	.word	0xd088fa25
    2074: 67 c8 29 dc  	.word	0xdc29c867
    2078: 2e 29 73 d1  	.word	0xd173292e
    207c: 38 1e bd 13  	.word	0x13bd1e38
    2080: b5 49 61 69  	.word	0x696149b5
    2084: d8 4c 2b d3  	.word	0xd32b4cd8
    2088: b7 aa d8 81  	.word	0x81d8aab7
    208c: d7 37 59 e5  	.word	0xe55937d7
    2090: 94 2b 12 ae  	.word	0xae122b94
    2094: 27 21 cb 0b  	.word	0x0bcb2127
    2098: b0 99 40 b1  	.word	0xb14099b0
    209c: cf 6f e8 41  	.word	0x41e86fcf
    20a0: 21 c5 fa 1d  	.word	0x1dfac521
    20a4: cf b5 3f 22  	.word	0x223fb5cf
    20a8: 50 44 55 6f  	.word	0x6f554450
    20ac: 31 25 5c 32  	.word	0x325c2531
    20b0: ac 77 91 65  	.word	0x659177ac
    20b4: d7 98 0b 03  	.word	0x030b98d7
    20b8: bd a4 88 4f  	.word	0x4f88a4bd
    20bc: b6 18 d0 1e  	.word	0x1ed018b6
    20c0: b0 a6 02 b8  	.word	0xb802a6b0
    20c4: a1 df 30 36  	.word	0x3630dfa1
    20c8: d5 3b ad 42  	.word	0x42ad3bd5
    20cc: 47 87 0f 88  	.word	0x880f8747
    20d0: d4 a4 c5 ee  	.word	0xeec5a4d4
    20d4: 6c 0d f9 0a  	.word	0x0af90d6c
    20d8: d9 c5 cd 37  	.word	0x37cdc5d9
    20dc: 7a 24 6a 74  	.word	0x746a247a
    20e0: f6 9a 7b 2b  	.word	0x2b7b9af6
    20e4: bd b8 31 d5  	.word	0xd531b8bd
    20e8: 51 5b fc 37  	.word	0x37fc5b51
    20ec: 35 09 05 50  	.word	0x50050935
    20f0: 6d 54 93 c5  	.word	0xc593546d
    20f4: 25 cf 2f 23  	.word	0x232fcf25
    20f8: 49 0f b4 2b  	.word	0x2bb40f49
    20fc: 14 65 a3 20  	.word	0x20a36514
    2100: ed 41 d9 78  	.word	0x78d941ed
    2104: 52 d8 cc 6e  	.word	0x6eccd852
    2108: 43 78 2f d2  	.word	0xd22f7843
    210c: 83 ae 54 22  	.word	0x2254ae83
    2110: b7 cd bf 7b  	.word	0x7bbfcdb7
    2114: 2e d0 22 c5  	.word	0xc522d02e
    2118: e2 e4 f0 bf  	.word	0xbff0e4e2
    211c: 51 33 1e 68  	.word	0x681e3351
    2120: 45 4f 03 83  	.word	0x83034f45
    2124: 9d b5 64 8b  	.word	0x8b64b59d
    2128: fb 0e a2 1f  	.word	0x1fa20efb
    212c: f2 71 8b 2f  	.word	0x2f8b71f2
    2130: e4 50 65 ba  	.word	0xba6550e4
    2134: 95 94 24 69  	.word	0x69249495
    2138: 2b 47 d5 45  	.word	0x45d5472b
    213c: 8e f9 9e 53  	.word	0x539ef98e
    2140: 75 52 20 a6  	.word	0xa6205275
    2144: a1 b6 7b 6e  	.word	0x6e7bb6a1
    2148: 83 8e 3c 41  	.word	0x413c8e83
    214c: d7 21 4f aa  	.word	0xaa4f21d7
    2150: b2 5c 8f e8  	.word	0xe88f5cb2
    2154: 55 d1 56 6f  	.word	0x6f56d155
    2158: e1 5b 34 a6  	.word	0xa6345be1
    215c: 4b 5d e2 2d  	.word	0x2de25d4b
    2160: 3f 74 ae 1c  	.word	0x1cae743f
    2164: 96 d8 74 d0  	.word	0xd074d896
    2168: ed 63 1c ee  	.word	0xee1c63ed
    216c: f5 18 6d f8  	.word	0xf86d18f5
    2170: 29 ed f4 e7  	.word	0xe7f4ed29
    2174: 5b c5 bd 97  	.word	0x97bdc55b
    2178: 08 b1 3a 66  	.word	0x663ab108
    217c: 79 d2 ba 4c  	.word	0x4cbad279
    2180: cd 1f d7 a0  	.word	0xa0d71fcd
    2184: 24 90 d1 80  	.word	0x80d19024
    2188: f8 8a 28 fb  	.word	0xfb288af8
    218c: 0a c2 25 c5  	.word	0xc525c20a
    2190: 19 64 3a 5f  	.word	0x5f3a6419
    2194: 4b 97 a3 b1  	.word	0xb1a3974b
    2198: 33 72 00 e2  	.word	0xe2007233
    219c: ef bc 7f 7d  	.word	0x7d7fbcef
    21a0: 01 28 6b 26  	.word	0x266b2801
    21a4: 6a 1e ef fa  	.word	0xfaef1e6a
    21a8: 16 9f 73 d5  	.word	0xd5739f16
    21ac: c4 68 6c 86  	.word	0x866c68c4
    21b0: 2c 76 03 1b  	.word	0x1b03762c
    21b4: bc 2f 8a f6  	.word	0xf68a2fbc
    21b8: 8d 5a b7 87  	.word	0x87b75a8d
    21bc: 5e 43 75 59  	.word	0x5975435e
    21c0: 94 90 c2 f3  	.word	0xf3c29094
    21c4: c5 5d 7c cd  	.word	0xcd7c5dc5
    21c8: ab 05 91 2a  	.word	0x2a9105ab
    21cc: 9a a2 81 c7  	.word	0xc781a29a
    21d0: 58 30 1c 42  	.word	0x421c3058
    21d4: 36 1d c6 80  	.word	0x80c61d36
    21d8: d7 d4 d8 dc  	.word	0xdcd8d4d7
    21dc: 96 d1 9c 4f  	.word	0x4f9cd196
    21e0: 68 37 7b 6a  	.word	0x6a7b3768
    21e4: d8 97 92 19  	.word	0x199297d8
    21e8: 63 7a d1 1a  	.word	0x1ad17a63
    21ec: 24 58 d0 d0  	.word	0xd0d05824
    21f0: 17 0c 1c 5c  	.word	0x5c1c0c17
    21f4: ad 9c 02 ba  	.word	0xba029cad
    21f8: 07 03 7a 38  	.word	0x387a0307
    21fc: 84 d0 cd 7c  	.word	0x7ccdd084
    2200: 17 04 26 6d  	.word	0x6d260417
    2204: 2c 42 a6 dc  	.word	0xdca6422c
    2208: bd 40 82 94  	.word	0x948240bd
    220c: 50 3d 15 ae  	.word	0xae153d50
    2210: 77 c6 68 fb  	.word	0xfb68c677
    2214: b4 c1 c0 a9  	.word	0xa9c0c1b4
    2218: 53 cf d0 61  	.word	0x61d0cf53
    221c: ed d0 8b 42  	.word	0x428bd0ed
    2220: 93 cc 60 67  	.word	0x6760cc93
    2224: 18 84 0c 9b  	.word	0x9b0c8418
    2228: 99 2a b3 1a  	.word	0x1ab32a99
    222c: 7a 00 ae cd  	.word	0xcdae007a
    2230: 18 da 0b 62  	.word	0x620bda18
    2234: 86 ec 8d a8  	.word	0xa88dec86
    2238: 44 ca 90 81  	.word	0x8190ca44
    223c: 84 ca 93 35  	.word	0x3593ca84
    2240: a7 9a 84 5e  	.word	0x5e849aa7
    2244: 9a 18 13 92  	.word	0x9213189a
    2248: cd fa d8 65  	.word	0x65d8facd
    224c: 35 c3 d8 d4  	.word	0xd4d8c335
    2250: d1 bb fd 53  	.word	0x53fdbbd1
    2254: 5b 54 52 8c  	.word	0x8c52545b
    2258: e6 63 2d da  	.word	0xda2d63e6
    225c: 08 83 39 27  	.word	0x27398308
    2260: 13 d4 5e 43  	.word	0x435ed413
    2264: 28 8d c3 42  	.word	0x42c38d28
    2268: c9 cc 78 32  	.word	0x3278ccc9
    226c: 60 f3 50 bd  	.word	0xbd50f360
    2270: ef 03 da 79  	.word	0x79da03ef
    2274: 1a ab 07 bb  	.word	0xbb07ab1a
    2278: 55 33 8c be  	.word	0xbe8c3355
    227c: ae 97 95 26  	.word	0x269597ae
    2280: 53 24 70 0a  	.word	0x0a702453
    2284: 4c 0e a1 b9  	.word	0xb9a10e4c
    2288: de 1b 7d d5  	.word	0xd57d1bde
    228c: 66 58 a2 0f  	.word	0x0fa25866
    2290: f7 da 27 cd  	.word	0xcd27daf7
    2294: b5 d9 b9 ff  	.word	0xffb9d9b5
    2298: fd 33 2c 49  	.word	0x492c33fd
    229c: 45 29 2c 57  	.word	0x572c2945
    22a0: be 30 cd d6  	.word	0xd6cd30be
    22a4: 45 c7 7f c7  	.word	0xc77fc745
    22a8: fb ae ba e3  	.word	0xe3baaefb
    22ac: d3 e8 df e4  	.word	0xe4dfe8d3
    22b0: 0c da 5d aa  	.word	0xaa5dda0c
    22b4: 30 88 2c a2  	.word	0xa22c8830
    22b8: 80 ca 5b c0  	.word	0xc05bca80
    22bc: 98 54 98 7f  	.word	0x7f985498
    22c0: 17 e1 0b 9f  	.word	0x9f0be117
    22c4: 88 ce 49 38  	.word	0x3849ce88
    22c8: 88 a2 54 7b  	.word	0x7b54a288
    22cc: 1b ad 05 80  	.word	0x8005ad1b
    22d0: 1c 92 fc 23  	.word	0x23fc921c
    22d4: 9f c3 a3 3d  	.word	0x3da3c39f
    22d8: 04 f3 31 0a  	.word	0x0a31f304
    22dc: 47 ec c2 76  	.word	0x76c2ec47
    22e0: 63 63 bf 0f  	.word	0x0fbf6363
    22e4: 52 15 56 d3  	.word	0xd3561552
    22e8: a6 fb 4d cf  	.word	0xcf4dfba6
    22ec: 45 5a 04 08  	.word	0x08045a45
    22f0: c2 a0 3f 87  	.word	0x873fa0c2
    22f4: bc 4f c2 ee  	.word	0xeec24fbc
    22f8: e7 12 9b d6  	.word	0xd69b12e7
    22fc: 3c 65 f2 30  	.word	0x30f2653c
    2300: 85 0c c1 aa  	.word	0xaac10c85
    2304: 38 c9 08 8a  	.word	0x8a08c938
    2308: cb 6b 27 db  	.word	0xdb276bcb
    230c: 60 9b 17 46  	.word	0x46179b60
    2310: 70 ac 6f 0e  	.word	0x0e6fac70
    2314: 1e c0 20 a9  	.word	0xa920c01e
    2318: da 73 64 59  	.word	0x596473da
    231c: f1 73 12 2f  	.word	0x2f1273f1
    2320: 11 1e e0 8a  	.word	0x8ae01e11
    2324: 7c fc 39 47  	.word	0x4739fc7c
    2328: 9f ab 6a 4a  	.word	0x4a6aab9f
    232c: 90 74 52 fd  	.word	0xfd527490
    2330: 2e 8f 72 87  	.word	0x87728f2e
    2334: 82 8a d9 41  	.word	0x41d98a82
    2338: f2 69 5b d8  	.word	0xd85b69f2
    233c: 2a 57 9e 5d  	.word	0x5d9e572a
    2340: c0 0b a7 55  	.word	0x55a70bc0
    2344: d7 8b 48 30  	.word	0x30488bd7
    2348: e7 42 d4 f1  	.word	0xf1d442e7
    234c: a4 b5 d6 06  	.word	0x06d6b5a4
    2350: 62 61 59 bc  	.word	0xbc596162
    2354: 9e a6 d1 ea  	.word	0xead1a69e
    2358: 84 f7 c5 ed  	.word	0xedc5f784
    235c: 97 19 ac 38  	.word	0x38ac1997
    2360: 3b b1 51 a7  	.word	0xa751b13b
    2364: 17 b5 66 06  	.word	0x0666b517
    2368: 8c 85 9b 7e  	.word	0x7e9b858c
    236c: 86 06 7d 74  	.word	0x747d0686
    2370: 49 de 4d 45  	.word	0x454dde49
    2374: 11 c0 ac ac  	.word	0xacacc011
    2378: 9c e6 e9 bf  	.word	0xbfe9e69c
    237c: 9c cd df 22  	.word	0x22dfcd9c
    2380: d9 0c 0d c3  	.word	0xc30d0cd9
    2384: e0 d2 db 8d  	.word	0x8ddbd2e0
    2388: 33 43 bb ac  	.word	0xacbb4333
    238c: 5f 66 8e ad  	.word	0xad8e665f
    2390: 1f 96 2a 32  	.word	0x322a961f
    2394: 8c 25 6b 8f  	.word	0x8f6b258c
    2398: c7 c1 48 54  	.word	0x5448c1c7
    239c: c0 16 29 6b  	.word	0x6b2916c0
    23a0: a1 e0 3b 10  	.word	0x103be0a1
    23a4: b4 59 ec 56  	.word	0x56ec59b4
    23a8: 69 f9 59 d2  	.word	0xd259f969
    23ac: ec ba e3 2e  	.word	0x2ee3baec
    23b0: 32 cd f5 13  	.word	0x13f5cd32
    23b4: 94 b2 7c 79  	.word	0x797cb294
    23b8: 72 e4 cd 24  	.word	0x24cde472
    23bc: 78 87 e9 0f  	.word	0x0fe98778
    23c0: 3b 91 ba 0a  	.word	0x0aba913b
    23c4: d1 34 db 7e  	.word	0x7edb34d1
    23c8: 0e ac 6d 2e  	.word	0x2e6dac0e
    23cc: 82 cd a3 4e  	.word	0x4ea3cd82
    23d0: 15 f8 78 65  	.word	0x6578f815
    23d4: ff 3d 08 66  	.word	0x66083dff
    23d8: 17 0a f0 7f  	.word	0x7ff00a17
    23dc: 30 3f 30 4c  	.word	0x4c303f30
    23e0: 85 8c b2 17  	.word	0x17b28c85
    23e4: d6 3b 0a d3  	.word	0xd30a3bd6
    23e8: ea 3b 77 39  	.word	0x39773bea
    23ec: b7 77 d3 c5  	.word	0xc5d377b7
    23f0: bf 5c 6a 1e  	.word	0x1e6a5cbf
    23f4: 8c e7 c6 c6  	.word	0xc6c6e78c
    23f8: c4 b7 2a 8b  	.word	0x8b2ab7c4
    23fc: f7 b8 61 0d  	.word	0x0d61b8f7
    2400: 00 45 d9 0d  	.word	0x0dd94500
    2404: 58 03 fc 29  	.word	0x29fc0358
    2408: 93 ec bb 6f  	.word	0x6fbbec93
    240c: a4 7a d2 ec  	.word	0xecd27aa4
    2410: f8 a7 e2 c2  	.word	0xc2e2a7f8
    2414: 5f 15 0a 13  	.word	0x130a155f
    2418: d5 a1 06 b7  	.word	0xb706a1d5
    241c: 1a 15 6b 41  	.word	0x416b151a
    2420: b0 36 c1 e9  	.word	0xe9c136b0
    2424: ef d7 a8 56  	.word	0x56a8d7ef
    2428: 20 4b e4 58  	.word	0x58e44b20
    242c: cd e5 07 bd  	.word	0xbd07e5cd
    2430: ab e0 57 1b  	.word	0x1b57e0ab
    2434: da 2f e6 af  	.word	0xafe62fda
    2438: d2 e8 77 42  	.word	0x4277e8d2
    243c: f7 2a 1a 19  	.word	0x191a2af7
    2440: 85 49 6f ab  	.word	0xab6f4985
    2444: 5b 09 50 d5  	.word	0xd550095b
    2448: 1a af bf 4f  	.word	0x4fbfaf1a
    244c: 5b cd f4 04  	.word	0x04f4cd5b
    2450: 40 75 0c 2a  	.word	0x2a0c7540
    2454: d1 2e 8e 9d  	.word	0x9d8e2ed1
    2458: 86 22 21 b2  	.word	0xb2212286
    245c: 04 4e c2 2b  	.word	0x2bc24e04
    2460: 14 9a e0 2f  	.word	0x2fe09a14
    2464: 0b b6 d4 09  	.word	0x09d4b60b
    2468: 7e 74 b1 db  	.word	0xdbb1747e
    246c: af f0 84 c3  	.word	0xc384f0af
    2470: 6e fd b5 78  	.word	0x78b5fd6e
    2474: 89 ea e2 58  	.word	0x58e2ea89
    2478: 0a 9b e0 b5  	.word	0xb5e09b0a
    247c: 77 f5 9e 51  	.word	0x519ef577
    2480: a9 cc 24 11  	.word	0x1124cca9
    2484: d9 d7 63 18  	.word	0x1863d7d9
    2488: 8e 70 8a b8  	.word	0xb88a708e
    248c: 45 81 c0 7a  	.word	0x7ac08145
    2490: f5 31 70 85  	.word	0x857031f5
    2494: 09 73 cd 2b  	.word	0x2bcd7309
    2498: e5 fa b8 8a  	.word	0x8ab8fae5
    249c: 6e 7a 33 62  	.word	0x62337a6e
    24a0: 16 ca ff 06  	.word	0x06ffca16
    24a4: 7f f1 ce 4b  	.word	0x4bcef17f
    24a8: 6a e1 2a 69  	.word	0x692ae16a
    24ac: db e1 06 de  	.word	0xde06e1db
    24b0: b0 42 4f 61  	.word	0x614f42b0
    24b4: 2d 70 53 07  	.word	0x0753702d
    24b8: d0 12 92 5b  	.word	0x5b9212d0
    24bc: b4 41 60 5f  	.word	0x5f6041b4
    24c0: 73 12 3a 1b  	.word	0x1b3a1273
    24c4: 4e 32 ab d1  	.word	0xd1ab324e
    24c8: 40 53 05 81  	.word	0x81055340
    24cc: f1 7c 94 18  	.word	0x18947cf1
    24d0: 6e 19 8c a9  	.word	0xa98c196e
    24d4: 67 95 5d 3b  	.word	0x3b5d9567
    24d8: 68 1e 2e 80  	.word	0x802e1e68
    24dc: 25 04 a0 7f  	.word	0x7fa00425
    24e0: 05 27 8c 02  	.word	0x028c2705
    24e4: 74 15 53 7d  	.word	0x7d531574
    24e8: fe 75 0d db  	.word	0xdb0d75fe
    24ec: 69 7d 31 80  	.word	0x80317d69
    24f0: dd 8d 8c ef  	.word	0xef8c8ddd
    24f4: e8 ac ff 30  	.word	0x30fface8
    24f8: 98 e9 c3 b6  	.word	0xb6c3e998
    24fc: 7b e9 9d 7e  	.word	0x7e9de97b
    2500: a3 85 65 9e  	.word	0x9e6585a3
    2504: 7b 96 58 15  	.word	0x1558967b
    2508: 92 8b e9 98  	.word	0x98e98b92
    250c: e0 9c c9 97  	.word	0x97c99ce0
    2510: ad ad b3 6e  	.word	0x6eb3adad
    2514: 9b 14 af 10  	.word	0x10af149b
    2518: fa 8c d3 f4  	.word	0xf4d38cfa
    251c: e8 1f 18 42  	.word	0x42181fe8
    2520: dd 40 4d a2  	.word	0xa24d40dd
    2524: 62 be 04 f0  	.word	0xf004be62
    2528: 1f d4 52 04  	.word	0x0452d41f
    252c: 91 59 06 ba  	.word	0xba065991
    2530: 34 42 a4 62  	.word	0x62a44234
    2534: e1 5e c4 81  	.word	0x81c45ee1
    2538: ef 66 22 a2  	.word	0xa22266ef
    253c: d8 29 b8 4c  	.word	0x4cb829d8
    2540: 81 66 b8 07  	.word	0x07b86681
    2544: 84 aa bc 1d  	.word	0x1dbcaa84
    2548: 3b 75 26 8b  	.word	0x8b26753b
    254c: 1e 00 1f 08  	.word	0x081f001e
    2550: 81 8e 04 84  	.word	0x84048e81
    2554: 6a ce d7 3c  	.word	0x3cd7ce6a
    2558: 2c f2 25 3f  	.word	0x3f25f22c
    255c: 63 11 af 78  	.word	0x78af1163
    2560: bc ba 50 0b  	.word	0x0b50babc
    2564: d4 eb 16 84  	.word	0x8416ebd4
    2568: ee 8b 20 28  	.word	0x28208bee
    256c: 26 72 08 15  	.word	0x15087226
    2570: 6d c3 c1 b9  	.word	0xb9c1c36d
    2574: af 8f 14 a3  	.word	0xa3148faf
    2578: 5d 7d 2d d3  	.word	0xd32d7d5d
    257c: ac da 07 0d  	.word	0x0d07daac
    2580: 8c 31 65 7d  	.word	0x7d65318c
    2584: 0e c0 41 32  	.word	0x3241c00e
    2588: e7 6d e8 d0  	.word	0xd0e86de7
    258c: dc e5 be e6  	.word	0xe6bee5dc
    2590: 26 8c c0 fb  	.word	0xfbc08c26
    2594: c2 2d 8b 11  	.word	0x118b2dc2
    2598: c3 3d 60 fc  	.word	0xfc603dc3
    259c: a7 04 0d 68  	.word	0x680d04a7
    25a0: eb a3 5a 69  	.word	0x695aa3eb
    25a4: 4a 41 c2 f9  	.word	0xf9c2414a
    25a8: 21 8f a6 05  	.word	0x05a68f21
    25ac: 4c 2c a4 da  	.word	0xdaa42c4c
    25b0: 3e 96 93 7f  	.word	0x7f93963e
    25b4: 98 23 6c 7c  	.word	0x7c6c2398
    25b8: e3 54 39 0c  	.word	0x0c3954e3
    25bc: d3 8c 0e 21  	.word	0x210e8cd3
    25c0: 06 1c a7 10  	.word	0x10a71c06
    25c4: f2 01 42 ac  	.word	0xac4201f2
    25c8: 21 b0 bf f3  	.word	0xf3bfb021
    25cc: ae e0 65 6a  	.word	0x6a65e0ae
    25d0: f7 32 36 39  	.word	0x393632f7
    25d4: 5c c3 42 bc  	.word	0xbc42c35c
    25d8: 42 07 5f 86  	.word	0x865f0742
    25dc: b1 8d ea 56  	.word	0x56ea8db1
    25e0: 26 6c fe 37  	.word	0x37fe6c26
    25e4: 61 f1 50 2b  	.word	0x2b50f161
    25e8: d8 04 e4 56  	.word	0x56e404d8
    25ec: d8 bc 02 e1  	.word	0xe102bcd8
    25f0: 6b 1f 56 4c  	.word	0x4c561f6b
    25f4: 41 f1 b0 12  	.word	0x12b0f141
    25f8: 91 ec 28 d0  	.word	0xd028ec91
    25fc: c8 7b b1 51  	.word	0x51b17bc8
    2600: 19 51 53 cf  	.word	0xcf535119
    2604: 4b fb f5 ff  	.word	0xfff5fb4b
    2608: a0 08 11 df  	.word	0xdf1108a0
    260c: 79 9d 98 f4  	.word	0xf4989d79
    2610: 25 a3 3b 9a  	.word	0x9a3ba325
    2614: 65 ea fc bd  	.word	0xbdfcea65
    2618: f2 a6 d1 74  	.word	0x74d1a6f2
    261c: 11 1f a1 18  	.word	0x18a11f11
    2620: 29 ba 6b 3f  	.word	0x3f6bba29
    2624: ab 75 73 40  	.word	0x407375ab
    2628: 2e 48 1e 99  	.word	0x991e482e
    262c: d8 b6 c3 9e  	.word	0x9ec3b6d8
    2630: e9 92 5f e5  	.word	0xe55f92e9
    2634: 82 0e c8 99  	.word	0x99c80e82
    2638: e1 0a 0c fb  	.word	0xfb0c0ae1
    263c: b6 13 7c 30  	.word	0x307c13b6
    2640: 2c 5f 7a d2  	.word	0xd27a5f2c
    2644: da 3c d6 fb  	.word	0xfbd63cda
    2648: d7 06 a1 8a  	.word	0x8aa106d7
    264c: bc c4 0f f0  	.word	0xf00fc4bc
    2650: 30 a4 64 8e  	.word	0x8e64a430
    2654: 1a 5c fb 53  	.word	0x53fb5c1a
    2658: 85 2e 1a 0c  	.word	0x0c1a2e85
    265c: e5 ab ea 04  	.word	0x04eaabe5
    2660: e7 b5 8a cb  	.word	0xcb8ab5e7
    2664: 21 10 75 24  	.word	0x24751021
    2668: eb 10 50 5c  	.word	0x5c5010eb
    266c: 49 44 23 fc  	.word	0xfc234449
    2670: a1 10 56 4e  	.word	0x4e5610a1
    2674: 7b 71 1e 5f  	.word	0x5f1e717b
    2678: d5 0c 71 c2  	.word	0xc2710cd5
    267c: 18 5f da 44  	.word	0x44da5f18
    2680: b5 2e b8 f1  	.word	0xf1b82eb5
    2684: 5f c5 3c 03  	.word	0x033cc55f
    2688: 52 ae 1c 41  	.word	0x411cae52
    268c: 6d e3 5a b1  	.word	0xb15ae36d
    2690: d3 ac fb 8f  	.word	0x8ffbacd3
    2694: 19 b6 40 ba  	.word	0xba40b619
    2698: 1f 86 2e 53  	.word	0x532e861f
    269c: e1 dc 8e 76  	.word	0x768edce1
    26a0: cc ea d8 89  	.word	0x89d8eacc
    26a4: 6b fe 56 91  	.word	0x9156fe6b
    26a8: a1 26 31 e2  	.word	0xe23126a1
    26ac: 51 94 b7 e6  	.word	0xe6b79451
    26b0: 4e eb 44 39  	.word	0x3944eb4e
    26b4: d9 63 74 bd  	.word	0xbd7463d9
    26b8: ae 03 72 76  	.word	0x767203ae
    26bc: f6 73 63 72  	.word	0x726373f6
    26c0: 8a f6 7e eb  	.word	0xeb7ef68a
    26c4: 72 ca 05 e3  	.word	0xe305ca72
    26c8: 23 db ea 70  	.word	0x70eadb23
    26cc: 1f f3 2c 66  	.word	0x662cf31f
    26d0: 68 5b c4 b4  	.word	0xb4c45b68
    26d4: fd 26 f0 18  	.word	0x18f026fd
    26d8: bd ec d2 b5  	.word	0xb5d2ecbd
    26dc: 84 53 3b 51  	.word	0x513b5384
    26e0: 9e 98 29 c7  	.word	0xc729989e
    26e4: 80 62 d4 46  	.word	0x46d46280
    26e8: dd a5 68 53  	.word	0x5368a5dd
    26ec: d0 fb 93 4b  	.word	0x4b93fbd0
    26f0: 89 5a 76 d1  	.word	0xd1765a89
    26f4: 81 3f df 63  	.word	0x63df3f81
    26f8: 23 a2 a0 b9  	.word	0xb9a0a223
    26fc: 64 bd ce 34  	.word	0x34cebd64
    2700: eb 4c f3 8a  	.word	0x8af34ceb
    2704: 87 02 27 5e  	.word	0x5e270287
    2708: ae d6 46 b9  	.word	0xb946d6ae
    270c: 09 04 0b 90  	.word	0x900b0409
    2710: 12 85 bd da  	.word	0xdabd8512
    2714: f7 eb 12 65  	.word	0x6512ebf7
    2718: 81 8f 25 88  	.word	0x88258f81
    271c: 69 b7 d9 61  	.word	0x61d9b769
    2720: 4b d9 b7 49  	.word	0x49b7d94b
    2724: 13 a7 c5 a6  	.word	0xa6c5a713
    2728: 46 94 eb 23  	.word	0x23eb9446
    272c: 58 d1 f3 a3  	.word	0xa3f3d158
    2730: 34 48 48 77  	.word	0x77484834
    2734: d2 fb 16 04  	.word	0x0416fbd2
    2738: 2f 81 70 2c  	.word	0x2c70812f
    273c: 6f 5e d4 69  	.word	0x69d45e6f
    2740: 31 14 3c c5  	.word	0xc53c1431
    2744: 4b f7 16 ce  	.word	0xce16f74b
    2748: de ed 72 20  	.word	0x2072edde
    274c: ce 25 97 2b  	.word	0x2b9725ce
    2750: e7 3e b2 b5  	.word	0xb5b23ee7
    2754: 6f c3 b9 b8  	.word	0xb8b9c36f
    2758: 08 c9 5c 0b  	.word	0x0b5cc908
    275c: 45 0e 2e 7e  	.word	0x7e2e0e45
    2760: fb 0e 46 4f  	.word	0x4f460efb
    2764: 43 2b e6 9f  	.word	0x9fe62b43
    2768: d6 07 36 a6  	.word	0xa63607d6
    276c: d4 03 d3 de  	.word	0xded303d4
    2770: 24 da a0 b7  	.word	0xb7a0da24
    2774: 0e 21 52 f0  	.word	0xf052210e
    2778: 93 5b 54 00  	.word	0x00545b93
    277c: be 7d 7e 23  	.word	0x237e7dbe
    2780: 30 b4 01 67  	.word	0x6701b430
    2784: ed 75 35 01  	.word	0x013575ed
    2788: 10 fd 0b 9f  	.word	0x9f0bfd10
    278c: e6 94 10 23  	.word	0x231094e6
    2790: 22 7f e4 83  	.word	0x83e47f22
    2794: 15 0f 32 75  	.word	0x75320f15
    2798: e3 55 11 b1  	.word	0xb11155e3
    279c: 99 a6 af 71  	.word	0x71afa699
    27a0: 1d b6 53 39  	.word	0x3953b61d
    27a4: 9b 6f ce 65  	.word	0x65ce6f9b
    27a8: e6 41 a1 af  	.word	0xafa141e6
    27ac: ea 39 58 c6  	.word	0xc65839ea
    27b0: fe 59 f7 a9  	.word	0xa9f759fe
    27b4: fd 5f 43 0f  	.word	0x0f435ffd
    27b8: 8e c2 b1 c2  	.word	0xc2b1c28e
    27bc: e9 42 11 02  	.word	0x021142e9
    27c0: d6 50 3b 47  	.word	0x473b50d6
    27c4: 1c 3c 42 ea  	.word	0xea423c1c
    27c8: 10 ef 38 3b  	.word	0x3b38ef10
    27cc: 1f 7a e8 51  	.word	0x51e87a1f
    27d0: 95 be c9 b2  	.word	0xb2c9be95
    27d4: 5f bf 84 9b  	.word	0x9b84bf5f
    27d8: 1c 9a f8 78  	.word	0x78f89a1c
    27dc: bc 1f 73 00  	.word	0x00731fbc
    27e0: 80 18 f8 48  	.word	0x48f81880
    27e4: 18 c7 30 e4  	.word	0xe430c718
    27e8: 19 c1 ce 5e  	.word	0x5ecec119
    27ec: 22 0c 96 bf  	.word	0xbf960c22
    27f0: e3 15 ba 6b  	.word	0x6bba15e3
    27f4: 83 e0 da b6  	.word	0xb6dae083
    27f8: 08 58 e1 47  	.word	0x47e15808
    27fc: 33 6f 4d 4c  	.word	0x4c4d6f33
    2800: c9 1f 7d c1  	.word	0xc17d1fc9
    2804: cf ec f7 18  	.word	0x18f7eccf
    2808: 14 3c 40 51  	.word	0x51403c14
    280c: a6 f5 75 6c  	.word	0x6c75f5a6
    2810: df 0c ee f7  	.word	0xf7ee0cdf
    2814: 2b 71 de db  	.word	0xdbde712b
    2818: 22 7a e4 a7  	.word	0xa7e47a22
    281c: aa dd 3f 19  	.word	0x193fddaa
    2820: 70 19 8f 98  	.word	0x988f1970
    2824: fc dd 0c 2f  	.word	0x2f0cddfc
    2828: 1b f5 b9 b0  	.word	0xb0b9f51b
    282c: 27 62 91 6b  	.word	0x6b916227
    2830: be 76 91 77  	.word	0x779176be
    2834: c4 b6 c7 6e  	.word	0x6ec7b6c4
    2838: a8 9f 8f a8  	.word	0xa88f9fa8
    283c: 00 95 bf 38  	.word	0x38bf9500
    2840: 6f 87 e8 37  	.word	0x37e8876f
    2844: 3c c9 d2 1f  	.word	0x1fd2c93c
    2848: 2c 46 d1 18  	.word	0x18d1462c
    284c: 5a 1e f6 a2  	.word	0xa2f61e5a
    2850: 76 12 24 39  	.word	0x39241276
    2854: 82 f5 80 50  	.word	0x5080f582
    2858: 69 49 0d bf  	.word	0xbf0d4969
    285c: 9e b9 6f 6a  	.word	0x6a6fb99e
    2860: eb 55 08 56  	.word	0x560855eb
    2864: bb c1 46 6a  	.word	0x6a46c1bb
    2868: 9d f0 93 f8  	.word	0xf893f09d
    286c: 38 bb 16 24  	.word	0x2416bb38
    2870: c1 ac 71 8f  	.word	0x8f71acc1
    2874: 37 11 1d d7  	.word	0xd71d1137
    2878: ea 96 18 a3  	.word	0xa31896ea
    287c: 14 69 f7 75  	.word	0x75f76914
    2880: c6 23 e4 b6  	.word	0xb6e423c6
    2884: b5 22 b1 ee  	.word	0xeeb122b5
    2888: 8e ff 86 f2  	.word	0xf286ff8e
    288c: 10 70 9d 93  	.word	0x939d7010
    2890: 8c 5d cf 1d  	.word	0x1dcf5d8c
    2894: 83 2a a9 90  	.word	0x90a92a83
    2898: 10 eb c5 42  	.word	0x42c5eb10
    289c: 9f da 6f 13  	.word	0x136fda9f
    28a0: d1 bd 05 a3  	.word	0xa305bdd1
    28a4: b1 df 4c f9  	.word	0xf94cdfb1
    28a8: 08 2c f8 9f  	.word	0x9ff82c08
    28ac: 9d 4b 36 0f  	.word	0x0f364b9d
    28b0: 8a 58 bb c3  	.word	0xc3bb588a
    28b4: a5 d8 87 2a  	.word	0x2a87d8a5
    28b8: ba dc e8 0b  	.word	0x0be8dcba
    28bc: 51 83 21 02  	.word	0x02218351
    28c0: 14 2d ad 5e  	.word	0x5ead2d14
    28c4: 38 66 f7 4a  	.word	0x4af76638
    28c8: 30 58 7c ca  	.word	0xca7c5830
    28cc: 80 d8 8e a0  	.word	0xa08ed880
    28d0: 3d 1e 21 10  	.word	0x10211e3d
    28d4: e6 a6 13 0d  	.word	0x0d13a6e6
    28d8: 03 6c 80 7b  	.word	0x7b806c03
    28dc: e1 1c 07 6a  	.word	0x6a071ce1
    28e0: 7f 7a 30 43  	.word	0x43307a7f
    28e4: 01 71 5a 9d  	.word	0x9d5a7101
    28e8: 5f a4 7d c4  	.word	0xc47da45f
    28ec: 9e de 63 b0  	.word	0xb063de9e
    28f0: d3 7a 92 be  	.word	0xbe927ad3
    28f4: 52 fe bb 22  	.word	0x22bbfe52
    28f8: 6c 42 40 fd  	.word	0xfd40426c
    28fc: 41 c4 87 13  	.word	0x1387c441
    2900: f8 8a 97 87  	.word	0x87978af8
    2904: d1 c3 d3 b5  	.word	0xb5d3c3d1
    2908: 13 44 0e 7f  	.word	0x7f0e4413
    290c: 3d 5a 2b 72  	.word	0x722b5a3d
    2910: a0 7c 47 bb  	.word	0xbb477ca0
    2914: 48 48 7b 0d  	.word	0x0d7b4848
    2918: 92 dc 1e af  	.word	0xaf1edc92
    291c: 6a b2 71 31  	.word	0x3171b26a
    2920: a8 4c 56 97  	.word	0x97564ca8
    2924: 90 31 2f a9  	.word	0xa92f3190
    2928: 19 e1 75 22  	.word	0x2275e119
    292c: 4c b8 7b ff  	.word	0xff7bb84c
    2930: 50 51 87 a4  	.word	0xa4875150
    2934: 37 fe 55 4f  	.word	0x4f55fe37
    2938: 5a 83 f0 3c  	.word	0x3cf0835a
    293c: 87 d4 1f 22  	.word	0x221fd487
    2940: d1 47 8a b2  	.word	0xb28a47d1
    2944: d8 b7 0d a6  	.word	0xa60db7d8
    2948: f1 a4 70 17  	.word	0x1770a4f1
    294c: d6 14 bf a6  	.word	0xa6bf14d6
    2950: 58 bd dd 53  	.word	0x53ddbd58
    2954: 93 f8 a1 d4  	.word	0xd4a1f893
    2958: e9 43 42 34  	.word	0x344243e9
    295c: 63 4a 51 6c  	.word	0x6c514a63
    2960: 41 63 15 3a  	.word	0x3a156341
    2964: 4f 20 22 23  	.word	0x2322204f
    2968: 2d 03 0a ba  	.word	0xba0a032d
    296c: e9 e0 73 fb  	.word	0xfb73e0e9
    2970: 0e 03 0f 41  	.word	0x410f030e
    2974: 4c dd e0 fc  	.word	0xfce0dd4c
    2978: aa 4a 92 fb  	.word	0xfb924aaa
    297c: 96 a5 da 48  	.word	0x48daa596
    2980: c7 9c a5 5c  	.word	0x5ca59cc7
    2984: 66 8e ca 6e  	.word	0x6eca8e66
    2988: a0 ac 38 2e  	.word	0x2e38aca0
    298c: 4b 25 47 a8  	.word	0xa847254b
    2990: ce 17 1e d2  	.word	0xd21e17ce
    2994: 08 c7 af 31  	.word	0x31afc708
    2998: f7 4a d8 ca  	.word	0xcad84af7
    299c: fc d6 6d 67  	.word	0x676dd6fc
    29a0: 93 97 4c c8  	.word	0xc84c9793
    29a4: 5d 1d f6 14  	.word	0x14f61d5d
    29a8: 06 82 41 ef  	.word	0xef418206
    29ac: e3 f9 41 99  	.word	0x9941f9e3
    29b0: ac 77 62 34  	.word	0x346277ac
    29b4: 8f b8 f5 cd  	.word	0xcdf5b88f
    29b8: a9 79 8a 0e  	.word	0x0e8a79a9
    29bc: fa 37 c8 58  	.word	0x58c837fa
    29c0: 58 90 fc 96  	.word	0x96fc9058
    29c4: 85 68 f9 0c  	.word	0x0cf96885
    29c8: 1b a0 56 7b  	.word	0x7b56a01b
    29cc: f3 bb dc 1d  	.word	0x1ddcbbf3
    29d0: 6a d6 35 49  	.word	0x4935d66a
    29d4: 7d e7 c2 dc  	.word	0xdcc2e77d
    29d8: 0a 7f a5 c6  	.word	0xc6a57f0a
    29dc: f2 73 4f 1c  	.word	0x1c4f73f2
    29e0: bb a0 5f 30  	.word	0x305fa0bb
    29e4: bd 4f 7a 0e  	.word	0x0e7a4fbd
    29e8: ad 63 c6 54  	.word	0x54c663ad
    29ec: e0 4c 9d 82  	.word	0x829d4ce0
    29f0: 48 38 e3 2f  	.word	0x2fe33848
    29f4: 83 c3 21 f4  	.word	0xf421c383
    29f8: 42 4c f6 1b  	.word	0x1bf64c42
    29fc: 0d c8 5a 79  	.word	0x795ac80d
    2a00: 84 34 7c fc  	.word	0xfc7c3484
    2a04: 6e 70 6e b3  	.word	0xb36e706e
    2a08: 61 cf c1 c3  	.word	0xc3c1cf61
    2a0c: b4 c9 df 73  	.word	0x73dfc9b4
    2a10: e5 c7 1c 78  	.word	0x781cc7e5
    2a14: c9 79 1d eb  	.word	0xeb1d79c9
    2a18: 5c 67 af 7d  	.word	0x7daf675c
    2a1c: db 9a 45 70  	.word	0x70459adb
    2a20: b3 2b b4 91  	.word	0x91b42bb3
    2a24: 49 db 91 1b  	.word	0x1b91db49
    2a28: ca dc 02 4b  	.word	0x4b02dcca
    2a2c: 23 96 26 57  	.word	0x57269623
    2a30: dc 78 8c 1f  	.word	0x1f8c78dc
    2a34: e5 9e df 9f  	.word	0x9fdf9ee5
    2a38: d3 1f e2 8c  	.word	0x8ce21fd3
    2a3c: 84 62 e1 5f  	.word	0x5fe16284
    2a40: 41 7c 07 4d  	.word	0x4d077c41
    2a44: ae 0a 79 e2  	.word	0xe2790aae
    2a48: a3 69 74 db  	.word	0xdb7469a3
    2a4c: 70 82 93 8b  	.word	0x8b938270
    2a50: a2 16 bd 8a  	.word	0x8abd16a2
    2a54: dc 32 b6 6e  	.word	0x6eb632dc
    2a58: 72 4b 06 aa  	.word	0xaa064b72
    2a5c: ec 14 08 72  	.word	0x720814ec
    2a60: 89 53 11 95  	.word	0x95115389
    2a64: c7 29 5c 31  	.word	0x315c29c7
    2a68: ce 74 2f 86  	.word	0x862f74ce
    2a6c: 07 e5 e0 d7  	.word	0xd7e0e507
    2a70: 32 74 92 85  	.word	0x85927432
    2a74: 21 76 4a 0c  	.word	0x0c4a7621
    2a78: e4 a1 25 4a  	.word	0x4a25a1e4
    2a7c: 98 6c de 72  	.word	0x72de6c98
    2a80: 10 a3 6a bf  	.word	0xbf6aa310
    2a84: 53 b5 9a ae  	.word	0xae9ab553
    2a88: 1b 6e 6d 80  	.word	0x806d6e1b
    2a8c: a9 50 0a 05  	.word	0x050a50a9
    2a90: 39 51 ff ad  	.word	0xadff5139
    2a94: 03 74 bb 92  	.word	0x92bb7403
    2a98: 8b 61 be 45  	.word	0x45be618b
    2a9c: 76 d2 94 03  	.word	0x0394d276
    2aa0: f4 ed 7e 85  	.word	0x857eedf4
    2aa4: 51 22 57 4d  	.word	0x4d572251
    2aa8: c5 93 9e e1  	.word	0xe19e93c5
    2aac: dd 4e 72 e3  	.word	0xe3724edd
    2ab0: 35 70 79 0b  	.word	0x0b797035
    2ab4: 0e 42 71 8a  	.word	0x8a71420e
    2ab8: 43 e7 ab 87  	.word	0x87abe743
    2abc: 36 83 3c 3b  	.word	0x3b3c8336
    2ac0: a4 45 35 b2  	.word	0xb23545a4
    2ac4: 25 64 39 f5  	.word	0xf5396425
    2ac8: 96 b2 fb 98  	.word	0x98fbb296
    2acc: 7e a2 a7 15  	.word	0x15a7a27e
    2ad0: 86 dd 6f 63  	.word	0x636fdd86
    2ad4: bc 52 6c ab  	.word	0xab6c52bc
    2ad8: ee 34 93 41  	.word	0x419334ee
    2adc: a8 95 d9 79  	.word	0x79d995a8
    2ae0: 75 dd 95 11  	.word	0x1195dd75
    2ae4: a6 8e 8a cd  	.word	0xcd8a8ea6
    2ae8: 2f a8 d9 1d  	.word	0x1dd9a82f
    2aec: a8 d8 04 a5  	.word	0xa504d8a8
    2af0: b6 79 58 a3  	.word	0xa35879b6
    2af4: 81 ca 0d 54  	.word	0x540dca81
    2af8: 8a 6a c8 79  	.word	0x79c86a8a
    2afc: a3 16 dd 60  	.word	0x60dd16a3
    2b00: 59 e5 81 73  	.word	0x7381e559
    2b04: 48 c8 a2 35  	.word	0x35a2c848
    2b08: cb 82 80 d7  	.word	0xd78082cb
    2b0c: a6 fe 6f 59  	.word	0x596ffea6
    2b10: 53 b6 a7 db  	.word	0xdba7b653
    2b14: eb 71 97 cb  	.word	0xcb9771eb
    2b18: 85 a6 4d 9b  	.word	0x9b4da685
    2b1c: 01 b5 08 5a  	.word	0x5a08b501
    2b20: b8 47 3e 15  	.word	0x153e47b8
    2b24: f8 d6 01 35  	.word	0x3501d6f8
    2b28: 0c f6 a2 14  	.word	0x14a2f60c
    2b2c: 54 67 a9 b7  	.word	0xb7a96754
    2b30: 23 95 5d 45  	.word	0x455d9523
    2b34: b6 e8 2e 11  	.word	0x112ee8b6
    2b38: 8a ea 12 81  	.word	0x8112ea8a
    2b3c: c1 a3 62 4e  	.word	0x4e62a3c1
    2b40: 86 b7 6a 51  	.word	0x516ab786
    2b44: 04 ac d4 c8  	.word	0xc8d4ac04
    2b48: 3d b2 95 52  	.word	0x5295b23d
    2b4c: 21 f3 5a 59  	.word	0x595af321
    2b50: c1 30 02 db  	.word	0xdb0230c1
    2b54: 34 d2 ed d6  	.word	0xd6edd234
    2b58: cc 41 5b 82  	.word	0x825b41cc
    2b5c: e8 ef 29 09  	.word	0x0929efe8
    2b60: d3 f2 d0 cb  	.word	0xcbd0f2d3
    2b64: d1 01 06 5f  	.word	0x5f0601d1
    2b68: 7f bb 32 61  	.word	0x6132bb7f
    2b6c: 2f 41 6e 73  	.word	0x736e412f
    2b70: 87 de 8d 23  	.word	0x238dde87
    2b74: 32 44 60 83  	.word	0x83604432
    2b78: 3c 75 c0 f5  	.word	0xf5c0753c
    2b7c: 72 52 3a 1e  	.word	0x1e3a5272
    2b80: 1d 65 56 ad  	.word	0xad56651d
    2b84: b7 72 31 8b  	.word	0x8b3172b7
    2b88: 17 d7 ab 3f  	.word	0x3fabd717
    2b8c: 7a 1b 58 01  	.word	0x01581b7a
    2b90: e4 f6 4d 42  	.word	0x424df6e4
    2b94: f6 4d c9 2d  	.word	0x2dc94df6
    2b98: 4f 28 29 2c  	.word	0x2c29284f
    2b9c: 5d 6e 37 30  	.word	0x30376e5d
    2ba0: 9c a5 59 81  	.word	0x8159a59c
    2ba4: a7 8d 91 d2  	.word	0xd2918da7
    2ba8: f3 13 07 3f  	.word	0x3f0713f3
    2bac: d9 1c dc 6b  	.word	0x6bdc1cd9
    2bb0: 90 65 cd 4a  	.word	0x4acd6590
    2bb4: 93 7a 5f 56  	.word	0x565f7a93
    2bb8: 28 c1 b4 4c  	.word	0x4cb4c128
    2bbc: ec ac da 53  	.word	0x53daacec
    2bc0: d6 a7 c8 9c  	.word	0x9cc8a7d6
    2bc4: d7 3b a7 4c  	.word	0x4ca73bd7
    2bc8: b2 a9 e9 47  	.word	0x47e9a9b2
    2bcc: 8f 73 4a 4d  	.word	0x4d4a738f
    2bd0: 00 fe f5 42  	.word	0x42f5fe00
    2bd4: 29 f1 cb f4  	.word	0xf4cbf129
    2bd8: 52 07 bf bd  	.word	0xbdbf0752
    2bdc: f9 3f a1 01  	.word	0x01a13ff9
    2be0: b0 fd 2c 85  	.word	0x852cfdb0
    2be4: c3 2b 85 99  	.word	0x99852bc3
    2be8: 0b ed d6 59  	.word	0x59d6ed0b
    2bec: 95 2e c1 2c  	.word	0x2cc12e95
    2bf0: 7b c2 5a 9b  	.word	0x9b5ac27b
    2bf4: bf e2 f9 70  	.word	0x70f9e2bf
    2bf8: 99 ae 59 79  	.word	0x7959ae99
    2bfc: 11 8c 3b 4f  	.word	0x4f3b8c11
    2c00: 12 64 f2 2f  	.word	0x2ff26412
    2c04: c8 c9 b6 55  	.word	0x55b6c9c8
    2c08: a8 67 b6 1f  	.word	0x1fb667a8
    2c0c: c9 a8 c4 1a  	.word	0x1ac4a8c9
    2c10: f2 8b 77 eb  	.word	0xeb778bf2
    2c14: cf bf 27 d5  	.word	0xd527bfcf
    2c18: be a3 12 70  	.word	0x7012a3be
    2c1c: da 37 33 30  	.word	0x303337da
    2c20: 7c 9d 1c 8c  	.word	0x8c1c9d7c
    2c24: 22 22 54 95  	.word	0x95542222
    2c28: 0f 34 9b 1a  	.word	0x1a9b340f
    2c2c: 37 c1 fa 01  	.word	0x01fac137
    2c30: d7 48 5b 92  	.word	0x925b48d7
    2c34: 77 91 8d 7e  	.word	0x7e8d9177
    2c38: 1b e3 b3 61  	.word	0x61b3e31b
    2c3c: 56 ad f8 53  	.word	0x53f8ad56
    2c40: d1 fd d2 fa  	.word	0xfad2fdd1
    2c44: cb 3c 6d 97  	.word	0x976d3ccb
    2c48: a8 40 a6 37  	.word	0x37a640a8
    2c4c: 97 83 88 cb  	.word	0xcb888397
    2c50: 25 cb 34 67  	.word	0x6734cb25
    2c54: 1d 0c f0 2f  	.word	0x2ff00c1d
    2c58: 2b 2d 9c 78  	.word	0x789c2d2b
    2c5c: dc f4 9f 26  	.word	0x269ff4dc
    2c60: 8d 67 8d c0  	.word	0xc08d678d
    2c64: bd 3f 00 0c  	.word	0x0c003fbd
    2c68: 17 2b ad 7e  	.word	0x7ead2b17
    2c6c: a3 2f 98 4d  	.word	0x4d982fa3
    2c70: f1 82 e5 b2  	.word	0xb2e582f1
    2c74: cd 6b 7e c0  	.word	0xc07e6bcd
    2c78: 44 2a 41 df  	.word	0xdf412a44
    2c7c: 91 72 6c 29  	.word	0x296c7291
    2c80: 97 f3 da 33  	.word	0x33daf397
    2c84: 2b de 03 79  	.word	0x7903de2b
    2c88: b3 24 a6 c9  	.word	0xc9a624b3
    2c8c: 19 06 ff d0  	.word	0xd0ff0619
    2c90: 18 3e 5b 55  	.word	0x555b3e18
    2c94: 2b 25 1d 8a  	.word	0x8a1d252b
    2c98: c0 b7 e0 52  	.word	0x52e0b7c0
    2c9c: 1c 58 6d 2b  	.word	0x2b6d581c
    2ca0: 9e b5 b8 da  	.word	0xdab8b59e
    2ca4: 05 32 b2 df  	.word	0xdfb23205
    2ca8: 50 22 09 c8  	.word	0xc8092250
    2cac: a0 ea 5a 46  	.word	0x465aeaa0
    2cb0: 18 5d 72 9a  	.word	0x9a725d18
    2cb4: 18 c1 33 d1  	.word	0xd133c118
    2cb8: d1 17 f1 61  	.word	0x61f117d1
    2cbc: 02 37 27 23  	.word	0x23273702
    2cc0: 86 79 3e 62  	.word	0x623e7986
    2cc4: d3 43 05 3d  	.word	0x3d0543d3
    2cc8: 54 a3 78 c2  	.word	0xc278a354
    2ccc: c2 14 94 67  	.word	0x679414c2
    2cd0: f6 96 61 72  	.word	0x726196f6
    2cd4: cc f0 43 ae  	.word	0xae43f0cc
    2cd8: ba ea 45 82  	.word	0x8245eaba
    2cdc: 1f c4 36 78  	.word	0x7836c41f
    2ce0: 81 5a e9 49  	.word	0x49e95a81
    2ce4: db 54 a2 e7  	.word	0xe7a254db
    2ce8: 73 ad b0 08  	.word	0x08b0ad73
    2cec: d0 d5 92 51  	.word	0x5192d5d0
    2cf0: 07 fc 0a d0  	.word	0xd00afc07
    2cf4: b1 e5 20 4d  	.word	0x4d20e5b1
    2cf8: 38 5f f2 2c  	.word	0x2cf25f38
    2cfc: 01 f8 55 5d  	.word	0x5d55f801
    2d00: 7c 93 11 80  	.word	0x8011937c
    2d04: 84 1e 65 ca  	.word	0xca651e84
    2d08: 28 1a f4 6e  	.word	0x6ef41a28
    2d0c: 6e c4 b0 c6  	.word	0xc6b0c46e
    2d10: 52 8d 3f 5f  	.word	0x5f3f8d52
    2d14: a7 1b 02 b7  	.word	0xb7021ba7
    2d18: fd b9 d7 ea  	.word	0xead7b9fd
    2d1c: 99 ff 9d 11  	.word	0x119dff99
    2d20: 4d 1d b3 f4  	.word	0xf4b31d4d
    2d24: cb df ea 43  	.word	0x43eadfcb
    2d28: 92 88 14 11  	.word	0x11148892
    2d2c: 74 3f 50 c6  	.word	0xc6503f74
    2d30: 17 3b 0d 06  	.word	0x060d3b17
    2d34: c5 68 ee fe  	.word	0xfeee68c5
    2d38: c8 0a 4a dd  	.word	0xdd4a0ac8
    2d3c: b3 93 92 32  	.word	0x329293b3
    2d40: 1a 96 94 e1  	.word	0xe194961a
    2d44: 4f 21 59 4e  	.word	0x4e59214f
    2d48: 4f cd 71 0d  	.word	0x0d71cd4f
    2d4c: c7 7d be 49  	.word	0x49be7dc7
    2d50: 2d f2 50 3b  	.word	0x3b50f22d
    2d54: d2 cf 00 93  	.word	0x9300cfd2
    2d58: 32 72 91 fc  	.word	0xfc917232
    2d5c: 46 d4 89 47  	.word	0x4789d446
    2d60: 08 b2 7c 5d  	.word	0x5d7cb208
    2d64: 2d 85 79 28  	.word	0x2879852d
    2d68: e7 f2 7d 68  	.word	0x687df2e7
    2d6c: 70 dd de b8  	.word	0xb8dedd70
    2d70: 91 78 68 21  	.word	0x21687891
    2d74: ab ff 0b dc  	.word	0xdc0bffab
    2d78: 35 aa 7d 67  	.word	0x677daa35
    2d7c: 43 c0 44 2b  	.word	0x2b44c043
    2d80: 8e b7 4e 07  	.word	0x074eb78e
    2d84: ab 87 1c 1a  	.word	0x1a1c87ab
    2d88: 67 f4 da 99  	.word	0x99daf467
    2d8c: 8e d1 c6 fa  	.word	0xfac6d18e
    2d90: 67 90 4f 48  	.word	0x484f9067
    2d94: cd bb ac 3e  	.word	0x3eacbbcd
    2d98: e4 a4 b9 2b  	.word	0x2bb9a4e4
    2d9c: ef 2e c5 60  	.word	0x60c52eef
    2da0: f1 8b fd 3b  	.word	0x3bfd8bf1
    2da4: bc 89 5d 0b  	.word	0x0b5d89bc
    2da8: 1a 55 f3 c9  	.word	0xc9f3551a
    2dac: 37 92 6b b0  	.word	0xb06b9237
    2db0: f5 28 30 d5  	.word	0xd53028f5
    2db4: b0 16 4c 0e  	.word	0x0e4c16b0
    2db8: ab ca cf 2c  	.word	0x2ccfcaab
    2dbc: 31 9c bc 10  	.word	0x10bc9c31
    2dc0: 11 6d ae 7c  	.word	0x7cae6d11
    2dc4: c2 c5 2b 70  	.word	0x702bc5c2
    2dc8: ab 8c a4 54  	.word	0x54a48cab
    2dcc: 9b 69 c7 44  	.word	0x44c7699b
    2dd0: b2 2e 49 ba  	.word	0xba492eb2
    2dd4: 56 40 bc ef  	.word	0xefbc4056
    2dd8: 6d 67 b6 d9  	.word	0xd9b6676d
    2ddc: 48 72 d7 70  	.word	0x70d77248
    2de0: 5b a0 c2 3e  	.word	0x3ec2a05b
    2de4: 4b e8 8a aa  	.word	0xaa8ae84b
    2de8: e0 81 17 ed  	.word	0xed1781e0
    2dec: f4 9e 69 98  	.word	0x98699ef4
    2df0: d1 85 8e 70  	.word	0x708e85d1
    2df4: e4 13 45 79  	.word	0x794513e4
    2df8: 13 f4 76 a9  	.word	0xa976f413
    2dfc: d3 5b 75 63  	.word	0x63755bd3
    2e00: 53 08 d1 2a  	.word	0x2ad10853
    2e04: 3e a0 5f b5  	.word	0xb55fa03e
    2e08: 69 35 e6 9e  	.word	0x9ee63569
    2e0c: 90 75 6f 35  	.word	0x356f7590
    2e10: 90 b8 69 be  	.word	0xbe69b890
    2e14: fd f1 f9 9f  	.word	0x9ff9f1fd
    2e18: 84 6f c1 8b  	.word	0x8bc16f84
    2e1c: c4 c1 8c 0d  	.word	0x0d8cc1c4
    2e20: b7 ac f1 97  	.word	0x97f1acb7
    2e24: 18 10 c7 3d  	.word	0x3dc71018
    2e28: d8 bb 65 c1  	.word	0xc165bbd8
    2e2c: 5e 7d da 5d  	.word	0x5dda7d5e
    2e30: 0f 02 a1 0f  	.word	0x0fa1020f
    2e34: 9c 5b 8e 50  	.word	0x508e5b9c
    2e38: 56 2a c5 37  	.word	0x37c52a56
    2e3c: 17 75 63 27  	.word	0x27637517
    2e40: a9 19 b4 6e  	.word	0x6eb419a9
    2e44: d3 02 94 02  	.word	0x029402d3
    2e48: a5 60 b4 77  	.word	0x77b460a5
    2e4c: 7e 4e b4 f0  	.word	0xf0b44e7e
    2e50: 56 49 3c d4  	.word	0xd43c4956
    2e54: 30 62 a8 cf  	.word	0xcfa86230
    2e58: e7 66 d1 7a  	.word	0x7ad166e7
    2e5c: 8a dd c2 70  	.word	0x70c2dd8a
    2e60: 0e ec 6f 9f  	.word	0x9f6fec0e
    2e64: 50 94 61 65  	.word	0x65619450
    2e68: 8d 51 c6 46  	.word	0x46c6518d
    2e6c: a9 7e 2e ee  	.word	0xee2e7ea9
    2e70: 5c 9b e0 67  	.word	0x67e09b5c
    2e74: f3 c1 33 97  	.word	0x9733c1f3
    2e78: 95 84 94 63  	.word	0x63948495
    2e7c: 63 ac 0f 2e  	.word	0x2e0fac63
    2e80: 13 7e ed b8  	.word	0xb8ed7e13
    2e84: 7d 96 d4 91  	.word	0x91d4967d
    2e88: 7a 81 76 d7  	.word	0xd776817a
    2e8c: 0a 2f 25 74  	.word	0x74252f0a
    2e90: 64 25 85 0d  	.word	0x0d852564
    2e94: e0 82 09 e4  	.word	0xe40982e0
    2e98: e5 3c a5 16  	.word	0x16a53ce5
    2e9c: 38 61 b8 32  	.word	0x32b86138
    2ea0: 64 cd 48 e4  	.word	0xe448cd64
    2ea4: be f7 e7 79  	.word	0x79e7f7be
    2ea8: d0 86 78 08  	.word	0x087886d0
    2eac: 67 3a c8 6a  	.word	0x6ac83a67
    2eb0: 2e db e4 a0  	.word	0xa0e4db2e
    2eb4: d9 d4 9f f8  	.word	0xf89fd4d9
    2eb8: 41 4f 5a 73  	.word	0x735a4f41
    2ebc: 5c 21 79 41  	.word	0x4179215c
    2ec0: 2a ed dc d7  	.word	0xd7dced2a
    2ec4: e7 94 70 8c  	.word	0x8c7094e7
    2ec8: 70 9c d3 47  	.word	0x47d39c70
    2ecc: c3 8a fb 97  	.word	0x97fb8ac3
    2ed0: 02 d9 06 a9  	.word	0xa906d902
    2ed4: 33 e0 3b e1  	.word	0xe13be033
    2ed8: 76 9d d9 0c  	.word	0x0cd99d76
    2edc: a3 44 03 70  	.word	0x700344a3
    2ee0: 34 cd 6b 28  	.word	0x286bcd34
    2ee4: b9 33 ae e4  	.word	0xe4ae33b9
    2ee8: dc d6 9d 55  	.word	0x559dd6dc
    2eec: b6 7e ef b7  	.word	0xb7ef7eb6
    2ef0: 1f 8e d3 b3  	.word	0xb3d38e1f
    2ef4: 1f 14 8b 27  	.word	0x278b141f
    2ef8: 86 c2 41 22  	.word	0x2241c286
    2efc: 66 85 fa 31  	.word	0x31fa8566
    2f00: f4 22 36 2e  	.word	0x2e3622f4
    2f04: 42 6c 82 af  	.word	0xaf826c42
    2f08: 2d 50 33 98  	.word	0x9833502d
    2f0c: 87 29 20 c1  	.word	0xc1202987
    2f10: 23 91 38 2b  	.word	0x2b389123
    2f14: e1 b7 c1 9b  	.word	0x9bc1b7e1
    2f18: 89 24 95 a9  	.word	0xa9952489
    2f1c: 12 23 bb 24  	.word	0x24bb2312
    2f20: c3 67 de 32  	.word	0x32de67c3
    2f24: 17 ed a8 b1  	.word	0xb1a8ed17
    2f28: 48 49 1b 46  	.word	0x461b4948
    2f2c: 18 94 b4 3c  	.word	0x3cb49418
    2f30: d2 bc cf 76  	.word	0x76cfbcd2
    2f34: 43 43 bd 8e  	.word	0x8ebd4343
    2f38: 08 80 18 1e  	.word	0x1e188008
    2f3c: 87 3e ee 0f  	.word	0x0fee3e87
    2f40: 6b 5c f8 f5  	.word	0xf5f85c6b
    2f44: 2a 0c f8 41  	.word	0x41f80c2a
    2f48: 94 67 fa 04  	.word	0x04fa6794
    2f4c: c3 84 72 68  	.word	0x687284c3
    2f50: ad 1b ba a3  	.word	0xa3ba1bad
    2f54: 99 df 45 89  	.word	0x8945df99
    2f58: 16 5d eb ff  	.word	0xffeb5d16
    2f5c: f9 2a 1d 0d  	.word	0x0d1d2af9
    2f60: df 1e 62 32  	.word	0x32621edf
    2f64: a1 8a da a9  	.word	0xa9da8aa1
    2f68: 79 65 22 59  	.word	0x59226579
    2f6c: a1 22 b8 30  	.word	0x30b822a1
    2f70: 93 c1 9a a7  	.word	0xa79ac193
    2f74: 7b 19 04 40  	.word	0x4004197b
    2f78: 76 1d 53 18  	.word	0x18531d76
    2f7c: 97 d7 ac 16  	.word	0x16acd797
    2f80: 3d 1d 9b 2d  	.word	0x2d9b1d3d
    2f84: af 72 df 72  	.word	0x72df72af
    2f88: 5a 24 32 a4  	.word	0xa432245a
    2f8c: 36 2a 46 63  	.word	0x63462a36
    2f90: 37 96 b3 16  	.word	0x16b39637
    2f94: 79 a0 ce 3e  	.word	0x3ecea079
    2f98: 09 23 30 b9  	.word	0xb9302309
    2f9c: f6 0e 3e 12  	.word	0x123e0ef6
    2fa0: ad b6 87 78  	.word	0x7887b6ad
    2fa4: c5 c6 59 c9  	.word	0xc959c6c5
    2fa8: ba fe 90 5f  	.word	0x5f90feba
    2fac: ad 9e e1 94  	.word	0x94e19ead
    2fb0: 04 f5 42 a3  	.word	0xa342f504
    2fb4: 62 4e e2 16  	.word	0x16e24e62
    2fb8: 00 17 16 18  	.word	0x18161700
    2fbc: 4b d3 4e 16  	.word	0x164ed34b
    2fc0: 9a e6 2f 19  	.word	0x192fe69a
    2fc4: 4c d9 7e 48  	.word	0x487ed94c
    2fc8: 13 15 91 3a  	.word	0x3a911513
    2fcc: ea 2c ae 61  	.word	0x61ae2cea
    2fd0: 27 de a4 b9  	.word	0xb9a4de27
    2fd4: d3 f6 7b 87  	.word	0x877bf6d3
    2fd8: eb f3 73 10  	.word	0x1073f3eb
    2fdc: c6 0f da 78  	.word	0x78da0fc6
    2fe0: 6a c6 2b e5  	.word	0xe52bc66a
    2fe4: 28 5d f1 5b  	.word	0x5bf15d28
    2fe8: 8e 1a f0 70  	.word	0x70f01a8e
    2fec: 18 e3 47 2c  	.word	0x2c47e318
    2ff0: dd 8b c2 06  	.word	0x06c28bdd
    2ff4: bc af 19 24  	.word	0x2419afbc
    2ff8: 3a 17 6b 25  	.word	0x256b173a
    2ffc: eb de 25 2d  	.word	0x2d25deeb
    3000: 94 3a 0c 68  	.word	0x680c3a94
    3004: f1 80 9f a2  	.word	0xa29f80f1
    3008: e6 e7 e9 1a  	.word	0x1ae9e7e6
    300c: 15 7e f7 71  	.word	0x71f77e15
    3010: 73 79 01 48  	.word	0x48017973
    3014: 58 f1 00 11  	.word	0x1100f158
    3018: dd 8d b3 16  	.word	0x16b38ddd
    301c: b3 a4 4a 05  	.word	0x054aa4b3
    3020: b8 7c 26 19  	.word	0x19267cb8
    3024: 8d 46 c8 df  	.word	0xdfc8468d
    3028: af 4d e5 66  	.word	0x66e54daf
    302c: 9c 78 28 0b  	.word	0x0b28789c
    3030: 17 ec 6e 66  	.word	0x666eec17
    3034: 2a 1d eb 2a  	.word	0x2aeb1d2a
    3038: 60 a7 7d ab  	.word	0xab7da760
    303c: a6 10 46 13  	.word	0x134610a6
    3040: 3f b2 59 7c  	.word	0x7c59b23f
    3044: c2 5e f5 ca  	.word	0xcaf55ec2
    3048: f2 04 4d 15  	.word	0x154d04f2
    304c: 3e ed ae 99  	.word	0x99aeed3e
    3050: f4 41 41 e1  	.word	0xe14141f4
    3054: 72 1d 44 68  	.word	0x68441d72
    3058: a2 a0 32 39  	.word	0x3932a0a2
    305c: 13 45 03 14  	.word	0x14034513
    3060: 3c 8c 02 dc  	.word	0xdc028c3c
    3064: e0 30 14 d9  	.word	0xd91430e0
    3068: 71 c7 17 52  	.word	0x5217c771
    306c: a8 55 b9 0e  	.word	0x0eb955a8
    3070: fa a1 99 2c  	.word	0x2c99a1fa
    3074: ed e1 09 4b  	.word	0x4b09e1ed
    3078: 3c 74 6a bd  	.word	0xbd6a743c
    307c: f2 1a 88 42  	.word	0x42881af2
    3080: 3d ad 5c ab  	.word	0xab5cad3d
    3084: 9a c6 fe 7b  	.word	0x7bfec69a
    3088: ad cf b2 4c  	.word	0x4cb2cfad
    308c: d3 8c 3e c2  	.word	0xc23e8cd3
    3090: a2 d6 37 fb  	.word	0xfb37d6a2
    3094: 4b d1 5d 68  	.word	0x685dd14b
    3098: 18 7a 67 15  	.word	0x15677a18
    309c: 44 d6 d6 0a  	.word	0x0ad6d644
    30a0: b5 ec 7b 41  	.word	0x417becb5
    30a4: 9e 43 1a 78  	.word	0x781a439e
    30a8: 66 02 0e d1  	.word	0xd10e0266
    30ac: 8c 93 c5 4a  	.word	0x4ac5938c
    30b0: 24 ac 92 06  	.word	0x0692ac24
    30b4: 11 85 a3 5d  	.word	0x5da38511
    30b8: 33 12 e3 ad  	.word	0xade31233
    30bc: a2 65 b0 11  	.word	0x11b065a2
    30c0: 9f 7e 92 47  	.word	0x47927e9f
    30c4: 28 89 14 79  	.word	0x79148928
    30c8: 77 a8 0a 37  	.word	0x370aa877
    30cc: ef d6 da 33  	.word	0x33dad6ef
    30d0: 03 27 12 11  	.word	0x11122703
    30d4: fa 24 8f 1f  	.word	0x1f8f24fa
    30d8: 92 95 df 2a  	.word	0x2adf9592
    30dc: 2f ac 65 52  	.word	0x5265ac2f
    30e0: 46 b3 fc 9a  	.word	0x9afcb346
    30e4: 30 dd 5f 40  	.word	0x405fdd30
    30e8: 54 3f e6 28  	.word	0x28e63f54
    30ec: 44 3d 72 d9  	.word	0xd9723d44
    30f0: ae aa 65 5f  	.word	0x5f65aaae
    30f4: f0 1d c0 94  	.word	0x94c01df0
    30f8: 09 08 4c e1  	.word	0xe14c0809
    30fc: 3a dc e4 43  	.word	0x43e4dc3a
    3100: 17 a5 38 a9  	.word	0xa938a517
    3104: f1 c7 12 bc  	.word	0xbc12c7f1
    3108: e1 b2 80 31  	.word	0x3180b2e1
    310c: ab 28 30 47  	.word	0x473028ab
    3110: 4a 25 cd fb  	.word	0xfbcd254a
    3114: 1e 57 78 3f  	.word	0x3f78571e
    3118: 0f f9 f6 6f  	.word	0x6ff6f90f
    311c: 42 34 e5 74  	.word	0x74e53442
    3120: a3 c6 c2 ad  	.word	0xadc2c6a3
    3124: c3 7a 6f ea  	.word	0xea6f7ac3
    3128: 94 7c 71 e9  	.word	0xe9717c94
    312c: f6 28 e9 d0  	.word	0xd0e928f6
    3130: f5 ea 45 d6  	.word	0xd645eaf5
    3134: ea 79 d3 e2  	.word	0xe2d379ea
    3138: be fb 1f c5  	.word	0xc51ffbbe
    313c: 85 87 dd 46  	.word	0x46dd8785
    3140: 98 88 5c 37  	.word	0x375c8898
    3144: be 01 98 70  	.word	0x709801be
    3148: 48 83 fd e3  	.word	0xe3fd8348
    314c: b5 da 06 4b  	.word	0x4b06dab5
    3150: 14 07 23 27  	.word	0x27230714
    3154: ed 0c 88 75  	.word	0x75880ced
    3158: 42 4c 2f dd  	.word	0xdd2f4c42
    315c: 8f 46 09 2b  	.word	0x2b09468f
    3160: 96 cb 01 b7  	.word	0xb701cb96
    3164: ee 49 c7 97  	.word	0x97c749ee
    3168: c3 69 a3 b6  	.word	0xb6a369c3
    316c: d4 38 f4 83  	.word	0x83f438d4
    3170: d9 2c 40 9a  	.word	0x9a402cd9
    3174: 8b 2b 96 62  	.word	0x62962b8b
    3178: 7b df 88 98  	.word	0x9888df7b
    317c: 50 c7 76 69  	.word	0x6976c750
    3180: 2a a0 ff 82  	.word	0x82ffa02a
    3184: 65 94 97 5b  	.word	0x5b979465
    3188: 49 f5 a8 fe  	.word	0xfea8f549
    318c: 51 6a 09 da  	.word	0xda096a51
    3190: 9b af 77 5f  	.word	0x5f77af9b
    3194: 37 51 63 a0  	.word	0xa0635137
    3198: 76 1e 1d 20  	.word	0x201d1e76
    319c: 61 de cf 1b  	.word	0x1bcfde61
    31a0: a2 59 6a 24  	.word	0x246a59a2
    31a4: 90 54 4a 4a  	.word	0x4a4a5490
    31a8: 90 dd 7f e8  	.word	0xe87fdd90
    31ac: de bd 3e d6  	.word	0xd63ebdde
    31b0: fa 71 23 0d  	.word	0x0d2371fa
    31b4: 67 7c 43 d9  	.word	0xd9437c67
    31b8: d6 8e 0f d3  	.word	0xd30f8ed6
    31bc: 08 73 e8 69  	.word	0x69e87308
    31c0: b0 be 56 56  	.word	0x5656beb0
    31c4: b1 8b 5a 43  	.word	0x435a8bb1
    31c8: ca 5b 4d 4f  	.word	0x4f4d5bca
    31cc: ba c9 fa f8  	.word	0xf8fac9ba
    31d0: 75 c0 48 15  	.word	0x1548c075
    31d4: c4 78 b2 b9  	.word	0xb9b278c4
    31d8: 22 b6 92 e8  	.word	0xe892b622
    31dc: 76 ef b0 3e  	.word	0x3eb0ef76
    31e0: 03 03 c8 8b  	.word	0x8bc80303
    31e4: 02 bf 80 0f  	.word	0x0f80bf02
    31e8: fb ce 18 7a  	.word	0x7a18cefb
    31ec: b3 16 ae 6a  	.word	0x6aae16b3
    31f0: a3 d6 2c d7  	.word	0xd72cd6a3
    31f4: 47 ea 47 dd  	.word	0xdd47ea47
    31f8: aa 39 ed f4  	.word	0xf4ed39aa
    31fc: 88 35 94 61  	.word	0x61943588
    3200: 85 9f 03 91  	.word	0x91039f85
    3204: 3e 5c 6e d2  	.word	0xd26e5c3e
    3208: a9 3a f3 f6  	.word	0xf6f33aa9
    320c: 7d e7 e9 c0  	.word	0xc0e9e77d
    3210: 93 6a 06 70  	.word	0x70066a93
    3214: 55 8c 96 e8  	.word	0xe8968c55
    3218: dd ad aa 1f  	.word	0x1faaaddd
    321c: 88 d1 34 3c  	.word	0x3c34d188
    3220: c0 9e 9f a0  	.word	0xa09f9ec0
    3224: 5e 2b 9d 3f  	.word	0x3f9d2b5e
    3228: 90 a8 23 b6  	.word	0xb623a890
    322c: 6f 3b ab 1d  	.word	0x1dab3b6f
    3230: c4 26 d9 72  	.word	0x72d926c4
    3234: ea a3 9b a0  	.word	0xa09ba3ea
    3238: 6d b3 d8 3f  	.word	0x3fd8b36d
    323c: 51 93 41 37  	.word	0x37419351
    3240: d9 e0 ff 2f  	.word	0x2fffe0d9
    3244: 8f 0b 5b bd  	.word	0xbd5b0b8f
    3248: b9 4f d2 3e  	.word	0x3ed24fb9
    324c: 10 54 a2 6a  	.word	0x6aa25410
    3250: c4 21 68 b2  	.word	0xb26821c4
    3254: bc d7 c7 2a  	.word	0x2ac7d7bc
    3258: 6a a3 dc 60  	.word	0x60dca36a
    325c: 4b 39 5b 60  	.word	0x605b394b
    3260: d2 1e 9d 5a  	.word	0x5a9d1ed2
    3264: e4 56 e8 b4  	.word	0xb4e856e4
    3268: a2 a9 97 6c  	.word	0x6c97a9a2
    326c: 76 48 e8 ef  	.word	0xefe84876
    3270: 7d ee 5e 1e  	.word	0x1e5eee7d
    3274: 64 cf 04 b1  	.word	0xb104cf64
    3278: 8f 1c a7 88  	.word	0x88a71c8f
    327c: 1c b8 50 2f  	.word	0x2f50b81c
    3280: bb 11 68 fc  	.word	0xfc6811bb
    3284: 61 3c 72 31  	.word	0x31723c61
    3288: 0f 80 11 62  	.word	0x6211800f
    328c: 48 50 b4 9c  	.word	0x9cb45048
    3290: 53 57 99 47  	.word	0x47995753
    3294: d3 33 89 76  	.word	0x768933d3
    3298: cd 2f 75 02  	.word	0x02752fcd
    329c: 35 a5 91 34  	.word	0x3491a535
    32a0: 2a 52 da a7  	.word	0xa7da522a
    32a4: a0 2c 55 2b  	.word	0x2b552ca0
    32a8: 50 02 9b 44  	.word	0x449b0250
    32ac: 36 b3 30 32  	.word	0x3230b336
    32b0: b9 9f b9 a4  	.word	0xa4b99fb9
    32b4: bc c5 c4 f2  	.word	0xf2c4c5bc
    32b8: 22 4a 07 58  	.word	0x58074a22
    32bc: 49 67 2c 7b  	.word	0x7b2c6749
    32c0: df 8c d2 3e  	.word	0x3ed28cdf
    32c4: 88 65 51 d5  	.word	0xd5516588
    32c8: 39 de 62 d3  	.word	0xd362de39
    32cc: d2 4f d8 12  	.word	0x12d84fd2
    32d0: 4f 8e 37 e3  	.word	0xe3378e4f
    32d4: d3 4a 87 0a  	.word	0x0a874ad3
    32d8: 74 3e 76 7c  	.word	0x7c763e74
    32dc: 1f 2b 0d 00  	.word	0x000d2b1f
    32e0: 67 4a 6d d0  	.word	0xd06d4a67
    32e4: 11 08 42 3d  	.word	0x3d420811
    32e8: e3 ff e0 90  	.word	0x90e0ffe3
    32ec: 85 04 fc be  	.word	0xbefc0485
    32f0: de 7b 48 bd  	.word	0xbd487bde
    32f4: b7 c6 70 f8  	.word	0xf870c6b7
    32f8: 28 fa 9a 31  	.word	0x319afa28
    32fc: 16 73 2a 6e  	.word	0x6e2a7316
    3300: ab a8 94 3e  	.word	0x3e94a8ab
    3304: 8c 77 24 96  	.word	0x9624778c
    3308: ec 8b a7 e9  	.word	0xe9a78bec
    330c: ce f3 d6 0a  	.word	0x0ad6f3ce
    3310: 4f 3c 74 0d  	.word	0x0d743c4f
    3314: 81 c7 8a 94  	.word	0x948ac781
    3318: cc fc ec aa  	.word	0xaaecfccc
    331c: 35 79 62 76  	.word	0x76627935
    3320: 9f 9a d5 d6  	.word	0xd6d59a9f
    3324: 24 ac a8 56  	.word	0x56a8ac24
    3328: 06 f0 96 30  	.word	0x3096f006
    332c: 3e 75 db c8  	.word	0xc8db753e
    3330: 99 52 4c 8f  	.word	0x8f4c5299
    3334: e6 41 7f 47  	.word	0x477f41e6
    3338: 14 61 c8 f6  	.word	0xf6c86114
    333c: 1c 85 8d 58  	.word	0x588d851c
    3340: fe b0 f6 8d  	.word	0x8df6b0fe
    3344: c7 8e 13 51  	.word	0x51138ec7
    3348: 1b f5 75 e5  	.word	0xe575f51b
    334c: 89 da 97 53  	.word	0x5397da89
    3350: b9 f1 7a 71  	.word	0x717af1b9
    3354: 1d 7a 20 09  	.word	0x09207a1d
    3358: 50 d6 20 2b  	.word	0x2b20d650
    335c: ba fd 02 21  	.word	0x2102fdba
    3360: 15 f5 d1 77  	.word	0x77d1f515
    3364: e7 65 2a cd  	.word	0xcd2a65e7
    3368: f1 60 aa 8f  	.word	0x8faa60f1
    336c: 87 91 89 54  	.word	0x54899187
    3370: e5 06 bc da  	.word	0xdabc06e5
    3374: bc 3b b7 b1  	.word	0xb1b73bbc
    3378: fb c9 7c a9  	.word	0xa97cc9fb
    337c: cb 78 48 65  	.word	0x654878cb
    3380: a1 e6 5c 05  	.word	0x055ce6a1
    3384: 05 e4 9e 96  	.word	0x969ee405
    3388: 29 ad 51 12  	.word	0x1251ad29
    338c: 68 a7 bc 36  	.word	0x36bca768
    3390: 15 a4 7d aa  	.word	0xaa7da415
    3394: 17 f5 1a 3a  	.word	0x3a1af517
    3398: ba b2 ec 29  	.word	0x29ecb2ba
    339c: db 25 d7 0a  	.word	0x0ad725db
    33a0: 57 24 4e 83  	.word	0x834e2457
    33a4: b1 67 42 dc  	.word	0xdc4267b1
    33a8: c5 1b ce 70  	.word	0x70ce1bc5
    33ac: b5 44 75 b6  	.word	0xb67544b5
    33b0: d7 5e d1 f7  	.word	0xf7d15ed7
    33b4: 0b 7a f0 1a  	.word	0x1af07a0b
    33b8: 50 36 a0 71  	.word	0x71a03650
    33bc: fb cf ef 4a  	.word	0x4aefcffb
    33c0: 85 6f 05 9b  	.word	0x9b056f85
    33c4: 0c bc c7 fe  	.word	0xfec7bc0c
    33c8: d7 ff f5 e7  	.word	0xe7f5ffd7
    33cc: 68 52 7d 53  	.word	0x537d5268
    33d0: fa ae 12 43  	.word	0x4312aefa
    33d4: 62 c6 af 77  	.word	0x77afc662
    33d8: d9 9f 39 02  	.word	0x02399fd9
    33dc: 53 5f 67 4f  	.word	0x4f675f53
    33e0: 1e 17 15 04  	.word	0x0415171e
    33e4: 36 36 2d c3  	.word	0xc32d3636
    33e8: 3b 48 98 89  	.word	0x8998483b
    33ec: 11 ef 2b cd  	.word	0xcd2bef11
    33f0: 10 51 94 d0  	.word	0xd0945110
    33f4: ad 6e 0a 87  	.word	0x870a6ead
    33f8: 61 65 a8 a2  	.word	0xa2a86561
    33fc: 72 bb cc 0b  	.word	0x0bccbb72
    3400: c8 a9 b1 ea  	.word	0xeab1a9c8
    3404: 2f 96 5e 18  	.word	0x185e962f
    3408: cd 7d 14 65  	.word	0x65147dcd
    340c: 35 e6 e7 86  	.word	0x86e7e635
    3410: f2 6d 5b bb  	.word	0xbb5b6df2
    3414: 31 e0 92 b0  	.word	0xb092e031
    3418: 3e b7 d6 59  	.word	0x59d6b73e
    341c: ab f0 24 40  	.word	0x4024f0ab
    3420: 96 12 fe 50  	.word	0x50fe1296
    3424: 4c 5e 6d 18  	.word	0x186d5e4c
    3428: 7e 9f e8 fe  	.word	0xfee89f7e
    342c: 82 7b 39 e0  	.word	0xe0397b82
    3430: b0 31 70 50  	.word	0x507031b0
    3434: c5 f6 c7 3b  	.word	0x3bc7f6c5
    3438: c2 37 8f 10  	.word	0x108f37c2
    343c: 69 fd 78 66  	.word	0x6678fd69
    3440: c2 63 68 63  	.word	0x636863c2
    3444: 31 fa 86 15  	.word	0x1586fa31
    3448: f2 33 2d 57  	.word	0x572d33f2
    344c: 48 8c f6 07  	.word	0x07f68c48
    3450: fc ae 9e 78  	.word	0x789eaefc
    3454: 9f cc 73 4f  	.word	0x4f73cc9f
    3458: 01 47 ad 8e  	.word	0x8ead4701
    345c: 10 e2 42 2d  	.word	0x2d42e210
    3460: 9b d2 df 94  	.word	0x94dfd29b
    3464: 15 13 f5 97  	.word	0x97f51315
    3468: 6a 4c 3f 31  	.word	0x313f4c6a
    346c: 5d 98 55 61  	.word	0x6155985d
    3470: 10 50 45 08  	.word	0x08455010
    3474: 07 3f a1 eb  	.word	0xeba13f07
    3478: 22 d3 d2 b8  	.word	0xb8d2d322
    347c: 08 26 6b 67  	.word	0x676b2608
    3480: 93 75 53 0f  	.word	0x0f537593
    3484: 0d 7b 71 21  	.word	0x21717b0d
    3488: 4c 06 1e 13  	.word	0x131e064c
    348c: 0b 69 4e 91  	.word	0x914e690b
    3490: 9f e0 2a 75  	.word	0x752ae09f
    3494: ae 87 b6 1b  	.word	0x1bb687ae
    3498: 6e 3c 42 9b  	.word	0x9b423c6e
    349c: a7 f3 0b 42  	.word	0x420bf3a7
    34a0: 47 2b 5b 1c  	.word	0x1c5b2b47
    34a4: 65 ba 38 81  	.word	0x8138ba65
    34a8: 80 1b 1b 31  	.word	0x311b1b80
    34ac: ec b6 71 86  	.word	0x8671b6ec
    34b0: b0 35 31 bc  	.word	0xbc3135b0
    34b4: b1 0c ff 7b  	.word	0x7bff0cb1
    34b8: e0 f1 0c 9c  	.word	0x9c0cf1e0
    34bc: fa 2f 5d 74  	.word	0x745d2ffa
    34c0: bd c8 c9 2b  	.word	0x2bc9c8bd
    34c4: 1e 5a 52 bf  	.word	0xbf525a1e
    34c8: 81 9d 47 26  	.word	0x26479d81
    34cc: 08 26 5b ea  	.word	0xea5b2608
    34d0: db 55 01 df  	.word	0xdf0155db
    34d4: 0e c7 11 d5  	.word	0xd511c70e
    34d8: d0 f5 0c 96  	.word	0x960cf5d0
    34dc: eb 3c e2 1a  	.word	0x1ae23ceb
    34e0: 6a 4e d3 21  	.word	0x21d34e6a
    34e4: 57 df 36 60  	.word	0x6036df57
    34e8: d0 b3 7b 99  	.word	0x997bb3d0
    34ec: 27 88 db b1  	.word	0xb1db8827
    34f0: fa 6a 75 c8  	.word	0xc8756afa
    34f4: c3 09 c2 d3  	.word	0xd3c209c3
    34f8: 39 c8 1d 4c  	.word	0x4c1dc839
    34fc: e5 5b e1 06  	.word	0x06e15be5
    3500: 4a 99 32 19  	.word	0x1932994a
    3504: 87 5d 72 5b  	.word	0x5b725d87
    3508: b0 da b1 ce  	.word	0xceb1dab0
    350c: b5 1c 35 32  	.word	0x32351cb5
    3510: 05 ca b7 da  	.word	0xdab7ca05
    3514: 49 15 c4 7d  	.word	0x7dc41549
    3518: f7 c1 8e 27  	.word	0x278ec1f7
    351c: 61 d8 de 58  	.word	0x58ded861
    3520: 5c c5 66 f2  	.word	0xf266c55c
    3524: 93 37 17 d8  	.word	0xd8173793
    3528: 49 4e 45 cc  	.word	0xcc454e49
    352c: c5 76 c9 c8  	.word	0xc8c976c5
    3530: a8 c3 26 bc  	.word	0xbc26c3a8
    3534: f8 82 e3 5c  	.word	0x5ce382f8
    3538: f9 f6 85 54  	.word	0x5485f6f9
    353c: e8 9d f3 2f  	.word	0x2ff39de8
    3540: a8 c9 c2 b6  	.word	0xb6c2c9a8
    3544: a8 5b fb 2d  	.word	0x2dfb5ba8
    3548: 8c 59 2c f5  	.word	0xf52c598c
    354c: 8e ef ee 48  	.word	0x48eeef8e
    3550: 73 15 2d f1  	.word	0xf12d1573
    3554: 07 91 80 33  	.word	0x33809107
    3558: d8 5b 1d 53  	.word	0x531d5bd8
    355c: 6b 69 ba 08  	.word	0x08ba696b
    3560: 7a c5 ef c3  	.word	0xc3efc57a
    3564: ee 3e ed 77  	.word	0x77ed3eee
    3568: 11 48 ff d4  	.word	0xd4ff4811
    356c: 17 55 e0 04  	.word	0x04e05517
    3570: cb 71 a6 f1  	.word	0xf1a671cb
    3574: 3f 7a 3d ea  	.word	0xea3d7a3f
    3578: 54 fe 7c 94  	.word	0x947cfe54
    357c: b4 33 06 12  	.word	0x120633b4
    3580: 42 00 61 91  	.word	0x91610042
    3584: 78 98 94 0b  	.word	0x0b949878
    3588: e8 fa eb ec  	.word	0xecebfae8
    358c: 3c b1 e7 4e  	.word	0x4ee7b13c
    3590: c0 a4 f0 94  	.word	0x94f0a4c0
    3594: 95 73 be 70  	.word	0x70be7395
    3598: 85 91 d5 b4  	.word	0xb4d59185
    359c: 99 0a d3 35  	.word	0x35d30a99
    35a0: 0a 10 12 49  	.word	0x4912100a
    35a4: 47 31 bd 82  	.word	0x82bd3147
    35a8: 06 be 6f 7e  	.word	0x7e6fbe06
    35ac: 6d 7b 23 de  	.word	0xde237b6d
    35b0: c6 79 ea 11  	.word	0x11ea79c6
    35b4: 19 76 1e e1  	.word	0xe11e7619
    35b8: de 3b 39 cb  	.word	0xcb393bde
    35bc: e3 3b 43 07  	.word	0x07433be3
    35c0: f4 97 e9 5c  	.word	0x5ce997f4
    35c4: c0 44 79 ff  	.word	0xff7944c0
    35c8: a3 51 5c b0  	.word	0xb05c51a3
    35cc: e4 3d 5d 57  	.word	0x575d3de4
    35d0: 7c 84 76 5a  	.word	0x5a76847c
    35d4: fd 81 33 58  	.word	0x583381fd
    35d8: 9f da f6 7a  	.word	0x7af6da9f
    35dc: de 3e 87 2d  	.word	0x2d873ede
    35e0: 09 34 37 43  	.word	0x43373409
    35e4: 64 31 7a 15  	.word	0x157a3164
    35e8: d9 81 aa f4  	.word	0xf4aa81d9
    35ec: ee b7 b8 fa  	.word	0xfab8b7ee
    35f0: 06 48 a6 f5  	.word	0xf5a64806
    35f4: e6 fe 93 b0  	.word	0xb093fee6
    35f8: b6 a7 7f 70  	.word	0x707fa7b6
    35fc: 54 36 77 2e  	.word	0x2e773654
    3600: 81 f9 5d 4e  	.word	0x4e5df981
    3604: e1 02 62 aa  	.word	0xaa6202e1
    3608: f5 e1 15 50  	.word	0x5015e1f5
    360c: 17 59 0d a2  	.word	0xa20d5917
    3610: 6c 1d e2 ba  	.word	0xbae21d6c
    3614: d3 75 a2 18  	.word	0x18a275d3
    3618: 53 02 60 01  	.word	0x01600253
    361c: 8a 61 43 05  	.word	0x0543618a
    3620: c1 23 4c 97  	.word	0x974c23c1
    3624: f4 bd ea 0d  	.word	0x0deabdf4
    3628: 93 46 ce 9d  	.word	0x9dce4693
    362c: 25 0a 6f aa  	.word	0xaa6f0a25
    3630: 2c ba 9a a2  	.word	0xa29aba2c
    3634: b8 2c 20 04  	.word	0x04202cb8
    3638: 0d 96 07 2d  	.word	0x2d07960d
    363c: 36 43 14 4b  	.word	0x4b144336
    3640: ec 2c 24 53  	.word	0x53242cec
    3644: f7 37 b8 47  	.word	0x47b837f7
    3648: f2 12 42 c0  	.word	0xc04212f2
    364c: 8c c4 6d 25  	.word	0x256dc48c
    3650: c5 28 d9 e1  	.word	0xe1d928c5
    3654: fb fb 22 e2  	.word	0xe222fbfb
    3658: 07 2c 8a ad  	.word	0xad8a2c07
    365c: 5b 29 ea 48  	.word	0x48ea295b
    3660: 5e 71 c5 57  	.word	0x57c5715e
    3664: 3f 1c 9b 29  	.word	0x299b1c3f
    3668: 90 6d 68 6b  	.word	0x6b686d90
    366c: 9e 92 cb 96  	.word	0x96cb929e
    3670: b3 5a 23 47  	.word	0x47235ab3
    3674: 64 80 04 30  	.word	0x30048064
    3678: e1 9f 4d a4  	.word	0xa44d9fe1
    367c: 24 5c 43 2c  	.word	0x2c435c24
    3680: 3f 83 f8 80  	.word	0x80f8833f
    3684: 7c c9 07 06  	.word	0x0607c97c
    3688: 5b ec 25 ca  	.word	0xca25ec5b
    368c: 78 15 85 0e  	.word	0x0e851578
    3690: 6f bb 1e 16  	.word	0x161ebb6f
    3694: 0b 45 f7 54  	.word	0x54f7450b
    3698: 0e f8 de a0  	.word	0xa0def80e
    369c: 92 47 cb 7b  	.word	0x7bcb4792
    36a0: 59 36 c7 2b  	.word	0x2bc73659
    36a4: d0 e3 87 84  	.word	0x8487e3d0
    36a8: df 79 99 05  	.word	0x059979df
    36ac: 45 84 af 4b  	.word	0x4baf8445
    36b0: bf 6f ad dc  	.word	0xdcad6fbf
    36b4: 5a 97 7c d1  	.word	0xd17c975a
    36b8: b6 96 fc de  	.word	0xdefc96b6
    36bc: 0b 9f 36 57  	.word	0x57369f0b
    36c0: c2 24 52 04  	.word	0x045224c2
    36c4: a0 d0 ec 1c  	.word	0x1cecd0a0
    36c8: 52 39 e5 69  	.word	0x69e53952
    36cc: 1b 1b 7f 75  	.word	0x757f1b1b
    36d0: 81 f6 89 52  	.word	0x5289f681
    36d4: 92 7a 5b 77  	.word	0x775b7a92
    36d8: 48 61 73 16  	.word	0x16736148
    36dc: 20 c6 6c 1b  	.word	0x1b6cc620
    36e0: 98 86 63 75  	.word	0x75638698
    36e4: 01 99 a9 f1  	.word	0xf1a99901
    36e8: d3 60 aa ee  	.word	0xeeaa60d3
    36ec: be d1 3d 35  	.word	0x353dd1be
    36f0: 88 a4 9b 4c  	.word	0x4c9ba488
    36f4: 33 71 94 84  	.word	0x84947133
    36f8: 11 e3 ad 43  	.word	0x43ade311
    36fc: 68 6e fa 63  	.word	0x63fa6e68
    3700: 68 c1 97 65  	.word	0x6597c168
    3704: 53 20 5c d1  	.word	0xd15c2053
    3708: 89 87 d2 98  	.word	0x98d28789
    370c: 00 74 73 9f  	.word	0x9f737400
    3710: 1f ba 57 32  	.word	0x3257ba1f
    3714: f1 e7 ae 18  	.word	0x18aee7f1
    3718: 14 6f 34 07  	.word	0x07346f14
    371c: da bf 18 34  	.word	0x3418bfda
    3720: b7 5e 4b d2  	.word	0xd24b5eb7
    3724: cd be 95 21  	.word	0x2195becd
    3728: f9 44 cd c0  	.word	0xc0cd44f9
    372c: 8c f1 41 5e  	.word	0x5e41f18c
    3730: de 9e ca 41  	.word	0x41ca9ede
    3734: 44 07 28 df  	.word	0xdf280744
    3738: 67 7d 5b f3  	.word	0xf35b7d67
    373c: 98 3b 07 07  	.word	0x07073b98
    3740: d4 30 e5 4c  	.word	0x4ce530d4
    3744: 6c 67 3c d0  	.word	0xd03c676c
    3748: f4 f9 5d 3b  	.word	0x3b5df9f4
    374c: 47 c0 64 0b  	.word	0x0b64c047
    3750: 1e a3 b3 19  	.word	0x19b3a31e
    3754: 8b ef 5c 06  	.word	0x065cef8b
    3758: c9 02 31 53  	.word	0x533102c9
    375c: 61 d6 84 30  	.word	0x3084d661
    3760: ad 69 84 bf  	.word	0xbf8469ad
    3764: 9e b7 f6 e1  	.word	0xe1f6b79e
    3768: 35 31 66 e2  	.word	0xe2663135
    376c: 04 10 80 15  	.word	0x15801004
    3770: 1b 18 74 af  	.word	0xaf74181b
    3774: 30 83 49 9a  	.word	0x9a498330
    3778: 3c 67 9b 04  	.word	0x049b673c
    377c: 4f 50 a2 3b  	.word	0x3ba2504f
    3780: fd 21 03 76  	.word	0x760321fd
    3784: 76 e8 6c 9a  	.word	0x9a6ce876
    3788: d8 3a b6 9e  	.word	0x9eb63ad8
    378c: 10 b5 e2 7f  	.word	0x7fe2b510
    3790: 92 05 c8 8a  	.word	0x8ac80592
    3794: ae d4 e7 00  	.word	0x00e7d4ae
    3798: 3a 72 6f bb  	.word	0xbb6f723a
    379c: 7a 6b d8 73  	.word	0x73d86b7a
    37a0: b6 5a ba 6d  	.word	0x6dba5ab6
    37a4: 60 b5 52 0b  	.word	0x0b52b560
    37a8: ab ed b1 bb  	.word	0xbbb1edab
    37ac: 0f 4f 13 a9  	.word	0xa9134f0f
    37b0: 35 a6 04 9b  	.word	0x9b04a635
    37b4: 0d 52 a9 30  	.word	0x30a9520d
    37b8: db e5 73 79  	.word	0x7973e5db
    37bc: f3 b8 13 68  	.word	0x6813b8f3
    37c0: c1 27 41 33  	.word	0x334127c1
    37c4: 54 b0 54 98  	.word	0x9854b054
    37c8: 25 ff fb 82  	.word	0x82fbff25
    37cc: 78 04 5d 10  	.word	0x105d0478
    37d0: 4f 6f 18 44  	.word	0x44186f4f
    37d4: f9 f7 49 db  	.word	0xdb49f7f9
    37d8: 00 b9 d0 be  	.word	0xbed0b900
    37dc: 38 e8 68 17  	.word	0x1768e838
    37e0: 29 7e 15 f3  	.word	0xf3157e29
    37e4: 56 ca 94 f1  	.word	0xf194ca56
    37e8: a5 28 f5 5e  	.word	0x5ef528a5
    37ec: 70 35 6d 13  	.word	0x136d3570
    37f0: bc 99 05 8b  	.word	0x8b0599bc
    37f4: 77 ef 4c dd  	.word	0xdd4cef77
    37f8: ed 33 f8 24  	.word	0x24f833ed
    37fc: af 72 54 7d  	.word	0x7d5472af
    3800: 47 da 33 af  	.word	0xaf33da47
    3804: 4d 87 ef d0  	.word	0xd0ef874d
    3808: f9 39 e3 b6  	.word	0xb6e339f9
    380c: 5d be d3 00  	.word	0x00d3be5d
    3810: ce ee 9c 9c  	.word	0x9c9ceece
    3814: 2f 8a 2a 3f  	.word	0x3f2a8a2f
    3818: 5a 43 52 23  	.word	0x2352435a
    381c: 79 eb 1a 5d  	.word	0x5d1aeb79
    3820: ca 63 cd 19  	.word	0x19cd63ca
    3824: b3 6b 9e f5  	.word	0xf59e6bb3
    3828: 39 68 d0 21  	.word	0x21d06839
    382c: 92 15 0c 67  	.word	0x670c1592
    3830: b6 ca 50 21  	.word	0x2150cab6
    3834: 5b 56 6d b0  	.word	0xb06d565b
    3838: a3 12 4f 10  	.word	0x104f12a3
    383c: 9d 19 fb 20  	.word	0x20fb199d
    3840: 75 a7 1b b6  	.word	0xb61ba775
    3844: ae bf c7 12  	.word	0x12c7bfae
    3848: fd bf 63 e2  	.word	0xe263bffd
    384c: 1f 62 4e b8  	.word	0xb84e621f
    3850: cf 0d 84 5c  	.word	0x5c840dcf
    3854: c3 a5 47 0b  	.word	0x0b47a5c3
    3858: 34 86 af cc  	.word	0xccaf8634
    385c: 0b be 83 7e  	.word	0x7e83be0b
    3860: 20 c1 99 6d  	.word	0x6d99c120
    3864: ee 3d 94 61  	.word	0x61943dee
    3868: e0 9f 0b 46  	.word	0x460b9fe0
    386c: 2e 1f 10 86  	.word	0x86101f2e
    3870: 8d 59 e8 8e  	.word	0x8ee8598d
    3874: 51 f1 b2 6b  	.word	0x6bb2f151
    3878: cc 75 c4 fc  	.word	0xfcc475cc
    387c: 89 62 b7 76  	.word	0x76b76289
    3880: fa 86 62 75  	.word	0x756286fa
    3884: c1 4c 1b 79  	.word	0x791b4cc1
    3888: 7c 15 4a d7  	.word	0xd74a157c
    388c: 17 d3 ce db  	.word	0xdbced317
    3890: e6 bd 72 ea  	.word	0xea72bde6
    3894: 21 24 73 7e  	.word	0x7e732421
    3898: e9 c8 31 11  	.word	0x1131c8e9
    389c: 49 18 fe 01  	.word	0x01fe1849
    38a0: b3 c0 2e 52  	.word	0x522ec0b3
    38a4: a1 f1 45 42  	.word	0x4245f1a1
    38a8: 6d 65 75 2a  	.word	0x2a75656d
    38ac: b2 85 87 55  	.word	0x558785b2
    38b0: c0 b3 a1 48  	.word	0x48a1b3c0
    38b4: 25 5a 48 1d  	.word	0x1d485a25
    38b8: 9f e0 8f d5  	.word	0xd58fe09f
    38bc: cc 9e 95 60  	.word	0x60959ecc
    38c0: 09 7a ed a8  	.word	0xa8ed7a09
    38c4: 7b eb bf 3e  	.word	0x3ebfeb7b
    38c8: 9c 78 02 e5  	.word	0xe502789c
    38cc: bb c2 fd 49  	.word	0x49fdc2bb
    38d0: 28 94 11 3c  	.word	0x3c119428
    38d4: 5d ce eb 44  	.word	0x44ebce5d
    38d8: 4a 7f 94 be  	.word	0xbe947f4a
    38dc: 55 eb e1 35  	.word	0x35e1eb55
    38e0: d3 8d 73 c5  	.word	0xc5738dd3
    38e4: 01 e7 da db  	.word	0xdbdae701
    38e8: ee 1b 6f b2  	.word	0xb26f1bee
    38ec: 35 f6 c6 f9  	.word	0xf9c6f635
    38f0: f4 5e f1 42  	.word	0x42f15ef4
    38f4: 80 6a e9 61  	.word	0x61e96a80
    38f8: d8 a4 60 af  	.word	0xaf60a4d8
    38fc: 1f d1 a1 3a  	.word	0x3aa1d11f
    3900: 74 cc 6c 72  	.word	0x726ccc74
    3904: fa 6d fd 14  	.word	0x14fd6dfa
    3908: 65 b9 53 2f  	.word	0x2f53b965
    390c: fe 4c 08 3b  	.word	0x3b084cfe
    3910: b4 c8 a2 52  	.word	0x52a2c8b4
    3914: f5 e4 3a f3  	.word	0xf33ae4f5
    3918: 6a 16 40 0d  	.word	0x0d40166a
    391c: 7a b0 aa 59  	.word	0x59aab07a
    3920: 25 ac 5e 92  	.word	0x925eac25
    3924: 4c ec bc 77  	.word	0x77bcec4c
    3928: 38 77 13 60  	.word	0x60137738
    392c: 84 71 48 18  	.word	0x18487184
    3930: 51 f4 a9 fe  	.word	0xfea9f451
    3934: 37 43 37 5b  	.word	0x5b374337
    3938: 46 aa e6 c8  	.word	0xc8e6aa46
    393c: 8e e7 65 18  	.word	0x1865e78e
    3940: 7a 1f 6e b6  	.word	0xb66e1f7a
    3944: c7 b7 c4 cc  	.word	0xccc4b7c7
    3948: 7e 2f 0c f5  	.word	0xf50c2f7e
    394c: 25 7e 15 44  	.word	0x44157e25
    3950: 1c af 3e 71  	.word	0x713eaf1c
    3954: fc 6d f0 3e  	.word	0x3ef06dfc
    3958: f7 63 da 52  	.word	0x52da63f7
    395c: 67 44 2f 58  	.word	0x582f4467
    3960: cb 9c 52 1c  	.word	0x1c529ccb
    3964: e9 54 7c 96  	.word	0x967c54e9
    3968: fb 35 c6 64  	.word	0x64c635fb
    396c: 92 26 f6 30  	.word	0x30f62692
    3970: 65 19 12 78  	.word	0x78121965
    3974: f4 af 47 27  	.word	0x2747aff4
    3978: 5c 6f f6 ea  	.word	0xeaf66f5c
    397c: 18 84 03 17  	.word	0x17038418
    3980: e4 4c 32 20  	.word	0x20324ce4
    3984: d3 7b 31 c6  	.word	0xc6317bd3
    3988: c4 8b 48 a4  	.word	0xa4488bc4
    398c: e8 42 10 a8  	.word	0xa81042e8
    3990: 64 13 5a 4e  	.word	0x4e5a1364
    3994: 8b f1 1e b2  	.word	0xb21ef18b
    3998: c9 8d a2 cd  	.word	0xcda28dc9
    399c: 4b 1c 2a 0c  	.word	0x0c2a1c4b
    39a0: 47 04 1f 6f  	.word	0x6f1f0447
    39a4: d0 c7 4d d2  	.word	0xd24dc7d0
    39a8: 59 c0 87 db  	.word	0xdb87c059
    39ac: 3e 9e 26 b2  	.word	0xb2269e3e
    39b0: 8f d2 b2 fb  	.word	0xfbb2d28f
    39b4: 72 02 5b d1  	.word	0xd15b0272
    39b8: 77 48 f6 c6  	.word	0xc6f64877
    39bc: d1 8b 55 7c  	.word	0x7c558bd1
    39c0: 45 69 bd 69  	.word	0x69bd6945
    39c4: 48 81 c4 ed  	.word	0xedc48148
    39c8: 22 8d 1c be  	.word	0xbe1c8d22
    39cc: 7d 90 6d 0d  	.word	0x0d6d907d
    39d0: ab c5 5c d5  	.word	0xd55cc5ab
    39d4: 12 d2 3b c6  	.word	0xc63bd212
    39d8: 83 dc 14 a3  	.word	0xa314dc83
    39dc: 30 9b 6a 5a  	.word	0x5a6a9b30
    39e0: 3d 46 96 d3  	.word	0xd396463d
    39e4: 24 15 ec d0  	.word	0xd0ec1524
    39e8: f0 24 5a c3  	.word	0xc35a24f0
    39ec: 8a 62 bb 12  	.word	0x12bb628a
    39f0: a4 5f bc 1c  	.word	0x1cbc5fa4
    39f4: 79 3a 0c a5  	.word	0xa50c3a79
    39f8: c3 af fb 0a  	.word	0x0afbafc3
    39fc: ca a5 04 04  	.word	0x0404a5ca
    3a00: d6 43 a7 0a  	.word	0x0aa743d6
    3a04: 07 40 1f 8c  	.word	0x8c1f4007
    3a08: e8 5e 26 5b  	.word	0x5b265ee8
    3a0c: cb d0 ba cc  	.word	0xccbad0cb
    3a10: de d2 8f 66  	.word	0x668fd2de
    3a14: 6b 04 4b 57  	.word	0x574b046b
    3a18: 33 96 dd ca  	.word	0xcadd9633
    3a1c: fd 5b 39 46  	.word	0x46395bfd
    3a20: d1 6f 41 2a  	.word	0x2a416fd1
    3a24: 1b 9e bc 62  	.word	0x62bc9e1b
    3a28: 8b 59 50 e3  	.word	0xe350598b
    3a2c: 28 f7 c6 b5  	.word	0xb5c6f728
    3a30: 67 69 5d 3d  	.word	0x3d5d6967
    3a34: d8 3f 34 04  	.word	0x04343fd8
    3a38: 98 ee f8 e7  	.word	0xe7f8ee98
    3a3c: 16 75 52 39  	.word	0x39527516
    3a40: 9c 9a 5d 1a  	.word	0x1a5d9a9c
    3a44: 2d db 7f 11  	.word	0x117fdb2d
    3a48: 2a 5c 00 d1  	.word	0xd1005c2a
    3a4c: bc 45 77 9c  	.word	0x9c7745bc
    3a50: ea 6f d5 54  	.word	0x54d56fea
    3a54: f1 be d4 ef  	.word	0xefd4bef1
    3a58: 16 d0 22 e8  	.word	0xe822d016
    3a5c: 29 9a 57 76  	.word	0x76579a29
    3a60: 17 2a c0 49  	.word	0x49c02a17
    3a64: 7e 8e b6 45  	.word	0x45b68e7e
    3a68: 7f a3 a9 bc  	.word	0xbca9a37f
    3a6c: a2 51 cd 23  	.word	0x23cd51a2
    3a70: 1b 4c 22 ec  	.word	0xec224c1b
    3a74: 11 5f d6 3e  	.word	0x3ed65f11
    3a78: b1 bd 05 9e  	.word	0x9e05bdb1
    3a7c: dc 84 a3 43  	.word	0x43a384dc
    3a80: f2 34 b4 52  	.word	0x52b434f2
    3a84: 13 b5 3c 33  	.word	0x333cb513
    3a88: e1 80 de 93  	.word	0x93de80e1
    3a8c: 49 28 32 d8  	.word	0xd8322849
    3a90: ce 35 0d 75  	.word	0x750d35ce
    3a94: 87 28 51 b5  	.word	0xb5512887
    3a98: c1 77 27 2a  	.word	0x2a2777c1
    3a9c: bb 14 c5 02  	.word	0x02c514bb
    3aa0: 45 b6 f1 8b  	.word	0x8bf1b645
    3aa4: da d5 4b 68  	.word	0x684bd5da
    3aa8: 53 4b b5 f6  	.word	0xf6b54b53
    3aac: 7e d3 8b fb  	.word	0xfb8bd37e
    3ab0: 53 d2 b0 a9  	.word	0xa9b0d253
    3ab4: d7 16 39 31  	.word	0x313916d7
    3ab8: 59 80 54 61  	.word	0x61548059
    3abc: 09 92 60 11  	.word	0x11609209
    3ac0: aa cf da 29  	.word	0x29dacfaa
    3ac4: 69 16 4d b4  	.word	0xb44d1669
    3ac8: 8f 59 13 84  	.word	0x8413598f
    3acc: 4c 9f 52 da  	.word	0xda529f4c
    3ad0: 59 55 3d 45  	.word	0x453d5559
    3ad4: ca 63 ef e9  	.word	0xe9ef63ca
    3ad8: 0b 8e 69 c5  	.word	0xc5698e0b
    3adc: 5b 12 1e 35  	.word	0x351e125b
    3ae0: cd 4d 9b 36  	.word	0x369b4dcd
    3ae4: 16 56 38 7a  	.word	0x7a385616
    3ae8: 63 35 5c 65  	.word	0x655c3563
    3aec: a7 2c c0 75  	.word	0x75c02ca7
    3af0: 21 80 f1 d4  	.word	0xd4f18021
    3af4: f9 1b c2 7d  	.word	0x7dc21bf9
    3af8: 42 e0 e6 91  	.word	0x91e6e042
    3afc: 74 7d 63 2f  	.word	0x2f637d74
    3b00: be 7b f6 1a  	.word	0x1af67bbe
    3b04: 46 9b b4 d4  	.word	0xd4b49b46
    3b08: 61 89 ab c8  	.word	0xc8ab8961
    3b0c: 7a 03 03 d6  	.word	0xd603037a
    3b10: fb 99 a6 f9  	.word	0xf9a699fb
    3b14: 9f e1 de 71  	.word	0x71dee19f
    3b18: 9a 2a ce e7  	.word	0xe7ce2a9a
    3b1c: 06 2d 18 7f  	.word	0x7f182d06
    3b20: ec 68 01 ab  	.word	0xab0168ec
    3b24: 64 8e 7c 7a  	.word	0x7a7c8e64
    3b28: 43 c5 ed 15  	.word	0x15edc543
    3b2c: 55 4a 5a cb  	.word	0xcb5a4a55
    3b30: da 0e cd 47  	.word	0x47cd0eda
    3b34: d3 19 55 09  	.word	0x095519d3
    3b38: b0 93 3e 34  	.word	0x343e93b0
    3b3c: 8c ac d4 67  	.word	0x67d4ac8c
    3b40: 22 75 21 8e  	.word	0x8e217522
    3b44: 72 4b 45 09  	.word	0x09454b72
    3b48: d8 b8 84 d4  	.word	0xd484b8d8
    3b4c: f4 e8 58 aa  	.word	0xaa58e8f4
    3b50: 3c 90 46 7f  	.word	0x7f46903c
    3b54: 4d 25 58 d3  	.word	0xd358254d
    3b58: 17 52 1c 24  	.word	0x241c5217
    3b5c: 43 c0 ac 44  	.word	0x44acc043
    3b60: 77 57 7a 4f  	.word	0x4f7a5777
    3b64: bb 6b 7d 1c  	.word	0x1c7d6bbb
    3b68: e1 13 83 91  	.word	0x918313e1
    3b6c: d4 fe 35 8b  	.word	0x8b35fed4
    3b70: 84 46 6b c9  	.word	0xc96b4684
    3b74: c6 a1 dc 4a  	.word	0x4adca1c6
    3b78: bd 71 ad 12  	.word	0x12ad71bd
    3b7c: 83 1c 6d 55  	.word	0x556d1c83
    3b80: 82 39 8d 0c  	.word	0x0c8d3982
    3b84: e3 40 ef 17  	.word	0x17ef40e3
    3b88: 34 fa a3 15  	.word	0x15a3fa34
    3b8c: 3e 07 f7 31  	.word	0x31f7073e
    3b90: 6e 64 73 07  	.word	0x0773646e
    3b94: cb f3 21 4f  	.word	0x4f21f3cb
    3b98: ff 4e 82 1d  	.word	0x1d824eff
    3b9c: 6d 6c 6c 74  	.word	0x746c6c6d
    3ba0: 21 e8 1b b1  	.word	0xb11be821
    3ba4: 56 67 f0 81  	.word	0x81f06756
    3ba8: dd f3 a3 10  	.word	0x10a3f3dd
    3bac: 23 f8 af 0f  	.word	0x0faff823
    3bb0: 5d 46 99 6a  	.word	0x6a99465d
    3bb4: 55 d0 b2 f8  	.word	0xf8b2d055
    3bb8: 05 7f 8c cc  	.word	0xcc8c7f05
    3bbc: 38 be 7a 09  	.word	0x097abe38
    3bc0: a4 2d a5 7e  	.word	0x7ea52da4
    3bc4: 87 c9 49 0c  	.word	0x0c49c987
    3bc8: 43 1d dc 9b  	.word	0x9bdc1d43
    3bcc: 55 69 43 4c  	.word	0x4c436955
    3bd0: d2 eb cc f7  	.word	0xf7ccebd2
    3bd4: 09 38 2c 02  	.word	0x022c3809
    3bd8: bd 84 ee 4b  	.word	0x4bee84bd
    3bdc: a3 14 7e 57  	.word	0x577e14a3
    3be0: 0a 3b a7 61  	.word	0x61a73b0a
    3be4: ac 68 e2 f0  	.word	0xf0e268ac
    3be8: f5 a5 91 37  	.word	0x3791a5f5
    3bec: 10 fa fa f2  	.word	0xf2fafa10
    3bf0: e9 00 6d 6b  	.word	0x6b6d00e9
    3bf4: 82 3e e1 c1  	.word	0xc1e13e82
    3bf8: 42 8f d7 6f  	.word	0x6fd78f42
    3bfc: e9 7e fa 60  	.word	0x60fa7ee9
    3c00: 2b d7 4d bd  	.word	0xbd4dd72b
    3c04: be ce fe 94  	.word	0x94fecebe
    3c08: 11 22 0f 06  	.word	0x060f2211
    3c0c: da 4f 6a f4  	.word	0xf46a4fda
    3c10: ff d1 c8 c0  	.word	0xc0c8d1ff
    3c14: 77 59 4a 12  	.word	0x124a5977
    3c18: 95 92 00 fb  	.word	0xfb009295
    3c1c: b8 04 53 70  	.word	0x705304b8
    3c20: c6 6e 29 4d  	.word	0x4d296ec6
    3c24: 35 1d 3d b6  	.word	0xb63d1d35
    3c28: d8 31 ad 5f  	.word	0x5fad31d8
    3c2c: 3e 05 c3 f3  	.word	0xf3c3053e
    3c30: ec 42 bd b4  	.word	0xb4bd42ec
    3c34: 8c 95 0b 67  	.word	0x670b958c
    3c38: fd 53 63 a1  	.word	0xa16353fd
    3c3c: 0c 8e 39 21  	.word	0x21398e0c
    3c40: ef d2 a7 8d  	.word	0x8da7d2ef
    3c44: ca b2 6a 21  	.word	0x216ab2ca
    3c48: 27 28 f4 99  	.word	0x99f42827
    3c4c: dd d9 6a 36  	.word	0x366ad9dd
    3c50: 75 3c dd 4f  	.word	0x4fdd3c75
    3c54: 00 b9 64 ae  	.word	0xae64b900
    3c58: 62 9e 90 53  	.word	0x53909e62
    3c5c: 5b 39 3a 40  	.word	0x403a395b
    3c60: 9a 7e 1b 86  	.word	0x861b7e9a
    3c64: 16 fc c5 86  	.word	0x86c5fc16
    3c68: 51 c4 27 6a  	.word	0x6a27c451
    3c6c: 47 30 a3 f6  	.word	0xf6a33047
    3c70: 97 35 e9 a1  	.word	0xa1e93597
    3c74: 67 72 66 01  	.word	0x01667267
    3c78: eb df 82 60  	.word	0x6082dfeb
    3c7c: cd b9 ff 05  	.word	0x05ffb9cd
    3c80: 39 61 3f f5  	.word	0xf53f6139
    3c84: 9f fa 17 a6  	.word	0xa617fa9f
    3c88: b6 6c e6 13  	.word	0x13e66cb6
    3c8c: e5 b5 f2 60  	.word	0x60f2b5e5
    3c90: a4 8a 44 b3  	.word	0xb3448aa4
    3c94: ef be a8 d7  	.word	0xd7a8beef
    3c98: 92 a1 5e 6f  	.word	0x6f5ea192
    3c9c: 85 32 29 7a  	.word	0x7a293285
    3ca0: 88 e8 2d b0  	.word	0xb02de888
    3ca4: 61 d7 39 0b  	.word	0x0b39d761
    3ca8: 1f 4e 41 d2  	.word	0xd2414e1f
    3cac: 7e 0e 55 5f  	.word	0x5f550e7e
    3cb0: 40 a9 e1 22  	.word	0x22e1a940
    3cb4: 58 a4 bf a6  	.word	0xa6bfa458
    3cb8: 99 7b 44 fd  	.word	0xfd447b99
    3cbc: 7d 2f 0a 05  	.word	0x050a2f7d
    3cc0: 02 93 63 79  	.word	0x79639302
    3cc4: 48 44 9c b8  	.word	0xb89c4448
    3cc8: 2c 7f c6 50  	.word	0x50c67f2c
    3ccc: 93 f1 e4 4a  	.word	0x4ae4f193
    3cd0: c6 f9 1a c8  	.word	0xc81af9c6
    3cd4: a8 5d b3 f0  	.word	0xf0b35da8
    3cd8: 17 10 87 46  	.word	0x46871017
    3cdc: 35 00 d0 39  	.word	0x39d00035
    3ce0: 77 db 50 a6  	.word	0xa650db77
    3ce4: 33 3b 7c 43  	.word	0x437c3b33
    3ce8: b2 2b c5 ba  	.word	0xbac52bb2
    3cec: 1d e8 af 6b  	.word	0x6bafe81d
    3cf0: 18 d3 b7 2d  	.word	0x2db7d318
    3cf4: 2d 40 99 fe  	.word	0xfe99402d
    3cf8: ce a6 2b 37  	.word	0x372ba6ce
    3cfc: ec 7e 5b 2b  	.word	0x2b5b7eec
    3d00: ef 0e f5 83  	.word	0x83f50eef
    3d04: bd 4b bc b3  	.word	0xb3bc4bbd
    3d08: 66 78 92 8c  	.word	0x8c927866
    3d0c: 99 0c 8f 50  	.word	0x508f0c99
    3d10: 6e e6 b7 c8  	.word	0xc8b7e66e
    3d14: 87 65 e7 43  	.word	0x43e76587
    3d18: d9 98 7f a4  	.word	0xa47f98d9
    3d1c: a3 55 76 0f  	.word	0x0f7655a3
    3d20: f4 c8 3a 61  	.word	0x613ac8f4
    3d24: 4d 40 94 a6  	.word	0xa694404d
    3d28: 2c e7 97 fa  	.word	0xfa97e72c
    3d2c: 2b 3c 0c 50  	.word	0x500c3c2b
    3d30: 10 c2 ce 1f  	.word	0x1fcec210
    3d34: d2 04 41 87  	.word	0x874104d2
    3d38: ee a8 04 86  	.word	0x8604a8ee
    3d3c: b3 5f 20 1b  	.word	0x1b205fb3
    3d40: 3c 13 4b d2  	.word	0xd24b133c
    3d44: 37 ad ec 55  	.word	0x55ecad37
    3d48: 0b c9 38 60  	.word	0x6038c90b
    3d4c: 7d 14 1e 44  	.word	0x441e147d
    3d50: ee 6f 2c d6  	.word	0xd62c6fee
    3d54: a1 83 66 65  	.word	0x656683a1
    3d58: ae ec e0 87  	.word	0x87e0ecae
    3d5c: dc d5 57 01  	.word	0x0157d5dc
    3d60: 3d c1 54 03  	.word	0x0354c13d
    3d64: 51 af a7 f2  	.word	0xf2a7af51
    3d68: 60 2b 37 aa  	.word	0xaa372b60
    3d6c: 45 b1 a0 d7  	.word	0xd7a0b145
    3d70: 70 d4 a3 05  	.word	0x05a3d470
    3d74: 6a b9 69 28  	.word	0x2869b96a
    3d78: 73 01 46 82  	.word	0x82460173
    3d7c: 2d e4 28 65  	.word	0x6528e42d
    3d80: 24 b5 1e d7  	.word	0xd71eb524
    3d84: 14 55 26 95  	.word	0x95265514
    3d88: 93 45 f1 5d  	.word	0x5df14593
    3d8c: 81 d8 03 e6  	.word	0xe603d881
    3d90: b7 e6 4d 0d  	.word	0x0d4de6b7
    3d94: 41 df 7c 14  	.word	0x147cdf41
    3d98: 50 c8 37 04  	.word	0x0437c850
    3d9c: 73 b1 93 52  	.word	0x5293b173
    3da0: 26 f2 cc 4b  	.word	0x4bccf226
    3da4: 81 e0 d0 23  	.word	0x23d0e081
    3da8: 93 fb 96 81  	.word	0x8196fb93
    3dac: cd 45 c7 92  	.word	0x92c745cd
    3db0: 5b 1e 54 59  	.word	0x59541e5b
    3db4: 6c 79 61 8b  	.word	0x8b61796c
    3db8: 78 f9 21 c0  	.word	0xc021f978
    3dbc: f0 4d a4 40  	.word	0x40a44df0
    3dc0: 6a ea 20 4f  	.word	0x4f20ea6a
    3dc4: 89 69 a8 da  	.word	0xdaa86989
    3dc8: 18 06 62 4c  	.word	0x4c620618
    3dcc: d1 a3 14 ea  	.word	0xea14a3d1
    3dd0: be f8 0b 09  	.word	0x090bf8be
    3dd4: cb fc 01 60  	.word	0x6001fccb
    3dd8: f0 9c 7e 94  	.word	0x947e9cf0
    3ddc: 22 e8 f4 35  	.word	0x35f4e822
    3de0: 95 d0 c5 4b  	.word	0x4bc5d095
    3de4: 51 6e c9 86  	.word	0x86c96e51
    3de8: 4a 80 a6 fc  	.word	0xfca6804a
    3dec: 98 40 0d f2  	.word	0xf20d4098
    3df0: 5d ea 26 c8  	.word	0xc826ea5d
    3df4: 89 3d 36 27  	.word	0x27363d89
    3df8: cf ca 19 57  	.word	0x5719cacf
    3dfc: 56 36 ca 39  	.word	0x39ca3656
    3e00: 5c b7 87 6f  	.word	0x6f87b75c
    3e04: 2f 6f 50 97  	.word	0x97506f2f
    3e08: 70 e0 4a 03  	.word	0x034ae070
    3e0c: a0 ae 24 c6  	.word	0xc624aea0
    3e10: d6 4d d3 aa  	.word	0xaad34dd6
    3e14: e3 56 c8 1e  	.word	0x1ec856e3
    3e18: 8f e5 40 e4  	.word	0xe440e58f
    3e1c: e0 0b 5b 05  	.word	0x055b0be0
    3e20: 12 5d 73 89  	.word	0x89735d12
    3e24: 7d a1 69 64  	.word	0x6469a17d
    3e28: f1 b9 62 e6  	.word	0xe662b9f1
    3e2c: d5 27 6f db  	.word	0xdb6f27d5
    3e30: 81 56 39 6a  	.word	0x6a395681
    3e34: 28 a3 cb 9f  	.word	0x9fcba328
    3e38: 25 af 69 d2  	.word	0xd269af25
    3e3c: 04 80 3b 36  	.word	0x363b8004
    3e40: a2 3d a3 6e  	.word	0x6ea33da2
    3e44: 4b a0 12 4d  	.word	0x4d12a04b
    3e48: dd 26 61 e3  	.word	0xe36126dd
    3e4c: 15 4c cf 57  	.word	0x57cf4c15
    3e50: 67 d9 44 ee  	.word	0xee44d967
    3e54: 75 96 ec 90  	.word	0x90ec9675
    3e58: ac 5a 98 2a  	.word	0x2a985aac
    3e5c: 8d 34 ca 64  	.word	0x64ca348d
    3e60: 2d 91 c4 e4  	.word	0xe4c4912d
    3e64: 19 8e 58 99  	.word	0x99588e19
    3e68: 6b ce a5 1c  	.word	0x1ca5ce6b
    3e6c: 4e 3b cc ef  	.word	0xefcc3b4e
    3e70: d5 98 5b fa  	.word	0xfa5b98d5
    3e74: 60 ea 22 45  	.word	0x4522ea60
    3e78: 19 a8 e4 1d  	.word	0x1de4a819
    3e7c: ab bb 64 70  	.word	0x7064bbab
    3e80: 41 06 77 5a  	.word	0x5a770641
    3e84: 51 e1 19 b9  	.word	0xb919e151
    3e88: 39 80 7f 4e  	.word	0x4e7f8039
    3e8c: c7 e2 a2 a9  	.word	0xa9a2e2c7
    3e90: 09 31 f2 3d  	.word	0x3df23109
    3e94: 0b 25 27 75  	.word	0x7527250b
    3e98: 8b b7 27 ac  	.word	0xac27b78b
    3e9c: 30 73 6a 75  	.word	0x756a7330
    3ea0: 29 21 54 42  	.word	0x42542129
    3ea4: 61 c0 90 a2  	.word	0xa290c061
    3ea8: 90 5b 8d be  	.word	0xbe8d5b90
    3eac: ae c2 e2 f2  	.word	0xf2e2c2ae
    3eb0: 1b fe ab 76  	.word	0x76abfe1b
    3eb4: db 58 24 cf  	.word	0xcf2458db
    3eb8: bf 26 d6 83  	.word	0x83d626bf
    3ebc: de 7a 15 02  	.word	0x02157ade
    3ec0: 8b 03 9a 1b  	.word	0x1b9a038b
    3ec4: 2a 97 46 3e  	.word	0x3e46972a
    3ec8: b4 3f e0 7e  	.word	0x7ee03fb4
    3ecc: 6a e6 4e 2e  	.word	0x2e4ee66a
    3ed0: ca b4 db 6e  	.word	0x6edbb4ca
    3ed4: 77 48 a2 81  	.word	0x81a24877
    3ed8: 63 05 cd 8e  	.word	0x8ecd0563
    3edc: e8 4e 94 1a  	.word	0x1a944ee8
    3ee0: 72 93 03 51  	.word	0x51039372
    3ee4: 11 1d a9 d5  	.word	0xd5a91d11
    3ee8: de 26 ca 99  	.word	0x99ca26de
    3eec: b7 77 d3 2e  	.word	0x2ed377b7
    3ef0: 6b 6b 36 fd  	.word	0xfd366b6b
    3ef4: ac 02 72 a1  	.word	0xa17202ac
    3ef8: 95 19 90 d6  	.word	0xd6901995
    3efc: 1b 29 30 07  	.word	0x0730291b
    3f00: d6 62 23 18  	.word	0x182362d6
    3f04: 59 a8 40 bb  	.word	0xbb40a859
    3f08: bb 1a 4d 8a  	.word	0x8a4d1abb
    3f0c: 77 55 9f b9  	.word	0xb99f5577
    3f10: f6 59 85 75  	.word	0x758559f6
    3f14: 27 b4 18 8d  	.word	0x8d18b427
    3f18: 5a 23 26 4d  	.word	0x4d26235a
    3f1c: e7 0f c2 26  	.word	0x26c20fe7
    3f20: f5 22 cc e9  	.word	0xe9cc22f5
    3f24: 9f 1d 8d 64  	.word	0x648d1d9f
    3f28: 7c 57 dd 28  	.word	0x28dd577c
    3f2c: 19 56 bc 66  	.word	0x66bc5619
    3f30: d1 39 24 65  	.word	0x652439d1
    3f34: 21 ed d3 47  	.word	0x47d3ed21
    3f38: 49 8b af ed  	.word	0xedaf8b49
    3f3c: ac 71 d2 49  	.word	0x49d271ac
    3f40: f3 33 2b 38  	.word	0x382b33f3
    3f44: 8a 05 f5 89  	.word	0x89f5058a
    3f48: b4 c0 48 ad  	.word	0xad48c0b4
    3f4c: 0b ba e2 5a  	.word	0x5ae2ba0b
    3f50: 6e b3 3d a5  	.word	0xa53db36e
    3f54: 03 b5 93 8f  	.word	0x8f93b503
    3f58: e6 32 a2 95  	.word	0x95a232e6
    3f5c: 9d ed a3 5a  	.word	0x5aa3ed9d
    3f60: 01 56 b7 b4  	.word	0xb4b75601
    3f64: f9 aa 98 27  	.word	0x2798aaf9
    3f68: 72 ad 8d 5c  	.word	0x5c8dad72
    3f6c: 13 72 ac 5e  	.word	0x5eac7213
    3f70: 23 a0 b7 61  	.word	0x61b7a023
    3f74: 61 aa ce d2  	.word	0xd2ceaa61
    3f78: 4e 7d 8f e9  	.word	0xe98f7d4e
    3f7c: 84 b2 bf 1b  	.word	0x1bbfb284
    3f80: 61 65 d9 c7  	.word	0xc7d96561
    3f84: e9 77 67 65  	.word	0x656777e9
    3f88: 36 80 c7 72  	.word	0x72c78036
    3f8c: 54 12 2b cb  	.word	0xcb2b1254
    3f90: ee 6e 50 d9  	.word	0xd9506eee
    3f94: 99 32 05 65  	.word	0x65053299
    3f98: cc 57 89 5e  	.word	0x5e8957cc
    3f9c: 4e e1 07 4a  	.word	0x4a07e14e
    3fa0: 99 f9 0d 98  	.word	0x980df999
    3fa4: cb 12 e4 4e  	.word	0x4ee412cb
    3fa8: 71 c7 6e 3c  	.word	0x3c6ec771
    3fac: 6f d7 15 a3  	.word	0xa315d76f
    3fb0: fd 77 5c 92  	.word	0x925c77fd
    3fb4: de ed a5 bb  	.word	0xbba5edde
    3fb8: 02 34 31 1d  	.word	0x1d313402
    3fbc: 39 ac 0b 3f  	.word	0x3f0bac39
    3fc0: 9b a4 77 c4  	.word	0xc477a49b
    3fc4: cd 58 0b 24  	.word	0x240b58cd
    3fc8: 17 f0 47 64  	.word	0x6447f017
    3fcc: de da 38 fd  	.word	0xfd38dade
    3fd0: ad 6a c8 a7  	.word	0xa7c86aad
    3fd4: 32 8d 92 19  	.word	0x19928d32
    3fd8: 81 a0 af 84  	.word	0x84afa081
    3fdc: ed 7a af 50  	.word	0x50af7aed
    3fe0: e5 5b f6 15  	.word	0x15f65be5
    3fe4: 01 de 4f 6e  	.word	0x6e4fde01
    3fe8: b2 09 61 21  	.word	0x216109b2
    3fec: 21 26 98 29  	.word	0x29982621
    3ff0: d9 d6 ad 0b  	.word	0x0badd6d9
    3ff4: 81 05 02 78  	.word	0x78020581
    3ff8: 06 d0 eb ba  	.word	0xbaebd006
    3ffc: 16 a3 21 19  	.word	0x1921a316
    4000: fc 70 b8 df  	.word	0xdfb870fc
    4004: 7e 2f 42 89  	.word	0x89422f7e
    4008: bd b3 76 4f  	.word	0x4f76b3bd
    400c: eb 6b 29 2c  	.word	0x2c296beb
    4010: f7 4d c2 36  	.word	0x36c24df7
    4014: d4 f1 38 07  	.word	0x0738f1d4
    4018: b0 ae 73 e2  	.word	0xe273aeb0
    401c: 41 df 58 64  	.word	0x6458df41
    4020: 8b c1 f3 d9  	.word	0xd9f3c18b
    4024: 9a ad 5a d7  	.word	0xd75aad9a
    4028: 9c c1 b1 60  	.word	0x60b1c19c
    402c: ef 0e 6a 56  	.word	0x566a0eef
    4030: d9 0e 5c 25  	.word	0x255c0ed9
    4034: ac 0b 9a 3e  	.word	0x3e9a0bac
    4038: f5 c7 62 a0  	.word	0xa062c7f5
    403c: ec 9d 04 7b  	.word	0x7b049dec
    4040: 83 44 44 35  	.word	0x35444483
    4044: 7a e3 cb dc  	.word	0xdccbe37a
    4048: 93 be ed 0f  	.word	0x0fedbe93
    404c: 33 79 88 75  	.word	0x75887933
    4050: 87 dd c5 12  	.word	0x12c5dd87
    4054: c3 04 60 78  	.word	0x786004c3
    4058: 64 0e 95 c2  	.word	0xc2950e64
    405c: cb dc 93 60  	.word	0x6093dccb
    4060: 6d 70 e0 85  	.word	0x85e0706d
    4064: 85 9a f3 1f  	.word	0x1ff39a85
    4068: 33 39 e7 b3  	.word	0xb3e73933
    406c: d8 a5 d0 36  	.word	0x36d0a5d8
    4070: 3b 45 8f 71  	.word	0x718f453b
    4074: e1 f2 b9 43  	.word	0x43b9f2e1
    4078: 7c a9 27 48  	.word	0x4827a97c
    407c: 08 ea d1 57  	.word	0x57d1ea08
    4080: 4b 03 84 60  	.word	0x6084034b
    4084: be ee de 6b  	.word	0x6bdeeebe
    4088: 54 b8 0f 78  	.word	0x780fb854
    408c: b6 c2 99 31  	.word	0x3199c2b6
    4090: 95 06 2d b6  	.word	0xb62d0695
    4094: ab 76 33 97  	.word	0x973376ab
    4098: 90 7d 64 8b  	.word	0x8b647d90
    409c: c9 80 31 6e  	.word	0x6e3180c9
    40a0: 71 b0 28 a1  	.word	0xa128b071
    40a4: e7 b6 7a ee  	.word	0xee7ab6e7
    40a8: aa 8b a8 93  	.word	0x93a88baa
    40ac: 6d 59 c1 a4  	.word	0xa4c1596d
    40b0: 30 61 21 b2  	.word	0xb2216130
    40b4: 82 de b4 f7  	.word	0xf7b4de82
    40b8: 18 bd 97 dd  	.word	0xdd97bd18
    40bc: 9d 99 3e 36  	.word	0x363e999d
    40c0: c4 1f ee 35  	.word	0x35ee1fc4
    40c4: c1 43 a8 96  	.word	0x96a843c1
    40c8: cf c8 e4 08  	.word	0x08e4c8cf
    40cc: 55 b3 6e 97  	.word	0x976eb355
    40d0: 30 d3 8c b5  	.word	0xb58cd330
    40d4: 01 68 2f b4  	.word	0xb42f6801
    40d8: 2b 05 3a 69  	.word	0x693a052b
    40dc: 78 9b ee 48  	.word	0x48ee9b78
    40e0: c6 ae 4b e2  	.word	0xe24baec6
    40e4: dc 48 18 2f  	.word	0x2f1848dc
    40e8: 60 af bc ba  	.word	0xbabcaf60
    40ec: 55 72 9b 76  	.word	0x769b7255
    40f0: 31 e9 ef 3c  	.word	0x3cefe931
    40f4: 6e 3c cb 90  	.word	0x90cb3c6e
    40f8: 55 b3 f9 c6  	.word	0xc6f9b355
    40fc: 9b 97 1f 23  	.word	0x231f979b
    4100: c6 f3 2a cc  	.word	0xcc2af3c6
    4104: 4b de 31 5c  	.word	0x5c31de4b
    4108: 1f 8d 20 fe  	.word	0xfe208d1f
    410c: 30 b0 4b b0  	.word	0xb04bb030
    4110: 66 b4 4f c1  	.word	0xc14fb466
    4114: 09 70 8d b7  	.word	0xb78d7009
    4118: 13 24 79 08  	.word	0x08792413
    411c: 9b fa 9b 07  	.word	0x079bfa9b
    4120: f4 0d 30 da  	.word	0xda300df4
    4124: 51 3a 90 e3  	.word	0xe3903a51
    4128: b0 5a a9 3d  	.word	0x3da95ab0
    412c: 23 64 39 84  	.word	0x84396423
    4130: 80 64 35 0b  	.word	0x0b356480
    4134: 2d f1 3c ed  	.word	0xed3cf12d
    4138: 94 71 81 84  	.word	0x84817194
    413c: f6 77 8c 03  	.word	0x038c77f6
    4140: 45 42 d5 a2  	.word	0xa2d54245
    4144: 80 ed c9 f3  	.word	0xf3c9ed80
    4148: 52 39 f6 77  	.word	0x77f63952
    414c: 78 8b a0 0a  	.word	0x0aa08b78
    4150: 75 54 08 d1  	.word	0xd1085475
    4154: 63 ac 6d d7  	.word	0xd76dac63
    4158: 6b 63 70 94  	.word	0x9470636b
    415c: 15 fb f4 1e  	.word	0x1ef4fb15
    4160: ec 7b 16 5b  	.word	0x5b167bec
    4164: e6 5e 4e 85  	.word	0x854e5ee6
    4168: c2 cd d0 96  	.word	0x96d0cdc2
    416c: 42 0a 59 59  	.word	0x59590a42
    4170: 99 21 10 98  	.word	0x98102199
    4174: 34 df b2 72  	.word	0x72b2df34
    4178: 56 ff 0b 4a  	.word	0x4a0bff56
    417c: 2a e9 5e 57  	.word	0x575ee92a
    4180: cf 2f 18 8a  	.word	0x8a182fcf
    4184: 90 80 c0 d4  	.word	0xd4c08090
    4188: bd 9d 48 99  	.word	0x99489dbd
    418c: c2 70 e1 30  	.word	0x30e170c2
    4190: de 33 f7 52  	.word	0x52f733de
    4194: 57 bd ba 05  	.word	0x05babd57
    4198: 00 fd d3 2c  	.word	0x2cd3fd00
    419c: 11 e7 d4 43  	.word	0x43d4e711
    41a0: 01 d8 a4 0a  	.word	0x0aa4d801
    41a4: 45 bc 46 5d  	.word	0x5d46bc45
    41a8: d8 b9 33 a5  	.word	0xa533b9d8
    41ac: 27 12 af c3  	.word	0xc3af1227
    41b0: c2 06 89 2b  	.word	0x2b8906c2
    41b4: 26 3b 9e 38  	.word	0x389e3b26
    41b8: 1b 58 2f 38  	.word	0x382f581b
    41bc: 7e 1e 0a 20  	.word	0x200a1e7e
    41c0: c5 3a f9 ea  	.word	0xeaf93ac5
    41c4: 67 b9 8d 51  	.word	0x518db967
    41c8: c0 52 66 05  	.word	0x056652c0
    41cc: 9b 98 bc 71  	.word	0x71bc989b
    41d0: f5 97 71 56  	.word	0x567197f5
    41d4: d9 85 2b fe  	.word	0xfe2b85d9
    41d8: 38 4e 1e 65  	.word	0x651e4e38
    41dc: 52 ca 0e 05  	.word	0x050eca52
    41e0: 9c 0c 3f 45  	.word	0x453f0c9c
    41e4: de 1a 43 c3  	.word	0xc3431ade
    41e8: 9b 3b 70 ff  	.word	0xff703b9b
    41ec: 5e 04 f5 e9  	.word	0xe9f5045e
    41f0: 3d 7b 84 ed  	.word	0xed847b3d
    41f4: c9 7a d9 fc  	.word	0xfcd97ac9
    41f8: c6 f4 58 1c  	.word	0x1c58f4c6
    41fc: c2 e6 0e 4b  	.word	0x4b0ee6c2
    4200: ea 68 e6 60  	.word	0x60e668ea
    4204: 76 39 ac 97  	.word	0x97ac3976
    4208: 97 b4 3a 15  	.word	0x153ab497
    420c: fe bb 19 9b  	.word	0x9b19bbfe
    4210: 9f a7 ec 34  	.word	0x34eca79f
    4214: b5 79 b1 4c  	.word	0x4cb179b5
    4218: 57 ae 31 a1  	.word	0xa131ae57
    421c: 9f c0 51 61  	.word	0x6151c09f
    4220: 96 5d f0 fd  	.word	0xfdf05d96
    4224: 0d 5c f5 3a  	.word	0x3af55c0d
    4228: 7a ee b4 2a  	.word	0x2ab4ee7a
    422c: e0 2e 26 dd  	.word	0xdd262ee0
    4230: 09 17 17 12  	.word	0x12171709
    4234: 87 bb b2 11  	.word	0x11b2bb87
    4238: 0b 03 0f 80  	.word	0x800f030b
    423c: fa 24 ef 1f  	.word	0x1fef24fa
    4240: 09 66 6c 6b  	.word	0x6b6c6609
    4244: 3a 12 96 b4  	.word	0xb496123a
    4248: 38 59 ab 80  	.word	0x80ab5938
    424c: 85 fe 50 a7  	.word	0xa750fe85
    4250: 5f 7a c2 b7  	.word	0xb7c27a5f
    4254: 39 bf 71 f4  	.word	0xf471bf39
    4258: 3c 19 ac 77  	.word	0x77ac193c
    425c: ce 03 79 50  	.word	0x507903ce
    4260: 20 62 16 90  	.word	0x90166220
    4264: 6a a6 91 ff  	.word	0xff91a66a
    4268: 09 e0 f1 5b  	.word	0x5bf1e009
    426c: ae 52 25 f2  	.word	0xf22552ae
    4270: 7c df 90 7f  	.word	0x7f90df7c
    4274: d8 85 ff 7d  	.word	0x7dff85d8
    4278: b9 6f 73 0c  	.word	0x0c736fb9
    427c: fe 0f 62 4f  	.word	0x4f620ffe
    4280: 34 3e de df  	.word	0xdfde3e34
    4284: 65 0d f9 62  	.word	0x62f90d65
    4288: ad 5f fa b9  	.word	0xb9fa5fad
    428c: 92 c5 28 cf  	.word	0xcf28c592
    4290: 10 45 16 c6  	.word	0xc6164510
    4294: f9 6e c8 99  	.word	0x99c86ef9
    4298: 84 6c 25 4a  	.word	0x4a256c84
    429c: 04 48 d4 25  	.word	0x25d44804
    42a0: 6f b1 e9 c7  	.word	0xc7e9b16f
    42a4: 0e 23 68 bd  	.word	0xbd68230e
    42a8: 5d 79 c5 c1  	.word	0xc1c5795d
    42ac: c1 b9 b1 0e  	.word	0x0eb1b9c1
    42b0: ff b1 b6 95  	.word	0x95b6b1ff
    42b4: c4 c8 43 79  	.word	0x7943c8c4
    42b8: 5e cf ba 0b  	.word	0x0bbacf5e
    42bc: 62 af 9f 2f  	.word	0x2f9faf62
    42c0: 55 2b 02 c9  	.word	0xc9022b55
    42c4: 15 44 7c 2c  	.word	0x2c7c4415
    42c8: fe b1 2e 81  	.word	0x812eb1fe
    42cc: 41 d2 a0 56  	.word	0x56a0d241
    42d0: 0d 5e b6 d7  	.word	0xd7b65e0d
    42d4: c9 a1 2e f0  	.word	0xf02ea1c9
    42d8: 26 3b 32 d5  	.word	0xd5323b26
    42dc: 2f 51 80 41  	.word	0x4180512f
    42e0: db a5 48 8a  	.word	0x8a48a5db
    42e4: 69 3e ff a4  	.word	0xa4ff3e69
    42e8: 3b 40 95 bd  	.word	0xbd95403b
    42ec: 06 38 6a ba  	.word	0xba6a3806
    42f0: 5d b6 d5 47  	.word	0x47d5b65d
    42f4: af e1 7c 9f  	.word	0x9f7ce1af
    42f8: fb d2 39 59  	.word	0x5939d2fb
    42fc: e5 87 e0 15  	.word	0x15e087e5
    4300: 96 14 5c 74  	.word	0x745c1496
    4304: 43 75 20 12  	.word	0x12207543
    4308: 0c 61 38 da  	.word	0xda38610c
    430c: fd 3c ff da  	.word	0xdaff3cfd
    4310: 4f c3 71 2c  	.word	0x2c71c34f
    4314: 27 97 e7 e4  	.word	0xe4e79727
    4318: e9 ed bd 34  	.word	0x34bdede9
    431c: 19 7b c0 39  	.word	0x39c07b19
    4320: 38 3f 96 fb  	.word	0xfb963f38
    4324: 6e 18 94 88  	.word	0x8894186e
    4328: d5 9b 63 dc  	.word	0xdc639bd5
    432c: 80 0e a0 48  	.word	0x48a00e80
    4330: 99 1c 6c e9  	.word	0xe96c1c99
    4334: 2b 09 e8 a4  	.word	0xa4e8092b
    4338: 61 36 57 ca  	.word	0xca573661
    433c: 54 7d 09 5a  	.word	0x5a097d54
    4340: 55 e7 c9 17  	.word	0x17c9e755
    4344: 2b 89 45 2d  	.word	0x2d45892b
    4348: f8 8d 30 89  	.word	0x89308df8
    434c: 72 fd 33 d0  	.word	0xd033fd72
    4350: d9 8b 5b 52  	.word	0x525b8bd9
    4354: d9 e9 2f 6c  	.word	0x6c2fe9d9
    4358: 79 c0 1c c1  	.word	0xc11cc079
    435c: f1 ec db 2e  	.word	0x2edbecf1
    4360: d2 a0 15 c7  	.word	0xc715a0d2
    4364: e3 a4 16 16  	.word	0x1616a4e3
    4368: 4d 1d 34 f8  	.word	0xf8341d4d
    436c: b0 3c 62 53  	.word	0x53623cb0
    4370: cb 99 e8 c7  	.word	0xc7e899cb
    4374: 29 53 ef 96  	.word	0x96ef5329
    4378: a6 ba 68 a6  	.word	0xa668baa6
    437c: bb 8d 4e 3d  	.word	0x3d4e8dbb
    4380: 5f a2 87 d0  	.word	0xd087a25f
    4384: dd 0f 0f ee  	.word	0xee0f0fdd
    4388: ee 34 3e 5c  	.word	0x5c3e34ee
    438c: 55 31 75 9c  	.word	0x9c753155
    4390: b5 3a ab 8f  	.word	0x8fab3ab5
    4394: 2e 57 0c 66  	.word	0x660c572e
    4398: b2 d3 4c 54  	.word	0x544cd3b2
    439c: 44 fc 54 08  	.word	0x0854fc44
    43a0: 19 ad ed 55  	.word	0x55edad19
    43a4: c5 a0 eb 61  	.word	0x61eba0c5
    43a8: e6 3d a8 f0  	.word	0xf0a83de6
    43ac: fe 33 b5 24  	.word	0x24b533fe
    43b0: f8 a5 ba 83  	.word	0x83baa5f8
    43b4: 28 04 77 3b  	.word	0x3b770428
    43b8: 8d 7e a4 98  	.word	0x98a47e8d
    43bc: b8 82 8f 67  	.word	0x678f82b8
    43c0: 54 0c 90 d6  	.word	0xd6900c54
    43c4: 0b 1d 49 b1  	.word	0xb1491d0b
    43c8: 36 26 13 9d  	.word	0x9d132636
    43cc: 2c 72 39 35  	.word	0x3539722c
    43d0: c9 2b 36 0b  	.word	0x0b362bc9
    43d4: 92 28 b9 4d  	.word	0x4db92892
    43d8: df 69 8b a6  	.word	0xa68b69df
    43dc: fe d1 7c 4d  	.word	0x4d7cd1fe
    43e0: 96 56 77 57  	.word	0x57775696
    43e4: 40 d9 09 1e  	.word	0x1e09d940
    43e8: db 51 d9 3c  	.word	0x3cd951db
    43ec: 5c 26 d1 ee  	.word	0xeed1265c
    43f0: 6f e1 bc 20  	.word	0x20bce16f
    43f4: 2b ac 9d fa  	.word	0xfa9dac2b
    43f8: f4 89 d0 e8  	.word	0xe8d089f4
    43fc: e0 76 7f 0f  	.word	0x0f7f76e0
    4400: 0c b0 85 d4  	.word	0xd485b00c
    4404: c5 eb d9 36  	.word	0x36d9ebc5
    4408: 65 b3 ad e4  	.word	0xe4adb365
    440c: 92 64 59 a2  	.word	0xa2596492
    4410: cd 9c 11 c2  	.word	0xc2119ccd
    4414: 80 94 65 c1  	.word	0xc1659480
    4418: 5f 0d 6e 18  	.word	0x186e0d5f
    441c: 49 63 30 45  	.word	0x45306349
    4420: 1d ff cd a6  	.word	0xa6cdff1d
    4424: c1 d0 dd 94  	.word	0x94ddd0c1
    4428: ae 13 42 e8  	.word	0xe84213ae
    442c: 15 f1 f6 55  	.word	0x55f6f115
    4430: 6a cf 2f 99  	.word	0x992fcf6a
    4434: 85 5f 93 6c  	.word	0x6c935f85
    4438: 6f f1 37 4a  	.word	0x4a37f16f
    443c: f5 e0 7e 06  	.word	0x067ee0f5
    4440: 91 24 07 2b  	.word	0x2b072491
    4444: ec 14 a4 96  	.word	0x96a414ec
    4448: 5b b6 a7 27  	.word	0x27a7b65b
    444c: 81 21 b2 1b  	.word	0x1bb22181
    4450: f0 4a 8a 6e  	.word	0x6e8a4af0
    4454: 59 49 28 6d  	.word	0x6d284959
    4458: 5f 76 27 cd  	.word	0xcd27765f
    445c: 8c b0 f3 65  	.word	0x65f3b08c
    4460: f7 01 98 19  	.word	0x199801f7
    4464: ff 9f b2 ec  	.word	0xecb29fff
    4468: 2f f7 a0 a2  	.word	0xa2a0f72f
    446c: 1f 1d 36 9d  	.word	0x9d361d1f
    4470: 49 2f fd 75  	.word	0x75fd2f49
    4474: 23 1d f1 25  	.word	0x25f11d23
    4478: e2 0f e1 0f  	.word	0x0fe10fe2
    447c: e8 ef 4c 12  	.word	0x124cefe8
    4480: 55 f2 8d d1  	.word	0xd18df255
    4484: f9 6c 12 4c  	.word	0x4c126cf9
    4488: b6 63 7a 14  	.word	0x147a63b6
    448c: e9 71 d4 c1  	.word	0xc1d471e9
    4490: 5f 3b c9 f3  	.word	0xf3c93b5f
    4494: 73 3c 6d 2c  	.word	0x2c6d3c73
    4498: a2 86 ff e3  	.word	0xe3ff86a2
    449c: a2 a6 e3 6b  	.word	0x6be3a6a2
    44a0: 89 64 b1 31  	.word	0x31b16489
    44a4: 5b e8 18 15  	.word	0x1518e85b
    44a8: fb 0b 71 db  	.word	0xdb710bfb
    44ac: b7 dc aa 8f  	.word	0x8faadcb7
    44b0: 39 e2 4a a1  	.word	0xa14ae239
    44b4: f4 bd b0 39  	.word	0x39b0bdf4
    44b8: c1 20 3d 50  	.word	0x503d20c1
    44bc: ea cb f4 05  	.word	0x05f4cbea
    44c0: bc 45 41 c0  	.word	0xc04145bc
    44c4: 9e 0e 04 ce  	.word	0xce040e9e
    44c8: 4c 83 f6 08  	.word	0x08f6834c
    44cc: e2 f4 1f c7  	.word	0xc71ff4e2
    44d0: a3 47 88 ab  	.word	0xab8847a3
    44d4: 8d 6e 54 bd  	.word	0xbd546e8d
    44d8: a5 ab d2 a4  	.word	0xa4d2aba5
    44dc: a0 6a 66 64  	.word	0x64666aa0
    44e0: 12 d9 06 7c  	.word	0x7c06d912
    44e4: 5a 43 41 68  	.word	0x6841435a
    44e8: 0b 83 3f bb  	.word	0xbb3f830b
    44ec: 21 3c 12 ca  	.word	0xca123c21
    44f0: 78 e2 cb b1  	.word	0xb1cbe278
    44f4: 27 7b b3 d4  	.word	0xd4b37b27
    44f8: 46 50 6f c7  	.word	0xc76f5046
    44fc: 84 3b 75 1d  	.word	0x1d753b84
    4500: 4c e9 37 33  	.word	0x3337e94c
    4504: f7 3b c5 b0  	.word	0xb0c53bf7
    4508: 15 4f e1 11  	.word	0x11e14f15
    450c: 7e 69 b5 7c  	.word	0x7cb5697e
    4510: 50 c7 30 19  	.word	0x1930c750
    4514: ac ab 84 4b  	.word	0x4b84abac
    4518: 68 04 64 e0  	.word	0xe0640468
    451c: bf 4a dd 28  	.word	0x28dd4abf
    4520: 44 9f cb 44  	.word	0x44cb9f44
    4524: 4c b6 c0 7d  	.word	0x7dc0b64c
    4528: bf 5d 92 e3  	.word	0xe3925dbf
    452c: ac e1 a3 18  	.word	0x18a3e1ac
    4530: c4 57 04 2d  	.word	0x2d0457c4
    4534: 86 34 30 7a  	.word	0x7a303486
    4538: 2e 89 0c 8a  	.word	0x8a0c892e
    453c: f7 8b 49 4c  	.word	0x4c498bf7
    4540: 96 31 a7 1a  	.word	0x1aa73196
    4544: fb 53 d6 37  	.word	0x37d653fb
    4548: 18 64 d7 3f  	.word	0x3fd76418
    454c: 30 95 94 0f  	.word	0x0f949530
    4550: b2 17 3a fb  	.word	0xfb3a17b2
    4554: 09 0b 20 ad  	.word	0xad200b09
    4558: 3e 61 c8 2f  	.word	0x2fc8613e
    455c: 29 49 4d 54  	.word	0x544d4929
    4560: 86 6b 97 30  	.word	0x30976b86
    4564: f5 af d2 22  	.word	0x22d2aff5
    4568: 04 46 d2 c2  	.word	0xc2d24604
    456c: 06 b8 90 8d  	.word	0x8d90b806
    4570: e5 ba e5 4d  	.word	0x4de5bae5
    4574: 6c 89 a1 dc  	.word	0xdca1896c
    4578: 17 0c 34 c8  	.word	0xc8340c17
    457c: e6 5f 00 28  	.word	0x28005fe6
    4580: 88 86 52 34  	.word	0x34528688
    4584: 9f ba ef 6a  	.word	0x6aefba9f
    4588: a1 7d 10 25  	.word	0x25107da1
    458c: 94 ff 1b 5c  	.word	0x5c1bff94
    4590: 36 4b d9 66  	.word	0x66d94b36
    4594: cd bb 5b f7  	.word	0xf75bbbcd
    4598: fa 6d 31 0f  	.word	0x0f316dfa
    459c: 93 72 e4 72  	.word	0x72e47293
    45a0: 4f 08 81 97  	.word	0x9781084f
    45a4: 8c 20 95 26  	.word	0x2695208c
    45a8: e1 0e 45 23  	.word	0x23450ee1
    45ac: 0b 2a 50 b1  	.word	0xb1502a0b
    45b0: 02 de ef 03  	.word	0x03efde02
    45b4: a6 ae 9d fd  	.word	0xfd9daea6
    45b8: 4c a3 33 27  	.word	0x2733a34c
    45bc: 8c 2e 9d 5a  	.word	0x5a9d2e8c
    45c0: 27 76 2a d3  	.word	0xd32a7627
    45c4: 35 f6 f3 07  	.word	0x07f3f635
    45c8: f0 66 65 5f  	.word	0x5f6566f0
    45cc: 86 4d aa 7a  	.word	0x7aaa4d86
    45d0: 50 44 d0 28  	.word	0x28d04450
    45d4: 97 e7 85 3c  	.word	0x3c85e797
    45d8: 38 64 e0 0f  	.word	0x0fe06438
    45dc: 00 7f ee 1f  	.word	0x1fee7f00
    45e0: e5 f7 db 03  	.word	0x03dbf7e5
    45e4: da 05 53 76  	.word	0x765305da
    45e8: bd cd 34 14  	.word	0x1434cdbd
    45ec: 49 f2 da a4  	.word	0xa4daf249
    45f0: ec 88 4a d2  	.word	0xd24a88ec
    45f4: cd d5 4a 7b  	.word	0x7b4ad5cd
    45f8: 43 05 04 ee  	.word	0xee040543
    45fc: 51 40 f9 00  	.word	0x00f94051
    4600: b2 30 d3 c3  	.word	0xc3d330b2
    4604: 23 6b 35 8d  	.word	0x8d356b23
    4608: 06 1b 47 b0  	.word	0xb0471b06
    460c: 9b 8b 1c f2  	.word	0xf21c8b9b
    4610: 3c b8 42 6e  	.word	0x6e42b83c
    4614: 6c 31 6c b3  	.word	0xb36c316c
    4618: 0d b1 ea 8b  	.word	0x8beab10d
    461c: 7e 9c d7 07  	.word	0x07d79c7e
    4620: 53 97 af 07  	.word	0x07af9753
    4624: bb 93 ef d7  	.word	0xd7ef93bb
    4628: a7 66 b7 3d  	.word	0x3db766a7
    462c: cf d0 3e 58  	.word	0x583ed0cf
    4630: c5 1e 0b 6e  	.word	0x6e0b1ec5
    4634: bf 98 69 ce  	.word	0xce6998bf
    4638: 52 04 d4 5d  	.word	0x5dd40452
    463c: d2 ff b7 47  	.word	0x47b7ffd2
    4640: 12 dd 08 bc  	.word	0xbc08dd12
    4644: 9c fb fb 87  	.word	0x87fbfb9c
    4648: 9b c2 ee e1  	.word	0xe1eec29b
    464c: 3a 6b 06 8a  	.word	0x8a066b3a
    4650: bf c1 1f db  	.word	0xdb1fc1bf
    4654: 2b 24 57 0d  	.word	0x0d57242b
    4658: b6 4b a6 5e  	.word	0x5ea64bb6
    465c: a3 20 35 1c  	.word	0x1c3520a3
    4660: 4a a3 cb bc  	.word	0xbccba34a
    4664: a6 53 d2 80  	.word	0x80d253a6
    4668: 9b 21 38 38  	.word	0x3838219b
    466c: a1 c3 61 3e  	.word	0x3e61c3a1
    4670: 96 e3 82 98  	.word	0x9882e396
    4674: 01 b6 c3 90  	.word	0x90c3b601
    4678: 6f e6 0e 5d  	.word	0x5d0ee66f
    467c: 77 05 3d 1c  	.word	0x1c3d0577
    4680: 59 c0 6b 21  	.word	0x216bc059
    4684: 40 6f a8 cd  	.word	0xcda86f40
    4688: 7e d8 bc 12  	.word	0x12bcd87e
    468c: 1d 23 bb 1f  	.word	0x1fbb231d
    4690: 90 09 c7 17  	.word	0x17c70990
    4694: 9e 6a 95 b4  	.word	0xb4956a9e
    4698: 55 2e d1 66  	.word	0x66d12e55
    469c: 3b 0c 75 38  	.word	0x38750c3b
    46a0: 1a e5 22 94  	.word	0x9422e51a
    46a4: 40 f1 2e 69  	.word	0x692ef140
    46a8: 71 f6 5d 2b  	.word	0x2b5df671
    46ac: 3c c7 c0 cb  	.word	0xcbc0c73c
    46b0: 29 e0 4c 74  	.word	0x744ce029
    46b4: e7 4f 01 21  	.word	0x21014fe7
    46b8: 7c 48 30 d3  	.word	0xd330487c
    46bc: c7 e2 21 06  	.word	0x0621e2c7
    46c0: 8d 83 59 82  	.word	0x8259838d
    46c4: cc 60 98 af  	.word	0xaf9860cc
    46c8: dc 9a 9f c6  	.word	0xc69f9adc
    46cc: c1 48 ea 90  	.word	0x90ea48c1
    46d0: 30 1e 58 65  	.word	0x65581e30
    46d4: 37 48 26 65  	.word	0x65264837
    46d8: bc a5 d3 7b  	.word	0x7bd3a5bc
    46dc: 09 d6 07 00  	.word	0x0007d609
    46e0: f3 f0 db b0  	.word	0xb0dbf0f3
    46e4: 96 17 ae b7  	.word	0xb7ae1796
    46e8: 96 e1 7c e1  	.word	0xe17ce196
    46ec: b9 af df 54  	.word	0x54dfafb9
    46f0: b4 a3 aa e9  	.word	0xe9aaa3b4
    46f4: 71 30 92 25  	.word	0x25923071
    46f8: 9d 2e 00 a1  	.word	0xa1002e9d
    46fc: 9c 58 8e 5d  	.word	0x5d8e589c
    4700: 4b a9 42 08  	.word	0x0842a94b
    4704: 95 1d bf c0  	.word	0xc0bf1d95
    4708: 3e 2e 8f 58  	.word	0x588f2e3e
    470c: 63 c3 d3 b2  	.word	0xb2d3c363
    4710: ef e2 51 bb  	.word	0xbb51e2ef
    4714: 38 14 96 0a  	.word	0x0a961438
    4718: 86 bf 1c 3c  	.word	0x3c1cbf86
    471c: 78 d7 83 15  	.word	0x1583d778
    4720: e1 7a a2 5d  	.word	0x5da27ae1
    4724: ef a2 ee ec  	.word	0xeceea2ef
    4728: 74 01 67 55  	.word	0x55670174
    472c: 14 3a 7c 59  	.word	0x597c3a14
    4730: 7a 16 09 66  	.word	0x6609167a
    4734: 12 2a a6 c9  	.word	0xc9a62a12
    4738: 70 8f ed 81  	.word	0x81ed8f70
    473c: 2e 5f 2a 25  	.word	0x252a5f2e
    4740: c7 28 9d cc  	.word	0xcc9d28c7
    4744: 04 47 03 90  	.word	0x90034704
    4748: 8f c5 2c f7  	.word	0xf72cc58f
    474c: 9e 67 1b 1d  	.word	0x1d1b679e
    4750: 26 87 5b be  	.word	0xbe5b8726
    4754: 5f 2b e1 16  	.word	0x16e12b5f
    4758: 0a 58 c5 83  	.word	0x83c5580a
    475c: 4e 06 58 49  	.word	0x4958064e
    4760: 0d e8 66 50  	.word	0x5066e80d
    4764: 26 94 28 0d  	.word	0x0d289426
    4768: 6b 8c 7c 30  	.word	0x307c8c6b
    476c: 85 f7 c3 fc  	.word	0xfcc3f785
    4770: fd 12 11 0c  	.word	0x0c1112fd
    4774: 78 da 53 1b  	.word	0x1b53da78
    4778: 88 b3 43 d8  	.word	0xd843b388
    477c: 0b 17 9c 07  	.word	0x079c170b
    4780: ff 6f fa 64  	.word	0x64fa6fff
    4784: e4 ec 06 05  	.word	0x0506ece4
    4788: 23 e5 05 62  	.word	0x6205e523
    478c: 1e 43 e3 be  	.word	0xbee3431e
    4790: 42 ea b8 51  	.word	0x51b8ea42
    4794: 24 42 79 35  	.word	0x35794224
    4798: 00 fb c9 4a  	.word	0x4ac9fb00
    479c: e3 05 ec 6d  	.word	0x6dec05e3
    47a0: 56 d0 d5 c0  	.word	0xc0d5d056
    47a4: 50 cd d6 cd  	.word	0xcdd6cd50
    47a8: 3b 57 03 bb  	.word	0xbb03573b
    47ac: 6d 68 f7 9a  	.word	0x9af7686d
    47b0: 48 ef c3 f3  	.word	0xf3c3ef48
    47b4: 3f 72 a6 3c  	.word	0x3ca6723f
    47b8: cc 8a 7b 31  	.word	0x317b8acc
    47bc: d7 c0 68 67  	.word	0x6768c0d7
    47c0: b3 c1 55 f1  	.word	0xf155c1b3
    47c4: e5 25 b6 94  	.word	0x94b625e5
    47c8: 91 7b 7b 99  	.word	0x997b7b91
    47cc: a7 f3 7b 41  	.word	0x417bf3a7
    47d0: 00 26 6b 6d  	.word	0x6d6b2600
    47d4: dc bd 2c c2  	.word	0xc22cbddc
    47d8: f4 52 cd dd  	.word	0xddcd52f4
    47dc: 14 5e 44 51  	.word	0x51445e14
    47e0: 51 49 14 3b  	.word	0x3b144951
    47e4: 4b 2b 50 57  	.word	0x57502b4b
    47e8: b3 bc 4b 44  	.word	0x444bbcb3
    47ec: 6b ff 67 8e  	.word	0x8e67ff6b
    47f0: db 85 63 16  	.word	0x166385db
    47f4: 27 69 bd b8  	.word	0xb8bd6927
    47f8: c8 95 92 e3  	.word	0xe39295c8
    47fc: 31 6f 18 13  	.word	0x13186f31
    4800: 55 a4 be 2b  	.word	0x2bbea455
    4804: ab 47 31 89  	.word	0x893147ab
    4808: 29 91 07 92  	.word	0x92079129
    480c: 4f a2 53 8c  	.word	0x8c53a24f
    4810: a7 f7 30 be  	.word	0xbe30f7a7
    4814: 48 f9 49 4b  	.word	0x4b49f948
    4818: 3d d4 4f 6e  	.word	0x6e4fd43d
    481c: 08 90 e9 12  	.word	0x12e99008
    4820: 2e bb df 7f  	.word	0x7fdfbb2e
    4824: b3 96 0c f1  	.word	0xf10c96b3
    4828: f9 ea 1c 12  	.word	0x121ceaf9
    482c: 5e 93 9a 9f  	.word	0x9f9a935e
    4830: 3f 98 5b 3a  	.word	0x3a5b983f
    4834: c4 36 11 df  	.word	0xdf1136c4
    4838: af 99 3e 5d  	.word	0x5d3e99af
    483c: f0 e3 b2 77  	.word	0x77b2e3f0
    4840: 57 26 f1 9c  	.word	0x9cf12657
    4844: 87 75 0d fd  	.word	0xfd0d7587
    4848: 29 0e 3a e5  	.word	0xe53a0e29
    484c: 94 ef 2f e8  	.word	0xe82fef94
    4850: e7 4b bb 5b  	.word	0x5bbb4be7
    4854: f0 a7 34 cc  	.word	0xcc34a7f0
    4858: a2 38 0c a5  	.word	0xa50c38a2
    485c: 72 11 25 0b  	.word	0x0b251172
    4860: 9b d2 5c cc  	.word	0xcc5cd29b
    4864: 8f f4 32 95  	.word	0x9532f48f
    4868: 71 36 ce a3  	.word	0xa3ce3671
    486c: be 51 a8 2b  	.word	0x2ba851be
    4870: 41 29 12 51  	.word	0x51122941
    4874: a0 ca da 32  	.word	0x32dacaa0
    4878: f2 04 00 35  	.word	0x350004f2
    487c: d9 99 8d 47  	.word	0x478d99d9
    4880: c0 02 bb 90  	.word	0x90bb02c0
    4884: 48 d9 5a 1d  	.word	0x1d5ad948
    4888: 15 51 c2 0e  	.word	0x0ec25115
    488c: b1 08 e2 50  	.word	0x50e208b1
    4890: 02 17 f2 4e  	.word	0x4ef21702
    4894: 89 22 6a a2  	.word	0xa26a2289
    4898: 05 48 52 3b  	.word	0x3b524805
    489c: 34 23 c9 4d  	.word	0x4dc92334
    48a0: b6 86 80 0f  	.word	0x0f8086b6
    48a4: 40 8c 82 e3  	.word	0xe3828c40
    48a8: c8 0d 9f 97  	.word	0x979f0dc8
    48ac: f7 e6 77 3f  	.word	0x3f77e6f7
    48b0: b4 2c f4 4d  	.word	0x4df42cb4
    48b4: 30 de f6 7e  	.word	0x7ef6de30
    48b8: 84 d7 ab b6  	.word	0xb6abd784
    48bc: 7c 79 65 52  	.word	0x5265797c
    48c0: 75 49 6c f3  	.word	0xf36c4975
    48c4: eb e3 d3 3a  	.word	0x3ad3e3eb
    48c8: 25 21 86 37  	.word	0x37862125
    48cc: a5 25 5d d7  	.word	0xd75d25a5
    48d0: 16 a5 25 a0  	.word	0xa025a516
    48d4: 3d 94 73 e8  	.word	0xe873943d
    48d8: 47 c8 11 c4  	.word	0xc411c847
    48dc: b4 7c bc 6b  	.word	0x6bbc7cb4
    48e0: 56 0d a5 d4  	.word	0xd4a50d56
    48e4: d1 9c 6f 3c  	.word	0x3c6f9cd1
    48e8: 7e ab fe c6  	.word	0xc6feab7e
    48ec: 77 40 24 b6  	.word	0xb6244077
    48f0: 2e 97 80 35  	.word	0x3580972e
    48f4: 48 bf f9 6f  	.word	0x6ff9bf48
    48f8: fb ac 32 b3  	.word	0xb332acfb
    48fc: 83 58 37 00  	.word	0x00375883
    4900: 40 09 cb 28  	.word	0x28cb0940
    4904: cd b2 01 00  	.word	0x0001b2cd
    4908: c9 24 1c 6f  	.word	0x6f1c24c9
    490c: a0 51 fb 63  	.word	0x63fb51a0
    4910: 31 ca d5 dc  	.word	0xdcd5ca31
    4914: 91 86 ad b5  	.word	0xb5ad8691
    4918: 60 06 45 8c  	.word	0x8c450660
    491c: bd 8d 23 67  	.word	0x67238dbd
    4920: 9c c9 75 6c  	.word	0x6c75c99c
    4924: 85 ec 8b c9  	.word	0xc98bec85
    4928: f4 3c e3 00  	.word	0x00e33cf4
    492c: c0 84 41 e4  	.word	0xe44184c0
    4930: 34 76 90 ba  	.word	0xba907634
    4934: 9b 6b 67 0a  	.word	0x0a676b9b
    4938: d7 79 f3 71  	.word	0x71f379d7
    493c: b5 2c 9e 66  	.word	0x669e2cb5
    4940: 08 d3 9b a4  	.word	0xa49bd308
    4944: 73 6b 11 cb  	.word	0xcb116b73
    4948: 9e 72 92 23  	.word	0x2392729e
    494c: 6b ad 5a 02  	.word	0x025aad6b
    4950: b1 d9 55 3f  	.word	0x3f55d9b1
    4954: fa 3e 79 b4  	.word	0xb4793efa
    4958: b9 8b 67 40  	.word	0x40678bb9
    495c: 61 05 a1 72  	.word	0x72a10561
    4960: 9d 24 c9 1c  	.word	0x1cc9249d
    4964: 2b 81 b6 a2  	.word	0xa2b6812b
    4968: 58 1f 21 21  	.word	0x21211f58
    496c: ee 6e 86 62  	.word	0x62866eee
    4970: ce 0e f1 5d  	.word	0x5df10ece
    4974: b8 c5 b5 2c  	.word	0x2cb5c5b8
    4978: 00 ae 63 e2  	.word	0xe263ae00
    497c: 59 b2 a6 03  	.word	0x03a6b259
    4980: b6 05 e5 e2  	.word	0xe2e505b6
    4984: 09 29 8d 0d  	.word	0x0d8d2909
    4988: 30 12 29 c0  	.word	0xc0291230
    498c: ab 78 ca 98  	.word	0x98ca78ab
    4990: 27 23 b1 a9  	.word	0xa9b12327
    4994: 69 55 ef 77  	.word	0x77ef5569
    4998: 47 9b 43 81  	.word	0x81439b47
    499c: 7b 89 77 7c  	.word	0x7c77897b
    49a0: b5 1c 33 de  	.word	0xde331cb5
    49a4: e2 b5 c1 f1  	.word	0xf1c1b5e2
    49a8: 20 a4 fc 15  	.word	0x15fca420
    49ac: 8e 5d 9f 5a  	.word	0x5a9f5d8e
    49b0: b1 32 d9 7b  	.word	0x7bd932b1
    49b4: f1 38 a4 9f  	.word	0x9fa438f1
    49b8: e7 46 61 1c  	.word	0x1c6146e7
    49bc: f0 1b 38 2a  	.word	0x2a381bf0
    49c0: c1 11 c8 cf  	.word	0xcfc811c1
    49c4: 79 98 9b ac  	.word	0xac9b9879
    49c8: 67 e5 56 37  	.word	0x3756e567
    49cc: 81 29 7d 8b  	.word	0x8b7d2981
    49d0: fc ed 70 7c  	.word	0x7c70edfc
    49d4: 60 4e da 50  	.word	0x50da4e60
    49d8: b6 00 44 88  	.word	0x884400b6
    49dc: 2f a6 bc 5d  	.word	0x5dbca62f
    49e0: 6f 16 34 b5  	.word	0xb534166f
    49e4: 32 be c0 f7  	.word	0xf7c0be32
    49e8: d4 70 cf 19  	.word	0x19cf70d4
    49ec: 64 ca e6 27  	.word	0x27e6ca64
    49f0: 59 a7 57 a9  	.word	0xa957a759
    49f4: d7 f7 4d 93  	.word	0x934df7d7
    49f8: aa c2 de ab  	.word	0xabdec2aa
    49fc: 1d 46 01 57  	.word	0x5701461d
    4a00: 25 5c 91 2c  	.word	0x2c915c25
    4a04: 40 47 67 2c  	.word	0x2c674740
    4a08: 0a 34 0d 0b  	.word	0x0b0d340a
    4a0c: a8 d1 dc 1b  	.word	0x1bdcd1a8
    4a10: 5f 3f b4 07  	.word	0x07b43f5f
    4a14: bd 01 56 5e  	.word	0x5e5601bd
    4a18: 42 a2 39 55  	.word	0x5539a242
    4a1c: e0 b4 55 25  	.word	0x2555b4e0
    4a20: 16 d2 dd 66  	.word	0x66ddd216
    4a24: 52 9f c0 6f  	.word	0x6fc09f52
    4a28: 48 70 e3 c8  	.word	0xc8e37048
    4a2c: a7 60 e5 dc  	.word	0xdce560a7
    4a30: fd 62 df a2  	.word	0xa2df62fd
    4a34: 9d 93 65 ec  	.word	0xec65939d
    4a38: 92 d1 2e e5  	.word	0xe52ed192
    4a3c: e7 9a 86 7a  	.word	0x7a869ae7
    4a40: d4 63 e4 87  	.word	0x87e463d4
    4a44: 1d 9b 40 78  	.word	0x78409b1d
    4a48: 9d 63 fb cd  	.word	0xcdfb639d
    4a4c: 5a a9 4d ad  	.word	0xad4da95a
    4a50: 9c 9b 25 55  	.word	0x55259b9c
    4a54: 37 77 28 ec  	.word	0xec287737
    4a58: ab 30 12 c3  	.word	0xc31230ab
    4a5c: e9 06 c8 69  	.word	0x69c806e9
    4a60: 22 3f bb 14  	.word	0x14bb3f22
    4a64: 74 f5 48 7b  	.word	0x7b48f574
    4a68: 88 cc dc ae  	.word	0xaedccc88
    4a6c: e4 ce c7 68  	.word	0x68c7cee4
    4a70: be 80 ed 79  	.word	0x79ed80be
    4a74: 61 93 2f ed  	.word	0xed2f9361
    4a78: 4b bc 77 5f  	.word	0x5f77bc4b
    4a7c: 88 0b d7 25  	.word	0x25d70b88
    4a80: de f4 2b 76  	.word	0x762bf4de
    4a84: d9 c3 51 41  	.word	0x4151c3d9
    4a88: 2b d8 45 27  	.word	0x2745d82b
    4a8c: 5f 43 3f 08  	.word	0x083f435f
    4a90: d5 dd 23 0d  	.word	0x0d23ddd5
    4a94: 2e 5a 77 29  	.word	0x29775a2e
    4a98: 24 db a5 69  	.word	0x69a5db24
    4a9c: 62 3a 8e 13  	.word	0x138e3a62
    4aa0: d4 e4 1a bb  	.word	0xbb1ae4d4
    4aa4: 29 9d 45 98  	.word	0x98459d29
    4aa8: ec 54 f9 39  	.word	0x39f954ec
    4aac: c7 c4 b9 56  	.word	0x56b9c4c7
    4ab0: 3e 4b 9b c2  	.word	0xc29b4b3e
    4ab4: f6 43 27 83  	.word	0x832743f6
    4ab8: 8a 87 b6 98  	.word	0x98b6878a
    4abc: 27 8e ea 21  	.word	0x21ea8e27
    4ac0: 9c 7b 5a 6a  	.word	0x6a5a7b9c
    4ac4: b4 f4 be 87  	.word	0x87bef4b4
    4ac8: 62 d0 c1 5f  	.word	0x5fc1d062
    4acc: 1b 9d 29 d2  	.word	0xd2299d1b
    4ad0: 48 16 32 dd  	.word	0xdd321648
    4ad4: 18 98 40 82  	.word	0x82409818
    4ad8: 3d e0 a2 e5  	.word	0xe5a2e03d
    4adc: b1 be 5a 5c  	.word	0x5c5abeb1
    4ae0: db 2d 3c b7  	.word	0xb73c2ddb
    4ae4: f4 2a 72 14  	.word	0x14722af4
    4ae8: 0d 06 05 5a  	.word	0x5a05060d
    4aec: 5f 0c 47 bc  	.word	0xbc470c5f
    4af0: 2e b0 81 25  	.word	0x2581b02e
    4af4: ac 3e 94 00  	.word	0x00943eac
    4af8: 8f 9c 49 1f  	.word	0x1f499c8f
    4afc: 3b 4b 43 0e  	.word	0x0e434b3b
    4b00: 33 a2 06 13  	.word	0x1306a233
    4b04: de e6 cd 02  	.word	0x02cde6de
    4b08: c7 8e 6f 11  	.word	0x116f8ec7
    4b0c: a2 52 5a 7b  	.word	0x7b5a52a2
    4b10: 5b 3b 16 c1  	.word	0xc1163b5b
    4b14: f4 81 c6 e1  	.word	0xe1c681f4
    4b18: 43 26 d3 60  	.word	0x60d32643
    4b1c: 06 35 1d 24  	.word	0x241d3506
    4b20: c7 52 bc 0e  	.word	0x0ebc52c7
    4b24: 4d 40 e4 6b  	.word	0x6be4404d
    4b28: f5 91 a7 b1  	.word	0xb1a791f5
    4b2c: 3b 23 46 ae  	.word	0xae46233b
    4b30: 2b b4 5d d2  	.word	0xd25db42b
    4b34: 0e 17 ec 2a  	.word	0x2aec170e
    4b38: 94 d6 45 66  	.word	0x6645d694
    4b3c: 96 fd 8d 1d  	.word	0x1d8dfd96
    4b40: de c4 2e 9c  	.word	0x9c2ec4de
    4b44: c5 a9 6f 29  	.word	0x296fa9c5
    4b48: cb f3 84 4f  	.word	0x4f84f3cb
    4b4c: bf 61 8b bc  	.word	0xbc8b61bf
    4b50: 08 f9 a8 17  	.word	0x17a8f908
    4b54: d9 06 77 1c  	.word	0x1c7706d9
    4b58: 5d 25 d3 7a  	.word	0x7ad3255d
    4b5c: fc 95 b7 63  	.word	0x63b795fc
    4b60: a4 b0 dd 12  	.word	0x12ddb0a4
    4b64: 9c 63 98 d5  	.word	0xd598639c
    4b68: 6b 86 24 c0  	.word	0xc024866b
    4b6c: 30 9f d1 a5  	.word	0xa5d19f30
    4b70: 60 e4 fc 58  	.word	0x58fce460
    4b74: 03 2f 7c d1  	.word	0xd17c2f03
    4b78: 8a 5e 09 2e  	.word	0x2e095e8a
    4b7c: 15 95 a1 07  	.word	0x07a19515
    4b80: c8 5f 9e 38  	.word	0x389e5fc8
    4b84: 02 8f 36 a8  	.word	0xa8368f02
    4b88: 3b e4 8d cf  	.word	0xcf8de43b
    4b8c: 02 3b 43 90  	.word	0x90433b02
    4b90: 43 26 41 c5  	.word	0xc5412643
    4b94: 5d fd a1 af  	.word	0xafa1fd5d
    4b98: 37 01 2f 03  	.word	0x032f0137
    4b9c: 3d e8 8f 3e  	.word	0x3e8fe83d
    4ba0: 94 a2 70 05  	.word	0x0570a294
    4ba4: b9 15 8b 2f  	.word	0x2f8b15b9
    4ba8: 49 45 08 67  	.word	0x67084549
    4bac: 70 42 f2 94  	.word	0x94f24270
    4bb0: 84 fd bb 61  	.word	0x61bbfd84
    4bb4: e1 5a 1c de  	.word	0xde1c5ae1
    4bb8: 07 40 ac 7f  	.word	0x7fac4007
    4bbc: 79 3b ba 75  	.word	0x75ba3b79
    4bc0: 3c d1 ef e8  	.word	0xe8efd13c
    4bc4: 8d 4c 70 08  	.word	0x08704c8d
    4bc8: 31 37 e0 33  	.word	0x33e03731
    4bcc: 8e 1a c5 df  	.word	0xdfc51a8e
    4bd0: e3 cd 60 12  	.word	0x1260cde3
    4bd4: a5 5d 9d a5  	.word	0xa59d5da5
    4bd8: 86 8c 25 a6  	.word	0xa6258c86
    4bdc: 99 08 d6 22  	.word	0x22d60899
    4be0: 96 d1 cd 70  	.word	0x70cdd196
    4be4: c0 db 39 62  	.word	0x6239dbc0
    4be8: 9a 8a 7d 6c  	.word	0x6c7d8a9a
    4bec: 8b 8a fe 60  	.word	0x60fe8a8b
    4bf0: 60 12 40 eb  	.word	0xeb401260
    4bf4: bc 47 88 b3  	.word	0xb38847bc
    4bf8: 5e 9e 77 87  	.word	0x87779e5e
    4bfc: 7b d0 04 09  	.word	0x0904d07b
    4c00: 9c 91 ba dd  	.word	0xddba919c
    4c04: d4 1f ce b4  	.word	0xb4ce1fd4
    4c08: aa 8d 4c c7  	.word	0xc74c8daa
    4c0c: 3e db 31 cf  	.word	0xcf31db3e
    4c10: 51 cc 86 ad  	.word	0xad86cc51
    4c14: 63 cc 63 2c  	.word	0x2c63cc63
    4c18: 07 de 1d bc  	.word	0xbc1dde07
    4c1c: 3f 14 e2 43  	.word	0x43e2143f
    4c20: b9 40 f9 48  	.word	0x48f940b9
    4c24: 66 2d 32 f4  	.word	0xf4322d66
    4c28: 39 0c 2d bd  	.word	0xbd2d0c39
    4c2c: 0c 2f 95 06  	.word	0x06952f0c
    4c30: 31 f9 81 a0  	.word	0xa081f931
    4c34: ad 97 76 16  	.word	0x167697ad
    4c38: 6c 2a f7 ba  	.word	0xbaf72a6c
    4c3c: ce aa 40 62  	.word	0x6240aace
    4c40: a0 95 a2 5b  	.word	0x5ba295a0
    4c44: 9c 74 34 f8  	.word	0xf834749c
    4c48: 5a d2 37 ca  	.word	0xca37d25a
    4c4c: 5b 7c 94 d6  	.word	0xd6947c5b
    4c50: 6a 31 c9 e7  	.word	0xe7c9316a
    4c54: a7 3b f1 66  	.word	0x66f13ba7
    4c58: ac 0c b4 8d  	.word	0x8db40cac
    4c5c: 23 af bd 56  	.word	0x56bdaf23
    4c60: eb 33 35 f5  	.word	0xf53533eb
    4c64: e3 b9 2a 36  	.word	0x362ab9e3
    4c68: 40 3d b9 6e  	.word	0x6eb93d40
    4c6c: d5 68 85 33  	.word	0x338568d5
    4c70: 72 55 5a 1d  	.word	0x1d5a5572
    4c74: 52 14 0e 9e  	.word	0x9e0e1452
    4c78: 18 13 74 83  	.word	0x83741318
    4c7c: 6d a8 24 1d  	.word	0x1d24a86d
    4c80: b2 3b 9d c1  	.word	0xc19d3bb2
    4c84: 6c d3 10 13  	.word	0x1310d36c
    4c88: b9 86 23 62  	.word	0x622386b9
    4c8c: b7 6b 2a 06  	.word	0x062a6bb7
    4c90: 5c 4f a1 d7  	.word	0xd7a14f5c
    4c94: 91 85 9b 7c  	.word	0x7c9b8591
    4c98: 54 57 1e 7e  	.word	0x7e1e5754
    4c9c: 50 31 aa 03  	.word	0x03aa3150
    4ca0: 1f ce d4 ff  	.word	0xffd4ce1f
    4ca4: 48 76 ec f4  	.word	0xf4ec7648
    4ca8: 1c 8c ac 54  	.word	0x54ac8c1c
    4cac: f0 ea 45 e0  	.word	0xe045eaf0
    4cb0: 7c 35 09 1d  	.word	0x1d09357c
    4cb4: 82 25 d2 88  	.word	0x88d22582
    4cb8: 59 48 eb 9a  	.word	0x9aeb4859
    4cbc: dc 61 b2 43  	.word	0x43b261dc
    4cc0: bb 79 bb 88  	.word	0x88bb79bb
    4cc4: 19 1e 5b e5  	.word	0xe55b1e19
    4cc8: 9d 35 7a c1  	.word	0xc17a359d
    4ccc: 7d d0 9e a0  	.word	0xa09ed07d
    4cd0: 33 ea 3d 60  	.word	0x603dea33
    4cd4: e2 2e 2c b0  	.word	0xb02c2ee2
    4cd8: c2 6b 27 5b  	.word	0x5b276bc2
    4cdc: cf 55 60 32  	.word	0x326055cf
    4ce0: 64 13 95 6c  	.word	0x6c951364
    4ce4: 8b 3d 51 19  	.word	0x19513d8b
    4ce8: 7b f4 0b 00  	.word	0x000bf47b
    4cec: 26 71 fe 94  	.word	0x94fe7126
    4cf0: 67 95 4f d5  	.word	0xd54f9567
    4cf4: dd 10 8d 02  	.word	0x028d10dd
    4cf8: 64 09 94 42  	.word	0x42940964
    4cfc: e2 d5 b4 02  	.word	0x02b4d5e2
    4d00: f2 8d d1 28  	.word	0x28d18df2
    4d04: cb 55 a1 b4  	.word	0xb4a155cb
    4d08: 08 e5 6c 18  	.word	0x186ce508
    4d0c: 46 46 cc ea  	.word	0xeacc4646
    4d10: 89 43 82 6c  	.word	0x6c824389
    4d14: 93 f4 9c c4  	.word	0xc49cf493
    4d18: 10 34 5d ae  	.word	0xae5d3410
    4d1c: 09 c8 a6 27  	.word	0x27a6c809
    4d20: 88 b1 0d 1f  	.word	0x1f0db188
    4d24: cd eb a6 8b  	.word	0x8ba6ebcd
    4d28: e8 5b 5a 67  	.word	0x675a5be8
    4d2c: 3a d7 d3 37  	.word	0x37d3d73a
    4d30: 5a 58 f5 15  	.word	0x15f5585a
    4d34: a3 df 2e f2  	.word	0xf22edfa3
    4d38: 7e a1 60 ff  	.word	0xff60a17e
    4d3c: 74 71 b6 2c  	.word	0x2cb67174
    4d40: 54 69 3d c4  	.word	0xc43d6954
    4d44: 0a 27 2c cd  	.word	0xcd2c270a
    4d48: b2 ca 66 6a  	.word	0x6a66cab2
    4d4c: 57 3e 4a dd  	.word	0xdd4a3e57
    4d50: 6c 03 d7 69  	.word	0x69d7036c
    4d54: 24 59 fa 79  	.word	0x79fa5924
    4d58: 99 25 8c 3d  	.word	0x3d8c2599
    4d5c: 60 03 15 22  	.word	0x22150360
    4d60: d0 e1 0b 39  	.word	0x390be1d0
    4d64: f9 cd ee 59  	.word	0x59eecdf9
    4d68: f1 e3 8c 72  	.word	0x728ce3f1
    4d6c: 44 20 42 a9  	.word	0xa9422044
    4d70: f4 f0 94 7a  	.word	0x7a94f0f4
    4d74: 66 1c 89 82  	.word	0x82891c66
    4d78: 36 f4 90 38  	.word	0x3890f436
    4d7c: b7 f4 1d 7b  	.word	0x7b1df4b7
    4d80: 24 a2 b2 b3  	.word	0xb3b2a224
    4d84: e0 f2 92 e4  	.word	0xe492f2e0
    4d88: 60 11 55 2b  	.word	0x2b551160
    4d8c: 06 9e 6c 7c  	.word	0x7c6c9e06
    4d90: 0e 7b 7f 0d  	.word	0x0d7f7b0e
    4d94: e2 8f eb 15  	.word	0x15eb8fe2
    4d98: 92 59 fc 58  	.word	0x58fc5992
    4d9c: 26 ef fc 61  	.word	0x61fcef26
    4da0: 8c f5 f8 07  	.word	0x07f8f58c
    4da4: 18 22 2e 5f  	.word	0x5f2e2218
    4da8: d4 09 94 d4  	.word	0xd49409d4
    4dac: 9f 5c 55 e3  	.word	0xe3555c9f
    4db0: 30 a6 b6 1f  	.word	0x1fb6a630
    4db4: 8d a8 aa b2  	.word	0xb2aaa88d
    4db8: 3d e0 52 d3  	.word	0xd352e03d
    4dbc: 45 82 69 68  	.word	0x68698245
    4dc0: 7a 18 18 2a  	.word	0x2a18187a
    4dc4: 85 5d b1 db  	.word	0xdbb15d85
    4dc8: d7 ac dd 86  	.word	0x86ddacd7
    4dcc: d3 aa e4 f3  	.word	0xf3e4aad3
    4dd0: 82 c4 f6 0f  	.word	0x0ff6c482
    4dd4: 81 e2 ba 44  	.word	0x44bae281
    4dd8: cf 01 af 3d  	.word	0x3daf01cf
    4ddc: 47 4c cf 46  	.word	0x46cf4c47
    4de0: f9 e5 c4 9e  	.word	0x9ec4e5f9
    4de4: ed 25 65 42  	.word	0x426525ed
    4de8: 03 33 90 16  	.word	0x16903303
    4dec: 01 da 5e 0e  	.word	0x0e5eda01
    4df0: dc ca e5 cb  	.word	0xcbe5cadc
    4df4: f2 a7 b1 72  	.word	0x72b1a7f2
    4df8: 40 5f eb 14  	.word	0x14eb5f40
    4dfc: cd 7b 38 29  	.word	0x29387bcd
    4e00: 40 81 49 f1  	.word	0xf1498140
    4e04: a7 6e 3c 21  	.word	0x213c6ea7
    4e08: 54 48 2b 39  	.word	0x392b4854
    4e0c: f8 7e 1e 7c  	.word	0x7c1e7ef8
    4e10: ba ce 29 56  	.word	0x5629ceba
    4e14: 8c c3 88 24  	.word	0x2488c38c
    4e18: bb c5 8c 0d  	.word	0x0d8cc5bb
    4e1c: e5 aa 65 10  	.word	0x1065aae5
    4e20: 57 0d 20 df  	.word	0xdf200d57
    4e24: 25 45 2c 1c  	.word	0x1c2c4525
    4e28: 4a 67 ca bf  	.word	0xbfca674a
    4e2c: d6 2d 3b 5c  	.word	0x5c3b2dd6
    4e30: 30 40 83 e1  	.word	0xe1834030
    4e34: b1 e7 07 0a  	.word	0x0a07e7b1
    4e38: 16 e7 1c 4f  	.word	0x4f1ce716
    4e3c: e6 98 a1 69  	.word	0x69a198e6
    4e40: 97 d6 a9 ef  	.word	0xefa9d697
    4e44: 13 d6 fc 7a  	.word	0x7afcd613
    4e48: 59 79 06 1c  	.word	0x1c067959
    4e4c: a4 5a c4 0c  	.word	0x0cc45aa4
    4e50: 96 da fa c1  	.word	0xc1fada96
    4e54: 04 e1 6f a5  	.word	0xa56fe104
    4e58: 65 03 e4 72  	.word	0x72e40365
    4e5c: 04 b7 73 3a  	.word	0x3a73b704
    4e60: 34 47 2d 9e  	.word	0x9e2d4734
    4e64: 6b e5 26 7b  	.word	0x7b26e56b
    4e68: 75 16 c6 81  	.word	0x81c61675
    4e6c: 2b 13 c7 c4  	.word	0xc4c7132b
    4e70: 7f de 9c ec  	.word	0xec9cde7f
    4e74: 25 95 5c ef  	.word	0xef5c9525
    4e78: ad 43 17 e7  	.word	0xe71743ad
    4e7c: 16 0b c8 39  	.word	0x39c80b16
    4e80: 68 6c 82 1b  	.word	0x1b826c68
    4e84: 0d 6e 19 0f  	.word	0x0f196e0d
    4e88: db e3 60 49  	.word	0x4960e3db
    4e8c: e2 f0 1f f7  	.word	0xf71ff0e2
    4e90: 6c 43 b7 23  	.word	0x23b7436c
    4e94: 70 16 13 61  	.word	0x61131670
    4e98: 82 72 da 77  	.word	0x77da7282
    4e9c: 58 ea f0 0c  	.word	0x0cf0ea58
    4ea0: bd cc d4 dd  	.word	0xddd4ccbd
    4ea4: a4 80 6c 19  	.word	0x196c80a4
    4ea8: 9d dd f2 95  	.word	0x95f2dd9d
    4eac: 5d f5 e6 22  	.word	0x22e6f55d
    4eb0: 1b c7 d6 40  	.word	0x40d6c71b
    4eb4: c7 33 5e c7  	.word	0xc75e33c7
    4eb8: 2f 04 3c cb  	.word	0xcb3c042f
    4ebc: 79 12 b5 7b  	.word	0x7bb51279
    4ec0: 5a 94 a6 3b  	.word	0x3ba6945a
    4ec4: d4 ce 32 e3  	.word	0xe332ced4
    4ec8: 5d c0 81 e8  	.word	0xe881c05d
    4ecc: 61 13 0b de  	.word	0xde0b1361
    4ed0: 3b ed 67 5e  	.word	0x5e67ed3b
    4ed4: 09 0f d4 1a  	.word	0x1ad40f09
    4ed8: 5d 3d c6 b8  	.word	0xb8c63d5d
    4edc: da ac a8 5d  	.word	0x5da8acda
    4ee0: 9f 15 70 3a  	.word	0x3a70159f
    4ee4: 4a 66 b6 c4  	.word	0xc4b6664a
    4ee8: 14 4e 90 0a  	.word	0x0a904e14
    4eec: 0f 4f 19 76  	.word	0x76194f0f
    4ef0: 13 6c 09 a4  	.word	0xa4096c13
    4ef4: 39 4c 61 a5  	.word	0xa5614c39
    4ef8: ed ec 9f 97  	.word	0x979feced
    4efc: 50 ff d0 6c  	.word	0x6cd0ff50
    4f00: ac 28 44 8f  	.word	0x8f4428ac
    4f04: e7 67 e0 c0  	.word	0xc0e067e7
    4f08: e3 35 11 a6  	.word	0xa61135e3
    4f0c: b0 5a 83 14  	.word	0x14835ab0
    4f10: 35 29 06 38  	.word	0x38062935
    4f14: f3 14 1d f2  	.word	0xf21d14f3
    4f18: 9c 84 04 df  	.word	0xdf04849c
    4f1c: c8 a4 90 63  	.word	0x6390a4c8
    4f20: 8e a1 4b b0  	.word	0xb04ba18e
    4f24: bd fa ec 7f  	.word	0x7fecfabd
    4f28: f7 bc dd 3b  	.word	0x3bddbcf7
    4f2c: fc 7b fc d0  	.word	0xd0fc7bfc
    4f30: 1c 13 7a 05  	.word	0x057a131c
    4f34: 6e 48 1d a4  	.word	0xa41d486e
    4f38: 61 3a 22 f2  	.word	0xf2223a61
    4f3c: 91 43 1a 64  	.word	0x641a4391
    4f40: db a8 06 a6  	.word	0xa606a8db
    4f44: 5a b9 c6 c5  	.word	0xc5c6b95a
    4f48: f1 25 68 b0  	.word	0xb06825f1
    4f4c: 9e 7f 4b 91  	.word	0x914b7f9e
    4f50: ff 9e fc 44  	.word	0x44fc9eff
    4f54: 6b 1f 73 2a  	.word	0x2a731f6b
    4f58: fc 5c 70 62  	.word	0x62705cfc
    4f5c: 85 f3 dd 30  	.word	0x30ddf385
    4f60: f9 f7 bf d1  	.word	0xd1bff7f9
    4f64: da cb 3d 4e  	.word	0x4e3dcbda
    4f68: 17 57 64 20  	.word	0x20645717
    4f6c: 82 8e 11 c9  	.word	0xc9118e82
    4f70: 56 9d 18 0f  	.word	0x0f189d56
    4f74: bc ce cc ba  	.word	0xbacccebc
    4f78: 68 76 46 d4  	.word	0xd4467668
    4f7c: e9 22 48 1b  	.word	0x1b4822e9
    4f80: 2c d5 bc 68  	.word	0x68bcd52c
    4f84: bd f2 be 33  	.word	0x33bef2bd
    4f88: f2 2e 48 69  	.word	0x69482ef2
    4f8c: b0 db 49 c6  	.word	0xc649dbb0
    4f90: ee 1a cb 41  	.word	0x41cb1aee
    4f94: 0c ee b6 b5  	.word	0xb5b6ee0c
    4f98: e5 a7 12 02  	.word	0x0212a7e5
    4f9c: 27 4d 29 5c  	.word	0x5c294d27
    4fa0: 81 37 56 25  	.word	0x25563781
    4fa4: 7f 0a 36 ab  	.word	0xab360a7f
    4fa8: 58 79 0f 48  	.word	0x480f7958
    4fac: 8a 22 12 25  	.word	0x2512228a
    4fb0: e3 b4 14 61  	.word	0x6114b4e3
    4fb4: 27 05 5d c7  	.word	0xc75d0527
    4fb8: 2a fe 76 d9  	.word	0xd976fe2a
    4fbc: 25 96 2d 22  	.word	0x222d9625
    4fc0: e1 ac 72 b3  	.word	0xb372ace1
    4fc4: 85 7f 71 1c  	.word	0x1c717f85
    4fc8: 18 bf 38 46  	.word	0x4638bf18
    4fcc: 69 0e 93 81  	.word	0x81930e69
    4fd0: 58 8b c0 6b  	.word	0x6bc08b58
    4fd4: 05 ad 9c 23  	.word	0x239cad05
    4fd8: f4 ff f8 87  	.word	0x87f8fff4
    4fdc: 1c 27 34 0b  	.word	0x0b34271c
    4fe0: 85 4f 34 0a  	.word	0x0a344f85
    4fe4: 7e be 94 0f  	.word	0x0f94be7e
    4fe8: 38 2c f2 87  	.word	0x87f22c38
    4fec: 8c aa 2f eb  	.word	0xeb2faa8c
    4ff0: 0f 6f e1 4e  	.word	0x4ee16f0f
    4ff4: 5e e7 e1 9c  	.word	0x9ce1e75e
    4ff8: ea 8d a0 18  	.word	0x18a08dea
    4ffc: 54 4e e6 43  	.word	0x43e64e54
    5000: 63 ce 35 1a  	.word	0x1a35ce63
    5004: 52 e2 55 81  	.word	0x8155e252
    5008: 8e 02 12 f9  	.word	0xf912028e
    500c: 4d 0d 10 be  	.word	0xbe100d4d
    5010: ec dc 7d a5  	.word	0xa57ddcec
    5014: f8 0b f8 bf  	.word	0xbff80bf8
    5018: e4 c6 6b 6d  	.word	0x6d6bc6e4
    501c: c9 2d 34 57  	.word	0x57342dc9
    5020: 98 59 ce c8  	.word	0xc8ce5998
    5024: 65 f0 ee ef  	.word	0xefeef065
    5028: a2 ea cb b5  	.word	0xb5cbeaa2
    502c: 10 95 02 bf  	.word	0xbf029510
    5030: 58 c4 b7 20  	.word	0x20b7c458
    5034: 06 a1 64 8c  	.word	0x8c64a106
    5038: 55 48 c2 31  	.word	0x31c24855
    503c: b2 4f 13 35  	.word	0x35134fb2
    5040: f6 7b 70 1e  	.word	0x1e707bf6
    5044: b7 bc c3 f3  	.word	0xf3c3bcb7
    5048: 62 a7 91 72  	.word	0x7291a762
    504c: 8c 9b 1d 35  	.word	0x351d9b8c
    5050: 33 9a d6 da  	.word	0xdad69a33
    5054: 6e 2e 50 00  	.word	0x00502e6e
    5058: 7f 80 c8 1e  	.word	0x1ec8807f
    505c: 1f 52 2f 52  	.word	0x522f521f
    5060: 2b 90 a3 f9  	.word	0xf9a3902b
    5064: 46 1f 2c 27  	.word	0x272c1f46
    5068: cc 7b 65 99  	.word	0x99657bcc
    506c: b7 a3 1b c9  	.word	0xc91ba3b7
    5070: 0e 1c 8a 4f  	.word	0x4f8a1c0e
    5074: 30 4b 61 ae  	.word	0xae614b30
    5078: 7b 01 99 0b  	.word	0x0b99017b
    507c: d7 aa fc 7a  	.word	0x7afcaad7
    5080: 41 be b8 a4  	.word	0xa4b8be41
    5084: 54 ed 5d c2  	.word	0xc25ded54
    5088: dd e2 b0 1b  	.word	0x1bb0e2dd
    508c: e1 13 2d 90  	.word	0x902d13e1
    5090: b2 2a e8 cd  	.word	0xcde82ab2
    5094: 33 32 f4 41  	.word	0x41f43233
    5098: cb e7 aa c3  	.word	0xc3aae7cb
    509c: a5 fa 85 10  	.word	0x1085faa5
    50a0: 6b 2b 84 ef  	.word	0xef842b6b
    50a4: ec 41 81 a8  	.word	0xa88141ec
    50a8: c5 e6 ab 97  	.word	0x97abe6c5
    50ac: 47 b1 e7 55  	.word	0x55e7b147
    50b0: fe 4f 78 03  	.word	0x03784ffe
    50b4: 97 8f 74 8c  	.word	0x8c748f97
    50b8: b7 00 cd af  	.word	0xafcd00b7
    50bc: f7 a1 50 5b  	.word	0x5b50a1f7
    50c0: 15 13 36 f1  	.word	0xf1361315
    50c4: 66 0f 84 9b  	.word	0x9b840f66
    50c8: e9 03 10 70  	.word	0x701003e9
    50cc: 42 22 46 18  	.word	0x18462242
    50d0: 80 50 a2 e4  	.word	0xe4a25080
    50d4: fa 45 ed 65  	.word	0x65ed45fa
    50d8: 20 73 da 3f  	.word	0x3fda7320
    50dc: 39 62 28 0a  	.word	0x0a286239
    50e0: 9d bc 7c 34  	.word	0x347cbc9d
    50e4: c8 13 ab 46  	.word	0x46ab13c8
    50e8: 83 23 c1 99  	.word	0x99c12383
    50ec: d4 e8 49 38  	.word	0x3849e8d4
    50f0: c9 4a d6 87  	.word	0x87d64ac9
    50f4: 40 31 ea 4c  	.word	0x4cea3140
    50f8: e7 9e a2 b1  	.word	0xb1a29ee7
    50fc: 34 41 35 1f  	.word	0x1f354134
    5100: 17 9d cb 6e  	.word	0x6ecb9d17
    5104: 7b 73 0e 96  	.word	0x960e737b
    5108: e1 ea 7c d6  	.word	0xd67ceae1
    510c: 48 49 f2 fa  	.word	0xfaf24948
    5110: 89 1b 5e d5  	.word	0xd55e1b89
    5114: b4 a9 e7 37  	.word	0x37e7a9b4
    5118: eb 59 6c b4  	.word	0xb46c59eb
    511c: 3c 17 b7 5c  	.word	0x5cb7173c
    5120: f0 ab b7 82  	.word	0x82b7abf0
    5124: 8b e6 89 4a  	.word	0x4a89e68b
    5128: b9 b7 a6 9b  	.word	0x9ba6b7b9
    512c: 27 d9 1c f4  	.word	0xf41cd927
    5130: 6f 87 8d e1  	.word	0xe18d876f
    5134: 10 c2 e6 16  	.word	0x16e6c210
    5138: c6 09 1b 7f  	.word	0x7f1b09c6
    513c: 0f db ac 7c  	.word	0x7cacdb0f
    5140: bc 78 1a d9  	.word	0xd91a78bc
    5144: e0 b2 62 90  	.word	0x9062b2e0
    5148: 67 96 50 c8  	.word	0xc8509667
    514c: 9c 88 c9 47  	.word	0x47c9889c
    5150: b8 70 50 40  	.word	0x405070b8
    5154: 66 4a f5 9d  	.word	0x9df54a66
    5158: bf a1 93 24  	.word	0x2493a1bf
    515c: a9 e6 69 73  	.word	0x7369e6a9
    5160: ed ca c5 dc  	.word	0xdcc5caed
    5164: 34 44 01 e1  	.word	0xe1014434
    5168: 33 fb 84 3c  	.word	0x3c84fb33
    516c: 96 5d ed 47  	.word	0x47ed5d96
    5170: e7 a0 86 ed  	.word	0xed86a0e7
    5174: 76 95 01 70  	.word	0x70019576
    5178: e4 f9 67 d2  	.word	0xd267f9e4
    517c: 7b 69 b2 25  	.word	0x25b2697b
    5180: 64 68 98 13  	.word	0x13986864
    5184: fb 3f 67 9d  	.word	0x9d673ffb
    5188: b8 c7 5d 41  	.word	0x415dc7b8
    518c: d9 fb a5 3c  	.word	0x3ca5fbd9
    5190: 5e 3b 27 df  	.word	0xdf273b5e
    5194: 3b cc 4e e0  	.word	0xe04ecc3b
    5198: d2 4c 4e b5  	.word	0xb54e4cd2
    519c: 3d 68 20 14  	.word	0x1420683d
    51a0: 97 d1 9d 24  	.word	0x249dd197
    51a4: 1e bd 78 b4  	.word	0xb478bd1e
    51a8: 02 c1 58 5e  	.word	0x5e58c102
    51ac: 00 35 0c 62  	.word	0x620c3500
    51b0: 5c ac ba cc  	.word	0xccbaac5c
    51b4: 2f d3 02 fb  	.word	0xfb02d32f
    51b8: 2d a7 08 f5  	.word	0xf508a72d
    51bc: eb 3b b6 60  	.word	0x60b63beb
    51c0: d0 5a cc c1  	.word	0xc1cc5ad0
    51c4: 6f bb ee 34  	.word	0x34eebb6f
    51c8: 8b ac 46 96  	.word	0x9646ac8b
    51cc: e9 0c 1b 6a  	.word	0x6a1b0ce9
    51d0: 53 de 6b a6  	.word	0xa66bde53
    51d4: 49 da b0 d3  	.word	0xd3b0da49
    51d8: c1 81 d0 61  	.word	0x61d081c1
    51dc: 41 3b e8 31  	.word	0x31e83b41
    51e0: 4f 2b 06 9e  	.word	0x9e062b4f
    51e4: 12 c7 e8 97  	.word	0x97e8c712
    51e8: d8 0a 32 29  	.word	0x29320ad8
    51ec: 4f 8f e4 49  	.word	0x49e48f4f
    51f0: 3f 68 18 6f  	.word	0x6f18683f
    51f4: 4b e1 ec 5b  	.word	0x5bece14b
    51f8: 17 03 55 2d  	.word	0x2d550317
    51fc: b6 1e cf 55  	.word	0x55cf1eb6
    5200: 58 3d c2 65  	.word	0x65c23d58
    5204: 10 10 79 58  	.word	0x58791010
    5208: 9c 81 94 50  	.word	0x5094819c
    520c: 6d 08 9d 8b  	.word	0x8b9d086d
    5210: a7 5f c5 12  	.word	0x12c55fa7
    5214: a9 2f 40 e2  	.word	0xe2402fa9
    5218: d4 91 08 57  	.word	0x570891d4
    521c: 64 65 9a 66  	.word	0x669a6564
    5220: 52 8c f5 7d  	.word	0x7df58c52
    5224: e3 b5 76 30  	.word	0x3076b5e3
    5228: 36 cc 99 e7  	.word	0xe799cc36
    522c: dd b9 3a d7  	.word	0xd73ab9dd
    5230: 20 ee 13 49  	.word	0x4913ee20
    5234: e3 1c 83 bd  	.word	0xbd831ce3
    5238: 33 01 ba 62  	.word	0x62ba0133
    523c: aa fb 56 1a  	.word	0x1a56fbaa
    5240: ec c9 9d 5c  	.word	0x5c9dc9ec
    5244: 50 6b 3e 94  	.word	0x943e6b50
    5248: 1a 37 7c a7  	.word	0xa77c371a
    524c: bb 57 25 30  	.word	0x302557bb
    5250: 51 76 34 41  	.word	0x41347651
    5254: 56 ae 73 98  	.word	0x9873ae56
    5258: 5c 8a c5 99  	.word	0x99c58a5c
    525c: 67 83 c4 13  	.word	0x13c48367
    5260: b9 e1 b3 5a  	.word	0x5ab3e1b9
    5264: 46 5d 3a 42  	.word	0x423a5d46
    5268: 61 3f f1 c7  	.word	0xc7f13f61
    526c: 87 c1 13 fc  	.word	0xfc13c187
    5270: b6 b9 b5 ec  	.word	0xecb5b9b6
    5274: 64 36 f8 19  	.word	0x19f83664
    5278: 07 b6 37 a6  	.word	0xa637b607
    527c: 93 0c f8 66  	.word	0x66f80c93
    5280: 80 d0 8b 5d  	.word	0x5d8bd080
    5284: 6a fb dc c4  	.word	0xc4dcfb6a
    5288: 42 48 1a 57  	.word	0x571a4842
    528c: ec c4 eb de  	.word	0xdeebc4ec
    5290: 65 53 e5 b8  	.word	0xb8e55365
    5294: 83 e8 b2 d4  	.word	0xd4b2e883
    5298: 27 b8 e5 c8  	.word	0xc8e5b827
    529c: 7d c8 bd 50  	.word	0x50bdc87d
    52a0: 11 e1 df 6e  	.word	0x6edfe111
    52a4: 83 37 6d 60  	.word	0x606d3783
    52a8: d9 ab 11 f0  	.word	0xf011abd9
    52ac: 15 3e 35 32  	.word	0x32353e15
    52b0: 96 3b b7 25  	.word	0x25b73b96
    52b4: c3 3a b0 64  	.word	0x64b03ac3
    52b8: ae d5 5f 72  	.word	0x725fd5ae
    52bc: 44 64 d5 1d  	.word	0x1dd56444
    52c0: 7d 12 62 33  	.word	0x3362127d
    52c4: f8 7f a4 8f  	.word	0x8fa47ff8
    52c8: 15 7c cd 71  	.word	0x71cd7c15
    52cc: c4 6a 9f bc  	.word	0xbc9f6ac4
    52d0: 8b 0c 22 49  	.word	0x49220c8b
    52d4: 43 45 71 6e  	.word	0x6e714543
    52d8: 2e 73 9f 21  	.word	0x219f732e
    52dc: 12 59 64 0e  	.word	0x0e645912
    52e0: 9a c8 ba 08  	.word	0x08bac89a
    52e4: 00 e6 97 c2  	.word	0xc297e600
    52e8: e0 c3 e1 ea  	.word	0xeae1c3e0
    52ec: 11 ea 4c 7d  	.word	0x7d4cea11
    52f0: 7c 97 e7 9f  	.word	0x9fe7977c
    52f4: e1 8b e3 f3  	.word	0xf3e38be1
    52f8: cd 05 a3 63  	.word	0x63a305cd
    52fc: 0f 45 3a 3a  	.word	0x3a3a450f
    5300: 27 46 39 d8  	.word	0xd8394627
    5304: 31 2f 8f 07  	.word	0x078f2f31
    5308: 10 a5 94 de  	.word	0xde94a510
    530c: 83 31 9d 38  	.word	0x389d3183
    5310: 80 6f 99 17  	.word	0x17996f80
    5314: 6d 6c e3 d1  	.word	0xd1e36c6d
    5318: 7b a8 a9 93  	.word	0x93a9a87b
    531c: 93 8d 8c 31  	.word	0x318c8d93
    5320: 19 fe ff 2a  	.word	0x2afffe19
    5324: 03 5d 74 f2  	.word	0xf2745d03
    5328: 66 db 24 7f  	.word	0x7f24db66
    532c: 49 3c 9f 0c  	.word	0x0c9f3c49
    5330: ef 98 85 ba  	.word	0xba8598ef
    5334: e3 d3 98 bc  	.word	0xbc98d3e3
    5338: 14 53 1d 9a  	.word	0x9a1d5314
    533c: 67 7c 4c 22  	.word	0x224c7c67
    5340: 98 d3 1d ab  	.word	0xab1dd398
    5344: 29 9e 66 5d  	.word	0x5d669e29
    5348: 3b 9e 2d 34  	.word	0x342d9e3b
    534c: 58 16 92 fc  	.word	0xfc921658
    5350: cd 73 59 f3  	.word	0xf35973cd
    5354: fd 1d 85 55  	.word	0x55851dfd
    5358: f6 0a 95 25  	.word	0x25950af6
    535c: c3 41 9a 50  	.word	0x509a41c3
    5360: e9 25 f9 a6  	.word	0xa6f925e9
    5364: dc 6e c0 bd  	.word	0xbdc06edc
    5368: 33 1f 1b 64  	.word	0x641b1f33
    536c: f4 f3 3e 79  	.word	0x793ef3f4
    5370: 89 3e 83 9d  	.word	0x9d833e89
    5374: 80 12 ec 82  	.word	0x82ec1280
    5378: 89 13 a1 28  	.word	0x28a11389
    537c: 23 f0 bf 05  	.word	0x05bff023
    5380: 0b e0 ca 23  	.word	0x23cae00b
    5384: 70 13 32 36  	.word	0x36321370
    5388: 59 cf ac d1  	.word	0xd1accf59
    538c: 0a cf 4a 54  	.word	0x544acf0a
    5390: 88 1c 1a d2  	.word	0xd21a1c88
    5394: 49 10 74 96  	.word	0x96741049
    5398: a7 44 2a fa  	.word	0xfa2a44a7
    539c: c3 8c 0b 78  	.word	0x780b8cc3
    53a0: e4 12 c5 0d  	.word	0x0dc512e4
    53a4: dd a0 81 68  	.word	0x6881a0dd
    53a8: fe fa a5 44  	.word	0x44a5fafe
    53ac: c8 0d e7 4f  	.word	0x4fe70dc8
    53b0: 40 52 4a 8f  	.word	0x8f4a5240
    53b4: 6b 8e 74 1f  	.word	0x1f748e6b
    53b8: ea a3 01 ee  	.word	0xee01a3ea
    53bc: cd 77 62 57  	.word	0x576277cd
    53c0: 5f 30 4f 23  	.word	0x234f305f
    53c4: bc 8a f3 1e  	.word	0x1ef38abc
    53c8: 08 de 05 14  	.word	0x1405de08
    53cc: bd 7f 57 9a  	.word	0x9a577fbd
    53d0: 0d 2a e6 34  	.word	0x34e62a0d
    53d4: 14 a5 82 5e  	.word	0x5e82a514
    53d8: a1 b7 71 62  	.word	0x6271b7a1
    53dc: 72 18 f4 5f  	.word	0x5ff41872
    53e0: 9d db 89 17  	.word	0x1789db9d
    53e4: 0c 08 8e 39  	.word	0x398e080c
    53e8: f5 78 e7 f3  	.word	0xf3e778f5
    53ec: 25 20 60 a7  	.word	0xa7602025
    53f0: 5d 03 bd 06  	.word	0x06bd035d
    53f4: 4c 89 98 fa  	.word	0xfa98894c
    53f8: be 66 a9 25  	.word	0x25a966be
    53fc: dc 03 6a 10  	.word	0x106a03dc
    5400: 40 95 b6 13  	.word	0x13b69540
    5404: e8 47 db e5  	.word	0xe5db47e8
    5408: e1 10 26 43  	.word	0x432610e1
    540c: 3b 2a 5d f3  	.word	0xf35d2a3b
    5410: 76 12 78 38  	.word	0x38781276
    5414: e9 26 1f ac  	.word	0xac1f26e9
    5418: 69 cb a0 a0  	.word	0xa0a0cb69
    541c: 8c db d4 29  	.word	0x29d4db8c
    5420: d0 53 33 33  	.word	0x333353d0
    5424: af 0a ad d9  	.word	0xd9ad0aaf
    5428: e5 09 d3 ac  	.word	0xacd309e5
    542c: a5 9d 66 38  	.word	0x38669da5
    5430: f0 f7 88 c8  	.word	0xc888f7f0
    5434: 8a 65 57 3c  	.word	0x3c57658a
    5438: fa be 2c 05  	.word	0x052cbefa
    543c: 51 8a b3 4a  	.word	0x4ab38a51
    5440: e9 c0 24 43  	.word	0x4324c0e9
    5444: ee cb da df  	.word	0xdfdacbee
    5448: b7 5b 95 3f  	.word	0x3f955bb7
    544c: 88 42 44 05  	.word	0x05444288
    5450: 9f 60 31 ea  	.word	0xea31609f
    5454: a8 aa f7 de  	.word	0xdef7aaa8
    5458: ff 7c 28 42  	.word	0x42287cff
    545c: 06 e7 ae 68  	.word	0x68aee706
    5460: 54 e0 9d 80  	.word	0x809de054
    5464: e8 e2 8f f6  	.word	0xf68fe2e8
    5468: d1 ba 82 9c  	.word	0x9c82bad1
    546c: 6a 09 bc e3  	.word	0xe3bc096a
    5470: 45 bf ad 0a  	.word	0x0aadbf45
    5474: d4 53 63 07  	.word	0x076353d4
    5478: 9e 95 a1 de  	.word	0xdea1959e
    547c: b5 1f 9b 7b  	.word	0x7b9b1fb5
    5480: 0c cc 71 74  	.word	0x7471cc0c
    5484: f1 c8 1c f0  	.word	0xf01cc8f1
    5488: bb 82 90 57  	.word	0x579082bb
    548c: 37 2e 24 95  	.word	0x95242e37
    5490: 5f 6b e4 d3  	.word	0xd3e46b5f
    5494: 93 60 77 27  	.word	0x27776093
    5498: fb 85 bd 28  	.word	0x28bd85fb
    549c: 5a d5 13 2d  	.word	0x2d13d55a
    54a0: da b8 35 5b  	.word	0x5b35b8da
    54a4: 06 d2 c5 fa  	.word	0xfac5d206
    54a8: b7 4b 62 85  	.word	0x85624bb7
    54ac: 9a 8a da a8  	.word	0xa8da8a9a
    54b0: 0f cd 21 3d  	.word	0x3d21cd0f
    54b4: 91 ca d2 cc  	.word	0xccd2ca91
    54b8: 58 0d f9 8b  	.word	0x8bf90d58
    54bc: ee 41 83 6b  	.word	0x6b8341ee
    54c0: 52 7a ee 7a  	.word	0x7aee7a52
    54c4: ce 9c 01 bf  	.word	0xbf019cce
    54c8: d3 ea 54 e4  	.word	0xe454ead3
    54cc: b6 d2 de a8  	.word	0xa8ded2b6
    54d0: 19 bb a8 87  	.word	0x87a8bb19
    54d4: 0b 9f 61 3c  	.word	0x3c619f0b
    54d8: d8 16 09 56  	.word	0x560916d8
    54dc: d7 b5 19 36  	.word	0x3619b5d7
    54e0: b2 c4 82 02  	.word	0x0282c4b2
    54e4: 6b f2 79 35  	.word	0x3579f26b
    54e8: ae ef af 4f  	.word	0x4fafefae
    54ec: f2 92 d5 64  	.word	0x64d592f2
    54f0: c0 c7 c8 28  	.word	0x28c8c7c0
    54f4: 7b ed cd b7  	.word	0xb7cded7b
    54f8: d7 a8 73 71  	.word	0x7173a8d7
    54fc: 6b 7b 92 6a  	.word	0x6a927b6b
    5500: 56 46 6e 98  	.word	0x986e4656
    5504: 4f b2 6d 1f  	.word	0x1f6db24f
    5508: 5b 10 e9 d1  	.word	0xd1e9105b
    550c: 2e c0 21 10  	.word	0x1021c02e
    5510: 75 a3 c0 2c  	.word	0x2cc0a375
    5514: ff 3f ff f8  	.word	0xf8ff3fff
    5518: 92 25 c8 c6  	.word	0xc6c82592
    551c: f8 6b 2a 1d  	.word	0x1d2a6bf8
    5520: eb 88 ce 3e  	.word	0x3ece88eb
    5524: 86 40 70 8d  	.word	0x8d704086
    5528: 8c c0 ee 80  	.word	0x80eec08c
    552c: a9 07 e3 f0  	.word	0xf0e307a9
    5530: da 8f 78 0d  	.word	0x0d788fda
    5534: 61 50 22 ac  	.word	0xac225061
    5538: 8d 47 0d 3a  	.word	0x3a0d478d
    553c: a4 92 6d 05  	.word	0x056d92a4
    5540: a1 a5 3d fc  	.word	0xfc3da5a1
    5544: 96 a1 05 1b  	.word	0x1b05a196
    5548: d0 9e b5 43  	.word	0x43b59ed0
    554c: c2 a8 d7 77  	.word	0x77d7a8c2
    5550: 18 79 d1 97  	.word	0x97d17918
    5554: 62 3d da 06  	.word	0x06da3d62
    5558: f7 53 23 f1  	.word	0xf12353f7
    555c: 94 b4 fb 66  	.word	0x66fbb494
    5560: b8 0f 5c d8  	.word	0xd85c0fb8
    5564: b9 50 1a 75  	.word	0x751a50b9
    5568: 7b 09 cf 8b  	.word	0x8bcf097b
    556c: 25 dc af d1  	.word	0xd1afdc25
    5570: 69 a9 09 83  	.word	0x8309a969
    5574: a3 a6 16 2f  	.word	0x2f16a6a3
    5578: 59 06 b0 e5  	.word	0xe5b00659
    557c: 9e ff dd 14  	.word	0x14ddff9e
    5580: d6 09 23 f1  	.word	0xf12309d6
    5584: 96 09 d7 d6  	.word	0xd6d70996
    5588: 39 d5 c3 e9  	.word	0xe9c3d539
    558c: 85 23 fb db  	.word	0xdbfb2385
    5590: 11 24 55 f7  	.word	0xf7552411
    5594: b0 02 d6 46  	.word	0x46d602b0
    5598: 0c 3e 84 57  	.word	0x57843e0c
    559c: 05 0b 0a 27  	.word	0x270a0b05
    55a0: cc 2b 86 a7  	.word	0xa7862bcc
    55a4: 40 06 ff 61  	.word	0x61ff0640
    55a8: fe ab 11 5f  	.word	0x5f11abfe
    55ac: 9a c0 ca 81  	.word	0x81cac09a
    55b0: bb 2a d1 55  	.word	0x55d12abb
    55b4: 04 83 47 90  	.word	0x90478304
    55b8: 73 e8 5a 94  	.word	0x945ae873
    55bc: e1 bd a4 19  	.word	0x19a4bde1
    55c0: 0a 20 a6 20  	.word	0x20a6200a
    55c4: f5 26 9f 9b  	.word	0x9b9f26f5
    55c8: f8 ea 13 cf  	.word	0xcf13eaf8
    55cc: 43 44 80 64  	.word	0x64804443
    55d0: d3 ed 31 86  	.word	0x8631edd3
    55d4: 3f 67 63 8a  	.word	0x8a63673f
    55d8: c1 9d d3 1e  	.word	0x1ed39dc1
    55dc: e1 bc bb 72  	.word	0x72bbbce1
    55e0: 9f c4 76 c0  	.word	0xc076c49f
    55e4: de 09 c7 40  	.word	0x40c709de
    55e8: f6 53 3e 7f  	.word	0x7f3e53f6
    55ec: f2 fa 7b 65  	.word	0x657bfaf2
    55f0: c4 42 a0 ec  	.word	0xeca042c4
    55f4: 31 23 66 40  	.word	0x40662331
    55f8: 04 df b4 7e  	.word	0x7eb4df04
    55fc: 48 75 b3 14  	.word	0x14b37548
    5600: 47 dc 66 ab  	.word	0xab66dc47
    5604: 94 3c 85 ae  	.word	0xae853c94
    5608: 6e 2d 76 df  	.word	0xdf762d6e
    560c: 3e 34 62 eb  	.word	0xeb62343e
    5610: d1 f7 b2 6f  	.word	0x6fb2f7d1
    5614: 18 0e 8e f0  	.word	0xf08e0e18
    5618: 7a b3 0a 70  	.word	0x700ab37a
    561c: 02 1c 0b 4f  	.word	0x4f0b1c02
    5620: fa 51 19 d8  	.word	0xd81951fa
    5624: 87 67 70 e1  	.word	0xe1706787
    5628: 7b c7 90 b2  	.word	0xb290c77b
    562c: 8e 2c 0a a1  	.word	0xa10a2c8e
    5630: 73 67 d6 3e  	.word	0x3ed66773
    5634: a0 2f 38 e7  	.word	0xe7382fa0
    5638: 54 4b cc 0b  	.word	0x0bcc4b54
    563c: 71 84 4d 0a  	.word	0x0a4d8471
    5640: 3f e2 b2 c1  	.word	0xc1b2e23f
    5644: cc 21 fd 79  	.word	0x79fd21cc
    5648: 2a f5 3d 45  	.word	0x453df52a
    564c: 81 c2 e7 4a  	.word	0x4ae7c281
    5650: 6b 48 51 d1  	.word	0xd151486b
    5654: c9 2e 17 c8  	.word	0xc8172ec9
    5658: 34 75 0a 3e  	.word	0x3e0a7534
    565c: 44 e9 ab 68  	.word	0x68abe944
    5660: cb 1d 83 07  	.word	0x07831dcb
    5664: c4 c6 12 da  	.word	0xda12c6c4
    5668: 0d 51 5c 4d  	.word	0x4d5c510d
    566c: d7 30 a2 0d  	.word	0x0da230d7
    5670: e1 04 d4 6b  	.word	0x6bd404e1
    5674: 1e 53 b1 4a  	.word	0x4ab1531e
    5678: ef 40 f4 bc  	.word	0xbcf440ef
    567c: 66 b1 06 41  	.word	0x4106b166
    5680: 68 36 d2 1c  	.word	0x1cd23668
    5684: 42 7a e5 02  	.word	0x02e57a42
    5688: fd f6 ae 0e  	.word	0x0eaef6fd
    568c: 5d fb d9 4a  	.word	0x4ad9fb5d
    5690: 80 44 24 b1  	.word	0xb1244480
    5694: 27 67 4e 95  	.word	0x954e6727
    5698: 31 f3 99 26  	.word	0x2699f331
    569c: 9d 2f 79 7f  	.word	0x7f792f9d
    56a0: f2 ec e4 39  	.word	0x39e4ecf2
    56a4: d5 cc 85 a4  	.word	0xa485ccd5
    56a8: b5 ba 55 05  	.word	0x0555bab5
    56ac: ad f3 a3 5a  	.word	0x5aa3f3ad
    56b0: 2d f8 7d 93  	.word	0x937df82d
    56b4: 39 34 5e 14  	.word	0x145e3439
    56b8: 3f 28 14 12  	.word	0x1214283f
    56bc: 1e b5 38 12  	.word	0x1238b51e
    56c0: 24 d9 d4 5f  	.word	0x5fd4d924
    56c4: 92 6b 88 0b  	.word	0x0b886b92
    56c8: 0d a8 26 36  	.word	0x3626a80d
    56cc: 7a 6f 90 60  	.word	0x60906f7a
    56d0: 12 bd 8a b9  	.word	0xb98abd12
    56d4: b4 67 d3 ec  	.word	0xecd367b4
    56d8: cf 44 f3 de  	.word	0xdef344cf
    56dc: b1 be 76 28  	.word	0x2876beb1
    56e0: 91 46 14 63  	.word	0x63144691
    56e4: 35 e9 84 dc  	.word	0xdc84e935
    56e8: f4 23 1f d6  	.word	0xd61f23f4
    56ec: a0 e8 2f 63  	.word	0x632fe8a0
    56f0: d5 a8 a9 12  	.word	0x12a9a8d5
    56f4: 06 80 aa 4c  	.word	0x4caa8006
    56f8: d3 18 99 0e  	.word	0x0e9918d3
    56fc: fa db f9 48  	.word	0x48f9dbfa
    5700: f8 85 8a 3a  	.word	0x3a8a85f8
    5704: 33 b3 94 d5  	.word	0xd594b333
    5708: 58 7d 8d e7  	.word	0xe78d7d58
    570c: 89 76 a3 4e  	.word	0x4ea37689
    5710: 1f 35 8e 5e  	.word	0x5e8e351f
    5714: 45 9f bf 73  	.word	0x73bf9f45
    5718: b4 eb 41 bc  	.word	0xbc41ebb4
    571c: d2 d7 07 55  	.word	0x5507d7d2
    5720: fc 72 95 29  	.word	0x299572fc
    5724: 03 29 eb 1c  	.word	0x1ceb2903
    5728: ee d0 02 95  	.word	0x9502d0ee
    572c: a2 ca 8c 7c  	.word	0x7c8ccaa2
    5730: 7b e6 cc 11  	.word	0x11cce67b
    5734: 34 a4 bf 91  	.word	0x91bfa434
    5738: e7 31 a8 64  	.word	0x64a831e7
    573c: 19 48 84 57  	.word	0x57844819
    5740: 93 d5 68 67  	.word	0x6768d593
    5744: 25 2b 7c da  	.word	0xda7c2b25
    5748: 13 ca 22 44  	.word	0x4422ca13
    574c: 57 c0 c1 98  	.word	0x98c1c057
    5750: 1d ce 0a ca  	.word	0xca0ace1d
    5754: d5 0b a8 f1  	.word	0xf1a80bd5
    5758: 90 a6 88 c0  	.word	0xc088a690
    575c: ad d1 cd 29  	.word	0x29cdd1ad
    5760: 9c c0 dd 5f  	.word	0x5fddc09c
    5764: ef d1 cf d6  	.word	0xd6cfd1ef
    5768: ce 5d 57 f7  	.word	0xf7575dce
    576c: fd 3e 2b e8  	.word	0xe82b3efd
    5770: c2 34 16 20  	.word	0x201634c2
    5774: 5d 6b d5 25  	.word	0x25d56b5d
    5778: 9b 2b ed 04  	.word	0x04ed2b9b
    577c: bb c6 41 30  	.word	0x3041c6bb
    5780: 48 e1 56 d9  	.word	0xd956e148
    5784: f9 f2 f2 0f  	.word	0x0ff2f2f9
    5788: 2e 6b 35 9f  	.word	0x9f356b2e
    578c: 75 97 e7 ad  	.word	0xade79775
    5790: 5c 02 6c 5f  	.word	0x5f6c025c
    5794: bb 98 46 1a  	.word	0x1a4698bb
    5798: 7b 9a 04 14  	.word	0x14049a7b
    579c: 68 bd 4b 10  	.word	0x104bbd68
    57a0: 67 ed f1 68  	.word	0x68f1ed67
    57a4: 31 fd f0 51  	.word	0x51f0fd31
    57a8: c2 3b 6f d8  	.word	0xd86f3bc2
    57ac: cd 1d 81 2c  	.word	0x2c811dcd
    57b0: de f2 d2 04  	.word	0x04d2f2de
    57b4: 43 5c dc 44  	.word	0x44dc5c43
    57b8: 49 71 2a 09  	.word	0x092a7149
    57bc: 57 cc e8 5b  	.word	0x5be8cc57
    57c0: 63 f1 7f d6  	.word	0xd67ff163
    57c4: 5f 9a 5d a9  	.word	0xa95d9a5f
    57c8: 81 56 c7 4c  	.word	0x4cc75681
    57cc: 9d e6 2b e9  	.word	0xe92be69d
    57d0: 57 f2 20 de  	.word	0xde20f257
    57d4: 4c 02 f8 b7  	.word	0xb7f8024c
    57d8: f5 2d 07 fb  	.word	0xfb072df5
    57dc: 20 2a 4f 20  	.word	0x204f2a20
    57e0: 79 b0 eb 30  	.word	0x30ebb079
    57e4: 3d 3b 14 c8  	.word	0xc8143b3d
    57e8: 30 2e 65 bd  	.word	0xbd652e30
    57ec: 5a 15 89 75  	.word	0x7589155a
    57f0: 31 5c 6d 8f  	.word	0x8f6d5c31
    57f4: 31 3c 3c 65  	.word	0x653c3c31
    57f8: 1f 16 79 c2  	.word	0xc279161f
    57fc: 17 fb 70 25  	.word	0x2570fb17
    5800: 75 15 b6 2c  	.word	0x2cb61575
    5804: 7f 36 fa 3e  	.word	0x3efa367f
    5808: 6c 02 d6 1c  	.word	0x1cd6026c
    580c: 76 6f f9 f5  	.word	0xf5f96f76
    5810: 62 25 b5 65  	.word	0x65b52562
    5814: 2a 14 c7 e8  	.word	0xe8c7142a
    5818: cd 0a 03 53  	.word	0x53030acd
    581c: ea 65 cb 3d  	.word	0x3dcb65ea
    5820: 5a 24 b8 0b  	.word	0x0bb8245a
    5824: 55 a9 2e 19  	.word	0x192ea955
    5828: d1 50 90 8f  	.word	0x8f9050d1
    582c: a8 fb e6 c8  	.word	0xc8e6fba8
    5830: 35 c9 a4 88  	.word	0x88a4c935
    5834: 2d ea 86 79  	.word	0x7986ea2d
    5838: 68 86 01 de  	.word	0xde018668
    583c: 91 5f 1c 24  	.word	0x241c5f91
    5840: aa 6c de 40  	.word	0x40de6caa
    5844: 29 17 d8 28  	.word	0x28d81729
    5848: 3a 73 d9 22  	.word	0x22d9733a
    584c: f0 2c bf 8f  	.word	0x8fbf2cf0
    5850: d1 01 5b 23  	.word	0x235b01d1
    5854: dd fc d7 16  	.word	0x16d7fcdd
    5858: e5 f0 cd 5f  	.word	0x5fcdf0e5
    585c: dd 0e 42 08  	.word	0x08420edd
    5860: 4a fa 62 83  	.word	0x8362fa4a
    5864: ab 20 ff cd  	.word	0xcdff20ab
    5868: 6e 3e 1a e2  	.word	0xe21a3e6e
    586c: d4 18 e1 57  	.word	0x57e118d4
    5870: 2b e6 39 fc  	.word	0xfc39e62b
    5874: 17 96 17 e3  	.word	0xe3179617
    5878: fd 69 17 bc  	.word	0xbc1769fd
    587c: ef 53 9a 0d  	.word	0x0d9a53ef
    5880: ce 10 f4 04  	.word	0x04f410ce
    5884: 4e c3 58 03  	.word	0x0358c34e
    5888: 85 06 6e 27  	.word	0x276e0685
    588c: 5a 5b 13 b6  	.word	0xb6135b5a
    5890: 21 15 b9 eb  	.word	0xebb91521
    5894: c7 70 96 5d  	.word	0x5d9670c7
    5898: 9c 88 db 21  	.word	0x21db889c
    589c: f3 54 d6 04  	.word	0x04d654f3
    58a0: d5 b5 bd dd  	.word	0xddbdb5d5
    58a4: 16 c1 7d 5e  	.word	0x5e7dc116
    58a8: 2d dd a5 8d  	.word	0x8da5dd2d
    58ac: b6 de 54 29  	.word	0x2954deb6
    58b0: 92 a2 34 33  	.word	0x3334a292
    58b4: 17 08 b6 1c  	.word	0x1cb60817
    58b8: d7 1a 99 18  	.word	0x18991ad7
    58bc: 26 4f 7a 4a  	.word	0x4a7a4f26
    58c0: 95 5f b1 5f  	.word	0x5fb15f95
    58c4: 02 18 a7 f4  	.word	0xf4a71802
    58c8: 8f 1b 5c 6b  	.word	0x6b5c1b8f
    58cc: 34 5f f6 3d  	.word	0x3df65f34
    58d0: 12 11 e0 00  	.word	0x00e01112
    58d4: 85 f0 fc cd  	.word	0xcdfcf085
    58d8: 48 18 d3 dd  	.word	0xddd31848
    58dc: 4c 0c b5 11  	.word	0x11b50c4c
    58e0: 4b 2a 37 af  	.word	0xaf372a4b
    58e4: 91 b2 c3 24  	.word	0x24c3b291
    58e8: f2 47 81 71  	.word	0x718147f2
    58ec: 70 82 da 93  	.word	0x93da8270
    58f0: f2 9e 89 86  	.word	0x86899ef2
    58f4: 64 85 84 dd  	.word	0xdd848564
    58f8: 33 ee e0 23  	.word	0x23e0ee33
    58fc: 42 31 96 4a  	.word	0x4a963142
    5900: d6 ff a4 08  	.word	0x08a4ffd6
    5904: 44 27 e8 a6  	.word	0xa6e82744
    5908: d9 76 15 9c  	.word	0x9c1576d9
    590c: 7e 17 8e 73  	.word	0x738e177e
    5910: f2 b3 02 3d  	.word	0x3d02b3f2
    5914: b6 48 33 77  	.word	0x773348b6
    5918: 51 cc 6b ce  	.word	0xce6bcc51
    591c: 4d ce 4b 4f  	.word	0x4f4bce4d
    5920: 84 25 24 e2  	.word	0xe2242584
    5924: 5a ce 1f a7  	.word	0xa71fce5a
    5928: 9e 8a f5 92  	.word	0x92f58a9e
    592c: 56 72 ea 26  	.word	0x26ea7256
    5930: f4 3c ea 1c  	.word	0x1cea3cf4
    5934: d7 09 1a d2  	.word	0xd21a09d7
    5938: e6 01 1c b7  	.word	0xb71c01e6
    593c: 14 dd fc 73  	.word	0x73fcdd14
    5940: 6f 0b 9d c4  	.word	0xc49d0b6f
    5944: 6e 61 e2 30  	.word	0x30e2616e
    5948: 17 23 ec ca  	.word	0xcaec2317
    594c: 8f 71 56 e4  	.word	0xe456718f
    5950: a6 4f 6b f2  	.word	0xf26b4fa6
    5954: 9b 40 eb 48  	.word	0x48eb409b
    5958: 37 5f 59 61  	.word	0x61595f37
    595c: e5 ce 42 30  	.word	0x3042cee5
    5960: 41 ac 9b 44  	.word	0x449bac41
    5964: 79 70 7e 42  	.word	0x427e7079
    5968: 0a 31 e2 bc  	.word	0xbce2310a
    596c: 6d e3 5a 85  	.word	0x855ae36d
    5970: 7c 1a 84 5f  	.word	0x5f841a7c
    5974: 21 76 ae 4c  	.word	0x4cae7621
    5978: d6 e1 9c 9a  	.word	0x9a9ce1d6
    597c: 0c 74 9e 38  	.word	0x389e740c
    5980: ce b9 dc 34  	.word	0x34dcb9ce
    5984: ae b3 fc 64  	.word	0x64fcb3ae
    5988: ad d0 48 e3  	.word	0xe348d0ad
    598c: 23 03 50 97  	.word	0x97500323
    5990: 1b 38 c6 62  	.word	0x62c6381b
    5994: 7d f0 b3 45  	.word	0x45b3f07d
    5998: 88 67 5a 46  	.word	0x465a6788
    599c: 79 53 54 61  	.word	0x61545379
    59a0: 28 ac 0e 57  	.word	0x570eac28
    59a4: f6 78 bd c9  	.word	0xc9bd78f6
    59a8: e1 9c 91 27  	.word	0x27919ce1
    59ac: 32 0b 5b e5  	.word	0xe55b0b32
    59b0: ed 91 9b a1  	.word	0xa19b91ed
    59b4: ab 3e fc 65  	.word	0x65fc3eab
    59b8: 90 36 26 d6  	.word	0xd6263690
    59bc: e5 25 c4 25  	.word	0x25c425e5
    59c0: 6e de d7 f1  	.word	0xf1d7de6e
    59c4: a6 06 3e 3f  	.word	0x3f3e06a6
    59c8: 08 23 06 8e  	.word	0x8e062308
    59cc: 27 76 f9 3e  	.word	0x3ef97627
    59d0: 77 6c 8a 4e  	.word	0x4e8a6c77
    59d4: 26 f6 14 8c  	.word	0x8c14f626
    59d8: 59 47 48 15  	.word	0x15484759
    59dc: 89 a0 39 65  	.word	0x6539a089
    59e0: 73 f7 d2 c3  	.word	0xc3d2f773
    59e4: 74 1f d2 e9  	.word	0xe9d21f74
    59e8: 45 68 c4 25  	.word	0x25c46845
    59ec: 41 54 50 c1  	.word	0xc1505441
    59f0: 33 9e b9 f9  	.word	0xf9b99e33
    59f4: e8 5c 4e 62  	.word	0x624e5ce8
    59f8: 6c 18 cd c5  	.word	0xc5cd186c
    59fc: aa e4 c5 11  	.word	0x11c5e4aa
    5a00: 19 4a bb 14  	.word	0x14bb4a19
    5a04: d4 db c4 dd  	.word	0xddc4dbd4
    5a08: 8e 4f 42 98  	.word	0x98424f8e
    5a0c: 3c bc b2 19  	.word	0x19b2bc3c
    5a10: 69 71 ca 36  	.word	0x36ca7169
    5a14: d7 9f a8 48  	.word	0x48a89fd7
    5a18: 90 bd 19 f0  	.word	0xf019bd90
    5a1c: 0e 32 65 0f  	.word	0x0f65320e
    5a20: c6 e0 fd ca  	.word	0xcafde0c6
    5a24: b1 d1 86 d4  	.word	0xd486d1b1
    5a28: 81 51 3b 16  	.word	0x163b5181
    5a2c: e3 e6 3f 4f  	.word	0x4f3fe6e3
    5a30: 9a 93 f2 fa  	.word	0xfaf2939a
    5a34: 0d af a8 59  	.word	0x59a8af0d
    5a38: 2a 07 33 ec  	.word	0xec33072a
    5a3c: bd c7 ab 4c  	.word	0x4cabc7bd
    5a40: 28 74 2f 53  	.word	0x532f7428
    5a44: fb a8 fa 16  	.word	0x16faa8fb
    5a48: 72 e2 a4 46  	.word	0x46a4e272
    5a4c: a0 2e d4 db  	.word	0xdbd42ea0
    5a50: 80 a4 9e 8b  	.word	0x8b9ea480
    5a54: 3b 65 37 53  	.word	0x5337653b
    5a58: 03 3f 97 23  	.word	0x23973f03
    5a5c: 72 94 65 40  	.word	0x40659472
    5a60: 44 a0 54 1a  	.word	0x1a54a044
    5a64: 9c a1 c0 f7  	.word	0xf7c0a19c
    5a68: bb 9f bd 77  	.word	0x77bd9fbb
    5a6c: 24 5e 1c 4a  	.word	0x4a1c5e24
    5a70: 72 29 f2 5a  	.word	0x5af22972
    5a74: 11 ca e3 a6  	.word	0xa6e3ca11
    5a78: 0d 9e 2e 3f  	.word	0x3f2e9e0d
    5a7c: 95 bb 19 18  	.word	0x1819bb95
    5a80: 84 2e 04 5e  	.word	0x5e042e84
    5a84: 79 bb 8f 49  	.word	0x498fbb79
    5a88: 14 b7 98 76  	.word	0x7698b714
    5a8c: 9a d8 0d 7d  	.word	0x7d0dd89a
    5a90: 95 62 fe 27  	.word	0x27fe6295
    5a94: a4 0b fb 8b  	.word	0x8bfb0ba4
    5a98: 24 05 20 21  	.word	0x21200524
    5a9c: e7 82 ba 36  	.word	0x36ba82e7
    5aa0: 41 ec 45 42  	.word	0x4245ec41
    5aa4: b7 cb 0e d6  	.word	0xd60ecbb7
    5aa8: 16 87 34 34  	.word	0x34348716
    5aac: 9e e8 9b fd  	.word	0xfd9be89e
    5ab0: de 84 22 e4  	.word	0xe42284de
    5ab4: fe 0a 24 c9  	.word	0xc9240afe
    5ab8: b4 1d 53 d0  	.word	0xd0531db4
    5abc: 48 f6 72 44  	.word	0x4472f648
    5ac0: d5 4e 27 57  	.word	0x57274ed5
    5ac4: 0a 9d d6 c8  	.word	0xc8d69d0a
    5ac8: 17 4b 80 60  	.word	0x60804b17
    5acc: 32 80 ba 45  	.word	0x45ba8032
    5ad0: ac df 55 22  	.word	0x2255dfac
    5ad4: 10 da 3c df  	.word	0xdf3cda10
    5ad8: 39 b3 09 27  	.word	0x2709b339
    5adc: 23 21 d2 77  	.word	0x77d22123
    5ae0: d8 94 ad 64  	.word	0x64ad94d8
    5ae4: 70 6d 8a 49  	.word	0x498a6d70
    5ae8: 63 22 f6 9a  	.word	0x9af62263
    5aec: fd c8 b5 a5  	.word	0xa5b5c8fd
    5af0: f4 41 c1 45  	.word	0x45c141f4
    5af4: 05 ed a8 8c  	.word	0x8ca8ed05
    5af8: 8c 35 2d 66  	.word	0x662d358c
    5afc: c3 be 63 2c  	.word	0x2c63bec3
    5b00: 55 79 78 ea  	.word	0xea787955
    5b04: 8b 0d e6 7f  	.word	0x7fe60d8b
    5b08: b7 01 f4 b5  	.word	0xb5f401b7
    5b0c: 7e 11 dc b9  	.word	0xb9dc117e
    5b10: ce 5c 35 19  	.word	0x19355cce
    5b14: 9a c0 c7 91  	.word	0x91c7c09a
    5b18: df be 42 94  	.word	0x9442bedf
    5b1c: f5 2e 69 22  	.word	0x22692ef5
    5b20: bf f8 86 85  	.word	0x8586f8bf
    5b24: 3a 8b 51 9a  	.word	0x9a518b3a
    5b28: f0 96 b1 cb  	.word	0xcbb196f0
    5b2c: f6 1a e7 9e  	.word	0x9ee71af6
    5b30: f2 5c 38 a2  	.word	0xa2385cf2
    5b34: e6 25 06 aa  	.word	0xaa0625e6
    5b38: d1 c8 d7 dd  	.word	0xddd7c8d1
    5b3c: 76 21 eb 1d  	.word	0x1deb2176
    5b40: 6c cf 66 20  	.word	0x2066cf6c
    5b44: 9a d1 63 85  	.word	0x8563d19a
    5b48: d7 7c cc 4d  	.word	0x4dcc7cd7
    5b4c: 8c fd 1b 40  	.word	0x401bfd8c
    5b50: 62 8f 0d cd  	.word	0xcd0d8f62
    5b54: be a6 76 d9  	.word	0xd976a6be
    5b58: 5e b0 78 a2  	.word	0xa278b05e
    5b5c: 73 d7 cf 67  	.word	0x67cfd773
    5b60: 75 e4 3e ef  	.word	0xef3ee475
    5b64: fa 31 ec 8d  	.word	0x8dec31fa
    5b68: 92 fd 22 9e  	.word	0x9e22fd92
    5b6c: 8a ff db 99  	.word	0x99dbff8a
    5b70: b1 ca 26 4e  	.word	0x4e26cab1
    5b74: 59 11 2d 51  	.word	0x512d1159
    5b78: b9 10 43 ec  	.word	0xec4310b9
    5b7c: 1e 56 de 0c  	.word	0x0cde561e
    5b80: 6a 58 4e 5a  	.word	0x5a4e586a
    5b84: 85 a9 5f 2d  	.word	0x2d5fa985
    5b88: 7e ab be 49  	.word	0x49beab7e
    5b8c: a4 f7 f8 65  	.word	0x65f8f7a4
    5b90: d3 33 1d f2  	.word	0xf21d33d3
    5b94: dd 4d 07 aa  	.word	0xaa074ddd
    5b98: ee 9d cb 1b  	.word	0x1bcb9dee
    5b9c: 72 ba 5c 18  	.word	0x185cba72
    5ba0: 41 cb e3 f4  	.word	0xf4e3cb41
    5ba4: a3 9d 86 93  	.word	0x93869da3
    5ba8: 7e 97 f7 40  	.word	0x40f7977e
    5bac: f5 92 03 bf  	.word	0xbf0392f5
    5bb0: 83 3b 46 d0  	.word	0xd0463b83
    5bb4: fc 04 62 02  	.word	0x026204fc
    5bb8: ed 6e ec 9e  	.word	0x9eec6eed
    5bbc: 76 1a c9 3e  	.word	0x3ec91a76
    5bc0: ad 66 81 f7  	.word	0xf78166ad
    5bc4: 5b f7 9d 1e  	.word	0x1e9df75b
    5bc8: af d7 0c eb  	.word	0xeb0cd7af
    5bcc: 38 a8 fd 4d  	.word	0x4dfda838
    5bd0: 88 f9 ea c1  	.word	0xc1eaf988
    5bd4: d8 2e 00 ba  	.word	0xba002ed8
    5bd8: fc 3c f3 11  	.word	0x11f33cfc
    5bdc: 3e db fe 13  	.word	0x13fedb3e
    5be0: 2f 40 a3 b0  	.word	0xb0a3402f
    5be4: b7 2f ad 0f  	.word	0x0fad2fb7
    5be8: a8 f4 69 fb  	.word	0xfb69f4a8
    5bec: cb 5e 61 46  	.word	0x46615ecb
    5bf0: a6 ea f8 c5  	.word	0xc5f8eaa6
    5bf4: c8 bc 45 f7  	.word	0xf745bcc8
    5bf8: 96 e8 94 4a  	.word	0x4a94e896
    5bfc: 79 a8 5f 7a  	.word	0x7a5fa879
    5c00: a1 67 cd 13  	.word	0x13cd67a1
    5c04: aa 8f 95 52  	.word	0x52958faa
    5c08: 17 b5 db 8b  	.word	0x8bdbb517
    5c0c: 81 e0 5e 96  	.word	0x965ee081
    5c10: b3 45 88 2e  	.word	0x2e8845b3
    5c14: aa 8d e5 16  	.word	0x16e58daa
    5c18: 8f da 99 54  	.word	0x5499da8f
    5c1c: 7d 39 7d 35  	.word	0x357d397d
    5c20: 6c ce ba b0  	.word	0xb0bace6c
    5c24: 5f a0 bf 1e  	.word	0x1ebfa05f
    5c28: 1e 9a af 1c  	.word	0x1caf9a1e
    5c2c: 0c 62 34 c9  	.word	0xc934620c
    5c30: 1a b6 82 1d  	.word	0x1d82b61a
    5c34: c4 1c 77 cc  	.word	0xcc771cc4
    5c38: ec 4f f7 a5  	.word	0xa5f74fec
    5c3c: 6a a1 94 2d  	.word	0x2d94a16a
    5c40: f8 fb 4b 19  	.word	0x194bfbf8
    5c44: b4 ac 1d 48  	.word	0x481dacb4
    5c48: 99 82 e5 ba  	.word	0xbae58299
    5c4c: f1 e3 77 4d  	.word	0x4d77e3f1
    5c50: a0 72 13 7d  	.word	0x7d1372a0
    5c54: 2e 61 f4 1e  	.word	0x1ef4612e
    5c58: e1 69 ff 70  	.word	0x70ff69e1
    5c5c: 7e 86 8d 3a  	.word	0x3a8d867e
    5c60: 58 f9 af 55  	.word	0x55aff958
    5c64: 5d cd 58 6f  	.word	0x6f58cd5d
    5c68: 21 77 56 75  	.word	0x75567721
    5c6c: 5c aa 3e ba  	.word	0xba3eaa5c
    5c70: 7d 22 65 91  	.word	0x9165227d
    5c74: 99 23 c1 75  	.word	0x75c12399
    5c78: 5e b3 f2 c2  	.word	0xc2f2b35e
    5c7c: 43 13 be 69  	.word	0x69be1343
    5c80: 2a c9 97 e1  	.word	0xe197c92a
    5c84: 5e 1d 09 0e  	.word	0x0e091d5e
    5c88: 9f 11 45 29  	.word	0x2945119f
    5c8c: 9f 01 51 4f  	.word	0x4f51019f
    5c90: 9c e9 34 f0  	.word	0xf034e99c
    5c94: b9 79 36 14  	.word	0x143679b9
    5c98: 96 c6 24 4d  	.word	0x4d24c696
    5c9c: 2e 11 88 7d  	.word	0x7d88112e
    5ca0: e3 8d 4b 68  	.word	0x684b8de3
    5ca4: ac bd bb 82  	.word	0x82bbbdac
    5ca8: 18 07 ca 3f  	.word	0x3fca0718
    5cac: d0 c7 f4 a2  	.word	0xa2f4c7d0
    5cb0: a8 aa 96 e0  	.word	0xe096aaa8
    5cb4: fb 92 7f 33  	.word	0x337f92fb
    5cb8: 76 73 58 63  	.word	0x63587376
    5cbc: 8c 4d 0d 20  	.word	0x200d4d8c
    5cc0: 2b b3 93 48  	.word	0x4893b32b
    5cc4: 4b ed 8a 20  	.word	0x208aed4b
    5cc8: 64 b9 59 be  	.word	0xbe59b964
    5ccc: 3e f2 fb 3e  	.word	0x3efbf23e
    5cd0: 07 e5 a5 db  	.word	0xdba5e507
    5cd4: b0 de 62 d7  	.word	0xd762deb0
    5cd8: 94 9d bd 81  	.word	0x81bd9d94
    5cdc: d6 7b 60 69  	.word	0x69607bd6
    5ce0: e1 1c de 68  	.word	0x68de1ce1
    5ce4: 10 02 be f6  	.word	0xf6be0210
    5ce8: 1f bc dc 0e  	.word	0x0edcbc1f
    5cec: e7 18 d5 e8  	.word	0xe8d518e7
    5cf0: a5 05 55 1b  	.word	0x1b5505a5
    5cf4: d0 fd ef e3  	.word	0xe3effdd0
    5cf8: d0 3f ec d3  	.word	0xd3ec3fd0
    5cfc: 53 33 f6 35  	.word	0x35f63353
    5d00: 02 a9 23 93  	.word	0x9323a902
    5d04: d4 3b 7f 3b  	.word	0x3b7f3bd4
    5d08: 53 6e 2c 6b  	.word	0x6b2c6e53
    5d0c: 56 b5 21 7c  	.word	0x7c21b556
    5d10: a7 52 78 3a  	.word	0x3a7852a7
    5d14: f5 8f ba e5  	.word	0xe5ba8ff5
    5d18: 00 ce 8e 83  	.word	0x838ece00
    5d1c: a5 77 bc 28  	.word	0x28bc77a5
    5d20: 36 80 5d e2  	.word	0xe25d8036
    5d24: a8 78 ba 63  	.word	0x63ba78a8
    5d28: 90 34 33 94  	.word	0x94333490
    5d2c: 00 1e 65 63  	.word	0x63651e00
    5d30: 32 e5 8c 28  	.word	0x288ce532
    5d34: 20 2f d8 48  	.word	0x48d82f20
    5d38: 24 75 b5 36  	.word	0x36b57524
    5d3c: fa ab 31 3a  	.word	0x3a31abfa
    5d40: 2e 0a 9c 08  	.word	0x089c0a2e
    5d44: 24 96 9e 23  	.word	0x239e9624
    5d48: 38 47 fe 3a  	.word	0x3afe4738
    5d4c: c0 c4 48 c7  	.word	0xc748c4c0
    5d50: 2a a1 4f 76  	.word	0x764fa12a
    5d54: 2a ed db 17  	.word	0x17dbed2a
    5d58: 82 85 1c 32  	.word	0x321c8582
    5d5c: f0 93 9b 63  	.word	0x639b93f0
    5d60: 89 d2 78 3f  	.word	0x3f78d289
    5d64: 8f 78 8f c0  	.word	0xc08f788f
    5d68: 9f 4d 40 a1  	.word	0xa1404d9f
    5d6c: 2c a7 30 fe  	.word	0xfe30a72c
    5d70: 9d cc 65 cf  	.word	0xcf65cc9d
    5d74: fc 8b 77 f2  	.word	0xf2778bfc
    5d78: 21 20 cb 5a  	.word	0x5acb2021
    5d7c: 16 98 e4 7e  	.word	0x7ee49816
    5d80: c3 a1 11 91  	.word	0x9111a1c3
    5d84: e3 08 d5 7b  	.word	0x7bd508e3
    5d88: 89 74 90 80  	.word	0x80907489
    5d8c: d4 90 2b 2b  	.word	0x2b2b90d4
    5d90: 19 fd 72 ae  	.word	0xae72fd19
    5d94: c2 ae d2 e7  	.word	0xe7d2aec2
    5d98: a6 02 b6 85  	.word	0x85b602a6
    5d9c: 3c 49 df 0e  	.word	0x0edf493c
    5da0: 68 5a 9b 59  	.word	0x599b5a68
    5da4: 58 81 cc ae  	.word	0xaecc8158
    5da8: 0e e2 ad eb  	.word	0xebade20e
    5dac: 0f 4f 57 ea  	.word	0xea574f0f
    5db0: 07 7f b6 22  	.word	0x22b67f07
    5db4: 74 1d e4 4f  	.word	0x4fe41d74
    5db8: b4 4f 9d 01  	.word	0x019d4fb4
    5dbc: e3 92 3b 40  	.word	0x403b92e3
    5dc0: 13 41 76 84  	.word	0x84764113
    5dc4: d2 c4 67 67  	.word	0x6767c4d2
    5dc8: 35 f8 f5 f7  	.word	0xf7f5f835
    5dcc: 3f 40 90 a0  	.word	0xa090403f
    5dd0: de be e6 ca  	.word	0xcae6bede
    5dd4: fa cf 8f 1c  	.word	0x1c8fcffa
    5dd8: 69 a3 df d1  	.word	0xd1dfa369
    5ddc: 54 0c c0 04  	.word	0x04c00c54
    5de0: f8 5c 46 8b  	.word	0x8b465cf8
    5de4: 81 2f c2 4d  	.word	0x4dc22f81
    5de8: f8 ef 80 14  	.word	0x1480eff8
    5dec: 5a f3 a0 71  	.word	0x71a0f35a
    5df0: 57 d6 c7 04  	.word	0x04c7d657
    5df4: ad bf e8 ae  	.word	0xaee8bfad
    5df8: f4 76 61 b2  	.word	0xb26176f4
    5dfc: 2a b1 5b 35  	.word	0x355bb12a
    5e00: f4 bb 93 74  	.word	0x7493bbf4
    5e04: cc 64 1e a7  	.word	0xa71e64cc
    5e08: c3 b0 a3 ec  	.word	0xeca3b0c3
    5e0c: d9 84 bd e5  	.word	0xe5bd84d9
    5e10: 85 e7 05 fa  	.word	0xfa05e785
    5e14: 0c c5 6b 0a  	.word	0x0a6bc50c
    5e18: 12 c3 2e 18  	.word	0x182ec312
    5e1c: 32 81 9b 0f  	.word	0x0f9b8132
    5e20: 18 73 8c 5a  	.word	0x5a8c7318
    5e24: c7 da 01 a3  	.word	0xa301dac7
    5e28: 11 aa ce b3  	.word	0xb3ceaa11
    5e2c: 9d 03 90 ed  	.word	0xed90039d
    5e30: 2d 3f ae 3b  	.word	0x3bae3f2d
    5e34: bf 7c 07 6f  	.word	0x6f077cbf
    5e38: 8e ad 52 e0  	.word	0xe052ad8e
    5e3c: f8 ea 18 75  	.word	0x7518eaf8
    5e40: 32 6c 7f 1b  	.word	0x1b7f6c32
    5e44: c4 59 88 a4  	.word	0xa48859c4
    5e48: 98 32 38 f4  	.word	0xf4383298
    5e4c: bc 60 2d 0f  	.word	0x0f2d60bc
    5e50: d9 d1 b1 c9  	.word	0xc9b1d1d9
    5e54: 29 a9 15 18  	.word	0x1815a929
    5e58: c4 55 17 bb  	.word	0xbb1755c4
    5e5c: 1b 87 c3 47  	.word	0x47c3871b
    5e60: 48 4f ec 71  	.word	0x71ec4f48
    5e64: 97 53 44 51  	.word	0x51445397
    5e68: 6e 5d 8c c9  	.word	0xc98c5d6e
    5e6c: 7d b1 05 f8  	.word	0xf805b17d
    5e70: 6b c6 c3 47  	.word	0x47c3c66b
    5e74: 1a c1 62 f7  	.word	0xf762c11a
    5e78: dc 99 46 76  	.word	0x764699dc
    5e7c: 85 9b b8 00  	.word	0x00b89b85
    5e80: b0 66 50 c8  	.word	0xc85066b0
    5e84: 50 5d e6 fb  	.word	0xfbe65d50
    5e88: b0 99 a2 b3  	.word	0xb3a299b0
    5e8c: b0 c4 ec 62  	.word	0x62ecc4b0
    5e90: e0 e8 1a 44  	.word	0x441ae8e0
    5e94: ea 54 37 e5  	.word	0xe53754ea
    5e98: 5f 8d d4 e8  	.word	0xe8d48d5f
    5e9c: 2c a0 fe 08  	.word	0x08fea02c
    5ea0: d0 ea de 68  	.word	0x68deead0
    5ea4: 76 dd 4d 82  	.word	0x824ddd76
    5ea8: 23 5d 68 4b  	.word	0x4b685d23
    5eac: 20 45 64 c8  	.word	0xc8644520
    5eb0: 65 d6 89 5d  	.word	0x5d89d665
    5eb4: cd cf 14 b5  	.word	0xb514cfcd
    5eb8: 37 d5 75 4f  	.word	0x4f75d537
    5ebc: a7 29 38 47  	.word	0x473829a7
    5ec0: 18 c4 79 46  	.word	0x4679c418
    5ec4: 75 da d2 82  	.word	0x82d2da75
    5ec8: f0 8d 61 b2  	.word	0xb2618df0
    5ecc: d8 d7 3b e6  	.word	0xe63bd7d8
    5ed0: 0a eb 47 ac  	.word	0xac47eb0a
    5ed4: 24 ef 5e 35  	.word	0x355eef24
    5ed8: b4 c6 33 48  	.word	0x4833c6b4
    5edc: 4c 68 78 20  	.word	0x2078684c
    5ee0: c9 02 39 ad  	.word	0xad3902c9
    5ee4: 3a 53 d9 23  	.word	0x23d9533a
    5ee8: 8f 58 03 ef  	.word	0xef03588f
    5eec: ce dd c2 64  	.word	0x64c2ddce
    5ef0: b4 2f e1 cf  	.word	0xcfe12fb4
    5ef4: 90 73 25 15  	.word	0x15257390
    5ef8: 90 d3 e4 44  	.word	0x44e4d390
    5efc: 4d 8b 66 6c  	.word	0x6c668b4d
    5f00: 0c 82 78 7a  	.word	0x7a78820c
    5f04: 21 cf 48 3b  	.word	0x3b48cf21
    5f08: 97 3e 27 81  	.word	0x81273e97
    5f0c: b2 0a 6a f7  	.word	0xf76a0ab2
    5f10: 7b ed 8e 8c  	.word	0x8c8eed7b
    5f14: a7 65 6c a9  	.word	0xa96c65a7
    5f18: 3f 43 8a 4f  	.word	0x4f8a433f
    5f1c: 05 a6 11 74  	.word	0x7411a605
    5f20: 6d c8 9d b9  	.word	0xb99dc86d
    5f24: 32 9d 65 4d  	.word	0x4d659d32
    5f28: 15 f1 3a 60  	.word	0x603af115
    5f2c: 75 dc 4c 04  	.word	0x044cdc75
    5f30: 88 e4 c2 dc  	.word	0xdcc2e488
    5f34: 2c 71 4c b3  	.word	0xb34c712c
    5f38: ff 34 81 fb  	.word	0xfb8134ff
    5f3c: 74 65 13 7c  	.word	0x7c136574
    5f40: b4 75 b1 18  	.word	0x18b175b4
    5f44: 3d e5 9a 57  	.word	0x579ae53d
    5f48: 02 a1 92 f3  	.word	0xf392a102
    5f4c: 59 31 71 68  	.word	0x68713159
    5f50: f5 35 ef 1e  	.word	0x1eef35f5
    5f54: ba ec 55 84  	.word	0x8455ecba
    5f58: 8f 39 8c 45  	.word	0x458c398f
    5f5c: 72 a8 c9 1e  	.word	0x1ec9a872
    5f60: 9b 50 a2 00  	.word	0x00a2509b
    5f64: d4 a4 e6 b8  	.word	0xb8e6a4d4
    5f68: b4 82 c8 0b  	.word	0x0bc882b4
    5f6c: 02 d7 81 9b  	.word	0x9b81d702
    5f70: 61 75 95 f1  	.word	0xf1957561
    5f74: 9b cc e7 57  	.word	0x57e7cc9b
    5f78: 60 64 cd c7  	.word	0xc7cd6460
    5f7c: a5 88 dd 3a  	.word	0x3add88a5
    5f80: f2 dc 35 b6  	.word	0xb635dcf2
    5f84: 70 57 89 ab  	.word	0xab895770
    5f88: bc 1f 6c f6  	.word	0xf66c1fbc
    5f8c: 6c ef df 02  	.word	0x02dfef6c
    5f90: 87 d1 b6 be  	.word	0xbeb6d187
    5f94: 68 02 53 85  	.word	0x85530268
    5f98: 74 9e 87 cc  	.word	0xcc879e74
    5f9c: fc 29 99 24  	.word	0x249929fc
    5fa0: 46 30 39 59  	.word	0x59393046
    5fa4: d4 98 c2 85  	.word	0x85c298d4
    5fa8: ec 59 f6 5f  	.word	0x5ff659ec
    5fac: 98 35 7e 8f  	.word	0x8f7e3598
    5fb0: 3a 6e f6 f2  	.word	0xf2f66e3a
    5fb4: 2a a2 2c 1d  	.word	0x1d2ca22a
    5fb8: 20 a7 06 a4  	.word	0xa406a720
    5fbc: 31 11 ba 61  	.word	0x61ba1131
    5fc0: 29 90 95 16  	.word	0x16959029
    5fc4: f1 a0 d0 a3  	.word	0xa3d0a0f1
    5fc8: 89 bd 7e ba  	.word	0xba7ebd89
    5fcc: 6c 6b 3b 02  	.word	0x023b6b6c
    5fd0: 07 33 78 26  	.word	0x26783307
    5fd4: 3e 5a f1 7b  	.word	0x7bf15a3e
    5fd8: e7 ec d8 bb  	.word	0xbbd8ece7
    5fdc: 0c 31 20 56  	.word	0x5620310c
    5fe0: 43 d6 34 49  	.word	0x4934d643
    5fe4: 43 93 89 52  	.word	0x52899343
    5fe8: f5 22 12 a5  	.word	0xa51222f5
    5fec: 06 f8 db b9  	.word	0xb9dbf806
    5ff0: 22 1c f4 c3  	.word	0xc3f41c22
    5ff4: 8f 87 6d 8f  	.word	0x8f6d878f
    5ff8: 30 97 9d 4d  	.word	0x4d9d9730
    5ffc: 2a 6a 67 37  	.word	0x37676a2a
    6000: d6 85 e2 77  	.word	0x77e285d6
    6004: f4 b5 46 66  	.word	0x6646b5f4
    6008: 93 61 8f 6c  	.word	0x6c8f6193
    600c: 67 ff e8 40  	.word	0x40e8ff67
    6010: dd 94 b5 ab  	.word	0xabb594dd
    6014: 11 73 ec a6  	.word	0xa6ec7311
    6018: 4d ec 8c 65  	.word	0x658cec4d
    601c: f3 46 c8 7e  	.word	0x7ec846f3
    6020: c7 2e a2 1d  	.word	0x1da22ec7
    6024: 3f 8f 5e 9b  	.word	0x9b5e8f3f
    6028: 13 cd 01 6c  	.word	0x6c01cd13
    602c: 77 1d 0f 13  	.word	0x130f1d77
    6030: b8 9f 98 a2  	.word	0xa2989fb8
    6034: cf 8f 4c 21  	.word	0x214c8fcf
    6038: d5 9d 9b 39  	.word	0x399b9dd5
    603c: 23 f7 aa 6d  	.word	0x6daaf723
    6040: 64 85 62 10  	.word	0x10628564
    6044: 56 4a 1e 59  	.word	0x591e4a56
    6048: 34 df b4 a8  	.word	0xa8b4df34
    604c: 7c b8 4b 2a  	.word	0x2a4bb87c
    6050: 43 8e a3 e7  	.word	0xe7a38e43
    6054: 72 25 2a de  	.word	0xde2a2572
    6058: 6e 04 e5 fe  	.word	0xfee5046e
    605c: d9 ab bd 3c  	.word	0x3cbdabd9
    6060: 70 30 d1 2c  	.word	0x2cd13070
    6064: dd bb ae 81  	.word	0x81aebbdd
    6068: 9e 0e 5a f8  	.word	0xf85a0e9e
    606c: 25 43 2e 96  	.word	0x962e4325
    6070: cb fe df ca  	.word	0xcadffecb
    6074: aa 91 93 de  	.word	0xde9391aa
    6078: e6 30 c2 52  	.word	0x52c230e6
    607c: da 7f 17 53  	.word	0x53177fda
    6080: 79 de b9 50  	.word	0x50b9de79
    6084: 06 97 bc a7  	.word	0xa7bc9706
    6088: 9b b5 01 c3  	.word	0xc301b59b
    608c: fb a7 12 3d  	.word	0x3d12a7fb
    6090: 8c e3 6a d3  	.word	0xd36ae38c
    6094: 68 2e 65 02  	.word	0x02652e68
    6098: dc 99 61 5a  	.word	0x5a6199dc
    609c: 83 39 d7 79  	.word	0x79d73983
    60a0: bd c1 31 41  	.word	0x4131c1bd
    60a4: f6 4d 35 d9  	.word	0xd9354df6
    60a8: 22 58 ec 86  	.word	0x86ec5822
    60ac: a1 94 80 75  	.word	0x758094a1
    60b0: c2 f3 59 e4  	.word	0xe459f3c2
    60b4: 12 ee 64 44  	.word	0x4464ee12
    60b8: 82 32 13 cb  	.word	0xcb133282
    60bc: e4 fc 11 6c  	.word	0x6c11fce4
    60c0: 37 17 59 0d  	.word	0x0d591737
    60c4: 92 d9 c9 21  	.word	0x21c9d992
    60c8: d6 6c b4 e9  	.word	0xe9b46cd6
    60cc: d2 41 ea 9b  	.word	0x9bea41d2
    60d0: ca bf 89 0d  	.word	0x0d89bfca
    60d4: 20 84 0e e2  	.word	0xe20e8420
    60d8: f8 5f ae 6e  	.word	0x6eae5ff8
    60dc: 94 9f d9 79  	.word	0x79d99f94
    60e0: 05 32 67 68  	.word	0x68673205
    60e4: 35 48 7b f1  	.word	0xf17b4835
    60e8: 6c d9 aa 3c  	.word	0x3caad96c
    60ec: e8 ea 7d 38  	.word	0x387deae8
    60f0: 86 e3 ff 56  	.word	0x56ffe386
    60f4: fd 71 b4 61  	.word	0x61b471fd
    60f8: 99 a5 45 b7  	.word	0xb745a599
    60fc: 95 11 74 31  	.word	0x31741195
    6100: 0b 36 7a b7  	.word	0xb77a360b
    6104: 90 01 d1 e8  	.word	0xe8d10190
    6108: 02 e7 95 99  	.word	0x9995e702
    610c: 20 83 b9 99  	.word	0x99b98320
    6110: aa 47 02 fa  	.word	0xfa0247aa
    6114: f8 df 4f bd  	.word	0xbd4fdff8
    6118: 87 6a d3 e0  	.word	0xe0d36a87
    611c: 44 e3 72 27  	.word	0x2772e344
    6120: 47 a0 02 3b  	.word	0x3b02a047
    6124: 68 ba f8 17  	.word	0x17f8ba68
    6128: c8 b6 ef fe  	.word	0xfeefb6c8
    612c: 96 20 21 50  	.word	0x50212096
    6130: e2 cb 56 15  	.word	0x1556cbe2
    6134: e2 9b 13 70  	.word	0x70139be2
    6138: 5b 91 98 1d  	.word	0x1d98915b
    613c: a1 44 3e 20  	.word	0x203e44a1
    6140: 9f e3 b9 37  	.word	0x37b9e39f
    6144: ba 3e 86 d6  	.word	0xd6863eba
    6148: 23 5a 3b 72  	.word	0x723b5a23
    614c: 69 c1 5b 10  	.word	0x105bc169
    6150: 62 07 5c a6  	.word	0xa65c0762
    6154: 59 64 4f 10  	.word	0x104f6459
    6158: d4 38 4d 5b  	.word	0x5b4d38d4
    615c: 29 51 79 56  	.word	0x56795129
    6160: 24 75 03 13  	.word	0x13037524
    6164: 06 d6 5f 53  	.word	0x535fd606
    6168: 6a c2 fb b0  	.word	0xb0fbc26a
    616c: f6 ad 10 e2  	.word	0xe210adf6
    6170: ae 90 e9 23  	.word	0x23e990ae
    6174: 9b 0a 8d ac  	.word	0xac8d0a9b
    6178: f9 db 2f d7  	.word	0xd72fdbf9
    617c: 08 4d 20 47  	.word	0x47204d08
    6180: 7f 49 4b 0d  	.word	0x0d4b497f
    6184: b3 2e 24 07  	.word	0x07242eb3
    6188: 87 cc bc b9  	.word	0xb9bccc87
    618c: 06 63 f9 1e  	.word	0x1ef96306
    6190: 45 6f 11 d8  	.word	0xd8116f45
    6194: 34 09 95 37  	.word	0x37950934
    6198: 04 5b 40 01  	.word	0x01405b04
    619c: 62 8d 46 05  	.word	0x05468d62
    61a0: de 67 32 f9  	.word	0xf93267de
    61a4: a9 65 f5 00  	.word	0x00f565a9
    61a8: 8a 8e d5 c0  	.word	0xc0d58e8a
    61ac: 8d d7 cf ce  	.word	0xcecfd78d
    61b0: 8e e2 18 f3  	.word	0xf318e28e
    61b4: dc e2 15 a2  	.word	0xa215e2dc
    61b8: 52 33 63 9b  	.word	0x9b633352
    61bc: 91 ee 99 45  	.word	0x4599ee91
    61c0: 6b e7 e0 70  	.word	0x70e0e76b
    61c4: ca 20 c2 d3  	.word	0xd3c220ca
    61c8: 94 30 9f ea  	.word	0xea9f3094
    61cc: 58 ea 2b b1  	.word	0xb12bea58
    61d0: 82 12 27 c3  	.word	0xc3271282
    61d4: c8 de 4d 29  	.word	0x294ddec8
    61d8: 28 d0 d1 a1  	.word	0xa1d1d028
    61dc: e1 39 35 0c  	.word	0x0c3539e1
    61e0: 79 e5 1a 86  	.word	0x861ae579
    61e4: 6b 6d 74 ac  	.word	0xac746d6b
    61e8: dc a9 ae f6  	.word	0xf6aea9dc
    61ec: 50 06 ab 31  	.word	0x31ab0650
    61f0: 4c 6d 25 40  	.word	0x40256d4c
    61f4: 11 66 1d 24  	.word	0x241d6611
    61f8: de a5 21 3d  	.word	0x3d21a5de
    61fc: 85 5e 48 2f  	.word	0x2f485e85
    6200: f3 33 08 9c  	.word	0x9c0833f3
    6204: 83 44 97 32  	.word	0x32974483
    6208: 84 c4 ab d2  	.word	0xd2abc484
    620c: 7f 25 e6 6f  	.word	0x6fe6257f
    6210: 17 88 35 4b  	.word	0x4b358817
    6214: 81 d1 27 53  	.word	0x5327d181
    6218: bc e9 3f 89  	.word	0x893fe9bc
    621c: 85 25 71 65  	.word	0x65712585
    6220: 61 11 a6 32  	.word	0x32a61161
    6224: b7 2f 10 9c  	.word	0x9c102fb7
    6228: a8 20 d5 34  	.word	0x34d520a8
    622c: dd 10 8e e4  	.word	0xe48e10dd
    6230: 76 91 9a 6f  	.word	0x6f9a9176
    6234: 54 63 5c 36  	.word	0x365c6354
    6238: 06 60 6f 04  	.word	0x046f6006
    623c: 4c fe f6 32  	.word	0x32f6fe4c
    6240: 3f ee 08 d7  	.word	0xd708ee3f
    6244: 1b 9f c2 81  	.word	0x81c29f1b
    6248: d0 07 64 ae  	.word	0xae6407d0
    624c: 05 5a cb dd  	.word	0xddcb5a05
    6250: a7 eb a3 d2  	.word	0xd2a3eba7
    6254: d7 c1 ae 97  	.word	0x97aec1d7
    6258: 31 08 d5 91  	.word	0x91d50831
    625c: 1a 52 90 15  	.word	0x1590521a
    6260: cc 0a 91 c7  	.word	0xc7910acc
    6264: 1e a1 a3 40  	.word	0x40a3a11e
    6268: ae 27 6d f1  	.word	0xf16d27ae
    626c: f8 df 13 90  	.word	0x9013dff8
    6270: d4 95 b1 ab  	.word	0xabb195d4
    6274: d8 20 97 1a  	.word	0x1a9720d8
    6278: 63 84 a9 2e  	.word	0x2ea98463
    627c: 45 fe b9 1b  	.word	0x1bb9fe45
    6280: 9e 4f d5 b3  	.word	0xb3d54f9e
    6284: 50 d9 d1 e9  	.word	0xe9d1d950
    6288: c1 33 0d e0  	.word	0xe00d33c1
    628c: be 9c 5f 2d  	.word	0x2d5f9cbe
    6290: ac c6 4f a0  	.word	0xa04fc6ac
    6294: 56 c6 c2 51  	.word	0x51c2c656
    6298: c9 bc 1c 3c  	.word	0x3c1cbcc9
    629c: ee 91 c0 65  	.word	0x65c091ee
    62a0: 7c 74 36 cc  	.word	0xcc36747c
    62a4: 95 6c 5e cf  	.word	0xcf5e6c95
    62a8: 0d c3 0b 6b  	.word	0x6b0bc30d
    62ac: 53 01 42 29  	.word	0x29420153
    62b0: f0 7a 79 ee  	.word	0xee797af0
    62b4: 7c c6 3a 45  	.word	0x453ac67c
    62b8: c9 b3 8b 2a  	.word	0x2a8bb3c9
    62bc: b3 6a ae 5e  	.word	0x5eae6ab3
    62c0: ea 18 f1 14  	.word	0x14f118ea
    62c4: 11 66 83 70  	.word	0x70836611
    62c8: ad 9c 34 94  	.word	0x94349cad
    62cc: 7b b8 37 2b  	.word	0x2b37b87b
    62d0: 40 9f e9 b4  	.word	0xb4e99f40
    62d4: 1c f5 73 72  	.word	0x7273f51c
    62d8: 98 56 d7 23  	.word	0x23d75698
    62dc: 58 a9 a2 78  	.word	0x78a2a958
    62e0: ce 2a 8c 5c  	.word	0x5c8c2ace
    62e4: e9 72 b0 a2  	.word	0xa2b072e9
    62e8: 4b 9c 1e 65  	.word	0x651e9c4b
    62ec: 96 fc cf 69  	.word	0x69cffc96
    62f0: 2b b4 e7 42  	.word	0x42e7b42b
    62f4: f8 8e 32 44  	.word	0x44328ef8
    62f8: b3 de aa 22  	.word	0x22aadeb3
    62fc: c1 96 d9 5d  	.word	0x5dd996c1
    6300: 07 32 f8 5e  	.word	0x5ef83207
    6304: 42 3c f2 b4  	.word	0xb4f23c42
    6308: b5 34 a9 c9  	.word	0xc9a934b5
    630c: d3 94 f8 ab  	.word	0xabf894d3
    6310: f7 87 fd 39  	.word	0x39fd87f7
    6314: 13 8c 70 d0  	.word	0xd0708c13
    6318: 30 61 16 17  	.word	0x17166130
    631c: 91 78 76 18  	.word	0x18767891
    6320: 7c 50 0c 67  	.word	0x670c507c
    6324: f0 5e 5b 92  	.word	0x925b5ef0
    6328: bf 33 3c b9  	.word	0xb93c33bf
    632c: 42 c8 9b 81  	.word	0x819bc842
    6330: 3f 00 dd 70  	.word	0x70dd003f
    6334: 9a 2e 79 10  	.word	0x10792e9a
    6338: 74 dc 28 6e  	.word	0x6e28dc74
    633c: 7a 4b ad 59  	.word	0x59ad4b7a
    6340: 47 be 3d eb  	.word	0xeb3dbe47
    6344: 62 75 3a 5f  	.word	0x5f3a7562
    6348: b8 a0 bd 8e  	.word	0x8ebda0b8
    634c: 54 38 ea f7  	.word	0xf7ea3854
    6350: 99 72 74 45  	.word	0x45747299
    6354: 31 e5 c3 00  	.word	0x00c3e531
    6358: 51 d5 27 16  	.word	0x1627d551
    635c: e7 e9 04 13  	.word	0x1304e9e7
    6360: a2 8e ad ac  	.word	0xacad8ea2
    6364: bf 04 3b 58  	.word	0x583b04bf
    6368: 84 e8 8b 14  	.word	0x148be884
    636c: e8 43 b7 29  	.word	0x29b743e8
    6370: db c5 10 08  	.word	0x0810c5db
    6374: 3b 58 1e 2b  	.word	0x2b1e583b
    6378: aa bb b3 8e  	.word	0x8eb3bbaa
    637c: e5 49 54 2b  	.word	0x2b5449e5
    6380: fe 9c dc 6a  	.word	0x6adc9cfe
    6384: d2 14 98 78  	.word	0x789814d2
    6388: 0b dd 48 8b  	.word	0x8b48dd0b
    638c: 3f ab 1b 3c  	.word	0x3c1bab3f
    6390: 0a c6 79 f9  	.word	0xf979c60a
    6394: ff e1 0f da  	.word	0xda0fe1ff
    6398: 93 d6 2d 7c  	.word	0x7c2dd693
    639c: 2d de 68 44  	.word	0x4468de2d
    63a0: 9e 46 19 94  	.word	0x9419469e
    63a4: 5e 35 bb 51  	.word	0x51bb355e
    63a8: 54 c7 dd 23  	.word	0x23ddc754
    63ac: 4c dc e6 33  	.word	0x33e6dc4c
    63b0: 62 99 7f 44  	.word	0x447f9962
    63b4: d6 b6 a5 93  	.word	0x93a5b6d6
    63b8: 63 bd 44 fb  	.word	0xfb44bd63
    63bc: 6f 7c ce 6c  	.word	0x6cce7c6f
    63c0: ce 07 63 f8  	.word	0xf86307ce
    63c4: c6 d8 9a 4b  	.word	0x4b9ad8c6
    63c8: 28 0c 5d 43  	.word	0x435d0c28
    63cc: 31 35 11 21  	.word	0x21113531
    63d0: 2c 77 7a 65  	.word	0x657a772c
    63d4: c5 66 a8 d4  	.word	0xd4a866c5
    63d8: 52 73 24 63  	.word	0x63247352
    63dc: 7e 42 a6 5d  	.word	0x5da6427e
    63e0: ca 22 ac de  	.word	0xdeac22ca
    63e4: 88 c6 94 1a  	.word	0x1a94c688
    63e8: f8 1f ae bb  	.word	0xbbae1ff8
    63ec: f7 6e 06 b9  	.word	0xb9066ef7
    63f0: 0f 58 59 8d  	.word	0x8d59580f
    63f4: 38 8c ad 88  	.word	0x88ad8c38
    63f8: a8 2c 9f e7  	.word	0xe79f2ca8
    63fc: bf 9a f2 58  	.word	0x58f29abf
    6400: 68 3e e7 8d  	.word	0x8de73e68
    6404: ab cf 0e e9  	.word	0xe90ecfab
    6408: a5 76 7e 37  	.word	0x377e76a5
    640c: 9f 6f 03 54  	.word	0x54036f9f
    6410: 82 59 01 be  	.word	0xbe015982
    6414: 0b 5b 49 f0  	.word	0xf0495b0b
    6418: 36 1e f4 a7  	.word	0xa7f41e36
    641c: c4 29 76 57  	.word	0x577629c4
    6420: f6 cd 0e 71  	.word	0x710ecdf6
    6424: bf 64 5a 4b  	.word	0x4b5a64bf
    6428: 3c 29 2c 46  	.word	0x462c293c
    642c: 38 e5 4c b1  	.word	0xb14ce538
    6430: b9 3a 0b d5  	.word	0xd50b3ab9
    6434: 56 d0 43 36  	.word	0x3643d056
    6438: 70 48 5b 18  	.word	0x185b4870
    643c: 24 37 f9 6a  	.word	0x6af93724
    6440: 88 a8 c6 09  	.word	0x09c6a888
    6444: 45 02 20 32  	.word	0x32200245
    6448: 73 89 55 4b  	.word	0x4b558973
    644c: 13 36 e0 d2  	.word	0xd2e03613
    6450: 9f 28 33 3c  	.word	0x3c33289f
    6454: 23 36 e2 83  	.word	0x83e23623
    6458: 8f c1 ae 0c  	.word	0x0caec18f
    645c: bb 25 1f 70  	.word	0x701f25bb
    6460: ed 6c 61 e4  	.word	0xe4616ced
    6464: f8 b0 a8 c3  	.word	0xc3a8b0f8
    6468: 7d a8 25 9e  	.word	0x9e25a87d
    646c: 0e 66 00 f7  	.word	0xf700660e
    6470: 9c a5 bc f4  	.word	0xf4bca59c
    6474: 1f 06 e3 61  	.word	0x61e3061f
    6478: e9 0b c4 bd  	.word	0xbdc40be9
    647c: bf 92 0c 2e  	.word	0x2e0c92bf
    6480: 13 c1 be 7c  	.word	0x7cbec113
    6484: d9 f6 18 9d  	.word	0x9d18f6d9
    6488: e4 db bf 74  	.word	0x74bfdbe4
    648c: e6 06 4a 84  	.word	0x844a06e6
    6490: d6 60 4e ac  	.word	0xac4e60d6
    6494: 22 b5 f5 20  	.word	0x20f5b522
    6498: 51 5e 95 50  	.word	0x50955e51
    649c: c0 5b 0a 72  	.word	0x720a5bc0
    64a0: 35 5a 80 9b  	.word	0x9b805a35
    64a4: 43 09 3f 0c  	.word	0x0c3f0943
    64a8: fc ab 42 62  	.word	0x6242abfc
    64ac: 37 8b 4e e8  	.word	0xe84e8b37
    64b0: 46 93 22 5c  	.word	0x5c229346
    64b4: f3 17 14 69  	.word	0x691417f3
    64b8: ec f0 4e 14  	.word	0x144ef0ec
    64bc: bb 9c 9b 0e  	.word	0x0e9b9cbb
    64c0: ad 20 57 fb  	.word	0xfb5720ad
    64c4: 8f d4 ba fb  	.word	0xfbbad48f
    64c8: 0e 0d f9 db  	.word	0xdbf90d0e
    64cc: 6b 91 81 ee  	.word	0xee81916b
    64d0: bf 43 55 63  	.word	0x635543bf
    64d4: 52 31 81 d4  	.word	0xd4813152
    64d8: d8 7b 33 3f  	.word	0x3f337bd8
    64dc: eb 04 11 22  	.word	0x221104eb
    64e0: ee be b1 5d  	.word	0x5db1beee
    64e4: d5 9b ee 8d  	.word	0x8dee9bd5
    64e8: b9 3f 72 0a  	.word	0x0a723fb9
    64ec: 37 ab c3 c9  	.word	0xc9c3ab37
    64f0: 91 d7 68 1c  	.word	0x1c68d791
    64f4: bf f1 a8 44  	.word	0x44a8f1bf
    64f8: de 3c fd 1c  	.word	0x1cfd3cde
    64fc: 19 44 6d 36  	.word	0x366d4419
    6500: 14 8c bc f2  	.word	0xf2bc8c14
    6504: 43 17 3c 9e  	.word	0x9e3c1743
    6508: 3b 6c 85 b5  	.word	0xb5856c3b
    650c: fc 26 da 2e  	.word	0x2eda26fc
    6510: 97 fb a7 68  	.word	0x68a7fb97
    6514: 0e 2f b8 cc  	.word	0xccb82f0e
    6518: 44 32 59 bc  	.word	0xbc593244
    651c: e6 a4 67 41  	.word	0x4167a4e6
    6520: 00 27 f6 76  	.word	0x76f62700
    6524: 28 9d 3b 64  	.word	0x643b9d28
    6528: eb 68 76 0e  	.word	0x0e7668eb
    652c: 40 9d 1d 5d  	.word	0x5d1d9d40
    6530: 84 06 fc 21  	.word	0x21fc0684
    6534: 03 43 4b 1b  	.word	0x1b4b4303
    6538: 6a 24 55 22  	.word	0x2255246a
    653c: 7e bb 38 79  	.word	0x7938bb7e
    6540: ee 8f ce f8  	.word	0xf8ce8fee
    6544: 65 26 be c2  	.word	0xc2be2665
    6548: 2c d6 80 e8  	.word	0xe880d62c
    654c: 14 ff 67 e9  	.word	0xe967ff14
    6550: ee 4e 36 2f  	.word	0x2f364eee
    6554: 7e 6e 2e f1  	.word	0xf12e6e7e
    6558: f6 d2 7e cb  	.word	0xcb7ed2f6
    655c: 70 33 b3 34  	.word	0x34b33370
    6560: cc d6 81 86  	.word	0x8681d6cc
    6564: ee 91 c5 cd  	.word	0xcdc591ee
    6568: 53 a7 85 ed  	.word	0xed85a753
    656c: 9c 10 02 ce  	.word	0xce02109c
    6570: 83 88 80 58  	.word	0x58808883
    6574: c1 85 74 ed  	.word	0xed7485c1
    6578: e4 65 fe 2d  	.word	0x2dfe65e4
    657c: 6e fc 76 11  	.word	0x1176fc6e
    6580: 9b 61 9c 5b  	.word	0x5b9c619b
    6584: d0 6c af b4  	.word	0xb4af6cd0
    6588: 80 84 a5 b2  	.word	0xb2a58480
    658c: f4 c9 df 2d  	.word	0x2ddfc9f4
    6590: c4 4d e9 eb  	.word	0xebe94dc4
    6594: 02 a5 4f 3d  	.word	0x3d4fa502
    6598: 34 5f 7d 67  	.word	0x677d5f34
    659c: 4c 3a fc 08  	.word	0x08fc3a4c
    65a0: b8 0e 77 49  	.word	0x49770eb8
    65a4: 89 e2 90 db  	.word	0xdb90e289
    65a8: a3 40 f4 ac  	.word	0xacf440a3
    65ac: 2a cc fb 98  	.word	0x98fbcc2a
    65b0: 9b 87 d7 de  	.word	0xded7879b
    65b4: fe 4f 35 21  	.word	0x21354ffe
    65b8: b6 06 69 f2  	.word	0xf26906b6
    65bc: 54 3e 6a 1f  	.word	0x1f6a3e54
    65c0: ea 34 07 d3  	.word	0xd30734ea
    65c4: 99 c1 a4 60  	.word	0x60a4c199
    65c8: d6 5c 16 31  	.word	0x31165cd6
    65cc: b6 85 c0 40  	.word	0x40c085b6
    65d0: 95 82 59 f7  	.word	0xf7598295
    65d4: 23 3e 33 e2  	.word	0xe2333e23
    65d8: d1 00 b9 16  	.word	0x16b900d1
    65dc: 01 ad 2f 4f  	.word	0x4f2fad01
    65e0: 54 4e ae 94  	.word	0x94ae4e54
    65e4: 41 b2 be 44  	.word	0x44beb241
    65e8: 6c ef 57 18  	.word	0x1857ef6c
    65ec: 51 1c 54 5f  	.word	0x5f541c51
    65f0: 98 04 8d 36  	.word	0x368d0498
    65f4: 2d 6b 1e a6  	.word	0xa61e6b2d
    65f8: ab f7 2e 97  	.word	0x972ef7ab
    65fc: a4 84 54 44  	.word	0x445484a4
    6600: 38 b6 3b b7  	.word	0xb73bb638
    6604: 1d d9 2c 96  	.word	0x962cd91d
    6608: 08 9c 12 fc  	.word	0xfc129c08
    660c: aa 77 05 e6  	.word	0xe60577aa
    6610: 89 16 b6 f3  	.word	0xf3b61689
    6614: 39 9b 61 6f  	.word	0x6f619b39
    6618: 81 ee 44 29  	.word	0x2944ee81
    661c: 5f 99 51 34  	.word	0x3451995f
    6620: 7c 7d ea 9f  	.word	0x9fea7d7c
    6624: d0 fc 52 91  	.word	0x9152fcd0
    6628: f6 5c 93 b0  	.word	0xb0935cf6
    662c: 94 6c 81 4a  	.word	0x4a816c94
    6630: 40 5c 28 47  	.word	0x47285c40
    6634: aa 9a 8e 25  	.word	0x258e9aaa
    6638: b7 93 28 04  	.word	0x042893b7
    663c: a6 9c b8 10  	.word	0x10b89ca6
    6640: 25 60 64 3b  	.word	0x3b646025
    6644: 6e 42 2a 9b  	.word	0x9b2a426e
    6648: cf e4 5c 38  	.word	0x385ce4cf
    664c: 90 71 12 32  	.word	0x32127190
    6650: 45 ea 6d dd  	.word	0xdd6dea45
    6654: c2 ff 5c a2  	.word	0xa25cffc2
    6658: 75 de a8 be  	.word	0xbea8de75
    665c: 10 90 40 06  	.word	0x06409010
    6660: a0 4a d3 79  	.word	0x79d34aa0
    6664: d6 de 7c d6  	.word	0xd67cded6
    6668: 9f b3 4d cc  	.word	0xcc4db39f
    666c: c0 9e 0b cc  	.word	0xcc0b9ec0
    6670: 0f 19 5d e3  	.word	0xe35d190f
    6674: 56 a4 35 a5  	.word	0xa535a456
    6678: ef 6f 1f f6  	.word	0xf61f6fef
    667c: ea d9 05 2e  	.word	0x2e05d9ea
    6680: 59 eb 1b d6  	.word	0xd61beb59
    6684: 1a 90 47 c4  	.word	0xc447901a
    6688: 0a 88 dc e5  	.word	0xe5dc880a
    668c: bc 19 1f 66  	.word	0x661f19bc
    6690: 27 68 ca b7  	.word	0xb7ca6827
    6694: 82 54 68 24  	.word	0x24685482
    6698: 26 7f e0 ef  	.word	0xefe07f26
    669c: 8c 77 3c 29  	.word	0x293c778c
    66a0: 96 90 06 07  	.word	0x07069096
    66a4: 70 9e 80 86  	.word	0x86809e70
    66a8: 89 01 e5 e4  	.word	0xe4e50189
    66ac: 15 5b d7 aa  	.word	0xaad75b15
    66b0: 47 01 1a a2  	.word	0xa21a0147
    66b4: 15 57 f3 07  	.word	0x07f35715
    66b8: 5e 5d 81 12  	.word	0x12815d5e
    66bc: f1 f3 87 04  	.word	0x0487f3f1
    66c0: 00 f2 1f a1  	.word	0xa11ff200
    66c4: d6 95 c7 16  	.word	0x16c795d6
    66c8: c9 15 58 b1  	.word	0xb15815c9
    66cc: e2 d0 70 cb  	.word	0xcb70d0e2
    66d0: b5 95 53 9b  	.word	0x9b5395b5
    66d4: 20 93 f2 89  	.word	0x89f29320
    66d8: 4f 7b e4 31  	.word	0x31e47b4f
    66dc: d0 c2 b8 50  	.word	0x50b8c2d0
    66e0: 62 49 8a 06  	.word	0x068a4962
    66e4: 08 0c 35 48  	.word	0x48350c08
    66e8: 9a 2c 09 51  	.word	0x51092c9a
    66ec: 53 d0 fd 6f  	.word	0x6ffdd053
    66f0: dd c8 6f af  	.word	0xaf6fc8dd
    66f4: 4a 4f af 17  	.word	0x17af4f4a
    66f8: 8b a5 db 3c  	.word	0x3cdba58b
    66fc: b5 53 05 4b  	.word	0x4b0553b5
    6700: 79 ff 32 1b  	.word	0x1b32ff79
    6704: be fc 65 9c  	.word	0x9c65fcbe
    6708: 9b 0f b5 03  	.word	0x03b50f9b
    670c: 9f ea 75 eb  	.word	0xeb75ea9f
    6710: 06 e6 07 6c  	.word	0x6c07e606
    6714: 6c 2a ed fc  	.word	0xfced2a6c
    6718: 08 79 71 51  	.word	0x51717908
    671c: d5 6c 10 35  	.word	0x35106cd5
    6720: d4 52 c1 27  	.word	0x27c152d4
    6724: 1b 21 05 bf  	.word	0xbf05211b
    6728: 39 f6 1a bd  	.word	0xbd1af639
    672c: 49 68 c2 5e  	.word	0x5ec26849
    6730: 98 ab 6f 8e  	.word	0x8e6fab98
    6734: aa 2c 0b 5e  	.word	0x5e0b2caa
    6738: 40 08 bd 50  	.word	0x50bd0840
    673c: dd 8b 4c 05  	.word	0x054c8bdd
    6740: 3d 07 cf 1d  	.word	0x1dcf073d
    6744: 2f b1 a0 38  	.word	0x38a0b12f
    6748: 76 a2 f6 b7  	.word	0xb7f6a276
    674c: a3 a8 60 4b  	.word	0x4b60a8a3
    6750: 9a 4f 40 d3  	.word	0xd3404f9a
    6754: 25 ac d5 fe  	.word	0xfed5ac25
    6758: 29 c2 05 55  	.word	0x5505c229
    675c: 5e 2d e8 72  	.word	0x72e82d5e
    6760: c8 44 d8 f0  	.word	0xf0d844c8
    6764: 7f 69 0b 6b  	.word	0x6b0b697f
    6768: 49 cb 79 d9  	.word	0xd979cb49
    676c: 5c f8 12 bb  	.word	0xbb12f85c
    6770: 1f 0f da c1  	.word	0xc1da0f1f
    6774: c6 41 a5 d2  	.word	0xd2a541c6
    6778: 11 72 ce 58  	.word	0x58ce7211
    677c: 29 24 7c 7b  	.word	0x7b7c2429
    6780: 02 1d 77 69  	.word	0x69771d02
    6784: fd cd d9 00  	.word	0x00d9cdfd
    6788: 7e f1 fb 6c  	.word	0x6cfbf17e
    678c: cd 76 02 41  	.word	0x410276cd
    6790: c7 2e b1 1c  	.word	0x1cb12ec7
    6794: 6c 30 45 4c  	.word	0x4c45306c
    6798: 61 08 50 27  	.word	0x27500861
    679c: 16 bf 57 28  	.word	0x2857bf16
    67a0: 9e 68 01 01  	.word	0x0101689e
    67a4: 3f 90 21 9f  	.word	0x9f21903f
    67a8: 05 10 86 bf  	.word	0xbf861005
    67ac: d3 df 79 d7  	.word	0xd779dfd3
    67b0: 1b 0f eb 3d  	.word	0x3deb0f1b
    67b4: 5f ee 22 a1  	.word	0xa122ee5f
    67b8: d4 00 5a 48  	.word	0x485a00d4
    67bc: 4b f8 0d 51  	.word	0x510df84b
    67c0: fa a1 77 92  	.word	0x9277a1fa
    67c4: bb 33 41 a5  	.word	0xa54133bb
    67c8: 37 12 99 63  	.word	0x63991237
    67cc: 62 3b ec 74  	.word	0x74ec3b62
    67d0: 5a f1 d2 35  	.word	0x35d2f15a
    67d4: dc 54 3c 1a  	.word	0x1a3c54dc
    67d8: 3a ba 82 e4  	.word	0xe482ba3a
    67dc: 44 71 34 2d  	.word	0x2d347144
    67e0: 5e c1 0a c7  	.word	0xc70ac15e
    67e4: 87 c8 b3 24  	.word	0x24b3c887
    67e8: 32 b7 81 fb  	.word	0xfb81b732
    67ec: 57 a5 f3 b0  	.word	0xb0f3a557
    67f0: 1b cc 78 e5  	.word	0xe578cc1b
    67f4: 2f de 2c 9b  	.word	0x9b2cde2f
    67f8: 8e 4f b5 03  	.word	0x03b54f8e
    67fc: 07 ed f7 4c  	.word	0x4cf7ed07
    6800: 0f ee fb 98  	.word	0x98fbee0f
    6804: 65 7c d4 6b  	.word	0x6bd47c65
    6808: 2d be 55 ab  	.word	0xab55be2d
    680c: e2 33 47 9e  	.word	0x9e4733e2
    6810: c5 10 76 12  	.word	0x127610c5
    6814: 24 f6 93 10  	.word	0x1093f624
    6818: a4 ea a1 d0  	.word	0xd0a1eaa4
    681c: 6a e2 05 4e  	.word	0x4e05e26a
    6820: 20 1f 53 4b  	.word	0x4b531f20
    6824: 62 6b 9b da  	.word	0xda9b6b62
    6828: bb 9a 50 77  	.word	0x77509abb
    682c: 0e 76 9a 42  	.word	0x429a760e
    6830: 80 cb 23 e8  	.word	0xe823cb80
    6834: 22 f5 e9 db  	.word	0xdbe9f522
    6838: 82 8f 0c 88  	.word	0x880c8f82
    683c: 56 18 8f 61  	.word	0x618f1856
    6840: c0 e6 8f e1  	.word	0xe18fe6c0
    6844: 73 c7 33 18  	.word	0x1833c773
    6848: 65 72 c8 d3  	.word	0xd3c87265
    684c: 1a 71 c4 e3  	.word	0xe3c4711a
    6850: 83 b2 16 01  	.word	0x0116b283
    6854: 4f 3c fd 3b  	.word	0x3bfd3c4f
    6858: b8 4d cd b4  	.word	0xb4cd4db8
    685c: 5e 87 55 19  	.word	0x1955875e
    6860: 99 97 39 0e  	.word	0x0e399799
    6864: 8f de a6 6d  	.word	0x6da6de8f
    6868: 78 a1 fd 40  	.word	0x40fda178
    686c: a4 1a d6 7a  	.word	0x7ad61aa4
    6870: dd 63 35 5e  	.word	0x5e3563dd
    6874: 10 d8 2c b3  	.word	0xb32cd810
    6878: ae 40 e3 2a  	.word	0x2ae340ae
    687c: ae be f6 15  	.word	0x15f6beae
    6880: 62 3a ec 31  	.word	0x31ec3a62
    6884: 0c cb 2b 86  	.word	0x862bcb0c
    6888: c2 f3 38 11  	.word	0x1138f3c2
    688c: 45 2b 0e 81  	.word	0x810e2b45
    6890: a4 c2 da 39  	.word	0x39dac2a4
    6894: b8 c4 8e 78  	.word	0x788ec4b8
    6898: 81 92 2a ae  	.word	0xae2a9281
    689c: 67 68 f7 28  	.word	0x28f76867
    68a0: 15 e2 45 92  	.word	0x9245e215
    68a4: 7b 0f 9a ba  	.word	0xba9a0f7b
    68a8: bb 0d 8c d9  	.word	0xd98c0dbb
    68ac: 2d 61 68 f3  	.word	0xf368612d
    68b0: 20 b0 20 f2  	.word	0xf220b020
    68b4: cb e4 84 2e  	.word	0x2e84e4cb
    68b8: da 0e d9 62  	.word	0x62d90eda
    68bc: e9 2f a9 6b  	.word	0x6ba92fe9
    68c0: aa e2 84 58  	.word	0x5884e2aa
    68c4: 65 f9 4d 3e  	.word	0x3e4df965
    68c8: a5 65 d4 db  	.word	0xdbd465a5
    68cc: db fb 62 bd  	.word	0xbd62fbdb
    68d0: 24 e5 e9 0d  	.word	0x0de9e524
    68d4: aa 6c 59 d7  	.word	0xd7596caa
    68d8: d7 b3 b1 b2  	.word	0xb2b1b3d7
    68dc: cc 42 80 6e  	.word	0x6e8042cc
    68e0: 6e ca 28 ce  	.word	0xce28ca6e
    68e4: 29 3c 0d f1  	.word	0xf10d3c29
    68e8: 3d 09 b6 fc  	.word	0xfcb6093d
    68ec: 40 45 d3 ba  	.word	0xbad34540
    68f0: 3f 2d ea a2  	.word	0xa2ea2d3f
    68f4: d7 6e 42 e7  	.word	0xe7426ed7
    68f8: b9 98 f2 4f  	.word	0x4ff298b9
    68fc: 4e 9d af 08  	.word	0x08af9d4e
    6900: 7e 1f 52 16  	.word	0x16521f7e
    6904: 36 65 30 15  	.word	0x15306536
    6908: ba 3d 20 96  	.word	0x96203dba
    690c: b8 06 0d 66  	.word	0x660d06b8
    6910: 79 08 5f 54  	.word	0x545f0879
    6914: bc 89 39 2d  	.word	0x2d3989bc
    6918: b0 d7 eb 78  	.word	0x78ebd7b0
    691c: af 03 53 4b  	.word	0x4b5303af
    6920: e8 bd bc be  	.word	0xbebcbde8
    6924: c3 a6 f8 72  	.word	0x72f8a6c3
    6928: 89 8e 3a dc  	.word	0xdc3a8e89
    692c: 4a ca 0f 4f  	.word	0x4f0fca4a
    6930: 7a df bf c7  	.word	0xc7bfdf7a
    6934: e8 d4 a9 6f  	.word	0x6fa9d4e8
    6938: b7 4e 62 9b  	.word	0x9b624eb7
    693c: 67 2d cf 0d  	.word	0x0dcf2d67
    6940: 9c 28 18 97  	.word	0x9718289c
    6944: 49 47 59 3d  	.word	0x3d594749
    6948: 26 3f 53 24  	.word	0x24533f26
    694c: c5 f8 eb 12  	.word	0x12ebf8c5
    6950: 15 ef c3 14  	.word	0x14c3ef15
    6954: cb bf 62 02  	.word	0x0262bfcb
    6958: 8e 51 b7 77  	.word	0x77b7518e
    695c: d5 78 b8 20  	.word	0x20b878d5
    6960: 6e f0 45 5a  	.word	0x5a45f06e
    6964: be 41 39 75  	.word	0x753941be
    6968: 65 5f 9c 6d  	.word	0x6d9c5f65
    696c: ed ae 7c d0  	.word	0xd07caeed
    6970: b6 51 ff 72  	.word	0x72ff51b6
    6974: 9c 6b 77 11  	.word	0x11776b9c
    6978: a9 4d 0d ef  	.word	0xef0d4da9
    697c: d9 d1 d2 17  	.word	0x17d2d1d9
    6980: 6a 3e 3f 07  	.word	0x073f3e6a
    6984: 18 af f2 27  	.word	0x27f2af18
    6988: 69 10 52 d7  	.word	0xd7521069
    698c: 19 e5 3f fd  	.word	0xfd3fe519
    6990: 22 00 a6 3c  	.word	0x3ca60022
    6994: 2c b7 e3 22  	.word	0x22e3b72c
    6998: a7 c6 65 cc  	.word	0xcc65c6a7
    699c: 63 4f 21 72  	.word	0x72214f63
    69a0: 93 a6 07 53  	.word	0x5307a693
    69a4: 40 7f e3 b4  	.word	0xb4e37f40
    69a8: 95 67 33 2f  	.word	0x2f336795
    69ac: d7 14 a7 ab  	.word	0xaba714d7
    69b0: 99 10 76 73  	.word	0x73761099
    69b4: a7 d0 fb d6  	.word	0xd6fbd0a7
    69b8: c9 cb 71 81  	.word	0x8171cbc9
    69bc: c5 48 df 5f  	.word	0x5fdf48c5
    69c0: c9 29 3b f4  	.word	0xf43b29c9
    69c4: b9 b7 9d 1d  	.word	0x1d9db7b9
    69c8: 75 8f 51 4f  	.word	0x4f518f75
    69cc: 4a 82 05 d6  	.word	0xd605824a
    69d0: c4 9d 2f 31  	.word	0x312f9dc4
    69d4: bd 72 c0 f2  	.word	0xf2c072bd
    69d8: b0 45 15 5a  	.word	0x5a1545b0
    69dc: 85 ac 24 1f  	.word	0x1f24ac85
    69e0: aa 05 95 8e  	.word	0x8e9505aa
    69e4: 32 08 d6 24  	.word	0x24d60832
    69e8: ee 20 14 0c  	.word	0x0c1420ee
    69ec: d1 c1 48 47  	.word	0x4748c1d1
    69f0: a2 25 fb 06  	.word	0x06fb25a2
    69f4: 5c e4 ff c7  	.word	0xc7ffe45c
    69f8: e6 95 e3 2a  	.word	0x2ae395e6
    69fc: 9e 73 ba 00  	.word	0x00ba739e
    6a00: d6 90 87 5c  	.word	0x5c8790d6
    6a04: de 98 2e 59  	.word	0x592e98de
    6a08: df a2 c2 45  	.word	0x45c2a2df
    6a0c: d3 b7 bf e5  	.word	0xe5bfb7d3
    6a10: 22 99 b4 f9  	.word	0xf9b49922
    6a14: 60 3b 5a 11  	.word	0x115a3b60
    6a18: f3 78 ad 67  	.word	0x67ad78f3
    6a1c: 3e 3a 28 03  	.word	0x03283a3e
    6a20: 26 bb 88 ea  	.word	0xea88bb26
    6a24: f5 26 44 ae  	.word	0xae4426f5
    6a28: fb 3b 97 84  	.word	0x84973bfb
    6a2c: d9 79 06 36  	.word	0x360679d9
    6a30: 50 4e 69 26  	.word	0x26694e50
    6a34: 0c 03 9f 5c  	.word	0x5c9f030c
    6a38: 26 d2 18 d5  	.word	0xd518d226
    6a3c: e7 7d 29 72  	.word	0x72297de7
    6a40: 39 b9 0c be  	.word	0xbe0cb939
    6a44: c7 1d 24 48  	.word	0x48241dc7
    6a48: 80 30 63 8b  	.word	0x8b633080
    6a4c: 4d 9b f1 32  	.word	0x32f19b4d
    6a50: 08 93 28 02  	.word	0x02289308
    6a54: 0d c9 df d3  	.word	0xd3dfc90d
    6a58: 45 19 27 46  	.word	0x46271945
    6a5c: 68 29 e1 05  	.word	0x05e12968
    6a60: 5a 49 9c 2d  	.word	0x2d9c495a
    6a64: b3 ee 82 ba  	.word	0xba82eeb3
    6a68: 7c b9 2b f1  	.word	0xf12bb97c
    6a6c: fc c8 ef ce  	.word	0xceefc8fc
    6a70: e0 d1 b5 93  	.word	0x93b5d1e0
    6a74: ae ab 2d b0  	.word	0xb02dabae
    6a78: 9b 8d 69 13  	.word	0x13698d9b
    6a7c: 9c 0c c0 39  	.word	0x39c00c9c
    6a80: 50 45 2c 24  	.word	0x242c4550
    6a84: c8 bb bf ad  	.word	0xadbfbbc8
    6a88: d9 81 30 d0  	.word	0xd03081d9
    6a8c: ec 0c c8 bc  	.word	0xbcc80cec
    6a90: 92 df c8 f5  	.word	0xf5c8df92
    6a94: a6 66 35 84  	.word	0x843566a6
    6a98: 4c ce 58 82  	.word	0x8258ce4c
    6a9c: d3 25 cf 78  	.word	0x78cf25d3
    6aa0: 68 9d 48 31  	.word	0x31489d68
    6aa4: 8e 6b ae 15  	.word	0x15ae6b8e
    6aa8: 87 f0 2b 9c  	.word	0x9c2bf087
    6aac: ab 1c 85 aa  	.word	0xaa851cab
    6ab0: 05 fa 4e f0  	.word	0xf04efa05
    6ab4: 97 5a a7 c9  	.word	0xc9a75a97
    6ab8: 32 f8 3f 6b  	.word	0x6b3ff832
    6abc: 07 52 6b 00  	.word	0x006b5207
    6ac0: 1c 78 95 9d  	.word	0x9d95781c
    6ac4: e1 cf e0 29  	.word	0x29e0cfe1
    6ac8: e2 10 63 96  	.word	0x966310e2
    6acc: 18 df 81 b6  	.word	0xb681df18
    6ad0: 39 6b 51 70  	.word	0x70516b39
    6ad4: d3 39 df 57  	.word	0x57df39d3
    6ad8: 22 61 c7 3b  	.word	0x3bc76122
    6adc: 44 e3 57 4d  	.word	0x4d57e344
    6ae0: 2d 08 ce b9  	.word	0xb9ce082d
    6ae4: 16 7e cb f5  	.word	0xf5cb7e16
    6ae8: 29 bc 7a 41  	.word	0x417abc29
    6aec: 4c f1 07 34  	.word	0x3407f14c
    6af0: ab a7 f4 2b  	.word	0x2bf4a7ab
    6af4: ce 6b b3 d4  	.word	0xd4b36bce
    6af8: ce 75 9f 1a  	.word	0x1a9f75ce
    6afc: 56 e9 e2 7d  	.word	0x7de2e956
    6b00: cb 5e a5 b6  	.word	0xb6a55ecb
    6b04: f4 d4 70 de  	.word	0xde70d4f4
    6b08: 99 db 85 5d  	.word	0x5d85db99
    6b0c: 7f 52 01 48  	.word	0x4801527f
    6b10: 81 9a ee d3  	.word	0xd3ee9a81
    6b14: 40 c4 c9 db  	.word	0xdbc9c440
    6b18: ed 29 60 1a  	.word	0x1a6029ed
    6b1c: af 90 2a 6b  	.word	0x6b2a90af
    6b20: 97 1e e6 9a  	.word	0x9ae61e97
    6b24: fc f4 23 69  	.word	0x6923f4fc
    6b28: d1 5f 3f e0  	.word	0xe03f5fd1
    6b2c: 1d 28 35 57  	.word	0x5735281d
    6b30: 2d d1 ed e6  	.word	0xe6edd12d
    6b34: 43 ae 64 a7  	.word	0xa764ae43
    6b38: 4a 3e 2d d1  	.word	0xd12d3e4a
    6b3c: e9 f4 d8 5f  	.word	0x5fd8f4e9
    6b40: 0a d8 b2 5b  	.word	0x5bb2d80a
    6b44: 24 f3 eb 77  	.word	0x77ebf324
    6b48: 9b 07 b9 2f  	.word	0x2fb9079b
    6b4c: 47 1b 30 d8  	.word	0xd8301b47
    6b50: 33 73 ee 4c  	.word	0x4cee7333
    6b54: f2 e6 47 c6  	.word	0xc647e6f2
    6b58: 09 21 6c 27  	.word	0x276c2109
    6b5c: c8 12 58 46  	.word	0x465812c8
    6b60: d9 62 10 2a  	.word	0x2a1062d9
    6b64: b2 be 43 4d  	.word	0x4d43beb2
    6b68: 16 dc 31 38  	.word	0x3831dc16
    6b6c: 75 fb 65 70  	.word	0x7065fb75
    6b70: d7 68 29 de  	.word	0xde2968d7
    6b74: 7b 4a 0d 18  	.word	0x180d4a7b
    6b78: 90 67 b1 1c  	.word	0x1cb16790
    6b7c: 2b 2c b3 05  	.word	0x05b32c2b
    6b80: fd a8 4d d2  	.word	0xd24da8fd
    6b84: cc 5e c0 c8  	.word	0xc8c05ecc
    6b88: 83 ef df 05  	.word	0x05dfef83
    6b8c: ac 1a cf a1  	.word	0xa1cf1aac
    6b90: 61 cd f9 7d  	.word	0x7df9cd61
    6b94: f2 ef be db  	.word	0xdbbeeff2
    6b98: 99 1e 47 7b  	.word	0x7b471e99
    6b9c: a3 56 55 3b  	.word	0x3b5556a3
    6ba0: 95 81 d5 7a  	.word	0x7ad58195
    6ba4: 2c a4 fc f7  	.word	0xf7fca42c
    6ba8: cc f3 33 43  	.word	0x4333f3cc
    6bac: 6e 28 14 32  	.word	0x3214286e
    6bb0: 9d 97 0b 34  	.word	0x340b979d
    6bb4: 0d 9d c2 b6  	.word	0xb6c29d0d
    6bb8: e1 07 73 56  	.word	0x567307e1
    6bbc: 48 1a 77 31  	.word	0x31771a48
    6bc0: 82 d4 4d e1  	.word	0xe14dd482
    6bc4: 24 c5 b0 32  	.word	0x32b0c524
    6bc8: b6 a4 2b 1a  	.word	0x1a2ba4b6
    6bcc: 54 51 b3 ed  	.word	0xedb35154
    6bd0: f3 5a 2b 28  	.word	0x282b5af3
    6bd4: 48 60 d1 a3  	.word	0xa3d16048
    6bd8: eb 36 73 7a  	.word	0x7a7336eb
    6bdc: d2 79 c0 4f  	.word	0x4fc079d2
    6be0: 7f 2f bf 89  	.word	0x89bf2f7f
    6be4: b0 38 c9 51  	.word	0x51c938b0
    6be8: a7 e9 df 02  	.word	0x02dfe9a7
    6bec: 65 bd 97 24  	.word	0x2497bd65
    6bf0: 53 e4 80 78  	.word	0x7880e453
    6bf4: 9c c0 ff ff  	.word	0xffffc09c
    6bf8: 92 8e f9 ca  	.word	0xcaf98e92
    6bfc: ce 67 45 12  	.word	0x124567ce
    6c00: 0d c5 86 0c  	.word	0x0c86c50d
    6c04: 44 8b 34 dc  	.word	0xdc348b44
    6c08: 51 e6 94 cc  	.word	0xcc94e651
    6c0c: c9 cb 37 13  	.word	0x1337cbc9
    6c10: b9 3c 3e 64  	.word	0x643e3cb9
    6c14: 4d f7 22 64  	.word	0x6422f74d
    6c18: 08 cd e3 ba  	.word	0xbae3cd08
    6c1c: c2 70 11 24  	.word	0x241170c2
    6c20: b4 73 c4 0a  	.word	0x0ac473b4
    6c24: 86 ab f9 3f  	.word	0x3ff9ab86
    6c28: 35 e4 13 01  	.word	0x0113e435
    6c2c: ee 1d 91 f0  	.word	0xf0911dee
    6c30: af c4 c6 eb  	.word	0xebc6c4af
    6c34: 60 50 e7 4a  	.word	0x4ae75060
    6c38: 0d 00 87 6c  	.word	0x6c87000d
    6c3c: 96 12 86 3f  	.word	0x3f861296
    6c40: e4 7b 95 f7  	.word	0xf7957be4
    6c44: 03 53 9c 0c  	.word	0x0c9c5303
    6c48: 45 c1 85 e0  	.word	0xe085c145
    6c4c: 20 1a c3 a3  	.word	0xa3c31a20
    6c50: 50 00 85 d0  	.word	0xd0850050
    6c54: 71 1d 72 b0  	.word	0xb0721d71
    6c58: da f2 0b ab  	.word	0xab0bf2da
    6c5c: 0e 39 ba 0a  	.word	0x0aba390e
    6c60: f3 7b 8c 63  	.word	0x638c7bf3
    6c64: fe df 9f 52  	.word	0x529fdffe
    6c68: 95 49 8b 38  	.word	0x388b4995
    6c6c: 60 9e 2b df  	.word	0xdf2b9e60
    6c70: 49 02 ad 1b  	.word	0x1bad0249
    6c74: 4f b3 27 e0  	.word	0xe027b34f
    6c78: ed 74 fa b9  	.word	0xb9fa74ed
    6c7c: c9 2f c9 7b  	.word	0x7bc92fc9
    6c80: f9 d9 1a 80  	.word	0x801ad9f9
    6c84: 2e ef 97 9f  	.word	0x9f97ef2e
    6c88: 3a da af 79  	.word	0x79afda3a
    6c8c: 54 7d 69 83  	.word	0x83697d54
    6c90: 50 6b 59 bd  	.word	0xbd596b50
    6c94: ff b3 06 e9  	.word	0xe906b3ff
    6c98: e0 b8 3f dd  	.word	0xdd3fb8e0
    6c9c: 37 2b 67 02  	.word	0x02672b37
    6ca0: e4 85 08 26  	.word	0x260885e4
    6ca4: 8b ca b2 48  	.word	0x48b2ca8b
    6ca8: 1c 4c b3 82  	.word	0x82b34c1c
    6cac: ec 6b 28 a4  	.word	0xa4286bec
    6cb0: 74 8f f5 17  	.word	0x17f58f74
    6cb4: 26 1a 7e 93  	.word	0x937e1a26
    6cb8: a5 a2 2c ab  	.word	0xab2ca2a5
    6cbc: cb 1f 1d 74  	.word	0x741d1fcb
    6cc0: f5 a7 8c 39  	.word	0x398ca7f5
    6cc4: 29 a7 9b ee  	.word	0xee9ba729
    6cc8: db 49 48 7a  	.word	0x7a4849db
    6ccc: 25 a6 9c eb  	.word	0xeb9ca625
    6cd0: e1 44 c5 7e  	.word	0x7ec544e1
    6cd4: ce 29 eb 29  	.word	0x29eb29ce
    6cd8: c8 e2 36 f7  	.word	0xf736e2c8
    6cdc: 1e a2 2c 23  	.word	0x232ca21e
    6ce0: 17 cb 3f 25  	.word	0x253fcb17
    6ce4: 3d 42 61 bf  	.word	0xbf61423d
    6ce8: 14 eb 39 fa  	.word	0xfa39eb14
    6cec: ea 3c 80 08  	.word	0x08803cea
    6cf0: af c7 51 98  	.word	0x9851c7af
    6cf4: df 02 86 f1  	.word	0xf18602df
    6cf8: 4b 41 e3 49  	.word	0x49e3414b
    6cfc: a0 f3 00 04  	.word	0x0400f3a0
    6d00: 5b c5 61 ba  	.word	0xba61c55b
    6d04: 76 04 ce ab  	.word	0xabce0476
    6d08: 16 97 d3 c4  	.word	0xc4d39716
    6d0c: d7 d6 a3 36  	.word	0x36a3d6d7
    6d10: 09 2d d8 e8  	.word	0xe8d82d09
    6d14: d5 59 b2 6e  	.word	0x6eb259d5
    6d18: fb 56 d7 84  	.word	0x84d756fb
    6d1c: e9 76 91 0c  	.word	0x0c9176e9
    6d20: 06 7b 6e a0  	.word	0xa06e7b06
    6d24: 12 a4 fb 2e  	.word	0x2efba412
    6d28: 60 25 8d 2c  	.word	0x2c8d2560
    6d2c: 45 85 67 14  	.word	0x14678545
    6d30: c7 91 7a d6  	.word	0xd67a91c7
    6d34: eb 13 97 df  	.word	0xdf9713eb
    6d38: f3 ad 7e 15  	.word	0x157eadf3
    6d3c: c7 0a 83 32  	.word	0x32830ac7
    6d40: e8 69 37 b7  	.word	0xb73769e8
    6d44: 7a 2a 78 0e  	.word	0x0e782a7a
    6d48: 2c 8e b1 75  	.word	0x75b18e2c
    6d4c: 78 5d a0 04  	.word	0x04a05d78
    6d50: e1 ea cc eb  	.word	0xebcceae1
    6d54: 26 52 52 29  	.word	0x29525226
    6d58: 20 a8 eb 83  	.word	0x83eba820
    6d5c: 83 4f 79 0d  	.word	0x0d794f83
    6d60: f4 16 15 9e  	.word	0x9e1516f4
    6d64: cb f5 35 ff  	.word	0xff35f5cb
    6d68: 45 ae 8a 64  	.word	0x648aae45
    6d6c: cf 5b 80 ee  	.word	0xee805bcf
    6d70: f3 9e 3a b9  	.word	0xb93a9ef3
    6d74: 2b 3c d7 f0  	.word	0xf0d73c2b
    6d78: c2 a6 92 20  	.word	0x2092a6c2
    6d7c: f2 0b 7b 09  	.word	0x097b0bf2
    6d80: ac e1 a2 a7  	.word	0xa7a2e1ac
    6d84: e7 4c e4 7b  	.word	0x7be44ce7
    6d88: b7 b8 d1 fa  	.word	0xfad1b8b7
    6d8c: 3e d9 1f 41  	.word	0x411fd93e
    6d90: 9b 7c 5f 0d  	.word	0x0d5f7c9b
    6d94: d7 a1 34 17  	.word	0x1734a1d7
    6d98: 16 db 27 31  	.word	0x3127db16
    6d9c: 23 92 65 0d  	.word	0x0d659223
    6da0: 33 d7 a9 21  	.word	0x21a9d733
    6da4: 15 ab 8b c4  	.word	0xc48bab15
    6da8: 25 bb 1a d6  	.word	0xd61abb25
    6dac: ea ea c2 a6  	.word	0xa6c2eaea
    6db0: 05 43 cb c6  	.word	0xc6cb4305
    6db4: 1c 6c 5c 62  	.word	0x625c6c1c
    6db8: 67 3a eb 93  	.word	0x93eb3a67
    6dbc: ea 0f c9 7f  	.word	0x7fc90fea
    6dc0: 26 59 5c 1f  	.word	0x1f5c5926
    6dc4: fe f1 08 04  	.word	0x0408f1fe
    6dc8: f4 8b 25 3b  	.word	0x3b258bf4
    6dcc: 5e 2f 8f 1a  	.word	0x1a8f2f5e
    6dd0: 69 16 c7 fd  	.word	0xfdc71669
    6dd4: a2 51 a9 40  	.word	0x40a951a2
    6dd8: 7e 57 8b c9  	.word	0xc98b577e
    6ddc: 93 ee 98 65  	.word	0x6598ee93
    6de0: 3d b2 7c 9c  	.word	0x9c7cb23d
    6de4: b5 de 27 c5  	.word	0xc527deb5
    6de8: 4e 40 28 53  	.word	0x5328404e
    6dec: 69 91 53 95  	.word	0x95539169
    6df0: 7a 2c cf 7c  	.word	0x7ccf2c7a
    6df4: 81 92 43 d6  	.word	0xd6439281
    6df8: 11 fa d8 f7  	.word	0xf7d8fa11
    6dfc: ab 7d e9 6c  	.word	0x6ce97dab
    6e00: 8f c4 f7 0e  	.word	0x0ef7c48f
    6e04: e5 a8 b5 25  	.word	0x25b5a8e5
    6e08: 32 e5 2c 6f  	.word	0x6f2ce532
    6e0c: 11 34 60 eb  	.word	0xeb603411
    6e10: 37 e5 3d e5  	.word	0xe53de537
    6e14: 73 51 e7 c5  	.word	0xc5e75173
    6e18: 03 bb 12 8c  	.word	0x8c12bb03
    6e1c: a0 9f 11 73  	.word	0x73119fa0
    6e20: cb a4 f1 53  	.word	0x53f1a4cb
    6e24: 94 12 30 ed  	.word	0xed301294
    6e28: 87 37 f5 c8  	.word	0xc8f53787
    6e2c: c9 21 e6 bc  	.word	0xbce621c9
    6e30: b9 e7 be 38  	.word	0x38bee7b9
    6e34: 13 2b cb fa  	.word	0xfacb2b13
    6e38: 8c 42 a8 9e  	.word	0x9ea8428c
    6e3c: 8a 79 25 30  	.word	0x3025798a
    6e40: 4d 77 f4 21  	.word	0x21f4774d
    6e44: 4d b9 45 78  	.word	0x7845b94d
    6e48: 27 b7 97 78  	.word	0x7897b727
    6e4c: 6c f1 62 bf  	.word	0xbf62f16c
    6e50: 2b 52 56 3c  	.word	0x3c56522b
    6e54: c0 57 18 67  	.word	0x671857c0
    6e58: 12 12 62 95  	.word	0x95621212
    6e5c: 52 a8 d6 3c  	.word	0x3cd6a852
    6e60: 99 a9 ec 3a  	.word	0x3aeca999
    6e64: 92 de ec 3f  	.word	0x3fecde92
    6e68: 2f c1 e8 62  	.word	0x62e8c12f
    6e6c: 00 5b aa bd  	.word	0xbdaa5b00
    6e70: de 8a 98 96  	.word	0x96988ade
    6e74: fc 9d b9 67  	.word	0x67b99dfc
    6e78: 36 10 66 52  	.word	0x52661036
    6e7c: 28 c0 52 3f  	.word	0x3f52c028
    6e80: c6 51 13 2a  	.word	0x2a1351c6
    6e84: 8e a4 ea ff  	.word	0xffeaa48e
    6e88: d7 53 7f fa  	.word	0xfa7f53d7
    6e8c: 54 47 62 28  	.word	0x28624754
    6e90: f1 dd 82 75  	.word	0x7582ddf1
    6e94: e5 a9 5b 0b  	.word	0x0b5ba9e5
    6e98: 59 ac 96 a6  	.word	0xa696ac59
    6e9c: 4b 10 c0 60  	.word	0x60c0104b
    6ea0: c6 16 c4 ee  	.word	0xeec416c6
    6ea4: 99 bf 58 92  	.word	0x9258bf99
    6ea8: 71 f6 d2 a9  	.word	0xa9d2f671
    6eac: 17 50 8a ac  	.word	0xac8a5017
    6eb0: ab a4 de 16  	.word	0x16dea4ab
    6eb4: ab 49 95 62  	.word	0x629549ab
    6eb8: 69 15 09 99  	.word	0x99091569
    6ebc: 5c e8 d0 05  	.word	0x05d0e85c
    6ec0: 97 be 9c de  	.word	0xde9cbe97
    6ec4: 20 e0 1d 05  	.word	0x051de020
    6ec8: 74 cf 0b b5  	.word	0xb50bcf74
    6ecc: 56 fc 07 fa  	.word	0xfa07fc56
    6ed0: 65 df 11 0f  	.word	0x0f11df65
    6ed4: 9f ec 8c 37  	.word	0x378cec9f
    6ed8: 4d de 96 ab  	.word	0xab96de4d
    6edc: 69 3c 85 36  	.word	0x36853c69
    6ee0: 2d 9b f3 78  	.word	0x78f39b2d
    6ee4: de b8 d9 36  	.word	0x36d9b8de
    6ee8: ec b9 47 a8  	.word	0xa847b9ec
    6eec: 71 ed 42 7f  	.word	0x7f42ed71
    6ef0: de 3f bd 79  	.word	0x79bd3fde
    6ef4: d6 d1 1c 24  	.word	0x241cd1d6
    6ef8: 6b ce fb 92  	.word	0x92fbce6b
    6efc: ec 4f 70 6a  	.word	0x6a704fec
    6f00: be e7 c5 fa  	.word	0xfac5e7be
    6f04: b0 c0 33 44  	.word	0x4433c0b0
    6f08: be dc 08 4c  	.word	0x4c08dcbe
    6f0c: 85 ae 4b 72  	.word	0x724bae85
    6f10: 9b 8f 97 46  	.word	0x46978f9b
    6f14: c4 4c f2 f1  	.word	0xf1f24cc4
    6f18: c8 5f 82 62  	.word	0x62825fc8
    6f1c: 6d ff 0a 4a  	.word	0x4a0aff6d
    6f20: 01 53 09 61  	.word	0x61095301
    6f24: 9e fb 17 e9  	.word	0xe917fb9e
    6f28: f8 92 a0 02  	.word	0x02a092f8
    6f2c: 94 df 02 c1  	.word	0xc102df94
    6f30: 0b 19 66 fa  	.word	0xfa66190b
    6f34: f5 e2 09 bf  	.word	0xbf09e2f5
    6f38: 37 fe dc e0  	.word	0xe0dcfe37
    6f3c: be 09 11 68  	.word	0x681109be
    6f40: de 0d 2a 78  	.word	0x782a0dde
    6f44: c9 0c 9a 55  	.word	0x559a0cc9
    6f48: 85 83 71 ea  	.word	0xea718385
    6f4c: b2 cd 1d 55  	.word	0x551dcdb2
    6f50: 8c 23 ef 31  	.word	0x31ef238c
    6f54: 5b 86 62 7f  	.word	0x7f62865b
    6f58: 3d 61 73 79  	.word	0x7973613d
    6f5c: 76 a7 4a 50  	.word	0x504aa776
    6f60: 13 8d 04 36  	.word	0x36048d13
    6f64: fa fc 18 9c  	.word	0x9c18fcfa
    6f68: dd 9d 89 73  	.word	0x73899ddd
    6f6c: b3 9d 15 29  	.word	0x29159db3
    6f70: aa d0 92 9f  	.word	0x9f92d0aa
    6f74: 0b 35 9f dc  	.word	0xdc9f350b
    6f78: d4 19 8a 87  	.word	0x878a19d4
    6f7c: ee 7e f5 26  	.word	0x26f57eee
    6f80: b1 ef 87 56  	.word	0x5687efb1
    6f84: d5 2c ab 0c  	.word	0x0cab2cd5
    6f88: 7b f1 7a 24  	.word	0x247af17b
    6f8c: 62 d1 80 51  	.word	0x5180d162
    6f90: 67 24 5a 4f  	.word	0x4f5a2467
    6f94: 34 5a c1 85  	.word	0x85c15a34
    6f98: 69 30 ba 9d  	.word	0x9dba3069
    6f9c: 3d 94 41 40  	.word	0x4041943d
    6fa0: 96 cc eb 43  	.word	0x43ebcc96
    6fa4: ba ee c0 c3  	.word	0xc3c0eeba
    6fa8: af 9c ea 26  	.word	0x26ea9caf
    6fac: 9c 9c 74 8d  	.word	0x8d749c9c
    6fb0: c6 cc 77 1c  	.word	0x1c77ccc6
    6fb4: ee 95 fa d9  	.word	0xd9fa95ee
    6fb8: 0f 34 84 76  	.word	0x7684340f
    6fbc: d9 a1 20 14  	.word	0x1420a1d9
    6fc0: dd aa 6c a2  	.word	0xa26caadd
    6fc4: 43 77 21 4b  	.word	0x4b217743
    6fc8: ce b7 8a 64  	.word	0x648ab7ce
    6fcc: 24 b4 a6 47  	.word	0x47a6b424
    6fd0: e3 c9 fb 03  	.word	0x03fbc9e3
    6fd4: 7a 4f 1d cb  	.word	0xcb1d4f7a
    6fd8: 19 d0 00 98  	.word	0x9800d019
    6fdc: 42 31 d9 12  	.word	0x12d93142
    6fe0: 4f 59 37 d3  	.word	0xd337594f
    6fe4: 99 77 c6 00  	.word	0x00c67799
    6fe8: 7b a4 3a b2  	.word	0xb23aa47b
    6fec: 40 51 3c 5e  	.word	0x5e3c5140
    6ff0: 95 f3 5f e3  	.word	0xe35ff395
    6ff4: 54 28 18 44  	.word	0x44182854
    6ff8: 12 a0 59 43  	.word	0x4359a012
    6ffc: 31 92 4f 1b  	.word	0x1b4f9231
    7000: 51 09 15 89  	.word	0x89150951
    7004: 9d 10 5c 3e  	.word	0x3e5c109d
    7008: 6a 69 e9 2d  	.word	0x2de9696a
    700c: 91 fa ce 39  	.word	0x39cefa91
    7010: 20 30 5f 97  	.word	0x975f3020
    7014: 3f e4 ea 20  	.word	0x20eae43f
    7018: ae 2d 13 7f  	.word	0x7f132dae
    701c: 2a 57 9b 23  	.word	0x239b572a
    7020: b1 66 98 a4  	.word	0xa49866b1
    7024: 30 30 cf 33  	.word	0x33cf3030
    7028: 59 48 5f 21  	.word	0x215f4859
    702c: d2 73 1f 25  	.word	0x251f73d2
    7030: f6 f4 de 51  	.word	0x51def4f6
    7034: 40 aa 82 ab  	.word	0xab82aa40
    7038: f6 23 9a 6f  	.word	0x6f9a23f6
    703c: d5 91 f1 5f  	.word	0x5ff191d5
    7040: 68 90 2d ac  	.word	0xac2d9068
    7044: 33 d4 9e 81  	.word	0x819ed433
    7048: 23 85 c9 5f  	.word	0x5fc98523
    704c: 79 ab 83 28  	.word	0x2883ab79
    7050: 3d eb 93 55  	.word	0x5593eb3d
    7054: 80 72 45 ef  	.word	0xef457280
    7058: cb 36 8f 75  	.word	0x758f36cb
    705c: 6a 52 0c 02  	.word	0x020c526a
    7060: bc db d8 9e  	.word	0x9ed8dbbc
    7064: f8 34 98 77  	.word	0x779834f8
    7068: 6c a4 7c dc  	.word	0xdc7ca46c
    706c: f9 aa f2 c8  	.word	0xc8f2aaf9
    7070: 74 b0 e1 a3  	.word	0xa3e1b074
    7074: dc 4c 52 a9  	.word	0xa9524cdc
    7078: 77 38 31 15  	.word	0x15313877
    707c: 46 cc aa 02  	.word	0x02aacc46
    7080: 89 cc 42 f0  	.word	0xf042cc89
    7084: 59 ef 31 e9  	.word	0xe931ef59
    7088: b6 4b 12 8e  	.word	0x8e124bb6
    708c: 9d 9c 58 2c  	.word	0x2c589c9d
    7090: 97 59 c7 ae  	.word	0xaec75997
    7094: 8a e1 c8 ad  	.word	0xadc8e18a
    7098: 0c c5 02 56  	.word	0x5602c50c
    709c: 0a fe 2c 45  	.word	0x452cfe0a
    70a0: df 77 78 64  	.word	0x647877df
    70a4: a0 f7 a0 86  	.word	0x86a0f7a0
    70a8: 9f 7c 60 0e  	.word	0x0e607c9f
    70ac: 27 64 c4 bb  	.word	0xbbc46427
    70b0: c9 11 fb f1  	.word	0xf1fb11c9
    70b4: 25 ea 17 ab  	.word	0xab17ea25
    70b8: 7b 87 4b 30  	.word	0x304b877b
    70bc: 7b 7d fb 4c  	.word	0x4cfb7d7b
    70c0: fe 75 9b b8  	.word	0xb89b75fe
    70c4: 6c 3d b4 72  	.word	0x72b43d6c
    70c8: 80 dc 6a 9c  	.word	0x9c6adc80
    70cc: d9 94 c6 54  	.word	0x54c694d9
    70d0: 9f 4c e3 3e  	.word	0x3ee34c9f
    70d4: 37 aa c3 b8  	.word	0xb8c3aa37
    70d8: 64 53 07 39  	.word	0x39075364
    70dc: 2b 62 b4 14  	.word	0x14b4622b
    70e0: 12 ef 89 97  	.word	0x9789ef12
    70e4: c2 99 86 e2  	.word	0xe28699c2
    70e8: 0d 19 57 df  	.word	0xdf57190d
    70ec: 71 cd 6e 2b  	.word	0x2b6ecd71
    70f0: d0 70 c9 ec  	.word	0xecc970d0
    70f4: 57 c8 43 c3  	.word	0xc343c857
    70f8: c5 3a 4d 43  	.word	0x434d3ac5
    70fc: bc 4c 1d 5b  	.word	0x5b1d4cbc
    7100: 26 9f 0a cc  	.word	0xcc0a9f26
    7104: 15 26 fb b6  	.word	0xb6fb2615
    7108: e5 cc 8d b8  	.word	0xb88dcce5
    710c: 2b 0e 4f 3a  	.word	0x3a4f0e2b
    7110: 05 a7 69 33  	.word	0x3369a705
    7114: 8b 49 01 13  	.word	0x1301498b
    7118: d1 2d 59 58  	.word	0x58592dd1
    711c: 12 f7 98 2f  	.word	0x2f98f712
    7120: 56 9e 0f b5  	.word	0xb50f9e56
    7124: 4c a7 94 0c  	.word	0x0c94a74c
    7128: 20 13 8e 8e  	.word	0x8e8e1320
    712c: a9 f4 1f 5b  	.word	0x5b1ff4a9
    7130: 67 0f 30 82  	.word	0x82300f67
    7134: 21 cc 2a 9a  	.word	0x9a2acc21
    7138: f9 aa 06 d8  	.word	0xd806aaf9
    713c: 49 e2 6a 3a  	.word	0x3a6ae249
    7140: 01 a7 54 4f  	.word	0x4f54a701
    7144: 44 ae 12 2e  	.word	0x2e12ae44
    7148: de d7 cb a9  	.word	0xa9cbd7de
    714c: f0 3e fe fc  	.word	0xfcfe3ef0
    7150: e0 5d 83 75  	.word	0x75835de0
    7154: 0d 89 bf ce  	.word	0xcebf890d
    7158: 54 45 61 e7  	.word	0xe7614554
    715c: e9 62 80 1d  	.word	0x1d8062e9
    7160: 5a 7c 90 a9  	.word	0xa9907c5a
    7164: 85 da 7a 65  	.word	0x657ada85
    7168: 62 0f b9 91  	.word	0x91b90f62
    716c: b5 a8 0e 1a  	.word	0x1a0ea8b5
    7170: e9 b4 34 df  	.word	0xdf34b4e9
    7174: fb 1d 0e 8d  	.word	0x8d0e1dfb
    7178: f3 5f f2 ae  	.word	0xaef25ff3
    717c: e8 8c 8b 29  	.word	0x298b8ce8
    7180: b2 0c f7 ef  	.word	0xeff70cb2
    7184: 53 79 92 2a  	.word	0x2a927953
    7188: 76 70 15 79  	.word	0x79157076
    718c: 2a c9 89 4b  	.word	0x4b89c92a
    7190: 6a cf a7 30  	.word	0x30a7cf6a
    7194: 7a 45 18 94  	.word	0x9418457a
    7198: 85 e4 5c 4d  	.word	0x4d5ce485
    719c: 40 a8 b8 34  	.word	0x34b8a840
    71a0: de 65 21 0a  	.word	0x0a2165de
    71a4: ea 72 7a 83  	.word	0x837a72ea
    71a8: f6 79 cf 0b  	.word	0x0bcf79f6
    71ac: b4 07 ab 3f  	.word	0x3fab07b4
    71b0: 70 ae 38 77  	.word	0x7738ae70
    71b4: c7 36 16 52  	.word	0x521636c7
    71b8: dc d7 a7 03  	.word	0x03a7d7dc
    71bc: 18 27 a6 6b  	.word	0x6ba62718
    71c0: 35 33 69 83  	.word	0x83693335
    71c4: b5 ec 6e c2  	.word	0xc26eecb5
    71c8: fd fe b5 63  	.word	0x63b5fefd
    71cc: df 13 a8 d5  	.word	0xd5a813df
    71d0: 73 25 b2 a4  	.word	0xa4b22573
    71d4: 9a aa 93 a2  	.word	0xa293aa9a
    71d8: 6a 1c 5e 46  	.word	0x465e1c6a
    71dc: dd 2b d6 71  	.word	0x71d62bdd
    71e0: 80 df 78 d3  	.word	0xd378df80
    71e4: 28 cc 33 65  	.word	0x6533cc28
    71e8: b4 a4 0f 0a  	.word	0x0a0fa4b4
    71ec: 79 43 db f6  	.word	0xf6db4379
    71f0: 5a da 01 f7  	.word	0xf701da5a
    71f4: f9 5f 64 e3  	.word	0xe3645ff9
    71f8: a4 2b 17 f3  	.word	0xf3172ba4
    71fc: 17 f3 d5 74  	.word	0x74d5f317
    7200: f5 5e f7 b1  	.word	0xb1f75ef5
    7204: da b5 2d cd  	.word	0xcd2db5da
    7208: f5 65 b0 16  	.word	0x16b065f5
    720c: cf 95 7f d7  	.word	0xd77f95cf
    7210: 85 f0 49 3f  	.word	0x3f49f085
    7214: ea 1f 57 14  	.word	0x14571fea
    7218: 3d 2b 2b 26  	.word	0x262b2b3d
    721c: 21 36 33 1c  	.word	0x1c333621
    7220: 81 ca d9 67  	.word	0x67d9ca81
    7224: 54 e5 6f a8  	.word	0xa86fe554
    7228: 37 8c 29 2b  	.word	0x2b298c37
    722c: 75 7c 8b 39  	.word	0x398b7c75
    7230: 3b 62 ac e3  	.word	0xe3ac623b
    7234: 92 08 6d da  	.word	0xda6d0892
    7238: 8c d9 e9 47  	.word	0x47e9d98c
    723c: 45 cc eb 4a  	.word	0x4aebcc45
    7240: 77 1a d2 05  	.word	0x05d21a77
    7244: 72 5a 17 53  	.word	0x53175a72
    7248: d4 34 b9 d3  	.word	0xd3b934d4
    724c: 22 44 c0 b0  	.word	0xb0c04422
    7250: dc ea 5d dd  	.word	0xdd5deadc
    7254: 4b f2 d9 ad  	.word	0xadd9f24b
    7258: 8c ff 10 9f  	.word	0x9f10ff8c
    725c: e6 46 4f 07  	.word	0x074f46e6
    7260: 45 a4 59 a0  	.word	0xa059a445
    7264: 04 b2 e9 0d  	.word	0x0de9b204
    7268: 0f ad 17 4b  	.word	0x4b17ad0f
    726c: aa b4 5c e1  	.word	0xe15cb4aa
    7270: 57 c5 79 1f  	.word	0x1f79c557
    7274: 52 ec bb e1  	.word	0xe1bbec52
    7278: 1b 08 71 d0  	.word	0xd071081b
    727c: b9 f1 33 26  	.word	0x2633f1b9
    7280: 10 99 8b 01  	.word	0x018b9910
    7284: 77 41 fb c1  	.word	0xc1fb4177
    7288: 40 e1 0f 6c  	.word	0x6c0fe140
    728c: dc 20 ea a6  	.word	0xa6ea20dc
    7290: ff c6 54 43  	.word	0x4354c6ff
    7294: e7 f3 61 d6  	.word	0xd661f3e7
    7298: 7a 40 a3 f1  	.word	0xf1a3407a
    729c: e6 72 cb 5e  	.word	0x5ecb72e6
    72a0: 4e fb 59 22  	.word	0x2259fb4e
    72a4: 1b a3 15 a5  	.word	0xa515a31b
    72a8: 2f c5 ca 2b  	.word	0x2bcac52f
    72ac: 97 f3 60 09  	.word	0x0960f397
    72b0: cb 54 34 8d  	.word	0x8d3454cb
    72b4: ec 2f b5 ed  	.word	0xedb52fec
    72b8: 19 c0 76 c4  	.word	0xc476c019
    72bc: 20 27 2e 38  	.word	0x382e2720
    72c0: 97 69 e8 e8  	.word	0xe8e86997
    72c4: 06 e1 ea fe  	.word	0xfeeae106
    72c8: 83 93 d0 98  	.word	0x98d09383
    72cc: 7f 33 63 98  	.word	0x9863337f
    72d0: ef eb 06 aa  	.word	0xaa06ebef
    72d4: 0e 48 70 94  	.word	0x9470480e
    72d8: d0 c2 c5 d4  	.word	0xd4c5c2d0
    72dc: 98 68 8b 03  	.word	0x038b6898
    72e0: a6 50 ce 8a  	.word	0x8ace50a6
    72e4: 1d c5 91 f3  	.word	0xf391c51d
    72e8: 48 29 2d ae  	.word	0xae2d2948
    72ec: b9 d0 42 31  	.word	0x3142d0b9
    72f0: 80 ca 24 7f  	.word	0x7f24ca80
    72f4: 1a 5a 4d db  	.word	0xdb4d5a1a
    72f8: a8 0e 25 59  	.word	0x59250ea8
    72fc: 8b ba ae 21  	.word	0x21aeba8b
    7300: 30 55 40 cf  	.word	0xcf405530
    7304: 34 3b f1 24  	.word	0x24f13b34
    7308: f7 8a 08 43  	.word	0x43088af7
    730c: 4a ea 44 3c  	.word	0x3c44ea4a
    7310: 82 a4 06 00  	.word	0x0006a482
    7314: 17 c5 d5 5d  	.word	0x5dd5c517
    7318: 6d 08 0b 89  	.word	0x890b086d
    731c: f8 b8 8e 11  	.word	0x118eb8f8
    7320: 23 7f 08 f0  	.word	0xf0087f23
    7324: 00 36 85 53  	.word	0x53853600
    7328: 84 57 7d da  	.word	0xda7d5784
    732c: 79 18 46 4c  	.word	0x4c461879
    7330: 60 68 1f b4  	.word	0xb41f6860
    7334: de 03 f3 6a  	.word	0x6af303de
    7338: ed 18 7c c2  	.word	0xc27c18ed
    733c: c5 16 3c 0a  	.word	0x0a3c16c5
    7340: 3d 7f 94 cc  	.word	0xcc947f3d
    7344: 17 9c e4 17  	.word	0x17e49c17
    7348: 7b d2 c1 aa  	.word	0xaac1d27b
    734c: a6 ed c6 cc  	.word	0xccc6eda6
    7350: 56 8e f0 b0  	.word	0xb0f08e56
    7354: ce 92 60 df  	.word	0xdf6092ce
    7358: 6b c3 67 2c  	.word	0x2c67c36b
    735c: e2 b3 09 49  	.word	0x4909b3e2
    7360: 89 2e fe 63  	.word	0x63fe2e89
    7364: ea 85 9c 9c  	.word	0x9c9c85ea
    7368: ec 12 94 0e  	.word	0x0e9412ec
    736c: 91 af 1b be  	.word	0xbe1baf91
    7370: 7b fe fb 86  	.word	0x86fbfe7b
    7374: 8a aa 7b 8f  	.word	0x8f7baa8a
    7378: 6c 8b 96 ef  	.word	0xef968b6c
    737c: 9f 7f b1 0f  	.word	0x0fb17f9f
    7380: 4e f6 6f 70  	.word	0x706ff64e
    7384: 76 66 a1 59  	.word	0x59a16676
    7388: 3d a5 86 0d  	.word	0x0d86a53d
    738c: dd 53 b9 10  	.word	0x10b953dd
    7390: 96 0b 5c ce  	.word	0xce5c0b96
    7394: e6 e1 48 58  	.word	0x5848e1e6
    7398: 68 0c 78 12  	.word	0x12780c68
    739c: e7 78 8b 2d  	.word	0x2d8b78e7
    73a0: 2b 90 c3 af  	.word	0xafc3902b
    73a4: 2e c6 d5 79  	.word	0x79d5c62e
    73a8: 28 07 e8 89  	.word	0x89e80728
    73ac: 52 21 3a 77  	.word	0x773a2152
    73b0: b9 20 01 e1  	.word	0xe10120b9
    73b4: 40 e6 8a c3  	.word	0xc38ae640
    73b8: 6d 1a 2b 7b  	.word	0x7b2b1a6d
    73bc: 71 23 ae 09  	.word	0x09ae2371
    73c0: 3c 08 4d 4e  	.word	0x4e4d083c
    73c4: 2a 19 6a bb  	.word	0xbb6a192a
    73c8: 92 e1 29 00  	.word	0x0029e192
    73cc: 63 e0 ac 34  	.word	0x34ace063
    73d0: eb ba fa aa  	.word	0xaafabaeb
    73d4: 59 5a 24 98  	.word	0x98245a59
    73d8: ac fa 97 da  	.word	0xda97faac
    73dc: 9a 8a 9c 6d  	.word	0x6d9c8a9a
    73e0: d0 b1 32 ad  	.word	0xad32b1d0
    73e4: a1 8f ab 10  	.word	0x10ab8fa1
    73e8: 24 8b 77 e2  	.word	0xe2778b24
    73ec: 1b ed ac e9  	.word	0xe9aced1b
    73f0: 0f e9 3d 37  	.word	0x373de90f
    73f4: c0 6b 85 a8  	.word	0xa8856bc0
    73f8: 96 39 a5 dd  	.word	0xdda53996
    73fc: dd 5d f3 66  	.word	0x66f35ddd
    7400: 23 73 99 24  	.word	0x24997323
    7404: fb 9a 7d d2  	.word	0xd27d9afb
    7408: 2e 1d f0 f6  	.word	0xf6f01d2e
    740c: 7e e0 b7 1b  	.word	0x1bb7e07e
    7410: 7f cc 2e f5  	.word	0xf52ecc7f
    7414: 2d 47 a7 2b  	.word	0x2ba7472d
    7418: c8 9d 6f 64  	.word	0x646f9dc8
    741c: 4f 9b 01 03  	.word	0x03019b4f
    7420: cd 45 53 56  	.word	0x565345cd
    7424: b5 86 a1 04  	.word	0x04a186b5
    7428: 6a 11 c4 bc  	.word	0xbcc4116a
    742c: 10 66 e7 ee  	.word	0xeee76610
    7430: 45 2a fb 78  	.word	0x78fb2a45
    7434: b4 73 9c 68  	.word	0x689c73b4
    7438: 12 75 69 65  	.word	0x65697512
    743c: ff cb 7d 38  	.word	0x387dcbff
    7440: 6b dc b3 e6  	.word	0xe6b3dc6b
    7444: 14 b2 09 af  	.word	0xaf09b214
    7448: 65 2f 7d ad  	.word	0xad7d2f65
    744c: b5 73 75 3f  	.word	0x3f7573b5
    7450: b0 23 0a 10  	.word	0x100a23b0
    7454: 88 d9 19 d0  	.word	0xd019d988
    7458: f7 35 5c 8b  	.word	0x8b5c35f7
    745c: a5 63 2b 39  	.word	0x392b63a5
    7460: 05 c2 07 9c  	.word	0x9c07c205
    7464: dc ad 93 40  	.word	0x4093addc
    7468: 7e c3 32 f5  	.word	0xf532c37e
    746c: 15 be 65 c5  	.word	0xc565be15
    7470: 2a 40 83 15  	.word	0x1583402a
    7474: fd ec db 63  	.word	0x63dbecfd
    7478: 2e 03 2e ef  	.word	0xef2e032e
    747c: 4a 2b 72 61  	.word	0x61722b4a
    7480: af 47 bd ec  	.word	0xecbd47af
    7484: fe aa 12 00  	.word	0x0012aafe
    7488: 09 63 d4 1c  	.word	0x1cd46309
    748c: fb 66 a2 55  	.word	0x55a266fb
    7490: 2c c7 67 09  	.word	0x0967c72c
    7494: 68 eb 03 f2  	.word	0xf203eb68
    7498: 29 14 3c ca  	.word	0xca3c1429
    749c: 44 39 63 39  	.word	0x39633944
    74a0: 3c 0e cb 81  	.word	0x81cb0e3c
    74a4: 55 7a b0 d6  	.word	0xd6b07a55
    74a8: 69 49 44 d9  	.word	0xd9444969
    74ac: 06 f0 0f 29  	.word	0x290ff006
    74b0: 1f da dc 16  	.word	0x16dcda1f
    74b4: 6a 0b 68 08  	.word	0x08680b6a
    74b8: 59 de 06 5a  	.word	0x5a06de59
    74bc: b7 d2 68 55  	.word	0x5568d2b7
    74c0: e1 cf 37 1b  	.word	0x1b37cfe1
    74c4: 8c b8 0c 8d  	.word	0x8d0cb88c
    74c8: f3 18 38 05  	.word	0x053818f3
    74cc: a3 a5 b6 05  	.word	0x05b6a5a3
    74d0: 59 d9 87 b7  	.word	0xb787d959
    74d4: 04 bc e9 f2  	.word	0xf2e9bc04
    74d8: 64 7f dd 9a  	.word	0x9add7f64
    74dc: 24 a1 eb 6b  	.word	0x6beba124
    74e0: 43 b1 b1 a5  	.word	0xa5b1b143
    74e4: 5c 00 06 1d  	.word	0x1d06005c
    74e8: a2 cd d1 7f  	.word	0x7fd1cda2
    74ec: b8 6b 4c 6d  	.word	0x6d4c6bb8
    74f0: e7 ff fc 53  	.word	0x53fcffe7
    74f4: 76 96 f5 6e  	.word	0x6ef59676
    74f8: a5 1e ce c1  	.word	0xc1ce1ea5
    74fc: e8 29 7c 09  	.word	0x097c29e8
    7500: 3b a5 f5 43  	.word	0x43f5a53b
    7504: b9 ec 3c 5c  	.word	0x5c3cecb9
    7508: f2 8d c0 06  	.word	0x06c08df2
    750c: 1d a6 c9 9c  	.word	0x9cc9a61d
    7510: 47 54 89 85  	.word	0x85895447
    7514: 9a 63 ba cf  	.word	0xcfba639a
    7518: d5 9f f0 0d  	.word	0x0df09fd5
    751c: e8 5a 84 5a  	.word	0x5a845ae8
    7520: ca 94 eb 5d  	.word	0x5deb94ca
    7524: be 7d e9 4c  	.word	0x4ce97dbe
    7528: 48 9c 70 8c  	.word	0x8c709c48
    752c: 38 a4 d0 38  	.word	0x38d0a438
    7530: 97 d0 69 a1  	.word	0xa169d097
    7534: d4 ce 3e c4  	.word	0xc43eced4
    7538: c3 87 e5 f7  	.word	0xf7e587c3
    753c: ff 49 12 0a  	.word	0x0a1249ff
    7540: c9 01 6d 27  	.word	0x276d01c9
    7544: 1b 07 f0 12  	.word	0x12f0071b
    7548: 70 8c c4 86  	.word	0x86c48c70
    754c: c5 ba b8 e7  	.word	0xe7b8bac5
    7550: a9 fb d6 71  	.word	0x71d6fba9
    7554: 9b 12 08 53  	.word	0x5308129b
    7558: 92 b7 3d 5a  	.word	0x5a3db792
    755c: f9 fb 88 5d  	.word	0x5d88fbf9
    7560: 10 b6 54 73  	.word	0x7354b610
    7564: 9e 8d 40 0b  	.word	0x0b408d9e
    7568: 6e 5b a8 5b  	.word	0x5ba85b6e
    756c: 53 32 6b 80  	.word	0x806b3253
    7570: 07 a2 58 4a  	.word	0x4a58a207
    7574: 03 3a e6 db  	.word	0xdbe63a03
    7578: 2c df a1 c9  	.word	0xc9a1df2c
    757c: dd d9 3b 17  	.word	0x173bd9dd
    7580: df 72 58 fe  	.word	0xfe5872df
    7584: 1e 0f 50 2b  	.word	0x2b500f1e
    7588: c1 18 39 d4  	.word	0xd43918c1
    758c: 2e 58 d6 58  	.word	0x58d6582e
    7590: e0 3a 67 c9  	.word	0xc9673ae0
    7594: 8e 27 ed e6  	.word	0xe6ed278e
    7598: 19 a3 9e b1  	.word	0xb19ea319
    759c: 13 cd e1 06  	.word	0x06e1cd13
    75a0: 23 6f 16 6f  	.word	0x6f166f23
    75a4: 51 ad d0 40  	.word	0x40d0ad51
    75a8: be 6a ab 1f  	.word	0x1fab6abe
    75ac: 93 32 8e 11  	.word	0x118e3293
    75b0: 8e 08 4d a0  	.word	0xa04d088e
    75b4: 14 5e e3 3f  	.word	0x3fe35e14
    75b8: 66 62 e1 26  	.word	0x26e16266
    75bc: 35 60 80 30  	.word	0x30806035
    75c0: 53 03 5b 9e  	.word	0x9e5b0353
    75c4: 62 af 2b 47  	.word	0x472baf62
    75c8: 47 04 8d 27  	.word	0x278d0447
    75cc: 90 0b aa 3b  	.word	0x3baa0b90
    75d0: 27 bf 43 96  	.word	0x9643bf27
    75d4: 46 5f 78 0c  	.word	0x0c785f46
    75d8: 13 7b 83 8d  	.word	0x8d837b13
    75dc: 1a 6a 3a 7f  	.word	0x7f3a6a1a
    75e0: 0b 80 3d 5d  	.word	0x5d3d800b
    75e4: 39 44 e6 f7  	.word	0xf7e64439
    75e8: f6 ed 01 c9  	.word	0xc901edf6
    75ec: 55 d5 a8 95  	.word	0x95a8d555
    75f0: 39 63 2c 59  	.word	0x592c6339
    75f4: 30 78 cd 68  	.word	0x68cd7830
    75f8: 7e 30 51 2e  	.word	0x2e51307e
    75fc: ed fd d0 30  	.word	0x30d0fded
    7600: b3 33 12 f2  	.word	0xf21233b3
    7604: 1a 4d 59 e0  	.word	0xe0594d1a
    7608: 9c 4d cc f0  	.word	0xf0cc4d9c
    760c: 8e e7 db 1b  	.word	0x1bdbe78e
    7610: 77 9a 49 8f  	.word	0x8f499a77
    7614: 7f 18 65 69  	.word	0x6965187f
    7618: 68 98 09 2c  	.word	0x2c099868
    761c: 20 14 92 0a  	.word	0x0a921420
    7620: 50 47 b8 68  	.word	0x68b84750
    7624: 1e 97 b4 9c  	.word	0x9cb4971e
    7628: cf bb 64 66  	.word	0x6664bbcf
    762c: 29 72 95 a0  	.word	0xa0957229
    7630: 2b 41 fa 72  	.word	0x72fa412b
    7634: 26 e7 8d 5c  	.word	0x5c8de726
    7638: d9 89 c5 51  	.word	0x51c589d9
    763c: 43 08 15 46  	.word	0x46150843
    7640: 2e a0 b9 ae  	.word	0xaeb9a02e
    7644: c0 19 90 bc  	.word	0xbc9019c0
    7648: ae 4c 03 16  	.word	0x16034cae
    764c: 0d 11 c7 55  	.word	0x55c7110d
    7650: ec 32 99 65  	.word	0x659932ec
    7654: 01 f5 6d 0e  	.word	0x0e6df501
    7658: fe 5d ca 95  	.word	0x95ca5dfe
    765c: 28 0d ca 3b  	.word	0x3bca0d28
    7660: a4 62 5d 3c  	.word	0x3c5d62a4
    7664: bc 31 f0 40  	.word	0x40f031bc
    7668: 60 7a f0 cf  	.word	0xcff07a60
    766c: 3e 8b fc 19  	.word	0x19fc8b3e
    7670: 45 b5 0f 13  	.word	0x130fb545
    7674: a2 3d 18 98  	.word	0x98183da2
    7678: cd 13 8f ae  	.word	0xae8f13cd
    767c: dd de 31 56  	.word	0x5631dedd
    7680: bf 01 cc 9e  	.word	0x9ecc01bf
    7684: b6 8e 68 9c  	.word	0x9c688eb6
    7688: 6f 89 44 a6  	.word	0xa644896f
    768c: ad 83 bc f0  	.word	0xf0bc83ad
    7690: e2 9f 7a 5f  	.word	0x5f7a9fe2
    7694: 5f 95 2d ca  	.word	0xca2d955f
    7698: 41 82 f2 8d  	.word	0x8df28241
    769c: 03 b4 a8 4e  	.word	0x4ea8b403
    76a0: 02 d2 ca f1  	.word	0xf1cad202
    76a4: 0a 46 ed 2a  	.word	0x2aed460a
    76a8: 83 ee 8c a4  	.word	0xa48cee83
    76ac: 05 53 30 46  	.word	0x46305305
    76b0: 5f 1a f1 49  	.word	0x49f11a5f
    76b4: 45 77 21 91  	.word	0x91217745
    76b8: 63 a4 2c 54  	.word	0x542ca463
    76bc: 30 09 ce 24  	.word	0x24ce0930
    76c0: 06 c1 06 fd  	.word	0xfd06c106
    76c4: f5 90 e8 1f  	.word	0x1fe890f5
    76c8: f2 10 88 5d  	.word	0x5d8810f2
    76cc: 35 68 c4 b5  	.word	0xb5c46835
    76d0: 3e af 8c 6e  	.word	0x6e8caf3e
    76d4: fe 08 78 82  	.word	0x827808fe
    76d8: 4b d7 06 8a  	.word	0x8a06d74b
    76dc: c2 e3 d4 41  	.word	0x41d4e3c2
    76e0: 85 0b f3 fd  	.word	0xfdf30b85
    76e4: 55 a1 cf 3f  	.word	0x3fcfa155
    76e8: a4 2e 37 36  	.word	0x36372ea4
    76ec: 8e 16 f7 d2  	.word	0xd2f7168e
    76f0: 44 f8 92 64  	.word	0x6492f844
    76f4: de 64 e0 b2  	.word	0xb2e064de
    76f8: 80 42 4f 32  	.word	0x324f4280
    76fc: a7 28 99 54  	.word	0x549928a7
    7700: 2e 1a ee 63  	.word	0x63ee1a2e
    7704: a7 32 6e f2  	.word	0xf26e32a7
    7708: ea fd 5f d2  	.word	0xd25ffdea
    770c: b7 e4 91 ae  	.word	0xae91e4b7
    7710: 69 4d 7f d1  	.word	0xd17f4d69
    7714: 3b d3 3b bc  	.word	0xbc3bd33b
    7718: 6a ff dc c0  	.word	0xc0dcff6a
    771c: de 66 1b 49  	.word	0x491b66de
    7720: a7 32 ea c7  	.word	0xc7ea32a7
    7724: 3d b1 f5 98  	.word	0x98f5b13d
    7728: 98 db 16 7e  	.word	0x7e16db98
    772c: cc f8 d5 e3  	.word	0xe3d5f8cc
    7730: 47 d9 f8 cb  	.word	0xcbf8d947
    7734: 52 bf 0a ac  	.word	0xac0abf52
    7738: ac e4 5e c8  	.word	0xc85ee4ac
    773c: d0 38 f3 08  	.word	0x08f338d0
    7740: a1 64 da d0  	.word	0xd0da64a1
    7744: 8e 4a f0 75  	.word	0x75f04a8e
    7748: 4b 28 e2 67  	.word	0x67e2284b
    774c: af 2c 22 ed  	.word	0xed222caf
    7750: a4 7b 7b 1f  	.word	0x1f7b7ba4
    7754: 79 a3 34 82  	.word	0x8234a379
    7758: 67 8b 01 b7  	.word	0xb7018b67
    775c: b0 b8 f6 4c  	.word	0x4cf6b8b0
    7760: bd 73 1a 99  	.word	0x991a73bd
    7764: 21 a8 83 c3  	.word	0xc383a821
    7768: 7a 0c 32 df  	.word	0xdf320c7a
    776c: 01 bc 27 ab  	.word	0xab27bc01
    7770: 63 70 77 84  	.word	0x84777063
    7774: 1b 33 3d c1  	.word	0xc13d331b
    7778: 99 8a 07 eb  	.word	0xeb078a99
    777c: 82 4a 0d 53  	.word	0x530d4a82
    7780: 25 48 f9 e1  	.word	0xe1f94825
    7784: 30 36 4c 00  	.word	0x004c3630
    7788: 5a 53 ab 8c  	.word	0x8cab535a
    778c: 26 78 2d 7e  	.word	0x7e2d7826
    7790: 8b ff 84 cc  	.word	0xcc84ff8b
    7794: 23 23 48 c7  	.word	0xc7482323
    7798: b9 70 17 10  	.word	0x101770b9
    779c: 3f 75 ea 65  	.word	0x65ea753f
    77a0: 9e bf 9a 6c  	.word	0x6c9abf9e
    77a4: 45 73 69 6d  	.word	0x6d697345
    77a8: 80 a8 00 49  	.word	0x4900a880
    77ac: fc b2 7f 25  	.word	0x257fb2fc
    77b0: 50 b8 cf c8  	.word	0xc8cfb850
    77b4: 12 f4 ac 2b  	.word	0x2bacf412
    77b8: 5b bd bf 0c  	.word	0x0cbfbd5b
    77bc: e0 e7 b3 0d  	.word	0x0db3e7e0
    77c0: 63 63 09 e2  	.word	0xe2096363
    77c4: 3e fc 66 3d  	.word	0x3d66fc3e
    77c8: 6b cb b5 61  	.word	0x61b5cb6b
    77cc: 7f 2c d6 81  	.word	0x81d62c7f
    77d0: 1a 3b 44 13  	.word	0x13443b1a
    77d4: 42 04 be 0f  	.word	0x0fbe0442
    77d8: db a1 e1 21  	.word	0x21e1a1db
    77dc: 19 ec a4 02  	.word	0x02a4ec19
    77e0: a2 b8 24 3b  	.word	0x3b24b8a2
    77e4: 9a 25 e6 5c  	.word	0x5ce6259a
    77e8: b8 a0 af 45  	.word	0x45afa0b8
    77ec: cc 7a 57 b8  	.word	0xb8577acc
    77f0: 37 70 a0 8b  	.word	0x8ba07037
    77f4: e8 e6 cb cc  	.word	0xcccbe6e8
    77f8: bf 09 78 12  	.word	0x127809bf
    77fc: 51 3c 14 3d  	.word	0x3d143c51
    7800: 5f 79 cf f1  	.word	0xf1cf795f
    7804: 62 61 c8 f5  	.word	0xf5c86162
    7808: f2 57 ee 26  	.word	0x26ee57f2
    780c: 19 86 8c 11  	.word	0x118c8619
    7810: 78 35 06 1c  	.word	0x1c063578
    7814: 85 24 21 17  	.word	0x17212485
    7818: cf 7f 06 ec  	.word	0xec067fcf
    781c: 5d 2b d1 36  	.word	0x36d12b5d
    7820: 57 45 15 79  	.word	0x79154557
    7824: 91 27 6d 12  	.word	0x126d2791
    7828: 0a 3a 78 fc  	.word	0xfc783a0a
    782c: 5c 8f e4 d5  	.word	0xd5e48f5c
    7830: ac 9b 17 df  	.word	0xdf179bac
    7834: e8 b6 bd 36  	.word	0x36bdb6e8
    7838: 59 28 a8 5b  	.word	0x5ba82859
    783c: 88 17 f5 2e  	.word	0x2ef51788
    7840: 4a 0d 1e d1  	.word	0xd11e0d4a
    7844: 8c 43 bd 88  	.word	0x88bd438c
    7848: 08 f3 cc 43  	.word	0x43ccf308
    784c: 0d 61 cb 30  	.word	0x30cb610d
    7850: cc 7b 93 91  	.word	0x91937bcc
    7854: 37 0e 9a e0  	.word	0xe09a0e37
    7858: 0c 72 b1 25  	.word	0x25b1720c
    785c: 5b 13 59 45  	.word	0x4559135b
    7860: e9 a1 6d 7c  	.word	0x7c6da1e9
    7864: 83 36 a4 1e  	.word	0x1ea43683
    7868: be bd b9 1f  	.word	0x1fb9bdbe
    786c: af 89 c1 f9  	.word	0xf9c189af
    7870: 55 d1 5d ce  	.word	0xce5dd155
    7874: fc 01 30 30  	.word	0x303001fc
    7878: 52 be 57 bc  	.word	0xbc57be52
    787c: 9e c9 a7 28  	.word	0x28a7c99e
    7880: 9d 9e d1 e8  	.word	0xe8d19e9d
    7884: 99 93 fd b8  	.word	0xb8fd9399
    7888: ff 23 24 96  	.word	0x962423ff
    788c: cb 91 81 90  	.word	0x908191cb
    7890: a3 42 c7 47  	.word	0x47c742a3
    7894: d7 48 b9 b2  	.word	0xb2b948d7
    7898: c4 44 fb d7  	.word	0xd7fb44c4
    789c: 26 32 f3 37  	.word	0x37f33226
    78a0: 08 6e 5f b5  	.word	0xb55f6e08
    78a4: 67 87 ae 0d  	.word	0x0dae8767
    78a8: 02 3a 20 5b  	.word	0x5b203a02
    78ac: b3 b3 43 4a  	.word	0x4a43b3b3
    78b0: 79 8c af 80  	.word	0x80af8c79
    78b4: 6e 5a 72 e3  	.word	0xe3725a6e
    78b8: a3 a7 5f 70  	.word	0x705fa7a3
    78bc: d1 7f 7a 0f  	.word	0x0f7a7fd1
    78c0: 1d b1 21 c8  	.word	0xc821b11d
    78c4: 53 25 91 33  	.word	0x33912553
    78c8: df 01 e3 41  	.word	0x41e301df
    78cc: c2 42 ed 66  	.word	0x66ed42c2
    78d0: fd 22 42 10  	.word	0x104222fd
    78d4: 11 cc 6f 06  	.word	0x066fcc11
    78d8: 8f 16 92 c1  	.word	0xc192168f
    78dc: 41 3b 7a 30  	.word	0x307a3b41
    78e0: e0 5c b5 6e  	.word	0x6eb55ce0
    78e4: 07 5d eb 8e  	.word	0x8eeb5d07
    78e8: 5a 92 0d aa  	.word	0xaa0d925a
    78ec: bf 36 c5 2f  	.word	0x2fc536bf
    78f0: e8 c6 b6 dc  	.word	0xdcb6c6e8
    78f4: 0f 83 81 be  	.word	0xbe81830f
    78f8: 52 af 7b 82  	.word	0x827baf52
    78fc: 45 70 6c 55  	.word	0x556c7045
    7900: b7 d8 e9 02  	.word	0x02e9d8b7
    7904: 73 51 2b 8e  	.word	0x8e2b5173
    7908: e8 14 87 24  	.word	0x248714e8
    790c: 69 22 e5 e3  	.word	0xe3e52269
    7910: b5 60 a9 4c  	.word	0x4ca960b5
    7914: 77 bd 4f bd  	.word	0xbd4fbd77
    7918: a9 ad ec c5  	.word	0xc5ecada9
    791c: 99 41 4b 6f  	.word	0x6f4b4199
    7920: 06 44 f4 2b  	.word	0x2bf44406
    7924: 02 90 4b b9  	.word	0xb94b9002
    7928: 34 b5 90 ff  	.word	0xff90b534
    792c: 7e 23 d4 ab  	.word	0xabd4237e
    7930: 3a 6d f8 fa  	.word	0xfaf86d3a
    7934: 60 a9 00 76  	.word	0x7600a960
    7938: e3 2e 32 c2  	.word	0xc2322ee3
    793c: da ab 45 2f  	.word	0x2f45abda
    7940: 6a 8a ef c8  	.word	0xc8ef8a6a
    7944: 12 49 af 61  	.word	0x61af4912
    7948: 5e 6e fb 43  	.word	0x43fb6e5e
    794c: fe a4 8f e5  	.word	0xe58fa4fe
    7950: cf 27 d4 6f  	.word	0x6fd427cf
    7954: 5d cc af b5  	.word	0xb5afcc5d
    7958: eb 11 1e 1e  	.word	0x1e1e11eb
    795c: 28 93 53 6a  	.word	0x6a539328
    7960: 89 ee d1 a5  	.word	0xa5d1ee89
    7964: 39 51 da f3  	.word	0xf3da5139
    7968: 88 69 93 ff  	.word	0xff936988
    796c: 7c 45 45 81  	.word	0x8145457c
    7970: c4 88 e1 00  	.word	0x00e188c4
    7974: ed 2f 62 3f  	.word	0x3f622fed
    7978: 3d 5a 8b db  	.word	0xdb8b5a3d
    797c: 15 38 51 0f  	.word	0x0f513815
    7980: cf 43 94 14  	.word	0x149443cf
    7984: fe 04 ff 0f  	.word	0x0fff04fe
    7988: d7 dd 5c 86  	.word	0x865cddd7
    798c: d9 c6 ca 53  	.word	0x53cac6d9
    7990: b7 d1 1e 53  	.word	0x531ed1b7
    7994: 03 5b 38 31  	.word	0x31385b03
    7998: 9d 03 d1 ac  	.word	0xacd1039d
    799c: 7c a2 46 58  	.word	0x5846a27c
    79a0: 17 87 b0 1e  	.word	0x1eb08717
    79a4: ac cd f5 4f  	.word	0x4ff5cdac
    79a8: bc e9 f2 90  	.word	0x90f2e9bc
    79ac: 95 b2 e8 67  	.word	0x67e8b295
    79b0: 99 fa 7a 23  	.word	0x237afa99
    79b4: 5e 3b 09 44  	.word	0x44093b5e
    79b8: b2 b8 08 87  	.word	0x8708b8b2
    79bc: ed 4b 41 0d  	.word	0x0d414bed
    79c0: f6 75 0e fd  	.word	0xfd0e75f6
    79c4: 65 82 b6 cf  	.word	0xcfb68265
    79c8: 07 e7 90 bb  	.word	0xbb90e707
    79cc: 28 3e 5b e4  	.word	0xe45b3e28
    79d0: 7a 2c f9 9f  	.word	0x9ff92c7a
    79d4: de a8 42 72  	.word	0x7242a8de
    79d8: dd 02 32 93  	.word	0x933202dd
    79dc: 01 32 5b 68  	.word	0x685b3201
    79e0: e8 c9 4a 29  	.word	0x294ac9e8
    79e4: 92 6a 88 81  	.word	0x81886a92
    79e8: be 47 55 d5  	.word	0xd55547be
    79ec: 45 2b 16 23  	.word	0x23162b45
    79f0: 83 59 71 03  	.word	0x03715983
    79f4: 44 bc cf 94  	.word	0x94cfbc44
    79f8: 01 c4 4b 13  	.word	0x134bc401
    79fc: db 8f eb 50  	.word	0x50eb8fdb
    7a00: cd 30 b3 d6  	.word	0xd6b330cd
    7a04: c6 3e b7 c0  	.word	0xc0b73ec6
    7a08: f1 af 2f 13  	.word	0x132faff1
    7a0c: 07 48 e4 84  	.word	0x84e44807
    7a10: e1 de a5 c4  	.word	0xc4a5dee1
    7a14: 52 73 2b 73  	.word	0x732b7352
    7a18: d2 d2 7c aa  	.word	0xaa7cd2d2
    7a1c: f1 7c 7c 5d  	.word	0x5d7c7cf1
    7a20: a2 af 4a 7a  	.word	0x7a4aafa2
    7a24: bf 46 3b af  	.word	0xaf3b46bf
    7a28: 11 d4 40 4d  	.word	0x4d40d411
    7a2c: ec 05 87 b7  	.word	0xb78705ec
    7a30: e3 15 7c ca  	.word	0xca7c15e3
    7a34: 6a 0c 4f 11  	.word	0x114f0c6a
    7a38: 4d 9d 48 a9  	.word	0xa9489d4d
    7a3c: aa 4f 36 3f  	.word	0x3f364faa
    7a40: 62 a5 73 9b  	.word	0x9b73a562
    7a44: 3e 01 d1 33  	.word	0x33d1013e
    7a48: e1 26 ec 48  	.word	0x48ec26e1
    7a4c: 57 ef 5c 92  	.word	0x925cef57
    7a50: 58 80 46 dd  	.word	0xdd468058
    7a54: 14 e6 fc a7  	.word	0xa7fce614
    7a58: 38 a4 9a 1e  	.word	0x1e9aa438
    7a5c: d4 fa b0 78  	.word	0x78b0fad4
    7a60: 88 b4 05 ed  	.word	0xed05b488
    7a64: 31 a4 56 bf  	.word	0xbf56a431
    7a68: 7e 5c 49 9c  	.word	0x9c495c7e
    7a6c: 6c e6 33 a5  	.word	0xa533e66c
    7a70: 1a 65 f3 87  	.word	0x87f3651a
    7a74: af 2b 65 e8  	.word	0xe8652baf
    7a78: 33 6c d6 59  	.word	0x59d66c33
    7a7c: 00 80 41 02  	.word	0x02418000
    7a80: e4 5b 7a a3  	.word	0xa37a5be4
    7a84: fe 77 b0 ce  	.word	0xceb077fe
    7a88: b7 ee a5 e5  	.word	0xe5a5eeb7
    7a8c: 02 2f 64 db  	.word	0xdb642f02
    7a90: b8 70 12 47  	.word	0x471270b8
    7a94: c5 d0 e6 c2  	.word	0xc2e6d0c5
    7a98: 9c 52 e4 38  	.word	0x38e4529c
    7a9c: 55 b6 71 47  	.word	0x4771b655
    7aa0: 01 ea 38 cf  	.word	0xcf38ea01
    7aa4: 7d 0c 35 28  	.word	0x28350c7d
    7aa8: b6 7a 91 b2  	.word	0xb2917ab6
    7aac: c0 db 6c 7c  	.word	0x7c6cdbc0
    7ab0: f7 82 70 85  	.word	0x857082f7
    7ab4: be cf e7 ac  	.word	0xace7cfbe
    7ab8: e0 a1 d9 a2  	.word	0xa2d9a1e0
    7abc: ab 45 28 4d  	.word	0x4d2845ab
    7ac0: de 70 70 44  	.word	0x447070de
    7ac4: e0 7f 53 bb  	.word	0xbb537fe0
    7ac8: df 57 d5 6d  	.word	0x6dd557df
    7acc: 43 44 a7 cb  	.word	0xcba74443
    7ad0: cb db 00 36  	.word	0x3600dbcb
    7ad4: 47 a3 b5 d3  	.word	0xd3b5a347
    7ad8: f8 d7 ff f9  	.word	0xf9ffd7f8
    7adc: e6 bb ea 4a  	.word	0x4aeabbe6
    7ae0: 8c f7 d8 40  	.word	0x40d8f78c
    7ae4: 9e 11 30 46  	.word	0x4630119e
    7ae8: 11 0e 71 3c  	.word	0x3c710e11
    7aec: c5 9b 1a a0  	.word	0xa01a9bc5
    7af0: 79 dd 10 89  	.word	0x8910dd79
    7af4: 25 2b 6d 48  	.word	0x486d2b25
    7af8: e5 24 03 db  	.word	0xdb0324e5
    7afc: b3 47 6c 1e  	.word	0x1e6c47b3
    7b00: f2 c8 a9 c4  	.word	0xc4a9c8f2
    7b04: bc 34 21 6a  	.word	0x6a2134bc
    7b08: 37 2e ce 8a  	.word	0x8ace2e37
    7b0c: 1c fd f8 fb  	.word	0xfbf8fd1c
    7b10: ba a0 11 99  	.word	0x9911a0ba
    7b14: 04 e3 0a 00  	.word	0x000ae304
    7b18: 9e 9b c8 6b  	.word	0x6bc89b9e
    7b1c: 61 3a 6e 04  	.word	0x046e3a61
    7b20: be 06 39 f0  	.word	0xf03906be
    7b24: 42 54 e6 14  	.word	0x14e65442
    7b28: 2a be 62 e3  	.word	0xe362be2a
    7b2c: 54 9d 01 4a  	.word	0x4a019d54
    7b30: c7 30 c2 8d  	.word	0x8dc230c7
    7b34: ec df cc 68  	.word	0x68ccdfec
    7b38: 1c 86 6b af  	.word	0xaf6b861c
    7b3c: 3f 7e fb 7c  	.word	0x7cfb7e3f
    7b40: dc ae 58 8c  	.word	0x8c58aedc
    7b44: 4e 97 37 46  	.word	0x4637974e
    7b48: a4 41 f0 ab  	.word	0xabf041a4
    7b4c: fb 22 ef b9  	.word	0xb9ef22fb
    7b50: 8a 71 80 e9  	.word	0xe980718a
    7b54: 56 d9 85 e1  	.word	0xe185d956
    7b58: a6 a8 43 b1  	.word	0xb143a8a6
    7b5c: fa 78 1b 2f  	.word	0x2f1b78fa
    7b60: 51 2f 5b 30  	.word	0x305b2f51
    7b64: fb bf ee 96  	.word	0x96eebffb
    7b68: b8 96 95 88  	.word	0x889596b8
    7b6c: ad 38 f9 d3  	.word	0xd3f938ad
    7b70: 25 dd d5 46  	.word	0x46d5dd25
    7b74: c7 2d f5 f0  	.word	0xf0f52dc7
    7b78: 95 00 3a bb  	.word	0xbb3a0095
    7b7c: 90 82 96 57  	.word	0x57968290
    7b80: 01 e1 20 0a  	.word	0x0a20e101
    7b84: 43 b8 1a f7  	.word	0xf71ab843
    7b88: 47 ec f0 24  	.word	0x24f0ec47
    7b8c: 8d 65 93 f3  	.word	0xf393658d
    7b90: d1 ee e2 6e  	.word	0x6ee2eed1
    7b94: a8 09 75 cf  	.word	0xcf7509a8
    7b98: e1 a3 2a dc  	.word	0xdc2aa3e1
    7b9c: 35 3e c4 7d  	.word	0x7dc43e35
    7ba0: c3 d9 7d 88  	.word	0x887dd9c3
    7ba4: 65 66 96 85  	.word	0x85966665
    7ba8: 55 53 b0 4b  	.word	0x4bb05355
    7bac: 31 9b 0f c9  	.word	0xc90f9b31
    7bb0: b1 79 20 ef  	.word	0xef2079b1
    7bb4: f8 8d e0 c6  	.word	0xc6e08df8
    7bb8: 2f c1 8c 75  	.word	0x758cc12f
    7bbc: 16 20 f7 7e  	.word	0x7ef72016
    7bc0: 18 97 3e 27  	.word	0x273e9718
    7bc4: 5c 2a 78 5a  	.word	0x5a782a5c
    7bc8: 94 fd 4e 5e  	.word	0x5e4efd94
    7bcc: 99 c6 76 35  	.word	0x3576c699
    7bd0: 3e 7d 23 1f  	.word	0x1f237d3e
    7bd4: 05 d8 2e 0f  	.word	0x0f2ed805
    7bd8: 99 0a d5 82  	.word	0x82d50a99
    7bdc: 1d b8 4f 04  	.word	0x044fb81d
    7be0: d9 e3 07 a9  	.word	0xa907e3d9
    7be4: c5 18 df c1  	.word	0xc1df18c5
    7be8: 59 63 4c ce  	.word	0xce4c6359
    7bec: 1d 37 b3 57  	.word	0x57b3371d
    7bf0: 49 bb 01 b2  	.word	0xb201bb49
    7bf4: 34 45 70 ca  	.word	0xca704534
    7bf8: 2e dd 30 9c  	.word	0x9c30dd2e
    7bfc: 3f 82 79 7f  	.word	0x7f79823f
    7c00: e8 13 b5 a3  	.word	0xa3b513e8
    7c04: 39 d2 34 83  	.word	0x8334d239
    7c08: d8 a8 1f b9  	.word	0xb91fa8d8
    7c0c: d4 70 36 c1  	.word	0xc13670d4
    7c10: 33 bd 90 f5  	.word	0xf590bd33
    7c14: 36 41 b5 12  	.word	0x12b54136
    7c18: b4 d9 84 d7  	.word	0xd784d9b4
    7c1c: 73 03 4e 0a  	.word	0x0a4e0373
    7c20: ba 87 f5 68  	.word	0x68f587ba
    7c24: f0 1f 9c 6a  	.word	0x6a9c1ff0
    7c28: de c8 50 00  	.word	0x0050c8de
    7c2c: 4e 89 27 08  	.word	0x0827894e
    7c30: e7 5b ed 7d  	.word	0x7ded5be7
    7c34: 55 99 bf 3c  	.word	0x3cbf9955
    7c38: f0 d6 06 1c  	.word	0x1c06d6f0
    7c3c: 43 b0 a9 64  	.word	0x64a9b043
    7c40: 19 29 7d 5b  	.word	0x5b7d2919
    7c44: a1 d6 b3 2e  	.word	0x2eb3d6a1
    7c48: 35 82 3a d5  	.word	0xd53a8235
    7c4c: a0 f6 b4 b0  	.word	0xb0b4f6a0
    7c50: 47 5d a4 89  	.word	0x89a45d47
    7c54: 43 ce 56 71  	.word	0x7156ce43
    7c58: 6c 34 18 ce  	.word	0xce18346c
    7c5c: 0a 7d 1a 07  	.word	0x071a7d0a
    7c60: 0b ba 87 c8  	.word	0xc887ba0b
    7c64: aa 2d 07 d3  	.word	0xd3072daa
    7c68: ee 62 a5 bf  	.word	0xbfa562ee
    7c6c: 05 29 26 01  	.word	0x01262905
    7c70: 8b 76 ef c0  	.word	0xc0ef768b
    7c74: 02 30 54 cf  	.word	0xcf543002
    7c78: 9c 7e ea 46  	.word	0x46ea7e9c
    7c7c: 71 cc 3b 2c  	.word	0x2c3bcc71
    7c80: 31 44 e1 20  	.word	0x20e14431
    7c84: 52 35 0c cc  	.word	0xcc0c3552
    7c88: 41 51 b1 09  	.word	0x09b15141
    7c8c: 07 95 65 0d  	.word	0x0d659507
    7c90: 36 5f 9d 20  	.word	0x209d5f36
    7c94: 1b 62 f5 9a  	.word	0x9af5621b
    7c98: d3 55 77 61  	.word	0x617755d3
    7c9c: f7 bc 69 7c  	.word	0x7c69bcf7
    7ca0: 5f 29 e8 04  	.word	0x04e8295f
    7ca4: eb d7 f0 07  	.word	0x07f0d7eb
    7ca8: 7d f3 50 2f  	.word	0x2f50f37d
    7cac: 25 18 db 10  	.word	0x10db1825
    7cb0: d7 98 17 17  	.word	0x171798d7
    7cb4: a3 a9 51 e9  	.word	0xe951a9a3
    7cb8: 1d a5 ac 22  	.word	0x22aca51d
    7cbc: 73 9a 5a 6f  	.word	0x6f5a9a73
    7cc0: c5 c6 41 2f  	.word	0x2f41c6c5
    7cc4: 0c 00 a1 8b  	.word	0x8ba1000c
    7cc8: 9b fb fe 0c  	.word	0x0cfefb9b
    7ccc: c1 79 9f c4  	.word	0xc49f79c1
    7cd0: 9f 1c c5 3c  	.word	0x3cc51c9f
    7cd4: 70 47 fa 4e  	.word	0x4efa4770
    7cd8: ca af 47 e1  	.word	0xe147afca
    7cdc: a2 21 4e 49  	.word	0x494e21a2
    7ce0: be 44 d9 a3  	.word	0xa3d944be
    7ce4: eb d4 29 e7  	.word	0xe729d4eb
    7ce8: 9e af 78 80  	.word	0x8078af9e
    7cec: 40 09 9e 8d  	.word	0x8d9e0940
    7cf0: 03 9c 86 47  	.word	0x47869c03
    7cf4: 7a 56 25 45  	.word	0x4525567a
    7cf8: 24 3b 8d ee  	.word	0xee8d3b24
    7cfc: 80 96 ab 02  	.word	0x02ab9680
    7d00: 9a 0d e5 dd  	.word	0xdde50d9a
    7d04: 85 8a a4 ef  	.word	0xefa48a85
    7d08: 49 a2 b9 0f  	.word	0x0fb9a249
    7d0c: 4e 22 9a 21  	.word	0x219a224e
    7d10: d9 f6 1e d9  	.word	0xd91ef6d9
    7d14: 1d 1f 09 fa  	.word	0xfa091f1d
    7d18: 34 bb 46 ea  	.word	0xea46bb34
    7d1c: cb 76 5d 6b  	.word	0x6b5d76cb
    7d20: 94 d9 0c ec  	.word	0xec0cd994
    7d24: 6c 55 57 88  	.word	0x8857556c
    7d28: ba 1d d0 5c  	.word	0x5cd01dba
    7d2c: 6f dc 72 64  	.word	0x6472dc6f
    7d30: 77 b4 42 8f  	.word	0x8f42b477
    7d34: 14 69 01 af  	.word	0xaf016914
    7d38: 54 73 27 85  	.word	0x85277354
    7d3c: f6 33 e3 0a  	.word	0x0ae333f6
    7d40: 22 25 78 1e  	.word	0x1e782522
    7d44: 17 41 f9 e0  	.word	0xe0f94117
    7d48: d3 36 69 03  	.word	0x036936d3
    7d4c: 74 ae e6 f1  	.word	0xf1e6ae74
    7d50: 46 c7 fc d0  	.word	0xd0fcc746
    7d54: a2 3e 8b 40  	.word	0x408b3ea2
    7d58: 3e 31 dd 03  	.word	0x03dd313e
    7d5c: 9c 86 fb 16  	.word	0x16fb869c
    7d60: 62 09 b6 33  	.word	0x33b60962
    7d64: 97 19 8e 28  	.word	0x288e1997
    7d68: 33 e1 ab d8  	.word	0xd8abe133
    7d6c: b4 72 fc 24  	.word	0x24fc72b4
    7d70: 3e d0 91 09  	.word	0x0991d03e
    7d74: ed f7 11 48  	.word	0x4811f7ed
    7d78: 75 d0 70 8f  	.word	0x8f70d075
    7d7c: 8b e3 81 3f  	.word	0x3f81e38b
    7d80: fe af d9 7e  	.word	0x7ed9affe
    7d84: cc 0f 91 7f  	.word	0x7f910fcc
    7d88: 4b 87 65 24  	.word	0x2465874b
    7d8c: a1 b8 5c 54  	.word	0x545cb8a1
    7d90: 04 47 0c 4b  	.word	0x4b0c4704
    7d94: d2 7e 39 a8  	.word	0xa8397ed2
    7d98: 93 09 f5 04  	.word	0x04f50993
    7d9c: c1 0f 51 50  	.word	0x50510fc1
    7da0: 24 c8 17 5f  	.word	0x5f17c824
    7da4: 35 7f db 0a  	.word	0x0adb7f35
    7da8: a4 99 42 d7  	.word	0xd74299a4
    7dac: c3 23 b9 74  	.word	0x74b923c3
    7db0: f7 ea f8 cb  	.word	0xcbf8eaf7
    7db4: 8b 3e 7c d5  	.word	0xd57c3e8b
    7db8: 3d dc de 4c  	.word	0x4cdedc3d
    7dbc: d3 e2 d3 0a  	.word	0x0ad3e2d3
    7dc0: 9d 24 6e 33  	.word	0x336e249d
    7dc4: c5 0f 0c 6f  	.word	0x6f0c0fc5
    7dc8: d9 cf 31 c3  	.word	0xc331cfd9
    7dcc: 19 de 5e 74  	.word	0x745ede19
    7dd0: 1c fe ee 09  	.word	0x09eefe1c
    7dd4: 00 fd d6 f2  	.word	0xf2d6fd00
    7dd8: be 1e fa f0  	.word	0xf0fa1ebe
    7ddc: 8b 15 7c 12  	.word	0x127c158b
    7de0: a2 79 98 2e  	.word	0x2e9879a2
    7de4: 42 7c 19 f6  	.word	0xf6197c42
    7de8: 47 36 ca 52  	.word	0x52ca3647
    7dec: d4 dd 4a a4  	.word	0xa44addd4
    7df0: cb ac 4e 4b  	.word	0x4b4eaccb
    7df4: c1 3f 41 9b  	.word	0x9b413fc1
    7df8: 68 4f ef 07  	.word	0x07ef4f68
    7dfc: 7d f8 4e 35  	.word	0x354ef87d
    7e00: 74 b9 51 ae  	.word	0xae51b974
    7e04: c4 8f a2 de  	.word	0xdea28fc4
    7e08: 96 fe 4d 74  	.word	0x744dfe96
    7e0c: d3 73 99 1d  	.word	0x1d9973d3
    7e10: a8 48 38 87  	.word	0x873848a8
    7e14: 0b 68 40 62  	.word	0x6240680b
    7e18: 95 df 67 d1  	.word	0xd167df95
    7e1c: 79 24 d8 4e  	.word	0x4ed82479
    7e20: 75 d9 c5 60  	.word	0x60c5d975
    7e24: 22 b5 e3 fe  	.word	0xfee3b522
    7e28: b8 b0 41 eb  	.word	0xeb41b0b8
    7e2c: fc 2e 35 50  	.word	0x50352efc
    7e30: 3c 65 f6 a9  	.word	0xa9f6653c
    7e34: 30 ac 08 88  	.word	0x8808ac30
    7e38: 6d 23 39 05  	.word	0x0539236d
    7e3c: d2 92 2d 30  	.word	0x302d92d2
    7e40: 7c fb 3e cb  	.word	0xcb3efb7c
    7e44: 3f 02 59 4c  	.word	0x4c59023f
    7e48: 94 2a 3c c6  	.word	0xc63c2a94
    7e4c: 99 cb 2f 6c  	.word	0x6c2fcb99
    7e50: 84 e0 c7 c3  	.word	0xc3c7e084
    7e54: e2 90 41 ba  	.word	0xba4190e2
    7e58: d9 74 18 a5  	.word	0xa51874d9
    7e5c: ae 5d 54 0e  	.word	0x0e545dae
    7e60: 30 3c f5 0d  	.word	0x0df53c30
    7e64: 8b 8b 7b 95  	.word	0x957b8b8b
    7e68: 98 f0 60 8e  	.word	0x8e60f098
    7e6c: 0a 77 1c 2a  	.word	0x2a1c770a
    7e70: de 96 57 34  	.word	0x345796de
    7e74: 70 a6 c7 bb  	.word	0xbbc7a670
    7e78: c9 9b c9 90  	.word	0x90c99bc9
    7e7c: 9a 8f a4 22  	.word	0x22a48f9a
    7e80: 58 ac 3f 8d  	.word	0x8d3fac58
    7e84: dc c0 7d 6b  	.word	0x6b7dc0dc
    7e88: fd 2b e4 e6  	.word	0xe6e42bfd
    7e8c: 6c cd 97 54  	.word	0x5497cd6c
    7e90: 05 d3 00 f4  	.word	0xf400d305
    7e94: 1b 7d 2f 54  	.word	0x542f7d1b
    7e98: 36 91 8d 04  	.word	0x048d9136
    7e9c: 7f f4 59 41  	.word	0x4159f47f
    7ea0: 32 1e e3 39  	.word	0x39e31e32
    7ea4: 08 66 ad 20  	.word	0x20ad6608
    7ea8: 50 be 05 84  	.word	0x8405be50
    7eac: d5 1b 1e f8  	.word	0xf81e1bd5
    7eb0: 69 bc da f4  	.word	0xf4dabc69
    7eb4: 56 40 06 f8  	.word	0xf8064056
    7eb8: 75 b9 71 ce  	.word	0xce71b975
    7ebc: d4 3d d2 14  	.word	0x14d23dd4
    7ec0: 39 48 d2 bb  	.word	0xbbd24839
    7ec4: a8 15 85 74  	.word	0x748515a8
    7ec8: 55 2b b0 af  	.word	0xafb02b55
    7ecc: 47 83 12 77  	.word	0x77128347
    7ed0: 7f a1 a2 49  	.word	0x49a2a17f
    7ed4: c6 2a ba 50  	.word	0x50ba2ac6
    7ed8: f1 30 d7 3a  	.word	0x3ad730f1
    7edc: 51 25 05 06  	.word	0x06052551
    7ee0: 82 7f a2 8a  	.word	0x8aa27f82
    7ee4: 09 8e 39 f2  	.word	0xf2398e09
    7ee8: 24 b0 a1 89  	.word	0x89a1b024
    7eec: bb 82 79 6d  	.word	0x6d7982bb
    7ef0: 4c d2 4d 21  	.word	0x214dd24c
    7ef4: 84 40 69 fa  	.word	0xfa694084
    7ef8: c3 01 23 a3  	.word	0xa32301c3
    7efc: 6f 96 ab 71  	.word	0x71ab966f
    7f00: fc 02 ed 4d  	.word	0x4ded02fc
    7f04: e3 d8 cb 2d  	.word	0x2dcbd8e3
    7f08: aa 22 6f 59  	.word	0x596f22aa
    7f0c: ec f3 51 11  	.word	0x1151f3ec
    7f10: da 28 03 4e  	.word	0x4e0328da
    7f14: 43 55 a2 bc  	.word	0xbca25543
    7f18: 22 1b 41 92  	.word	0x92411b22
    7f1c: be 8f 76 35  	.word	0x35768fbe
    7f20: 55 99 80 02  	.word	0x02809955
    7f24: 07 8a 08 b1  	.word	0xb1088a07
    7f28: 91 c3 43 0b  	.word	0x0b43c391
    7f2c: ea 73 b2 43  	.word	0x43b273ea
    7f30: ed 86 06 fe  	.word	0xfe0686ed
    7f34: ae 67 9b ca  	.word	0xca9b67ae
    7f38: ed f4 35 83  	.word	0x8335f4ed
    7f3c: bf ec 5e 60  	.word	0x605eecbf
    7f40: 31 04 34 6c  	.word	0x6c340431
    7f44: 65 0a 20 83  	.word	0x83200a65
    7f48: 2f 9c e5 8e  	.word	0x8ee59c2f
    7f4c: 67 71 cd 9f  	.word	0x9fcd7167
    7f50: 8a 0f 30 71  	.word	0x71300f8a
    7f54: 3f 61 d4 75  	.word	0x75d4613f
    7f58: f9 42 f5 60  	.word	0x60f542f9
    7f5c: af 2f 91 7a  	.word	0x7a912faf
    7f60: 43 1a dc 5e  	.word	0x5edc1a43
    7f64: 5e 58 04 b2  	.word	0xb204585e
    7f68: 3c c7 97 58  	.word	0x5897c73c
    7f6c: ee 16 0e 9f  	.word	0x9f0e16ee
    7f70: 3c 48 70 4e  	.word	0x4e70483c
    7f74: ae c0 82 5b  	.word	0x5b82c0ae
    7f78: be f9 dd 2b  	.word	0x2bddf9be
    7f7c: 0e 17 4a 62  	.word	0x624a170e
    7f80: 97 55 2d fa  	.word	0xfa2d5597
    7f84: 8d 4f 3f 25  	.word	0x253f4f8d
    7f88: 0c 13 77 54  	.word	0x5477130c
    7f8c: 40 9c e4 25  	.word	0x25e49c40
    7f90: 02 11 6b 99  	.word	0x996b1102
    7f94: e5 52 c0 00  	.word	0x00c052e5
    7f98: 4a 6c bb 33  	.word	0x33bb6c4a
    7f9c: 6e 96 cb 33  	.word	0x33cb966e
    7fa0: 09 69 11 7f  	.word	0x7f116909
    7fa4: 04 28 70 59  	.word	0x59702804
    7fa8: 67 44 56 1e  	.word	0x1e564467
    7fac: 1c c4 8a 82  	.word	0x828ac41c
    7fb0: 87 73 21 e6  	.word	0xe6217387
    7fb4: bd 7d 41 70  	.word	0x70417dbd
    7fb8: 84 43 ac fb  	.word	0xfbac4384
    7fbc: ae 27 16 72  	.word	0x721627ae
    7fc0: d5 ad 36 87  	.word	0x8736add5
    7fc4: c3 3b d0 97  	.word	0x97d03bc3
    7fc8: 30 b1 32 c5  	.word	0xc532b130
    7fcc: af 22 14 2f  	.word	0x2f1422af
    7fd0: c4 bb 01 71  	.word	0x7101bbc4
    7fd4: 05 8a a6 3a  	.word	0x3aa68a05
    7fd8: a7 9f 4f e7  	.word	0xe74f9fa7
    7fdc: f7 6c 94 4c  	.word	0x4c946cf7
    7fe0: 22 2f 0b 41  	.word	0x410b2f22
    7fe4: bc 97 30 fd  	.word	0xfd3097bc
    7fe8: 44 a8 cf b5  	.word	0xb5cfa844
    7fec: a7 5d a0 f1  	.word	0xf1a05da7
    7ff0: 74 ca 57 ef  	.word	0xef57ca74
    7ff4: 1d 9a 28 61  	.word	0x61289a1d
    7ff8: 02 19 82 bb  	.word	0xbb821902
    7ffc: 99 a1 5e 24  	.word	0x245ea199
    8000: f8 77 d4 78  	.word	0x78d477f8
    8004: 69 a6 dc ae  	.word	0xaedca669
    8008: e1 7f 11 29  	.word	0x29117fe1
    800c: 3c ba 98 18  	.word	0x1898ba3c
    8010: 58 bd 0c 72  	.word	0x720cbd58
    8014: 83 f9 73 cf  	.word	0xcf73f983
    8018: 51 63 b5 b8  	.word	0xb8b56351
    801c: e6 12 da 67  	.word	0x67da12e6
    8020: 07 6e bd b4  	.word	0xb4bd6e07
    8024: 87 e1 67 70  	.word	0x7067e187
    8028: 74 fe d1 c7  	.word	0xc7d1fe74
    802c: 03 02 8f 6e  	.word	0x6e8f0203
    8030: 30 5a c8 38  	.word	0x38c85a30
    8034: 2f aa c6 93  	.word	0x93c6aa2f
    8038: 8a a7 75 3d  	.word	0x3d75a78a
    803c: 1f 7d 29 76  	.word	0x76297d1f
    8040: 8c 30 c8 8e  	.word	0x8ec8308c
    8044: d3 f3 7e 2b  	.word	0x2b7ef3d3
    8048: ab 94 eb 71  	.word	0x71eb94ab
    804c: ec d7 8f 82  	.word	0x828fd7ec
    8050: bd 2a 06 c5  	.word	0xc5062abd
    8054: 36 3b 7c 80  	.word	0x807c3b36
    8058: 41 41 a9 31  	.word	0x31a94141
    805c: b8 4c b6 0c  	.word	0x0cb64cb8
    8060: 78 63 4c 53  	.word	0x534c6378
    8064: 33 fc 30 30  	.word	0x3030fc33
    8068: 61 e8 41 e5  	.word	0xe541e861
    806c: 5c 5c 63 b9  	.word	0xb9635c5c
    8070: 28 c7 b2 d9  	.word	0xd9b2c728
    8074: be a9 d9 15  	.word	0x15d9a9be
    8078: cb 5d 77 f3  	.word	0xf3775dcb
    807c: a3 3e 23 49  	.word	0x49233ea3
    8080: 3a fc bf 8d  	.word	0x8dbffc3a
    8084: fa 98 93 62  	.word	0x629398fa
    8088: 55 b4 4d d5  	.word	0xd54db455
    808c: 2d e5 2f e1  	.word	0xe12fe52d
    8090: 95 52 f2 da  	.word	0xdaf25295
    8094: df 11 be f3  	.word	0xf3be11df
    8098: 51 7b 5e ce  	.word	0xce5e7b51
    809c: 0d 14 8b 62  	.word	0x628b140d
    80a0: 9b 24 9f 1c  	.word	0x1c9f249b
    80a4: fe 85 39 7b  	.word	0x7b3985fe
    80a8: 93 32 23 a1  	.word	0xa1233293
    80ac: d5 b2 d6 4f  	.word	0x4fd6b2d5
    80b0: 62 4d df 1a  	.word	0x1adf4d62
    80b4: 94 45 b3 ce  	.word	0xceb34594
    80b8: 0c e5 2d 54  	.word	0x542de50c
    80bc: 6f ff 87 69  	.word	0x6987ff6f
    80c0: 3c 75 83 8f  	.word	0x8f83753c
    80c4: 42 41 e2 47  	.word	0x47e24142
    80c8: 97 f9 6a 86  	.word	0x866af997
    80cc: bc be 17 63  	.word	0x6317bebc
    80d0: 29 98 1a 3d  	.word	0x3d1a9829
    80d4: 43 5b bb da  	.word	0xdabb5b43
    80d8: 2d fb 87 52  	.word	0x5287fb2d
    80dc: 24 8d 4d 07  	.word	0x074d8d24
    80e0: 31 fc 0b 44  	.word	0x440bfc31
    80e4: cd d9 37 83  	.word	0x8337d9cd
    80e8: d7 8f 31 af  	.word	0xaf318fd7
    80ec: a1 2c 9d 72  	.word	0x729d2ca1
    80f0: 70 20 2c 77  	.word	0x772c2070
    80f4: a4 a4 40 a0  	.word	0xa040a4a4
    80f8: be 49 73 3a  	.word	0x3a7349be
    80fc: f0 2e 00 46  	.word	0x46002ef0
    8100: 88 14 e3 c0  	.word	0xc0e31488
    8104: c6 75 18 48  	.word	0x481875c6
    8108: b4 34 20 e2  	.word	0xe22034b4
    810c: b2 29 94 21  	.word	0x219429b2
    8110: 65 3b 28 31  	.word	0x31283b65
    8114: 8a c9 23 72  	.word	0x7223c98a
    8118: f9 77 22 34  	.word	0x342277f9
    811c: 0b d6 20 34  	.word	0x3420d60b
    8120: f7 65 fe af  	.word	0xaffe65f7
    8124: de 3a a2 fa  	.word	0xfaa23ade
    8128: 4c 76 e0 5b  	.word	0x5be0764c
    812c: d4 1e 26 78  	.word	0x78261ed4
    8130: 03 44 16 2f  	.word	0x2f164403
    8134: 1e 0a 1c 44  	.word	0x441c0a1e
    8138: 95 d3 87 7a  	.word	0x7a87d395
    813c: 56 8e ea 5a  	.word	0x5aea8e56
    8140: 3d 28 a4 bc  	.word	0xbca4283d
    8144: a2 c1 13 78  	.word	0x7813c1a2
    8148: d9 3d 86 a1  	.word	0xa1863dd9
    814c: 91 f0 62 ed  	.word	0xed62f091
    8150: 86 fa 68 c2  	.word	0xc268fa86
    8154: b8 bc c7 ae  	.word	0xaec7bcb8
    8158: 4c ae 1c 6f  	.word	0x6f1cae4c
    815c: b7 d3 e5 10  	.word	0x10e5d3b7
    8160: 77 f1 e0 e4  	.word	0xe4e0f177
    8164: b6 6f bc 2d  	.word	0x2dbc6fb6
    8168: 93 6a bd a4  	.word	0xa4bd6a93
    816c: 29 bf e1 04  	.word	0x04e1bf29
    8170: e8 f6 7a 78  	.word	0x787af6e8
    8174: d4 66 19 5e  	.word	0x5e1966d4
    8178: 60 d0 26 b4  	.word	0xb426d060
    817c: 5e 5f dc 0e  	.word	0x0edc5f5e
    8180: 67 8e da 53  	.word	0x53da8e67
    8184: d6 bf 53 54  	.word	0x5453bfd6
    8188: 41 f6 a9 24  	.word	0x24a9f641
    818c: ec 1e dc e9  	.word	0xe9dc1eec
    8190: 23 8a 57 03  	.word	0x03578a23
    8194: 3b 26 87 bf  	.word	0xbf87263b
    8198: 72 ba 1c 36  	.word	0x361cba72
    819c: 51 6c b4 45  	.word	0x45b46c51
    81a0: a1 7f 4f 31  	.word	0x314f7fa1
    81a4: bf 2a 40 a9  	.word	0xa9402abf
    81a8: 50 f4 8c 8e  	.word	0x8e8cf450
    81ac: dc f1 57 e2  	.word	0xe257f1dc
    81b0: 84 be a8 23  	.word	0x23a8be84
    81b4: 4b d5 bb 1d  	.word	0x1dbbd54b
    81b8: 3b 71 cb 6d  	.word	0x6dcb713b
    81bc: a3 bf 77 21  	.word	0x2177bfa3
    81c0: e4 e3 7f 8a  	.word	0x8a7fe3e4
    81c4: dd 4d 9d ce  	.word	0xce9d4ddd
    81c8: 30 0e 62 76  	.word	0x76620e30
    81cc: 56 64 13 ab  	.word	0xab136456
    81d0: 58 99 0e b3  	.word	0xb30e9958
    81d4: 7b 4f 59 4b  	.word	0x4b594f7b
    81d8: df 29 12 32  	.word	0x321229df
    81dc: ef 0a 1c 5c  	.word	0x5c1c0aef
    81e0: 8f db 79 fa  	.word	0xfa79db8f
    81e4: bc 1b 08 37  	.word	0x37081bbc
    81e8: b3 59 5f c2  	.word	0xc25f59b3
    81ec: 1e 81 48 60  	.word	0x6048811e
    81f0: 87 24 83 9c  	.word	0x9c832487
    81f4: 65 76 7a 08  	.word	0x087a7665
    81f8: bb b5 8a 7d  	.word	0x7d8ab5bb
    81fc: 38 19 e6 4a  	.word	0x4ae61938
    8200: 2e a3 44 53  	.word	0x5344a32e
    8204: aa f6 db 8d  	.word	0x8ddbf6aa
    8208: 78 40 1b b4  	.word	0xb41b4078
    820c: b4 ea 88 7d  	.word	0x7d88eab4
    8210: 60 0d 13 4a  	.word	0x4a130d60
    8214: 97 eb b0 5e  	.word	0x5eb0eb97
    8218: 03 3e bf 17  	.word	0x17bf3e03
    821c: 1b d9 00 1a  	.word	0x1a00d91b
    8220: 83 fb 5b 98  	.word	0x985bfb83
    8224: 44 7e 11 61  	.word	0x61117e44
    8228: 36 31 96 71  	.word	0x71963136
    822c: 2a 46 e0 fc  	.word	0xfce0462a
    8230: 4b 90 25 d4  	.word	0xd425904b
    8234: 48 34 ac 83  	.word	0x83ac3448
    8238: 64 3d a4 5b  	.word	0x5ba43d64
    823c: be 5a 68 75  	.word	0x75685abe
    8240: b2 f2 61 eb  	.word	0xeb61f2b2
    8244: 33 09 96 6e  	.word	0x6e960933
    8248: 52 49 ff c9  	.word	0xc9ff4952
    824c: a8 0f 3d 54  	.word	0x543d0fa8
    8250: 69 65 f6 7a  	.word	0x7af66569
    8254: 10 75 72 df  	.word	0xdf727510
    8258: aa e6 b0 23  	.word	0x23b0e6aa
    825c: b6 29 55 13  	.word	0x135529b6
    8260: 18 d5 d1 ad  	.word	0xadd1d518
    8264: d7 db f0 18  	.word	0x18f0dbd7
    8268: 11 1f c1 cf  	.word	0xcfc11f11
    826c: 88 78 9f 97  	.word	0x979f7888
    8270: 9b 75 14 71  	.word	0x7114759b
    8274: f0 e1 32 87  	.word	0x8732e1f0
    8278: 01 3a ca 65  	.word	0x65ca3a01
    827c: 1a b8 b5 79  	.word	0x79b5b81a
    8280: fe 83 2e e2  	.word	0xe22e83fe
    8284: bc 16 c7 f5  	.word	0xf5c716bc
    8288: c1 85 09 e8  	.word	0xe80985c1
    828c: 19 eb 2b b4  	.word	0xb42beb19
    8290: ae 4a 25 14  	.word	0x14254aae
    8294: 37 a6 9d ec  	.word	0xec9da637
    8298: 13 a6 90 15  	.word	0x1590a613
    829c: 05 ea 72 59  	.word	0x5972ea05
    82a0: 11 78 8f dc  	.word	0xdc8f7811
    82a4: 20 ac d4 0f  	.word	0x0fd4ac20
    82a8: a8 4f 4d ac  	.word	0xac4d4fa8
    82ac: 94 d2 9a 9a  	.word	0x9a9ad294
    82b0: 34 04 36 b3  	.word	0xb3360434
    82b4: 64 2d 1b c0  	.word	0xc01b2d64
    82b8: db 3b 5f 90  	.word	0x905f3bdb
    82bc: 95 9c 7e 4f  	.word	0x4f7e9c95
    82c0: 2e 30 81 57  	.word	0x5781302e
    82c4: bc 4b 67 62  	.word	0x62674bbc
    82c8: 0f dc ad 89  	.word	0x89addc0f
    82cc: 39 0f 52 d8  	.word	0xd8520f39
    82d0: c6 d9 fb 53  	.word	0x53fbd9c6
    82d4: ae 99 29 8c  	.word	0x8c2999ae
    82d8: 4c 8e 63 2e  	.word	0x2e638e4c
    82dc: d9 3a 99 31  	.word	0x31993ad9
    82e0: fe 99 52 35  	.word	0x355299fe
    82e4: 3d 44 c8 71  	.word	0x71c8443d
    82e8: d7 ea eb db  	.word	0xdbebead7
    82ec: 1c 3b cd 8b  	.word	0x8bcd3b1c
    82f0: 66 94 a4 f1  	.word	0xf1a49466
    82f4: 9e 49 92 80  	.word	0x8092499e
    82f8: c8 ad 44 a1  	.word	0xa144adc8
    82fc: c4 ee 42 19  	.word	0x1942eec4
    8300: 92 49 23 ae  	.word	0xae234992
    8304: 19 53 ac 7d  	.word	0x7dac5319
    8308: 92 3e ea 0c  	.word	0x0cea3e92
    830c: 91 3d 1b 2c  	.word	0x2c1b3d91
    8310: 22 11 3c 25  	.word	0x253c1122
    8314: 94 e4 3c 55  	.word	0x553ce494
    8318: 75 ca f9 4e  	.word	0x4ef9ca75
    831c: 31 65 0a 2a  	.word	0x2a0a6531
    8320: c2 27 f9 f7  	.word	0xf7f927c2
    8324: 7f 93 b7 2d  	.word	0x2db7937f
    8328: 35 a6 d0 17  	.word	0x17d0a635
    832c: 06 1f 74 db  	.word	0xdb741f06
    8330: 76 af 55 11  	.word	0x1155af76
    8334: a2 f3 82 59  	.word	0x5982f3a2
    8338: ed 2d 7c 64  	.word	0x647c2ded
    833c: 18 e2 f6 4c  	.word	0x4cf6e218
    8340: 3a 79 1c 3c  	.word	0x3c1c793a
    8344: cd 1a 36 cf  	.word	0xcf361acd
    8348: 3b bc 35 5a  	.word	0x5a35bc3b
    834c: ac bc 9e 2f  	.word	0x2f9ebcac
    8350: ab a6 cd a8  	.word	0xa8cda6ab
    8354: e9 60 e8 60  	.word	0x60e860e9
    8358: 13 1a ea 6d  	.word	0x6dea1a13
    835c: 9b c3 5d 05  	.word	0x055dc39b
    8360: b6 5b 8d c2  	.word	0xc28d5bb6
    8364: 7c 22 19 b1  	.word	0xb119227c
    8368: ab ff 4d 77  	.word	0x774dffab
    836c: bc 4e e2 07  	.word	0x07e24ebc
    8370: 89 2c a3 e4  	.word	0xe4a32c89
    8374: ce 78 3c a8  	.word	0xa83c78ce
    8378: b6 24 aa 10  	.word	0x10aa24b6
    837c: 77 30 1a 12  	.word	0x121a3077
    8380: 97 4a 03 9f  	.word	0x9f034a97
    8384: 5e 5d db e4  	.word	0xe4db5d5e
    8388: 2d bc 34 30  	.word	0x3034bc2d
    838c: 09 fc 53 e1  	.word	0xe153fc09
    8390: b1 d3 51 95  	.word	0x9551d3b1
    8394: 91 46 05 46  	.word	0x46054691
    8398: 2d e5 40 7a  	.word	0x7a40e52d
    839c: 6c c7 3f 33  	.word	0x333fc76c
    83a0: c9 83 74 c7  	.word	0xc77483c9
    83a4: 3e 71 59 d6  	.word	0xd659713e
    83a8: af 96 2b b8  	.word	0xb82b96af
    83ac: 77 e0 bf 88  	.word	0x88bfe077
    83b0: d3 bc 97 10  	.word	0x1097bcd3
    83b4: 23 28 9e 28  	.word	0x289e2823
    83b8: 9b 3a ed 6c  	.word	0x6ced3a9b
    83bc: 4a b9 7b 52  	.word	0x527bb94a
    83c0: 2e 48 5b 99  	.word	0x995b482e
    83c4: 2a 99 3d 56  	.word	0x563d992a
    83c8: 01 38 38 6e  	.word	0x6e383801
    83cc: 7c d0 05 34  	.word	0x3405d07c
    83d0: e5 d8 64 2f  	.word	0x2f64d8e5
    83d4: de 35 50 48  	.word	0x485035de
    83d8: f7 a9 a7 20  	.word	0x20a7a9f7
    83dc: 9b 06 89 6b  	.word	0x6b89069b
    83e0: 0d 22 70 62  	.word	0x6270220d
    83e4: 41 a0 2a 81  	.word	0x812aa041
    83e8: 4e 5b 24 f9  	.word	0xf9245b4e
    83ec: fa 89 5a 99  	.word	0x995a89fa
    83f0: 05 ef 72 50  	.word	0x5072ef05
    83f4: ce c4 ad ff  	.word	0xffadc4ce
    83f8: 73 eb 73 aa  	.word	0xaa73eb73
    83fc: 03 21 bc 23  	.word	0x23bc2103
    8400: 77 db c7 b5  	.word	0xb5c7db77
    8404: 8c fa 82 40  	.word	0x4082fa8c
    8408: 55 c1 34 c7  	.word	0xc734c155
    840c: f8 86 86 06  	.word	0x068686f8
    8410: 7e a5 e7 f6  	.word	0xf6e7a57e
    8414: d9 c8 e6 29  	.word	0x29e6c8d9
    8418: cf 9b 63 a7  	.word	0xa7639bcf
    841c: 08 d3 73 04  	.word	0x0473d308
    8420: 05 9e 58 03  	.word	0x03589e05
    8424: 26 79 ee ca  	.word	0xcaee7926
    8428: 92 c4 dc 46  	.word	0x46dcc492
    842c: 12 42 4b 2b  	.word	0x2b4b4212
    8430: 4f a9 01 e6  	.word	0xe601a94f
    8434: 74 ef a1 02  	.word	0x02a1ef74
    8438: 1a 34 04 de  	.word	0xde04341a
    843c: bf 73 2f 10  	.word	0x102f73bf
    8440: 3e 0d c2 7e  	.word	0x7ec20d3e
    8444: 0c d5 a2 b5  	.word	0xb5a2d50c
    8448: 63 72 c9 a0  	.word	0xa0c97263
    844c: 6e dd 4b c6  	.word	0xc64bdd6e
    8450: 4d 73 ff c1  	.word	0xc1ff734d
    8454: 52 90 e8 56  	.word	0x56e89052
    8458: ba fa 2f 2b  	.word	0x2b2ffaba
    845c: f7 c6 29 49  	.word	0x4929c6f7
    8460: 47 62 a3 93  	.word	0x93a36247
    8464: a2 cb 8e 35  	.word	0x358ecba2
    8468: 65 fd 68 b2  	.word	0xb268fd65
    846c: 62 98 8f af  	.word	0xaf8f9862
    8470: 89 1c a0 68  	.word	0x68a01c89
    8474: 99 7e 2f 41  	.word	0x412f7e99
    8478: 24 45 75 cd  	.word	0xcd754524
    847c: 12 f3 86 57  	.word	0x5786f312
    8480: 2c 03 14 ca  	.word	0xca14032c
    8484: ff 88 77 33  	.word	0x337788ff
    8488: e3 1e 7f 44  	.word	0x447f1ee3
    848c: 28 10 92 f3  	.word	0xf3921028
    8490: ad cc 1b 23  	.word	0x231bccad
    8494: 1f 07 14 8b  	.word	0x8b14071f
    8498: 83 47 34 f2  	.word	0xf2344783
    849c: 4b 7b 81 4c  	.word	0x4c817b4b
    84a0: 6e b9 71 28  	.word	0x2871b96e
    84a4: 85 53 f8 0f  	.word	0x0ff85385
    84a8: bb f1 c3 60  	.word	0x60c3f1bb
    84ac: ab 9f 3e e1  	.word	0xe13e9fab
    84b0: 02 44 34 25  	.word	0x25344402
    84b4: 53 59 fd ee  	.word	0xeefd5953
    84b8: 4b 74 b7 75  	.word	0x75b7744b
    84bc: 70 c3 37 0a  	.word	0x0a37c370
    84c0: 84 44 0b a4  	.word	0xa40b4484
    84c4: 57 a0 3b 41  	.word	0x413ba057
    84c8: 43 6a 5f 4f  	.word	0x4f5f6a43
    84cc: 1a 2e 4c ba  	.word	0xba4c2e1a
    84d0: 1c d6 e1 ae  	.word	0xaee1d61c
    84d4: a5 a0 4b 61  	.word	0x614ba0a5
    84d8: 53 dc 05 8b  	.word	0x8b05dc53
    84dc: 1a 53 a1 78  	.word	0x78a1531a
    84e0: 2b 56 d0 3a  	.word	0x3ad0562b
    84e4: 70 f1 bd 6c  	.word	0x6cbdf170
    84e8: a3 21 25 c9  	.word	0xc92521a3
    84ec: 30 48 cf 8e  	.word	0x8ecf4830
    84f0: e7 24 84 fd  	.word	0xfd8424e7
    84f4: 03 d3 eb da  	.word	0xdaebd303
    84f8: 6f c5 5e 2e  	.word	0x2e5ec56f
    84fc: a4 82 ad 72  	.word	0x72ad82a4
    8500: f6 65 fb ba  	.word	0xbafb65f6
    8504: 35 8e 9e 3f  	.word	0x3f9e8e35
    8508: a1 93 72 f2  	.word	0xf27293a1
    850c: c8 9e d6 39  	.word	0x39d69ec8
    8510: d0 a3 f6 8c  	.word	0x8cf6a3d0
    8514: 95 cd b8 6c  	.word	0x6cb8cd95
    8518: 6d ae ad 73  	.word	0x73adae6d
    851c: 81 77 34 17  	.word	0x17347781
    8520: c3 4b 02 67  	.word	0x67024bc3
    8524: 91 93 68 c3  	.word	0xc3689391
    8528: da 2f 50 49  	.word	0x49502fda
    852c: 6d d1 69 8e  	.word	0x8e69d16d
    8530: 29 4b 5f e4  	.word	0xe45f4b29
    8534: 3c ec f2 fc  	.word	0xfcf2ec3c
    8538: c4 cb b4 a3  	.word	0xa3b4cbc4
    853c: 9e 66 5f 06  	.word	0x065f669e
    8540: 4d db 32 55  	.word	0x5532db4d
    8544: c7 ae 00 8a  	.word	0x8a00aec7
    8548: b1 1b e3 43  	.word	0x43e31bb1
    854c: e4 a4 69 b8  	.word	0xb869a4e4
    8550: 15 f5 a7 d3  	.word	0xd3a7f515
    8554: 52 85 0f 4a  	.word	0x4a0f8552
    8558: 08 7c 3d 30  	.word	0x303d7c08
    855c: 7c eb ad 19  	.word	0x19adeb7c
    8560: a3 d9 ea 53  	.word	0x53ead9a3
    8564: 61 cb 20 c7  	.word	0xc720cb61
    8568: 6e 63 2b 51  	.word	0x512b636e
    856c: 7f c9 b2 55  	.word	0x55b2c97f
    8570: b1 90 02 d4  	.word	0xd40290b1
    8574: 5f 5b e3 b1  	.word	0xb1e35b5f
    8578: e2 0e 53 3b  	.word	0x3b530ee2
    857c: f1 cc d9 2f  	.word	0x2fd9ccf1
    8580: 94 17 c3 43  	.word	0x43c31794
    8584: 7d ba 05 9d  	.word	0x9d05ba7d
    8588: 26 25 32 93  	.word	0x93322526
    858c: ff c8 70 24  	.word	0x2470c8ff
    8590: 38 74 19 16  	.word	0x16197438
    8594: c8 de 23 83  	.word	0x8323dec8
    8598: 53 9b 56 81  	.word	0x81569b53
    859c: 98 70 52 28  	.word	0x28527098
    85a0: b8 96 f7 47  	.word	0x47f796b8
    85a4: 5b 47 bd 07  	.word	0x07bd475b
    85a8: 54 8f 2c 54  	.word	0x542c8f54
    85ac: 13 b0 c7 d2  	.word	0xd2c7b013
    85b0: 7e f8 24 3b  	.word	0x3b24f87e
    85b4: f4 23 bd 2d  	.word	0x2dbd23f4
    85b8: d6 01 09 7b  	.word	0x7b0901d6
    85bc: d7 af 51 65  	.word	0x6551afd7
    85c0: 7f c2 aa 54  	.word	0x54aac27f
    85c4: af ba 46 45  	.word	0x4546baaf
    85c8: 28 5a a4 b2  	.word	0xb2a45a28
    85cc: ec 6f f6 f6  	.word	0xf6f66fec
    85d0: e8 cf 2b 56  	.word	0x562bcfe8
    85d4: 5b 1b 2d 58  	.word	0x582d1b5b
    85d8: 5f 78 0f 92  	.word	0x920f785f
    85dc: f3 23 b1 44  	.word	0x44b123f3
    85e0: ac c9 d5 a1  	.word	0xa1d5c9ac
    85e4: e3 4c a2 68  	.word	0x68a24ce3
    85e8: 61 64 ff 10  	.word	0x10ff6461
    85ec: 3d a3 77 bb  	.word	0xbb77a33d
    85f0: 6e 16 d3 25  	.word	0x25d3166e
    85f4: 44 ce 86 0f  	.word	0x0f86ce44
    85f8: 3b 62 b9 50  	.word	0x50b9623b
    85fc: 09 7c 50 56  	.word	0x56507c09
    8600: 63 3e 71 d1  	.word	0xd1713e63
    8604: b7 f0 06 12  	.word	0x1206f0b7
    8608: 74 fc ba 15  	.word	0x15bafc74
    860c: d9 e3 3f 35  	.word	0x353fe3d9
    8610: 4d d9 d9 0a  	.word	0x0ad9d94d
    8614: 97 eb 4c 19  	.word	0x194ceb97
    8618: d3 3a d0 f9  	.word	0xf9d03ad3
    861c: 7c dd fa 62  	.word	0x62fadd7c
    8620: 74 a0 98 55  	.word	0x5598a074
    8624: 7b 96 b5 c6  	.word	0xc6b5967b
    8628: 25 3e 49 8e  	.word	0x8e493e25
    862c: ce 91 fe 5e  	.word	0x5efe91ce
    8630: 88 08 28 49  	.word	0x49280888
    8634: 45 2c b7 d4  	.word	0xd4b72c45
    8638: c2 40 67 a2  	.word	0xa26740c2
    863c: 49 11 ef 20  	.word	0x20ef1149
    8640: 94 45 ce e7  	.word	0xe7ce4594
    8644: 61 bc d7 3c  	.word	0x3cd7bc61
    8648: 7e 26 dd b7  	.word	0xb7dd267e
    864c: a9 35 6b cd  	.word	0xcd6b35a9
    8650: 27 ef 66 43  	.word	0x4366ef27
    8654: c8 ab 80 a0  	.word	0xa080abc8
    8658: 11 97 c7 59  	.word	0x59c79711
    865c: 6f c4 c7 6e  	.word	0x6ec7c46f
    8660: a2 a8 09 6f  	.word	0x6f09a8a2
    8664: 63 ad 07 2f  	.word	0x2f07ad63
    8668: 7d 5e 20 24  	.word	0x24205e7d
    866c: ce e6 97 86  	.word	0x8697e6ce
    8670: 39 a1 35 ee  	.word	0xee35a139
    8674: 05 fc ae c0  	.word	0xc0aefc05
    8678: 97 d8 f9 b5  	.word	0xb5f9d897
    867c: 58 09 e8 15  	.word	0x15e80958
    8680: 5b 23 3e 0c  	.word	0x0c3e235b
    8684: 7d ef a5 25  	.word	0x25a5ef7d
    8688: e7 4e 13 be  	.word	0xbe134ee7
    868c: 7f c1 39 6c  	.word	0x6c39c17f
    8690: 27 c3 c5 2d  	.word	0x2dc5c327
    8694: 34 e1 74 c7  	.word	0xc774e134
    8698: 39 1f 02 92  	.word	0x92021f39
    869c: b8 54 13 02  	.word	0x021354b8
    86a0: c4 61 b0 5b  	.word	0x5bb061c4
    86a4: 35 ed d1 4d  	.word	0x4dd1ed35
    86a8: 00 07 1c 94  	.word	0x941c0700
    86ac: ef 0c dc 42  	.word	0x42dc0cef
    86b0: 0e 34 86 fd  	.word	0xfd86340e
    86b4: c1 5d 30 61  	.word	0x61305dc1
    86b8: 43 a4 55 0e  	.word	0x0e55a443
    86bc: 93 cc b2 56  	.word	0x56b2cc93
    86c0: a2 c5 bf a6  	.word	0xa6bfc5a2
    86c4: a6 9d f7 1d  	.word	0x1df79da6
    86c8: 69 43 de 9f  	.word	0x9fde4369
    86cc: 74 a2 f3 02  	.word	0x02f3a274
    86d0: a7 90 a3 cd  	.word	0xcda390a7
    86d4: f2 d9 23 b3  	.word	0xb323d9f2
    86d8: 63 d3 74 87  	.word	0x8774d363
    86dc: 7b 84 e0 7b  	.word	0x7be0847b
    86e0: c3 55 3f 8b  	.word	0x8b3f55c3
    86e4: 5a cc 99 8c  	.word	0x8c99cc5a
    86e8: a0 d2 de 3f  	.word	0x3fded2a0
    86ec: 25 d7 11 06  	.word	0x0611d725
    86f0: 36 0a b7 36  	.word	0x36b70a36
    86f4: ff 95 29 ed  	.word	0xed2995ff
    86f8: 19 26 8a d7  	.word	0xd78a2619
    86fc: 54 9a 69 1f  	.word	0x1f699a54
    8700: 11 fa 07 53  	.word	0x5307fa11
    8704: af f5 66 14  	.word	0x1466f5af
    8708: f2 0a 6c ed  	.word	0xed6c0af2
    870c: 7d cc 7f 81  	.word	0x817fcc7d
    8710: fb a3 a4 c3  	.word	0xc3a4a3fb
    8714: 4e e4 6d 0a  	.word	0x0a6de44e
    8718: 0b 7d 92 bc  	.word	0xbc927d0b
    871c: 75 14 07 74  	.word	0x74071475
    8720: 8a ea e7 73  	.word	0x73e7ea8a
    8724: f3 92 72 e7  	.word	0xe77292f3
    8728: 31 5a 04 cb  	.word	0xcb045a31
    872c: d2 37 65 29  	.word	0x296537d2
    8730: de 4f 27 d3  	.word	0xd3274fde
    8734: 3e 65 d0 1b  	.word	0x1bd0653e
    8738: 66 29 bd 76  	.word	0x76bd2966
    873c: 44 2c 9a 2f  	.word	0x2f9a2c44
    8740: c6 45 57 7f  	.word	0x7f5745c6
    8744: ab b9 18 eb  	.word	0xeb18b9ab
    8748: 90 c6 87 57  	.word	0x5787c690
    874c: ee 8a 3a 02  	.word	0x023a8aee
    8750: a9 af f7 2d  	.word	0x2df7afa9
    8754: da 12 27 b7  	.word	0xb72712da
    8758: 3d 01 5c ea  	.word	0xea5c013d
    875c: 25 7d 59 36  	.word	0x36597d25
    8760: 9a 1c 51 b5  	.word	0xb5511c9a
    8764: e0 da b4 a2  	.word	0xa2b4dae0
    8768: 06 ff ff 2b  	.word	0x2bffff06
    876c: 29 60 c8 7a  	.word	0x7ac86029
    8770: 34 42 50 f5  	.word	0xf5504234
    8774: 5d 37 1f 98  	.word	0x981f375d
    8778: 2d a1 4e da  	.word	0xda4ea12d
    877c: 25 d7 6b 3f  	.word	0x3f6bd725
    8780: ac 58 60 10  	.word	0x106058ac
    8784: 7b 8d 4d 73  	.word	0x734d8d7b
    8788: 5f 90 c6 6f  	.word	0x6fc6905f
    878c: 9e 57 40 d9  	.word	0xd940579e
    8790: 2d 93 02 92  	.word	0x9202932d
    8794: f9 f8 66 64  	.word	0x6466f8f9
    8798: d0 d6 60 da  	.word	0xda60d6d0
    879c: 19 cc 7e 7b  	.word	0x7b7ecc19
    87a0: 0d 69 5c 69  	.word	0x695c690d
    87a4: 3c 37 c2 78  	.word	0x78c2373c
    87a8: 6e 90 42 06  	.word	0x0642906e
    87ac: 66 2e 25 dd  	.word	0xdd252e66
    87b0: d2 2b e1 4a  	.word	0x4ae12bd2
    87b4: 44 44 1d 95  	.word	0x951d4444
    87b8: 56 39 74 01  	.word	0x01743956
    87bc: 76 ad 35 42  	.word	0x4235ad76
    87c0: 9b fa 7c a7  	.word	0xa77cfa9b
    87c4: 51 4a ae 6d  	.word	0x6dae4a51
    87c8: 50 86 a3 e7  	.word	0xe7a38650
    87cc: 54 36 26 82  	.word	0x82263654
    87d0: db 82 2d 8f  	.word	0x8f2d82db
    87d4: cd ff bb 09  	.word	0x09bbffcd
    87d8: ba ca f5 1b  	.word	0x1bf5caba
    87dc: 66 dc be 03  	.word	0x03bedc66
    87e0: f5 75 89 07  	.word	0x078975f5
    87e4: 0d cb 58 62  	.word	0x6258cb0d
    87e8: 98 f2 89 91  	.word	0x9189f298
    87ec: 54 42 29 49  	.word	0x49294254
    87f0: e4 6e e3 e2  	.word	0xe2e36ee4
    87f4: 23 b4 ca a0  	.word	0xa0cab423
    87f8: a1 66 f0 cd  	.word	0xcdf066a1
    87fc: b0 e2 7c 0e  	.word	0x0e7ce2b0
    8800: a3 85 8c c4  	.word	0xc48c85a3
    8804: 3a 64 94 c4  	.word	0xc494643a
    8808: ad 39 61 3c  	.word	0x3c6139ad
    880c: f4 1d 36 fd  	.word	0xfd361df4
    8810: 48 4d e9 3a  	.word	0x3ae94d48
    8814: dd 17 db 09  	.word	0x09db17dd
    8818: 4a 67 b4 8f  	.word	0x8fb4674a
    881c: 5d 0a 6e 66  	.word	0x666e0a5d
    8820: f9 70 4b d9  	.word	0xd94b70f9
    8824: df fe a6 fe  	.word	0xfea6fedf
    8828: 2d ba fc c1  	.word	0xc1fcba2d
    882c: 51 c0 30 f1  	.word	0xf130c051
    8830: 89 ab 2f 7f  	.word	0x7f2fab89
    8834: 7e d4 82 48  	.word	0x4882d47e
    8838: b5 ee ec 8a  	.word	0x8aeceeb5
    883c: 13 56 52 61  	.word	0x61525613
    8840: 0d cb 70 48  	.word	0x4870cb0d
    8844: 4e f6 bb 2a  	.word	0x2abbf64e
    8848: 6b 8b 45 aa  	.word	0xaa458b6b
    884c: f0 bc 65 cd  	.word	0xcd65bcf0
    8850: 5d 98 e8 75  	.word	0x75e8985d
    8854: ba 4e be 9a  	.word	0x9abe4eba
    8858: e4 de 14 d5  	.word	0xd514dee4
    885c: 10 c8 0b 7f  	.word	0x7f0bc810
    8860: 6f 13 f4 26  	.word	0x26f4136f
    8864: a4 6b 00 b9  	.word	0xb9006ba4
    8868: 35 30 e0 57  	.word	0x57e03035
    886c: 9e 36 67 8d  	.word	0x8d67369e
    8870: 28 3c 46 4f  	.word	0x4f463c28
    8874: d9 df c8 cb  	.word	0xcbc8dfd9
    8878: f5 db ee f8  	.word	0xf8eedbf5
    887c: bc 8d 1f 0d  	.word	0x0d1f8dbc
    8880: a0 13 72 73  	.word	0x737213a0
    8884: ad 9d ac 83  	.word	0x83ac9dad
    8888: 98 2e f7 2e  	.word	0x2ef72e98
    888c: ba f8 f6 9f  	.word	0x9ff6f8ba
    8890: 57 69 ec 43  	.word	0x43ec6957
    8894: dd 2e 1e 31  	.word	0x311e2edd
    8898: 75 ab c5 de  	.word	0xdec5ab75
    889c: 7d 90 3a 1d  	.word	0x1d3a907d
    88a0: dc 81 d0 3e  	.word	0x3ed081dc
    88a4: 31 93 16 ba  	.word	0xba169331
    88a8: 80 34 1b 85  	.word	0x851b3480
    88ac: ad 9f 32 29  	.word	0x29329fad
    88b0: cb 21 03 03  	.word	0x030321cb
    88b4: 3c 01 28 01  	.word	0x0128013c
    88b8: e3 fd 1b a3  	.word	0xa31bfde3
    88bc: 44 1b 01 00  	.word	0x00011b44
    88c0: 0c 6c c6 3f  	.word	0x3fc66c0c
    88c4: 6c a0 df 3f  	.word	0x3fdfa06c
    88c8: d2 0d d6 4d  	.word	0x4dd60dd2
    88cc: 8e e3 40 5d  	.word	0x5d40e38e
    88d0: 71 4d 8e 26  	.word	0x268e4d71
    88d4: 38 8b e3 7a  	.word	0x7ae38b38
    88d8: e1 57 83 6e  	.word	0x6e8357e1
    88dc: 91 8d c4 3a  	.word	0x3ac48d91
    88e0: 5c a7 0a 6a  	.word	0x6a0aa75c
    88e4: 69 1f 56 16  	.word	0x16561f69
    88e8: 6a bd 52 58  	.word	0x5852bd6a
    88ec: 5c 72 bf c1  	.word	0xc1bf725c
    88f0: ad 66 79 9a  	.word	0x9a7966ad
    88f4: 7f dd a8 11  	.word	0x11a8dd7f
    88f8: 26 10 85 d2  	.word	0xd2851026
    88fc: a2 88 d9 63  	.word	0x63d988a2
    8900: 2e 23 bd af  	.word	0xafbd232e
    8904: 53 07 12 00  	.word	0x00120753
    8908: 83 f6 d8 fd  	.word	0xfdd8f683
    890c: b8 ce 2b e9  	.word	0xe92bceb8
    8910: 91 2b e7 84  	.word	0x84e72b91
    8914: b3 69 16 f8  	.word	0xf81669b3
    8918: 66 a0 68 23  	.word	0x2368a066
    891c: 2b d5 fa 33  	.word	0x33fad52b
    8920: 16 1e e4 c5  	.word	0xc5e41e16
    8924: c6 49 06 54  	.word	0x540649c6
    8928: 35 77 3f 33  	.word	0x333f7735
    892c: 30 64 f8 0a  	.word	0x0af86430
    8930: 46 e7 05 f3  	.word	0xf305e746
    8934: d2 fc ac b2  	.word	0xb2acfcd2
    8938: a7 dc 56 a2  	.word	0xa256dca7
    893c: 29 f4 c0 16  	.word	0x16c0f429
    8940: e8 cf 22 c4  	.word	0xc422cfe8
    8944: d0 c8 2c 8d  	.word	0x8d2cc8d0
    8948: cb 3a a1 05  	.word	0x05a13acb
    894c: 7b 4f 2b 07  	.word	0x072b4f7b
    8950: 6f a5 f6 ec  	.word	0xecf6a56f
    8954: e6 b6 fe a3  	.word	0xa3feb6e6
    8958: e2 71 0a b9  	.word	0xb90a71e2
    895c: cc 55 c3 3c  	.word	0x3cc355cc
    8960: 31 91 3e 90  	.word	0x903e9131
    8964: 43 94 b6 e9  	.word	0xe9b69443
    8968: ce 37 56 7a  	.word	0x7a5637ce
    896c: cb 94 a4 b8  	.word	0xb8a494cb
    8970: 44 92 ba ba  	.word	0xbaba9244
    8974: a4 d1 7c c8  	.word	0xc87cd1a4
    8978: 68 75 ae 6b  	.word	0x6bae7568
    897c: 42 af 1e 63  	.word	0x631eaf42
    8980: 9f fe 66 da  	.word	0xda66fe9f
    8984: 10 04 e9 b3  	.word	0xb3e90410
    8988: a6 e5 16 6c  	.word	0x6c16e5a6
    898c: 52 4b dd 85  	.word	0x85dd4b52
    8990: 83 bf f9 1e  	.word	0x1ef9bf83
    8994: 61 97 3d bc  	.word	0xbc3d9761
    8998: b5 19 a9 1e  	.word	0x1ea919b5
    899c: 8b 64 99 55  	.word	0x5599648b
    89a0: e8 0d 70 a3  	.word	0xa3700de8
    89a4: b9 75 d9 47  	.word	0x47d975b9
    89a8: 52 05 f8 e2  	.word	0xe2f80552
    89ac: fb c5 80 72  	.word	0x7280c5fb
    89b0: e1 5d e4 32  	.word	0x32e45de1
    89b4: 27 8f 65 53  	.word	0x53658f27
    89b8: b5 80 5f 66  	.word	0x665f80b5
    89bc: 7f 2c 1f 43  	.word	0x431f2c7f
    89c0: 19 7b 8f 85  	.word	0x858f7b19
    89c4: 44 63 02 d6  	.word	0xd6026344
    89c8: 4a 51 ea a1  	.word	0xa1ea514a
    89cc: 2f 35 ab 14  	.word	0x14ab352f
    89d0: d7 a9 90 20  	.word	0x2090a9d7
    89d4: 1a 44 00 89  	.word	0x8900441a
    89d8: 26 3b 25 91  	.word	0x91253b26
    89dc: 5f 71 04 7b  	.word	0x7b04715f
    89e0: 43 ae f6 ac  	.word	0xacf6ae43
    89e4: 28 bd ed 83  	.word	0x83edbd28
    89e8: b4 7a 5c 7d  	.word	0x7d5c7ab4
    89ec: 8b 7c 35 86  	.word	0x86357c8b
    89f0: 44 2c eb b7  	.word	0xb7eb2c44
    89f4: 69 47 40 c0  	.word	0xc0404769
    89f8: 3f 58 f6 c2  	.word	0xc2f6583f
    89fc: f5 7b b3 59  	.word	0x59b37bf5
    8a00: c6 ba e6 c4  	.word	0xc4e6bac6
    8a04: 80 c2 76 b3  	.word	0xb376c280
    8a08: 0b 9b 1d 6d  	.word	0x6d1d9b0b
    8a0c: dd d3 0e 97  	.word	0x970ed3dd
    8a10: 44 f9 0b 45  	.word	0x450bf944
    8a14: 58 95 9a b0  	.word	0xb09a9558
    8a18: 23 e2 cd 57  	.word	0x57cde223
    8a1c: fa ac d0 48  	.word	0x48d0acfa
    8a20: 71 e6 ab 7d  	.word	0x7dabe671
    8a24: e4 26 0f b6  	.word	0xb60f26e4
    8a28: 37 3a 2f 62  	.word	0x622f3a37
    8a2c: 97 a1 d1 f1  	.word	0xf1d1a197
    8a30: 94 03 96 e9  	.word	0xe9960394
    8a34: 7e ce 08 42  	.word	0x4208ce7e
    8a38: db 3b 6d 33  	.word	0x336d3bdb
    8a3c: 91 41 23 16  	.word	0x16234191
    8a40: ef 3a a6 33  	.word	0x33a63aef
    8a44: c7 ea 9a f1  	.word	0xf19aeac7
    8a48: 4e 45 42 44  	.word	0x4442454e
    8a4c: 5d ba 7f 2c  	.word	0x2c7fba5d
    8a50: 41 e4 95 47  	.word	0x4795e441
    8a54: a0 7a a8 5d  	.word	0x5da87aa0
    8a58: f5 b0 e0 a4  	.word	0xa4e0b0f5
    8a5c: e1 51 30 41  	.word	0x413051e1
    8a60: be 8b 57 3d  	.word	0x3d578bbe
    8a64: fd d1 2d 85  	.word	0x852dd1fd
    8a68: 08 61 28 c3  	.word	0xc3286108
    8a6c: 72 ce 65 2b  	.word	0x2b65ce72
    8a70: 73 22 ce ea  	.word	0xeace2273
    8a74: f4 07 8c 65  	.word	0x658c07f4
    8a78: 40 ab 38 ec  	.word	0xec38ab40
    8a7c: 04 f8 33 09  	.word	0x0933f804
    8a80: 76 64 49 8d  	.word	0x8d496476
    8a84: 79 69 ab a7  	.word	0xa7ab6979
    8a88: c8 ab b5 fc  	.word	0xfcb5abc8
    8a8c: de aa 21 81  	.word	0x8121aade
    8a90: 72 94 53 7b  	.word	0x7b539472
    8a94: ef 12 dc a5  	.word	0xa5dc12ef
    8a98: 1a 35 45 5e  	.word	0x5e45351a
    8a9c: 06 47 fd 07  	.word	0x07fd4706
    8aa0: cd 2b 8d 25  	.word	0x258d2bcd
    8aa4: 3d 3c 58 c8  	.word	0xc8583c3d
    8aa8: 3f b7 60 af  	.word	0xaf60b73f
    8aac: 4d 9a 02 17  	.word	0x17029a4d
    8ab0: 81 37 6a 41  	.word	0x416a3781
    8ab4: d6 c9 0f fa  	.word	0xfa0fc9d6
    8ab8: 23 fb b3 38  	.word	0x38b3fb23
    8abc: ba 5f 1e 1c  	.word	0x1c1e5fba
    8ac0: c3 e7 e8 9a  	.word	0x9ae8e7c3
    8ac4: 55 11 42 30  	.word	0x30421155
    8ac8: a5 82 48 94  	.word	0x944882a5
    8acc: 29 b2 81 f2  	.word	0xf281b229
    8ad0: e4 50 82 37  	.word	0x378250e4
    8ad4: 2e ac 13 8a  	.word	0x8a13ac2e
    8ad8: f4 48 ba 54  	.word	0x54ba48f4
    8adc: 09 fa 4a 01  	.word	0x014afa09
    8ae0: 6c 66 b3 1b  	.word	0x1bb3666c
    8ae4: 00 97 31 cb  	.word	0xcb319700
    8ae8: b9 ec ff 4b  	.word	0x4bffecb9
    8aec: 52 60 00 33  	.word	0x33006052
    8af0: 3c 23 88 1a  	.word	0x1a88233c
    8af4: 99 11 37 29  	.word	0x29371199
    8af8: 64 d3 4e 3d  	.word	0x3d4ed364
    8afc: 36 84 18 29  	.word	0x29188436
    8b00: fa ab 4b dc  	.word	0xdc4babfa
    8b04: 05 68 3c 03  	.word	0x033c6805
    8b08: c1 ec 96 55  	.word	0x5596ecc1
    8b0c: 5e bf 15 2c  	.word	0x2c15bf5e
    8b10: 3b 1d 9b b5  	.word	0xb59b1d3b
    8b14: 24 06 c7 1b  	.word	0x1bc70624
    8b18: c5 0e 9f a1  	.word	0xa19f0ec5
    8b1c: 50 98 de 3e  	.word	0x3ede9850
    8b20: eb b6 1a bc  	.word	0xbc1ab6eb
    8b24: c3 37 9d fb  	.word	0xfb9d37c3
    8b28: 40 a2 57 4d  	.word	0x4d57a240
    8b2c: 53 14 be 02  	.word	0x02be1453
    8b30: f6 e1 a5 f8  	.word	0xf8a5e1f6
    8b34: 15 34 d7 f4  	.word	0xf4d73415
    8b38: 88 81 cc 0c  	.word	0x0ccc8188
    8b3c: 30 f4 64 59  	.word	0x5964f430
    8b40: 00 68 09 2d  	.word	0x2d096800
    8b44: 15 23 4a e4  	.word	0xe44a2315
    8b48: 96 69 86 70  	.word	0x70866996
    8b4c: 59 c5 08 5c  	.word	0x5c08c559
    8b50: 6e fb af 46  	.word	0x46affb6e
    8b54: 0a b6 2d df  	.word	0xdf2db60a
    8b58: 89 fd 56 f8  	.word	0xf856fd89
    8b5c: c1 55 91 57  	.word	0x579155c1
    8b60: ef c9 e0 12  	.word	0x12e0c9ef
    8b64: dd 4e 32 96  	.word	0x96324edd
    8b68: 97 02 42 f2  	.word	0xf2420297
    8b6c: 8d 87 8b 46  	.word	0x468b878d
    8b70: be 73 f5 a4  	.word	0xa4f573be
    8b74: 76 37 9a 19  	.word	0x199a3776
    8b78: 2a e9 91 8e  	.word	0x8e91e92a
    8b7c: f1 bc 7f 1e  	.word	0x1e7fbcf1
    8b80: a6 e7 17 08  	.word	0x0817e7a6
    8b84: 63 6b f1 b5  	.word	0xb5f16b63
    8b88: 26 10 35 3c  	.word	0x3c351026
    8b8c: 23 69 8c 80  	.word	0x808c6923
    8b90: 01 f2 ce 54  	.word	0x54cef201
    8b94: 3b 98 4a 32  	.word	0x324a983b
    8b98: 45 53 48 4a  	.word	0x4a485345
    8b9c: 08 92 c0 53  	.word	0x53c09208
    8ba0: bf af cb f1  	.word	0xf1cbafbf
    8ba4: 81 14 d4 d2  	.word	0xd2d41481
    8ba8: e5 74 61 71  	.word	0x716174e5
    8bac: b6 2d 1d 23  	.word	0x231d2db6
    8bb0: 98 5c a5 e2  	.word	0xe2a55c98
    8bb4: 56 76 7d 0b  	.word	0x0b7d7656
    8bb8: f6 95 a4 2a  	.word	0x2aa495f6
    8bbc: d8 5c 95 3e  	.word	0x3e955cd8
    8bc0: 33 54 d1 3e  	.word	0x3ed15433
    8bc4: 5e 53 8f e4  	.word	0xe48f535e
    8bc8: a3 70 72 0d  	.word	0x0d7270a3
    8bcc: 2a 69 75 d0  	.word	0xd075692a
    8bd0: 87 63 de aa  	.word	0xaade6387
    8bd4: 1d d2 fb 40  	.word	0x40fbd21d
    8bd8: f5 95 44 cf  	.word	0xcf4495f5
    8bdc: 87 48 26 14  	.word	0x14264887
    8be0: 3f 3a bb 61  	.word	0x61bb3a3f
    8be4: ef f3 39 ab  	.word	0xab39f3ef
    8be8: 3e 19 b9 2e  	.word	0x2eb9193e
    8bec: 65 00 b4 8e  	.word	0x8eb40065
    8bf0: 74 1f c1 38  	.word	0x38c11f74
    8bf4: cc 6e de b5  	.word	0xb5de6ecc
    8bf8: 9f c4 f3 26  	.word	0x26f3c49f
    8bfc: 96 7e 4d 65  	.word	0x654d7e96
    8c00: eb 2c 7d 5c  	.word	0x5c7d2ceb
    8c04: dd cf 64 e5  	.word	0xe564cfdd
    8c08: b9 cc 37 d7  	.word	0xd737ccb9
    8c0c: de af ee 82  	.word	0x82eeafde
    8c10: ab b0 f9 d1  	.word	0xd1f9b0ab
    8c14: 62 db 07 61  	.word	0x6107db62
    8c18: bb 8d 35 b4  	.word	0xb4358dbb
    8c1c: c3 aa 6b 0b  	.word	0x0b6baac3
    8c20: 98 fe 22 86  	.word	0x8622fe98
    8c24: cb 2b e6 7a  	.word	0x7ae62bcb
    8c28: af 91 b8 ce  	.word	0xceb891af
    8c2c: 56 22 76 47  	.word	0x47762256
    8c30: b4 06 e4 f2  	.word	0xf2e406b4
    8c34: bc 92 5a 1a  	.word	0x1a5a92bc
    8c38: 01 15 e4 84  	.word	0x84e41501
    8c3c: 17 40 29 7d  	.word	0x7d294017
    8c40: 3b a9 00 37  	.word	0x3700a93b
    8c44: d6 ba 4a 20  	.word	0x204abad6
    8c48: 73 93 77 da  	.word	0xda779373
    8c4c: d3 23 00 be  	.word	0xbe0023d3
    8c50: 09 b7 3a 63  	.word	0x633ab709
    8c54: 46 03 5f d8  	.word	0xd85f0346
    8c58: 12 04 82 90  	.word	0x90820412
    8c5c: c4 6d 49 00  	.word	0x00496dc4
    8c60: 60 63 7e c2  	.word	0xc27e6360
    8c64: 8d b8 74 1c  	.word	0x1c74b88d
    8c68: 0c 85 14 8d  	.word	0x8d14850c
    8c6c: 26 54 48 07  	.word	0x07485426
    8c70: 30 cb 0d 3e  	.word	0x3e0dcb30
    8c74: 7b fb 45 a1  	.word	0xa145fb7b
    8c78: 23 3b 80 43  	.word	0x43803b23
    8c7c: 1b 3f 84 10  	.word	0x10843f1b
    8c80: dd 76 62 37  	.word	0x376276dd
    8c84: 55 04 f9 c5  	.word	0xc5f90455
    8c88: d9 5c 64 d7  	.word	0xd7645cd9
    8c8c: 8d 15 59 ce  	.word	0xce59158d
    8c90: 39 6b 36 1d  	.word	0x1d366b39
    8c94: 51 5d f6 92  	.word	0x92f65d51
    8c98: c4 96 69 52  	.word	0x526996c4
    8c9c: 6e 4b 57 11  	.word	0x11574b6e
    8ca0: 9b 68 24 e3  	.word	0xe324689b
    8ca4: 2d 67 6f d5  	.word	0xd56f672d
    8ca8: 81 a9 94 b3  	.word	0xb394a981
    8cac: ed 8a da d1  	.word	0xd1da8aed
    8cb0: ed cf 68 91  	.word	0x9168cfed
    8cb4: fe 58 7b dd  	.word	0xdd7b58fe
    8cb8: e8 c1 56 4d  	.word	0x4d56c1e8
    8cbc: cd 46 e2 7c  	.word	0x7ce246cd
    8cc0: 53 be 80 7f  	.word	0x7f80be53
    8cc4: 8e 30 f4 b8  	.word	0xb8f4308e
    8cc8: 97 d3 a9 34  	.word	0x34a9d397
    8ccc: cb b8 3c 5f  	.word	0x5f3cb8cb
    8cd0: 2c 2b cc 33  	.word	0x33cc2b2c
    8cd4: bd 61 a9 18  	.word	0x18a961bd
    8cd8: 71 f6 9a 3a  	.word	0x3a9af671
    8cdc: fb 45 00 71  	.word	0x710045fb
    8ce0: eb 95 1b 10  	.word	0x101b95eb
    8ce4: 36 3d f9 73  	.word	0x73f93d36
    8ce8: 86 44 6f 4f  	.word	0x4f6f4486
    8cec: 79 33 ef fa  	.word	0xfaef3379
    8cf0: 62 e5 15 8f  	.word	0x8f15e562
    8cf4: 5f 73 51 56  	.word	0x5651735f
    8cf8: a1 0d b4 58  	.word	0x58b40da1
    8cfc: 90 f1 a3 7f  	.word	0x7fa3f190
    8d00: 9e 69 9d 05  	.word	0x059d699e
    8d04: 62 c8 3f a0  	.word	0xa03fc862
    8d08: 69 9e 61 9a  	.word	0x9a619e69
    8d0c: a1 cf 70 23  	.word	0x2370cfa1
    8d10: eb 3d 82 2f  	.word	0x2f823deb
    8d14: 12 3b fe c4  	.word	0xc4fe3b12
    8d18: 4e 84 f0 a7  	.word	0xa7f0844e
    8d1c: 6f 05 1b 1d  	.word	0x1d1b056f
    8d20: 1f f6 6b e5  	.word	0xe56bf61f
    8d24: 31 46 c6 1b  	.word	0x1bc64631
    8d28: a3 82 53 6e  	.word	0x6e5382a3
    8d2c: 10 ab 79 d3  	.word	0xd379ab10
    8d30: 8d 16 40 05  	.word	0x0540168d
    8d34: 7e c5 58 4d  	.word	0x4d58c57e
    8d38: e4 d8 42 84  	.word	0x8442d8e4
    8d3c: 62 56 62 56  	.word	0x56625662
    8d40: f6 7f 26 f6  	.word	0xf6267ff6
    8d44: de 99 e4 b9  	.word	0xb9e499de
    8d48: 43 08 2c 74  	.word	0x742c0843
    8d4c: 7b ca 72 77  	.word	0x7772ca7b
    8d50: b1 f2 a4 e9  	.word	0xe9a4f2b1
    8d54: 3f 15 a0 23  	.word	0x23a0153f
    8d58: 06 50 d0 d5  	.word	0xd5d05006
    8d5c: ec df df 2c  	.word	0x2cdfdfec
    8d60: 40 86 f3 1f  	.word	0x1ff38640
    8d64: d6 9c 49 dd  	.word	0xdd499cd6
    8d68: a0 25 36 06  	.word	0x063625a0
    8d6c: c3 9b cd 29  	.word	0x29cd9bc3
    8d70: c3 3d d7 3d  	.word	0x3dd73dc3
    8d74: 02 d8 e2 51  	.word	0x51e2d802
    8d78: 31 92 3b 20  	.word	0x203b9231
    8d7c: 7a 70 25 4a  	.word	0x4a25707a
    8d80: 6a ed f6 53  	.word	0x53f6ed6a
    8d84: 8a 66 b7 2a  	.word	0x2ab7668a
    8d88: a1 70 d1 1d  	.word	0x1dd170a1
    8d8c: 58 42 42 30  	.word	0x30424258
    8d90: 61 01 e2 3a  	.word	0x3ae20161
    8d94: 4c 14 00 40  	.word	0x4000144c
    8d98: fc 49 8e 24  	.word	0x248e49fc
    8d9c: 6d 89 21 57  	.word	0x5721896d
    8da0: ae 1b 18 fd  	.word	0xfd181bae
    8da4: 17 55 6e 0b  	.word	0x0b6e5517
    8da8: b4 63 b9 2b  	.word	0x2bb963b4
    8dac: 9f 62 22 90  	.word	0x9022629f
    8db0: 25 46 06 32  	.word	0x32064625
    8db4: e9 bc 09 55  	.word	0x5509bce9
    8db8: da 13 3c f6  	.word	0xf63c13da
    8dbc: 74 dd 8e 57  	.word	0x578edd74
    8dc0: 4e da d0 a1  	.word	0xa1d0da4e
    8dc4: 91 50 5d 28  	.word	0x285d5091
    8dc8: 08 3e fe b5  	.word	0xb5fe3e08
    8dcc: a7 6f aa 4b  	.word	0x4baa6fa7
    8dd0: b3 93 93 e1  	.word	0xe19393b3
    8dd4: 7c 17 e5 63  	.word	0x63e5177c
    8dd8: fd 30 b0 c4  	.word	0xc4b030fd
    8ddc: af 35 c9 03  	.word	0x03c935af
    8de0: 3d 0c 2b 49  	.word	0x492b0c3d
    8de4: c6 76 72 99  	.word	0x997276c6
    8de8: fc 05 e2 df  	.word	0xdfe205fc
    8dec: c4 c2 cc 47  	.word	0x47ccc2c4
    8df0: 3c 3a 62 dd  	.word	0xdd623a3c
    8df4: 84 9b d2 dc  	.word	0xdcd29b84
    8df8: a2 c7 88 02  	.word	0x0288c7a2
    8dfc: 59 ab c2 3e  	.word	0x3ec2ab59
    8e00: b9 7b d8 e4  	.word	0xe4d87bb9
    8e04: 7b d2 a0 a1  	.word	0xa1a0d27b
    8e08: ed 1a 39 61  	.word	0x61391aed
    8e0c: eb 4d 8b a9  	.word	0xa98b4deb
    8e10: 83 9b cb 73  	.word	0x73cb9b83
    8e14: d0 dd a0 99  	.word	0x99a0ddd0
    8e18: ce ca 0f 20  	.word	0x200fcace
    8e1c: 5a c2 d5 2d  	.word	0x2dd5c25a
    8e20: cb d1 32 ae  	.word	0xae32d1cb
    8e24: 09 3a 21 a7  	.word	0xa7213a09
    8e28: d5 c2 f5 40  	.word	0x40f5c2d5
    8e2c: df 87 2b 0f  	.word	0x0f2b87df
    8e30: 29 ab 1e e8  	.word	0xe81eab29
    8e34: c6 a4 ae 0b  	.word	0x0baea4c6
    8e38: 5e ac db 6a  	.word	0x6adbac5e
    8e3c: 6c f6 1b 0e  	.word	0x0e1bf66c
    8e40: 7e 88 2c 79  	.word	0x792c887e
    8e44: e9 d5 ab e2  	.word	0xe2abd5e9
    8e48: 5d 6d 92 cb  	.word	0xcb926d5d
    8e4c: 18 00 02 1a  	.word	0x1a020018
    8e50: 1e 5f ae ba  	.word	0xbaae5f1e
    8e54: cd 69 ba bf  	.word	0xbfba69cd
    8e58: 5f 8f e8 5a  	.word	0x5ae88f5f
    8e5c: b3 48 05 73  	.word	0x730548b3
    8e60: ee b8 a8 cb  	.word	0xcba8b8ee
    8e64: a3 51 35 c4  	.word	0xc43551a3
    8e68: 16 5f 11 b2  	.word	0xb2115f16
    8e6c: 1d 6f a2 65  	.word	0x65a26f1d
    8e70: 50 38 8c ab  	.word	0xab8c3850
    8e74: 52 4f 0f 76  	.word	0x760f4f52
    8e78: ca b8 1d 41  	.word	0x411db8ca
    8e7c: 3b 44 43 30  	.word	0x3043443b
    8e80: 34 e3 d6 a1  	.word	0xa1d6e334
    8e84: 4b 09 5b 80  	.word	0x805b094b
    8e88: 19 3f 35 09  	.word	0x09353f19
    8e8c: 77 f1 3e bf  	.word	0xbf3ef177
    8e90: 2b 70 22 06  	.word	0x0622702b
    8e94: cb 06 3f 42  	.word	0x423f06cb
    8e98: dd 45 78 d8  	.word	0xd87845dd
    8e9c: 77 22 5a 58  	.word	0x585a2277
    8ea0: 62 89 d4 33  	.word	0x33d48962
    8ea4: 82 5f 8a a1  	.word	0xa18a5f82
    8ea8: 7f 25 78 ec  	.word	0xec78257f
    8eac: b5 c4 98 66  	.word	0x6698c4b5
    8eb0: ff 41 3e 37  	.word	0x373e41ff
    8eb4: a5 6f 8e a7  	.word	0xa78e6fa5
    8eb8: 1f 98 ef 50  	.word	0x50ef981f
    8ebc: 89 27 56 76  	.word	0x76562789
    8ec0: c0 c8 1f d5  	.word	0xd51fc8c0
    8ec4: 59 cf c3 38  	.word	0x38c3cf59
    8ec8: f2 b6 06 05  	.word	0x0506b6f2
    8ecc: fd d2 ed 9b  	.word	0x9bedd2fd
    8ed0: 8f 0e 57 ab  	.word	0xab570e8f
    8ed4: 9f 10 bf 26  	.word	0x26bf109f
    8ed8: a6 46 b8 c1  	.word	0xc1b846a6
    8edc: a8 60 41 3f  	.word	0x3f4160a8
    8ee0: 9d cf 86 ea  	.word	0xea86cf9d
    8ee4: a3 73 70 e1  	.word	0xe17073a3
    8ee8: dc 5f 15 07  	.word	0x07155fdc
    8eec: b7 fb 8c 3a  	.word	0x3a8cfbb7
    8ef0: 8e 8a 83 31  	.word	0x31838a8e
    8ef4: fc e7 53 48  	.word	0x4853e7fc
    8ef8: 16 f6 13 b6  	.word	0xb613f616
    8efc: 84 f4 bb 28  	.word	0x28bbf484
    8f00: 7c 6c 13 6f  	.word	0x6f136c7c
    8f04: 5c 2f 61 f2  	.word	0xf2612f5c
    8f08: be 11 dd f6  	.word	0xf6dd11be
    8f0c: 07 d1 ea af  	.word	0xafead107
    8f10: 33 6f de 13  	.word	0x13de6f33
    8f14: d2 9a 7e 52  	.word	0x527e9ad2
    8f18: 5d f7 88 81  	.word	0x8188f75d
    8f1c: 35 cb 79 1e  	.word	0x1e79cb35
    8f20: f1 e3 f7 ee  	.word	0xeef7e3f1
    8f24: c3 36 34 01  	.word	0x013436c3
    8f28: f8 10 9e fe  	.word	0xfe9e10f8
    8f2c: 7f 6a 8b 82  	.word	0x828b6a7f
    8f30: fc de f9 bc  	.word	0xbcf9defc
    8f34: e5 08 f9 7f  	.word	0x7ff908e5
    8f38: 31 38 3b 3a  	.word	0x3a3b3831
    8f3c: 1b 95 d7 65  	.word	0x65d7951b
    8f40: 81 81 e0 f5  	.word	0xf5e08181
    8f44: d8 53 e9 77  	.word	0x77e953d8
    8f48: d9 de 9d 29  	.word	0x299dded9
    8f4c: 44 0c a5 84  	.word	0x84a50c44
    8f50: e5 25 45 86  	.word	0x864525e5
    8f54: 0c 2d 6c dc  	.word	0xdc6c2d0c
    8f58: f4 f2 d1 39  	.word	0x39d1f2f4
    8f5c: 2d b5 8a 47  	.word	0x478ab52d
    8f60: 59 d1 52 92  	.word	0x9252d159
    8f64: d3 a4 a6 66  	.word	0x66a6a4d3
    8f68: 07 c8 1a 87  	.word	0x871ac807
    8f6c: bc e1 dd e5  	.word	0xe5dde1bc
    8f70: 6f c9 c1 a6  	.word	0xa6c1c96f
    8f74: 40 6b 2c b8  	.word	0xb82c6b40
    8f78: 14 22 21 1a  	.word	0x1a212214
    8f7c: 41 7a d8 16  	.word	0x16d87a41
    8f80: 15 62 06 42  	.word	0x42066215
    8f84: 5a 7e bd b3  	.word	0xb3bd7e5a
    8f88: c1 24 5a 0c  	.word	0x0c5a24c1
    8f8c: cd e3 9b 87  	.word	0x879be3cd
    8f90: b7 94 f9 d6  	.word	0xd6f994b7
    8f94: b1 5d c0 57  	.word	0x57c05db1
    8f98: a6 8c f3 65  	.word	0x65f38ca6
    8f9c: 81 7c f8 28  	.word	0x28f87c81
    8fa0: 83 05 4e d5  	.word	0xd54e0583
    8fa4: e2 d5 a4 fb  	.word	0xfba4d5e2
    8fa8: fa 99 bd 2e  	.word	0x2ebd99fa
    8fac: d7 af 1f e2  	.word	0xe21fafd7
    8fb0: 8f 77 e9 6e  	.word	0x6ee9778f
    8fb4: 73 c2 7a 49  	.word	0x497ac273
    8fb8: de 6d 5a 7a  	.word	0x7a5a6dde
    8fbc: 57 0b 99 1f  	.word	0x1f990b57
    8fc0: d6 f7 e8 1b  	.word	0x1be8f7d6
    8fc4: ad 4e 34 a3  	.word	0xa3344ead
    8fc8: 8f 79 ea ac  	.word	0xacea798f
    8fcc: eb 50 1e 7d  	.word	0x7d1e50eb
    8fd0: 52 e0 0d 52  	.word	0x520de052
    8fd4: 9e 56 c6 77  	.word	0x77c6569e
    8fd8: 3e 6d 4d 53  	.word	0x534d6d3e
    8fdc: e1 2f 88 45  	.word	0x45882fe1
    8fe0: d6 83 79 75  	.word	0x757983d6
    8fe4: 5d 34 69 66  	.word	0x6669345d
    8fe8: a6 11 aa 17  	.word	0x17aa11a6
    8fec: 11 ed b6 62  	.word	0x62b6ed11
    8ff0: 8f 12 5e 98  	.word	0x985e128f
    8ff4: 57 18 dd 7d  	.word	0x7ddd1857
    8ff8: dd f6 26 f6  	.word	0xf626f6dd
    8ffc: b8 e5 8f 68  	.word	0x688fe5b8
    9000: e4 6f 3c 94  	.word	0x943c6fe4
    9004: 29 99 ac d8  	.word	0xd8ac9929
    9008: a2 92 83 a3  	.word	0xa38392a2
    900c: 61 f1 f9 b5  	.word	0xb5f9f161
    9010: f3 9a c8 be  	.word	0xbec89af3
    9014: 13 db 99 26  	.word	0x2699db13
    9018: 74 f0 05 e4  	.word	0xe405f074
    901c: 3c 84 cf 7d  	.word	0x7dcf843c
    9020: c0 32 47 4a  	.word	0x4a4732c0
    9024: 48 d6 90 6c  	.word	0x6c90d648
    9028: 99 32 56 ca  	.word	0xca563299
    902c: fd 43 21 d5  	.word	0xd52143fd
    9030: e1 c6 5d 91  	.word	0x915dc6e1
    9034: c3 28 be b3  	.word	0xb3be28c3
    9038: 1b 19 27 73  	.word	0x7327191b
    903c: 7e 68 39 67  	.word	0x6739687e
    9040: cf 14 08 20  	.word	0x200814cf
    9044: ea c5 65 9f  	.word	0x9f65c5ea
    9048: 40 17 a3 69  	.word	0x69a31740
    904c: e1 36 05 84  	.word	0x840536e1
    9050: ad b4 c8 25  	.word	0x25c8b4ad
    9054: 39 d1 0e 8b  	.word	0x8b0ed139
    9058: 1d 36 36 e9  	.word	0xe936361d
    905c: af db 80 00  	.word	0x0080dbaf
    9060: 1f 97 cb c9  	.word	0xc9cb971f
    9064: d0 aa e5 8c  	.word	0x8ce5aad0
    9068: 29 4a d5 9f  	.word	0x9fd54a29
    906c: a9 aa 56 11  	.word	0x1156aaa9
    9070: 78 9b af 15  	.word	0x15af9b78
    9074: 70 24 f7 41  	.word	0x41f72470
    9078: aa 49 0f 42  	.word	0x420f49aa
    907c: a8 cc e8 1f  	.word	0x1fe8cca8
    9080: 2a c8 0c 3c  	.word	0x3c0cc82a
    9084: 8f 84 a1 72  	.word	0x72a1848f
    9088: 54 9e 7c 87  	.word	0x877c9e54
    908c: c2 60 c5 38  	.word	0x38c560c2
    9090: 40 41 55 ce  	.word	0xce554140
    9094: 28 e2 04 50  	.word	0x5004e228
    9098: 71 9d 42 03  	.word	0x03429d71
    909c: a1 18 24 04  	.word	0x042418a1
    90a0: 5f ff f3 ab  	.word	0xabf3ff5f
    90a4: 51 ea 9d 89  	.word	0x899dea51
    90a8: ba d8 c2 2f  	.word	0x2fc2d8ba
    90ac: 67 a8 93 9b  	.word	0x9b93a867
    90b0: 5c bd 6e be  	.word	0xbe6ebd5c
    90b4: 97 cb 38 2c  	.word	0x2c38cb97
    90b8: 5d 3b 26 97  	.word	0x97263b5d
    90bc: 84 57 4d 11  	.word	0x114d5784
    90c0: 47 62 81 20  	.word	0x20816247
    90c4: 6f 4c e8 58  	.word	0x58e84c6f
    90c8: 93 d7 6f e3  	.word	0xe36fd793
    90cc: b6 b2 b2 8d  	.word	0x8db2b2b6
    90d0: 85 4d 48 1d  	.word	0x1d484d85
    90d4: 56 82 71 97  	.word	0x97718256
    90d8: d7 ab 32 86  	.word	0x8632abd7
    90dc: 4f 02 22 08  	.word	0x0822024f
    90e0: a3 ec 1b 6b  	.word	0x6b1beca3
    90e4: 7c bb 01 b3  	.word	0xb301bb7c
    90e8: 75 13 eb c6  	.word	0xc6eb1375
    90ec: 6d 3f 39 55  	.word	0x55393f6d
    90f0: eb e4 b6 97  	.word	0x97b6e4eb
    90f4: 10 28 0d 91  	.word	0x910d2810
    90f8: a3 9e 47 9d  	.word	0x9d479ea3
    90fc: 8d 54 d4 1a  	.word	0x1ad4548d
    9100: fd 48 9a 38  	.word	0x389a48fd
    9104: a0 7d 5a cd  	.word	0xcd5a7da0
    9108: 1e 37 78 9a  	.word	0x9a78371e
    910c: aa a4 8f b3  	.word	0xb38fa4aa
    9110: 6c 8e db 2c  	.word	0x2cdb8e6c
    9114: 1b 76 d9 c6  	.word	0xc6d9761b
    9118: 43 14 7e c9  	.word	0xc97e1443
    911c: db 51 cf 35  	.word	0x35cf51db
    9120: d3 fe e9 0f  	.word	0x0fe9fed3
    9124: 6d e6 6f a0  	.word	0xa06fe66d
    9128: 09 79 58 1c  	.word	0x1c587909
    912c: 40 3a 73 a8  	.word	0xa8733a40
    9130: 53 89 f9 0d  	.word	0x0df98953
    9134: 80 4d d1 30  	.word	0x30d14d80
    9138: 58 02 b3 c7  	.word	0xc7b30258
    913c: 76 58 ce 41  	.word	0x41ce5876
    9140: 22 c0 70 d6  	.word	0xd670c022
    9144: c5 3b ac 59  	.word	0x59ac3bc5
    9148: 06 94 11 9b  	.word	0x9b119406
    914c: 10 7c e6 ea  	.word	0xeae67c10
    9150: da 2f 78 b3  	.word	0xb3782fda
    9154: f0 bd 98 97  	.word	0x9798bdf0
    9158: 92 40 07 fd  	.word	0xfd074092
    915c: 01 32 1e 65  	.word	0x651e3201
    9160: cf c5 30 ef  	.word	0xef30c5cf
    9164: 83 84 3d d6  	.word	0xd63d8483
    9168: 0c cc 61 23  	.word	0x2361cc0c
    916c: 96 b4 d4 4c  	.word	0x4cd4b496
    9170: ac 26 84 a4  	.word	0xa48426ac
    9174: 00 e5 90 ee  	.word	0xee90e500
    9178: eb 4e c1 18  	.word	0x18c14eeb
    917c: 7d 1d f5 0a  	.word	0x0af51d7d
    9180: 9e ae fc 1e  	.word	0x1efcae9e
    9184: a0 a4 7b a5  	.word	0xa57ba4a0
    9188: 94 8a 30 dc  	.word	0xdc308a94
    918c: ee 4b 9f 76  	.word	0x769f4bee
    9190: 2e cb 03 36  	.word	0x3603cb2e
    9194: eb 0e f1 d1  	.word	0xd1f10eeb
    9198: 78 12 44 7e  	.word	0x7e441278
    919c: 5e ce 99 40  	.word	0x4099ce5e
    91a0: e9 21 51 8a  	.word	0x8a5121e9
    91a4: 4f 8e c9 1a  	.word	0x1ac98e4f
    91a8: e0 2f fa db  	.word	0xdbfa2fe0
    91ac: 44 95 ae 7d  	.word	0x7dae9544
    91b0: f9 0d 43 d6  	.word	0xd6430df9
    91b4: 0d aa 20 83  	.word	0x8320aa0d
    91b8: b5 2f 4a 2c  	.word	0x2c4a2fb5
    91bc: 65 82 72 66  	.word	0x66728265
    91c0: ab c9 6b d8  	.word	0xd86bc9ab
    91c4: f4 21 46 87  	.word	0x874621f4
    91c8: ea 6f fe 56  	.word	0x56fe6fea
    91cc: be 7b 4c b5  	.word	0xb54c7bbe
    91d0: 2c c2 ad 7f  	.word	0x7fadc22c
    91d4: 25 24 7a 07  	.word	0x077a2425
    91d8: 39 0d b9 19  	.word	0x19b90d39
    91dc: e4 3b b5 1a  	.word	0x1ab53be4
    91e0: 23 db 46 29  	.word	0x2946db23
    91e4: e0 b6 a8 ad  	.word	0xada8b6e0
    91e8: b7 3a 25 7b  	.word	0x7b253ab7
    91ec: 1a e5 0c 1c  	.word	0x1c0ce51a
    91f0: 5b 48 dd 66  	.word	0x66dd485b
    91f4: 5a c8 48 84  	.word	0x8448c85a
    91f8: df 5a 67 d0  	.word	0xd0675adf
    91fc: 25 c0 1f 7f  	.word	0x7f1fc025
    9200: aa a6 9e 31  	.word	0x319ea6aa
    9204: 18 1b ee d8  	.word	0xd8ee1b18
    9208: da f0 21 3a  	.word	0x3a21f0da
    920c: 08 88 4d 00  	.word	0x004d8808
    9210: 4b 4f 3a 88  	.word	0x883a4f4b
    9214: 1d aa d6 3b  	.word	0x3bd6aa1d
    9218: 14 fd d9 df  	.word	0xdfd9fd14
    921c: a6 a3 b9 4d  	.word	0x4db9a3a6
    9220: 55 07 9c b9  	.word	0xb99c0755
    9224: 3b b2 e7 8c  	.word	0x8ce7b23b
    9228: 7a 0f f5 c4  	.word	0xc4f50f7a
    922c: ed d6 c5 35  	.word	0x35c5d6ed
    9230: c3 50 9b ed  	.word	0xed9b50c3
    9234: d2 2e 1e 7e  	.word	0x7e1e2ed2
    9238: a1 4d 93 e8  	.word	0xe8934da1
    923c: 16 5f 30 36  	.word	0x36305f16
    9240: 68 7c b7 cb  	.word	0xcbb77c68
    9244: bb 00 5b d9  	.word	0xd95b00bb
    9248: 49 78 f1 91  	.word	0x91f17849
    924c: 6a 84 bc dd  	.word	0xddbc846a
    9250: b3 d9 28 be  	.word	0xbe28d9b3
    9254: ae 00 f7 7c  	.word	0x7cf700ae
    9258: 3e 1f d3 85  	.word	0x85d31f3e
    925c: 5c 28 e1 5c  	.word	0x5ce1285c
    9260: e8 bd b0 98  	.word	0x98b0bde8
    9264: 2d 97 b6 31  	.word	0x31b6972d
    9268: 5b de a6 ac  	.word	0xaca6de5b
    926c: 06 07 92 7d  	.word	0x7d920706
    9270: 9f 65 8a 90  	.word	0x908a659f
    9274: f8 10 73 e6  	.word	0xe67310f8
    9278: 35 02 df ef  	.word	0xefdf0235
    927c: a6 c2 fa 50  	.word	0x50fac2a6
    9280: 5a 0f 88 5b  	.word	0x5b880f5a
    9284: f3 a9 d3 f3  	.word	0xf3d3a9f3
    9288: c2 e7 03 db  	.word	0xdb03e7c2
    928c: 0c 05 ec ed  	.word	0xedec050c
    9290: a2 b1 f0 f9  	.word	0xf9f0b1a2
    9294: 1f 98 96 a8  	.word	0xa896981f
    9298: a4 34 5e ac  	.word	0xac5e34a4
    929c: 2b ae a4 49  	.word	0x49a4ae2b
    92a0: bc 49 f4 f6  	.word	0xf6f449bc
    92a4: 86 1c 5b 29  	.word	0x295b1c86
    92a8: dd b4 0a 1f  	.word	0x1f0ab4dd
    92ac: 4a e8 b2 51  	.word	0x51b2e84a
    92b0: 1d 55 8e aa  	.word	0xaa8e551d
    92b4: 30 cb 01 c0  	.word	0xc001cb30
    92b8: 62 36 f4 44  	.word	0x44f43662
    92bc: 59 d3 28 6a  	.word	0x6a28d359
    92c0: e0 40 a7 04  	.word	0x04a740e0
    92c4: ee 12 bb 28  	.word	0x28bb12ee
    92c8: 74 81 ce 9b  	.word	0x9bce8174
    92cc: bd 3b 31 14  	.word	0x14313bbd
    92d0: 40 0c c1 e8  	.word	0xe8c10c40
    92d4: e4 b5 f5 72  	.word	0x72f5b5e4
    92d8: 5b cd ad 36  	.word	0x36adcd5b
    92dc: 99 b1 bf 7c  	.word	0x7cbfb199
    92e0: 2d 79 89 6b  	.word	0x6b89792d
    92e4: c2 dd 11 a3  	.word	0xa311ddc2
    92e8: 64 26 51 da  	.word	0xda512664
    92ec: c6 b4 30 1b  	.word	0x1b30b4c6
    92f0: 59 08 15 cf  	.word	0xcf150859
    92f4: 4c 7b a7 0c  	.word	0x0ca77b4c
    92f8: 08 94 00 1b  	.word	0x1b009408
    92fc: df 43 e4 1d  	.word	0x1de443df
    9300: e0 e6 36 cc  	.word	0xcc36e6e0
    9304: 7a 3a 79 8e  	.word	0x8e793a7a
    9308: ed 6e 58 7d  	.word	0x7d586eed
    930c: a3 b7 fa f9  	.word	0xf9fab7a3
    9310: e4 f4 e1 ba  	.word	0xbae1f4e4
    9314: 92 96 4f 3a  	.word	0x3a4f9692
    9318: 7e 44 5f ff  	.word	0xff5f447e
    931c: 3e b0 14 1c  	.word	0x1c14b03e
    9320: 91 52 a8 14  	.word	0x14a85291
    9324: d1 7b 64 19  	.word	0x19647bd1
    9328: af d3 34 10  	.word	0x1034d3af
    932c: b2 6c b7 57  	.word	0x57b76cb2
    9330: fa 6d 9d 0f  	.word	0x0f9d6dfa
    9334: 44 db 29 63  	.word	0x6329db44
    9338: 93 14 57 6a  	.word	0x6a571493
    933c: 58 3e f4 5e  	.word	0x5ef43e58
    9340: a6 75 56 38  	.word	0x385675a6
    9344: 14 20 78 ef  	.word	0xef782014
    9348: e8 a9 fd aa  	.word	0xaafda9e8
    934c: 30 9f 64 a2  	.word	0xa2649f30
    9350: cb a8 df 5c  	.word	0x5cdfa8cb
    9354: 50 eb d1 4c  	.word	0x4cd1eb50
    9358: b3 c0 4d 1d  	.word	0x1d4dc0b3
    935c: ba 5a 11 46  	.word	0x46115aba
    9360: c0 1a 0c c8  	.word	0xc80c1ac0
    9364: 9d cc 6d a6  	.word	0xa66dcc9d
    9368: 36 a4 38 1b  	.word	0x1b38a436
    936c: f4 5c a0 97  	.word	0x97a05cf4
    9370: c6 d7 db 95  	.word	0x95dbd7c6
    9374: be f3 eb a7  	.word	0xa7ebf3be
    9378: ab 7d 7e 8d  	.word	0x8d7e7dab
    937c: f6 b8 a0 7d  	.word	0x7da0b8f6
    9380: 76 da b5 c3  	.word	0xc3b5da76
    9384: 53 19 0f d4  	.word	0xd40f1953
    9388: 9b 9e 11 21  	.word	0x21119e9b
    938c: 73 6f ac 1d  	.word	0x1dac6f73
    9390: 60 59 b2 fe  	.word	0xfeb25960
    9394: 21 60 cc 03  	.word	0x03cc6021
    9398: 4b 4b 67 83  	.word	0x83674b4b
    939c: 7e 88 5f 5a  	.word	0x5a5f887e
    93a0: 11 3d a1 70  	.word	0x70a13d11
    93a4: cf 01 63 8f  	.word	0x8f6301cf
    93a8: c4 d0 0d 35  	.word	0x350dd0c4
    93ac: 15 b8 ce cf  	.word	0xcfceb815
    93b0: 7e a4 bc a4  	.word	0xa4bca47e
    93b4: d4 97 02 f7  	.word	0xf70297d4
    93b8: 34 14 4d e4  	.word	0xe44d1434
    93bc: 56 b6 69 36  	.word	0x3669b656
    93c0: b9 43 a6 a0  	.word	0xa0a643b9
    93c4: d3 28 96 9e  	.word	0x9e9628d3
    93c8: 64 20 c3 e6  	.word	0xe6c32064
    93cc: 00 cb c3 b5  	.word	0xb5c3cb00
    93d0: 32 ec 2d 7c  	.word	0x7c2dec32
    93d4: 89 02 53 9b  	.word	0x9b530289
    93d8: 0c c7 d1 d5  	.word	0xd5d1c70c
    93dc: e2 7a e3 43  	.word	0x43e37ae2
    93e0: 33 e1 a6 ed  	.word	0xeda6e133
    93e4: 06 3f 7e 38  	.word	0x387e3f06
    93e8: c0 3a a1 99  	.word	0x99a13ac0
    93ec: 51 1d 30 67  	.word	0x67301d51
    93f0: 11 38 26 36  	.word	0x36263811
    93f4: f8 d8 5a bd  	.word	0xbd5ad8f8
    93f8: be e9 d5 4f  	.word	0x4fd5e9be
    93fc: cd e6 21 6a  	.word	0x6a21e6cd
    9400: 5f e6 46 30  	.word	0x3046e65f
    9404: 0a 17 c6 f1  	.word	0xf1c6170a
    9408: 24 35 d2 00  	.word	0x00d23524
    940c: 2a 2a 71 58  	.word	0x58712a2a
    9410: 55 b7 82 8c  	.word	0x8c82b755
    9414: 3c bd db 69  	.word	0x69dbbd3c
    9418: 57 ff 95 a1  	.word	0xa195ff57
    941c: f1 f9 6b 58  	.word	0x586bf9f1
    9420: e3 b2 99 66  	.word	0x6699b2e3
    9424: 12 29 41 ef  	.word	0xef412912
    9428: 01 13 8d 70  	.word	0x708d1301
    942c: 47 08 d3 71  	.word	0x71d30847
    9430: bd b0 82 11  	.word	0x1182b0bd
    9434: d0 32 54 32  	.word	0x325432d0
    9438: 36 8b 1e 00  	.word	0x001e8b36
    943c: 07 1b 37 45  	.word	0x45371b07
    9440: 0b 79 f8 5e  	.word	0x5ef8790b
    9444: 8d 08 db a6  	.word	0xa6db088d
    9448: e5 37 09 61  	.word	0x610937e5
    944c: dc f0 78 52  	.word	0x5278f0dc
    9450: b8 6e a1 61  	.word	0x61a16eb8
    9454: d2 49 03 ac  	.word	0xac0349d2
    9458: 79 21 e5 90  	.word	0x90e52179
    945c: 37 b0 af 0e  	.word	0x0eafb037
    9460: 2f 04 48 37  	.word	0x3748042f
    9464: c1 55 05 96  	.word	0x960555c1
    9468: 11 aa 0b 82  	.word	0x820baa11
    946c: e6 41 9a 21  	.word	0x219a41e6
    9470: 0c 6d 48 73  	.word	0x73486d0c
    9474: 38 f7 81 1c  	.word	0x1c81f738
    9478: 61 c6 02 5a  	.word	0x5a02c661
    947c: 67 cc 9a 30  	.word	0x309acc67
    9480: 1d ae 75 0f  	.word	0x0f75ae1d
    9484: 5e 80 40 51  	.word	0x5140805e
    9488: 30 cc 62 26  	.word	0x2662cc30
    948c: e3 fb 02 ec  	.word	0xec02fbe3
    9490: 6d 39 92 ea  	.word	0xea92396d
    9494: 1e df eb 2c  	.word	0x2cebdf1e
    9498: b3 5b 43 c5  	.word	0xc5435bb3
    949c: 44 33 ae 44  	.word	0x44ae3344
    94a0: ee 43 a5 bb  	.word	0xbba543ee
    94a4: b9 89 f2 9c  	.word	0x9cf289b9
    94a8: 42 71 c9 5a  	.word	0x5ac97142
    94ac: 9d 0e 76 f3  	.word	0xf3760e9d
    94b0: aa 60 93 4f  	.word	0x4f9360aa
    94b4: c6 e5 82 1d  	.word	0x1d82e5c6
    94b8: 8f 67 94 7f  	.word	0x7f94678f
    94bc: 1b 22 d5 62  	.word	0x62d5221b
    94c0: 6d 93 d0 18  	.word	0x18d0936d
    94c4: 9c 29 4c 52  	.word	0x524c299c
    94c8: 0c 1a 0c 8a  	.word	0x8a0c1a0c
    94cc: 6c b5 6b c8  	.word	0xc86bb56c
    94d0: 31 86 4a db  	.word	0xdb4a8631
    94d4: 2e 05 75 a3  	.word	0xa375052e
    94d8: 62 45 75 bc  	.word	0xbc754562
    94dc: e4 fd 0e 5c  	.word	0x5c0efde4
    94e0: 3c 7a f7 3a  	.word	0x3af77a3c
    94e4: 26 d4 85 75  	.word	0x7585d426
    94e8: 4d 14 e9 fe  	.word	0xfee9144d
    94ec: 11 7b ae df  	.word	0xdfae7b11
    94f0: 3d 19 f7 59  	.word	0x59f7193d
    94f4: 80 70 06 a5  	.word	0xa5067080
    94f8: 37 20 92 83  	.word	0x83922037
    94fc: 53 9a f2 14  	.word	0x14f29a53
    9500: f5 d7 b2 25  	.word	0x25b2d7f5
    9504: dc 7e 71 df  	.word	0xdf717edc
    9508: 40 30 b5 99  	.word	0x99b53040
    950c: db 70 f9 21  	.word	0x21f970db
    9510: 62 4c ed c3  	.word	0xc3ed4c62
    9514: b7 34 92 da  	.word	0xda9234b7
    9518: 3e 09 ee 7b  	.word	0x7bee093e
    951c: 5c 36 72 5e  	.word	0x5e72365c
    9520: 7f 21 71 45  	.word	0x4571217f
    9524: 07 fc 5b 57  	.word	0x575bfc07
    9528: 5b d9 94 06  	.word	0x0694d95b
    952c: 5d 67 79 37  	.word	0x3779675d
    9530: 33 1e 19 f4  	.word	0xf4191e33
    9534: bb 37 0a 9a  	.word	0x9a0a37bb
    9538: bc ea b4 47  	.word	0x47b4eabc
    953c: 4c 10 f1 77  	.word	0x77f1104c
    9540: 3e b3 08 2f  	.word	0x2f08b33e
    9544: 06 39 93 7d  	.word	0x7d933906
    9548: be 32 9f df  	.word	0xdf9f32be
    954c: e5 59 96 5b  	.word	0x5b9659e5
    9550: fd bd 9e 1f  	.word	0x1f9ebdfd
    9554: ad 3d ff ac  	.word	0xacff3dad
    9558: b7 49 73 cb  	.word	0xcb7349b7
    955c: 55 05 b2 70  	.word	0x70b20555
    9560: 4c 2c 11 55  	.word	0x55112c4c
    9564: c5 13 51 be  	.word	0xbe5113c5
    9568: cd 1f 88 9a  	.word	0x9a881fcd
    956c: 3a 42 88 66  	.word	0x6688423a
    9570: 47 3b 50 5e  	.word	0x5e503b47
    9574: 85 77 66 44  	.word	0x44667785
    9578: 4a 40 06 4a  	.word	0x4a06404a
    957c: 8f 39 34 0e  	.word	0x0e34398f
    9580: e8 bd ce 3e  	.word	0x3ecebde8
    9584: d9 22 7d b6  	.word	0xb67d22d9
    9588: 07 2f 82 27  	.word	0x27822f07
    958c: 41 e8 b3 09  	.word	0x09b3e841
    9590: 8d 6d 5b b0  	.word	0xb05b6d8d
    9594: 1f a6 3f 74  	.word	0x743fa61f
    9598: 72 23 36 8a  	.word	0x8a362372
    959c: 36 05 54 5e  	.word	0x5e540536
    95a0: 28 19 4b 3e  	.word	0x3e4b1928
    95a4: 09 0b 93 18  	.word	0x18930b09
    95a8: 40 f6 f3 73  	.word	0x73f3f640
    95ac: 0e e1 e3 7d  	.word	0x7de3e10e
    95b0: 6f 5d 39 73  	.word	0x73395d6f
    95b4: da 17 32 f4  	.word	0xf43217da
    95b8: 3e 9c 37 ca  	.word	0xca379c3e
    95bc: d6 de 8a 6f  	.word	0x6f8aded6
    95c0: 9a b2 b7 fd  	.word	0xfdb7b29a
    95c4: 3d 12 40 e3  	.word	0xe340123d
    95c8: 91 b2 1a a2  	.word	0xa21ab291
    95cc: e1 97 7b 48  	.word	0x487b97e1
    95d0: 9e 94 e6 fd  	.word	0xfde6949e
    95d4: 02 7d 96 f9  	.word	0xf9967d02
    95d8: 97 de d3 c8  	.word	0xc8d3de97
    95dc: 2e e7 0d 78  	.word	0x780de72e
    95e0: bc e7 9a 08  	.word	0x089ae7bc
    95e4: 45 85 e2 0a  	.word	0x0ae28545
    95e8: 06 4d 7f 1c  	.word	0x1c7f4d06
    95ec: cf de 8d 38  	.word	0x388ddecf
    95f0: b8 11 48 0a  	.word	0x0a4811b8
    95f4: 51 15 ac 38  	.word	0x38ac1551
    95f8: e4 8c 92 71  	.word	0x71928ce4
    95fc: f6 8b b2 0e  	.word	0x0eb28bf6
    9600: 72 27 f4 00  	.word	0x00f42772
    9604: f3 ea 1f 67  	.word	0x671feaf3
    9608: aa 41 8c 2a  	.word	0x2a8c41aa
    960c: 2a eb 72 8f  	.word	0x8f72eb2a
    9610: 92 32 37 97  	.word	0x97373292
    9614: d7 7f a1 29  	.word	0x29a17fd7
    9618: a6 87 b5 32  	.word	0x32b587a6
    961c: ad c6 ef 1d  	.word	0x1defc6ad
    9620: a7 95 51 ef  	.word	0xef5195a7
    9624: 1a be 5b af  	.word	0xaf5bbe1a
    9628: ed 15 7b 91  	.word	0x917b15ed
    962c: 77 12 8c 14  	.word	0x148c1277
    9630: 2e da e5 7a  	.word	0x7ae5da2e
    9634: fb f7 91 29  	.word	0x2991f7fb
    9638: 67 28 dd f8  	.word	0xf8dd2867
    963c: 1b 20 7d 46  	.word	0x467d201b
    9640: 6b 2e bd f7  	.word	0xf7bd2e6b
    9644: 72 ee 06 79  	.word	0x7906ee72
    9648: 4e bf 9a 10  	.word	0x109abf4e
    964c: d6 70 d2 05  	.word	0x05d270d6
    9650: a4 a8 41 b9  	.word	0xb941a8a4
    9654: 45 fe 5c 8d  	.word	0x8d5cfe45
    9658: 87 42 97 1c  	.word	0x1c974287
    965c: 67 18 c2 44  	.word	0x44c21867
    9660: 18 c3 6b 29  	.word	0x296bc318
    9664: 56 9d 5f 74  	.word	0x745f9d56
    9668: 65 2e 15 d8  	.word	0xd8152e65
    966c: d4 80 35 99  	.word	0x993580d4
    9670: ce e9 39 58  	.word	0x5839e9ce
    9674: 3f b1 e5 b0  	.word	0xb0e5b13f
    9678: c0 21 39 d4  	.word	0xd43921c0
    967c: 28 2b fc 51  	.word	0x51fc2b28
    9680: 8c a9 e2 95  	.word	0x95e2a98c
    9684: 17 d1 8f 1b  	.word	0x1b8fd117
    9688: 91 62 6b 2b  	.word	0x2b6b6291
    968c: e1 5e 4e 1c  	.word	0x1c4e5ee1
    9690: 72 b5 24 74  	.word	0x7424b572
    9694: 10 e7 30 5b  	.word	0x5b30e710
    9698: c6 4a 4f 4c  	.word	0x4c4f4ac6
    969c: e8 9d 6b 6e  	.word	0x6e6b9de8
    96a0: 51 e1 1d 4b  	.word	0x4b1de151
    96a4: ce 5f f2 df  	.word	0xdff25fce
    96a8: 25 40 1c e1  	.word	0xe11c4025
    96ac: c7 c0 41 d8  	.word	0xd841c0c7
    96b0: 87 9c 74 54  	.word	0x54749c87
    96b4: c8 b3 54 25  	.word	0x2554b3c8
    96b8: f9 0d 8e 90  	.word	0x908e0df9
    96bc: 59 24 29 2d  	.word	0x2d292459
    96c0: 88 b0 0c f8  	.word	0xf80cb088
    96c4: 10 5f 7c 6b  	.word	0x6b7c5f10
    96c8: 51 21 e4 56  	.word	0x56e42151
    96cc: dc 54 6b 73  	.word	0x736b54dc
    96d0: c4 99 ef c6  	.word	0xc6ef99c4
    96d4: a5 20 b6 c2  	.word	0xc2b620a5
    96d8: 42 6f a0 c3  	.word	0xc3a06f42
    96dc: 2c 80 4c 5f  	.word	0x5f4c802c
    96e0: da 52 07 7d  	.word	0x7d0752da
    96e4: f1 c8 65 9b  	.word	0x9b65c8f1
    96e8: 00 e8 7e c7  	.word	0xc77ee800
    96ec: 38 e3 1c 88  	.word	0x881ce338
    96f0: e3 f9 62 5b  	.word	0x5b62f9e3
    96f4: f0 14 b5 c3  	.word	0xc3b514f0
    96f8: 48 0d c1 be  	.word	0xbec10d48
    96fc: d5 5d ed 66  	.word	0x66ed5dd5
    9700: 9d 08 b2 0b  	.word	0x0bb2089d
    9704: c2 a1 38 7d  	.word	0x7d38a1c2
    9708: 12 d4 cc 96  	.word	0x96ccd412
    970c: e1 34 83 80  	.word	0x808334e1
    9710: 13 d3 97 6c  	.word	0x6c97d313
    9714: 8c 0b a7 c4  	.word	0xc4a70b8c
    9718: 20 7f 00 03  	.word	0x03007f20
    971c: bc f8 ac 2e  	.word	0x2eacf8bc
    9720: 7d 04 ca cb  	.word	0xcbca047d
    9724: c9 f3 ad f0  	.word	0xf0adf3c9
    9728: 6b 2f 55 f4  	.word	0xf4552f6b
    972c: cb b2 c3 81  	.word	0x81c3b2cb
    9730: 93 5f 73 44  	.word	0x44735f93
    9734: 2d 11 da cf  	.word	0xcfda112d
    9738: 8c 04 20 7e  	.word	0x7e20048c
    973c: c7 a0 23 1f  	.word	0x1f23a0c7
    9740: 70 15 bc e5  	.word	0xe5bc1570
    9744: 7b 46 35 f2  	.word	0xf235467b
    9748: 8c b3 ba 0d  	.word	0x0dbab38c
    974c: 02 d9 d2 03  	.word	0x03d2d902
    9750: 9e e0 f9 fc  	.word	0xfcf9e09e
    9754: a2 9a 52 27  	.word	0x27529aa2
    9758: 50 bc 34 9d  	.word	0x9d34bc50
    975c: f2 be 40 08  	.word	0x0840bef2
    9760: 87 b2 10 dc  	.word	0xdc10b287
    9764: 35 fb 6d 79  	.word	0x796dfb35
    9768: 9d f2 7f 5c  	.word	0x5c7ff29d
    976c: cd 6b 17 27  	.word	0x27176bcd
    9770: 05 49 b2 c7  	.word	0xc7b24905
    9774: e8 43 3d 7f  	.word	0x7f3d43e8
    9778: 76 42 c5 91  	.word	0x91c54276
    977c: a1 f5 04 03  	.word	0x0304f5a1
    9780: eb e4 37 7f  	.word	0x7f37e4eb
    9784: 6b e0 54 cd  	.word	0xcd54e06b
    9788: ca 6c e9 f5  	.word	0xf5e96cca
    978c: 87 5f c1 8c  	.word	0x8cc15f87
    9790: ce 7d 59 d3  	.word	0xd3597dce
    9794: b0 8b 24 b8  	.word	0xb8248bb0
    9798: 0c 40 74 60  	.word	0x6074400c
    979c: a0 ff 6a 24  	.word	0x246affa0
    97a0: 21 53 e4 fb  	.word	0xfbe45321
    97a4: 68 8e d8 37  	.word	0x37d88e68
    97a8: 32 50 d7 c0  	.word	0xc0d75032
    97ac: 48 75 09 86  	.word	0x86097548
    97b0: 35 0d 4a 89  	.word	0x894a0d35
    97b4: ef 13 9b 4e  	.word	0x4e9b13ef
    97b8: 25 d3 53 57  	.word	0x5753d325
    97bc: ac 3c a8 25  	.word	0x25a83cac
    97c0: 5e 16 d8 ee  	.word	0xeed8165e
    97c4: 48 2f 22 10  	.word	0x10222f48
    97c8: 3a cf 8b 4b  	.word	0x4b8bcf3a
    97cc: 23 c1 3f 62  	.word	0x623fc123
    97d0: f0 e8 21 c2  	.word	0xc221e8f0
    97d4: 09 5c 14 1e  	.word	0x1e145c09
    97d8: 30 26 78 ca  	.word	0xca782630
    97dc: 9f a5 cf 7c  	.word	0x7ccfa59f
    97e0: e2 b6 52 39  	.word	0x3952b6e2
    97e4: 29 66 0f 9f  	.word	0x9f0f6629
    97e8: 7b 26 34 09  	.word	0x0934267b
    97ec: 0e 5e db 33  	.word	0x33db5e0e
    97f0: dc fe 09 d6  	.word	0xd609fedc
    97f4: 2b 25 45 ff  	.word	0xff45252b
    97f8: c9 e0 06 c5  	.word	0xc506e0c9
    97fc: f5 10 be 06  	.word	0x06be10f5
    9800: 5f 34 2a b6  	.word	0xb62a345f
    9804: a9 15 96 1a  	.word	0x1a9615a9
    9808: cc fe 52 4a  	.word	0x4a52fecc
    980c: 56 0c 05 22  	.word	0x22050c56
    9810: fe 0d bc 28  	.word	0x28bc0dfe
    9814: 85 78 a2 a7  	.word	0xa7a27885
    9818: 1d e7 1e 1a  	.word	0x1a1ee71d
    981c: 0a 77 82 5e  	.word	0x5e82770a
    9820: 5c 6a 89 ad  	.word	0xad896a5c
    9824: 83 51 42 35  	.word	0x35425183
    9828: f6 52 8d e7  	.word	0xe78d52f6
    982c: fb 3a 67 e8  	.word	0xe8673afb
    9830: 64 5f a3 92  	.word	0x92a35f64
    9834: 5f f2 66 2c  	.word	0x2c66f25f
    9838: 02 b1 86 3b  	.word	0x3b86b102
    983c: 3b 4f d0 09  	.word	0x09d04f3b
    9840: 74 9c 33 42  	.word	0x42339c74
    9844: 0a e8 02 e8  	.word	0xe802e80a
    9848: e5 fa ff a7  	.word	0xa7fffae5
    984c: 66 51 17 34  	.word	0x34175166
    9850: ae 8c 40 1c  	.word	0x1c408cae
    9854: 1f 5d 86 34  	.word	0x34865d1f
    9858: ee c5 5b 60  	.word	0x605bc5ee
    985c: 2c 98 ca 2c  	.word	0x2cca982c
    9860: 6e be 7d 19  	.word	0x197dbe6e
    9864: 35 5d 2d fd  	.word	0xfd2d5d35
    9868: a3 ff e4 8b  	.word	0x8be4ffa3
    986c: ea 2e 7c 20  	.word	0x207c2eea
    9870: 18 e9 5a 32  	.word	0x325ae918
    9874: db d8 13 26  	.word	0x2613d8db
    9878: 3e 1d 74 27  	.word	0x27741d3e
    987c: 17 5d 32 7a  	.word	0x7a325d17
    9880: e2 fd 6d d1  	.word	0xd16dfde2
    9884: bb b9 36 d0  	.word	0xd036b9bb
    9888: 29 a8 97 c4  	.word	0xc497a829
    988c: 57 57 05 a2  	.word	0xa2055757
    9890: 67 26 f1 a7  	.word	0xa7f12667
    9894: 66 c9 6c 8e  	.word	0x8e6cc966
    9898: 80 c1 39 12  	.word	0x1239c180
    989c: 79 1a 3b 4d  	.word	0x4d3b1a79
    98a0: 6a 07 2a 7e  	.word	0x7e2a076a
    98a4: 01 7d d2 ec  	.word	0xecd27d01
    98a8: 5e 49 36 16  	.word	0x1636495e
    98ac: 9f 68 88 d7  	.word	0xd788689f
    98b0: e5 33 92 91  	.word	0x919233e5
    98b4: f0 1a a6 52  	.word	0x52a61af0
    98b8: 64 ae b1 7b  	.word	0x7bb1ae64
    98bc: f1 9d 47 2a  	.word	0x2a479df1
    98c0: 10 27 db 33  	.word	0x33db2710
    98c4: 8e ee 5e 9e  	.word	0x9e5eee8e
    98c8: a5 3c c4 d6  	.word	0xd6c43ca5
    98cc: de 54 98 18  	.word	0x189854de
    98d0: 38 81 71 92  	.word	0x92718138
    98d4: c5 22 1c a4  	.word	0xa41c22c5
    98d8: 9b 5e 3a a4  	.word	0xa43a5e9b
    98dc: 38 55 ad 27  	.word	0x27ad5538
    98e0: 61 0d 35 15  	.word	0x15350d61
    98e4: 4b dd 46 27  	.word	0x2746dd4b
    98e8: b7 21 95 ee  	.word	0xee9521b7
    98ec: c8 cb 3f d0  	.word	0xd03fcbc8
    98f0: ca 72 86 13  	.word	0x138672ca
    98f4: 5a 36 6e e8  	.word	0xe86e365a
    98f8: e2 89 7d 7e  	.word	0x7e7d89e2
    98fc: 7f 98 0e 51  	.word	0x510e987f
    9900: 7c 07 47 8e  	.word	0x8e47077c
    9904: 63 7d 5a cb  	.word	0xcb5a7d63
    9908: 59 c0 a1 20  	.word	0x20a1c059
    990c: 61 53 b7 8d  	.word	0x8db75361
    9910: cc fd ed 8b  	.word	0x8bedfdcc
    9914: 4d 1e 9e 54  	.word	0x549e1e4d
    9918: 9d 17 3b 50  	.word	0x503b179d
    991c: b7 53 01 08  	.word	0x080153b7
    9920: e3 d3 3e 0a  	.word	0x0a3ed3e3
    9924: 93 9d a6 dd  	.word	0xdda69d93
    9928: 22 a7 60 cd  	.word	0xcd60a722
    992c: f1 6e 38 3d  	.word	0x3d386ef1
    9930: e6 4e aa bd  	.word	0xbdaa4ee6
    9934: 58 ad 17 c8  	.word	0xc817ad58
    9938: 2a 37 e7 4f  	.word	0x4fe7372a
    993c: 55 8d be 23  	.word	0x23be8d55
    9940: ad 4f ef 74  	.word	0x74ef4fad
    9944: 9a 91 fe 95  	.word	0x95fe919a
    9948: a2 08 a3 f6  	.word	0xf6a308a2
    994c: ec 7b 82 3a  	.word	0x3a827bec
    9950: 01 7b a4 09  	.word	0x09a47b01
    9954: d3 01 4e 96  	.word	0x964e01d3
    9958: 97 c7 a3 5b  	.word	0x5ba3c797
    995c: 4f 3c c4 71  	.word	0x71c43c4f
    9960: a9 e7 7a 56  	.word	0x567ae7a9
    9964: bd f4 1e bc  	.word	0xbc1ef4bd
    9968: bd 98 44 d6  	.word	0xd64498bd
    996c: b2 4c 62 3f  	.word	0x3f624cb2
    9970: c8 4e 1f 2c  	.word	0x2c1f4ec8
    9974: d2 64 10 e4  	.word	0xe41064d2
    9978: 01 40 38 ba  	.word	0xba384001
    997c: a5 c5 f9 2e  	.word	0x2ef9c5a5
    9980: cd 74 9e fa  	.word	0xfa9e74cd
    9984: f6 6d fd b6  	.word	0xb6fd6df6
    9988: 7a 26 af e4  	.word	0xe4af267a
    998c: bc 78 82 f1  	.word	0xf18278bc
    9990: 0e 99 ef f1  	.word	0xf1ef990e
    9994: d0 b3 55 82  	.word	0x8255b3d0
    9998: 93 f2 c5 90  	.word	0x90c5f293
    999c: a3 8c 75 5a  	.word	0x5a758ca3
    99a0: 95 24 46 d9  	.word	0xd9462495
    99a4: 10 27 b7 a2  	.word	0xa2b72710
    99a8: 03 50 7d d5  	.word	0xd57d5003
    99ac: d2 c6 a8 3a  	.word	0x3aa8c6d2
    99b0: ca 87 b4 a0  	.word	0xa0b487ca
    99b4: bf 00 d4 e3  	.word	0xe3d400bf
    99b8: ec 72 eb b3  	.word	0xb3eb72ec
    99bc: 44 e2 ba 2d  	.word	0x2dbae244
    99c0: 94 dc 61 1d  	.word	0x1d61dc94
    99c4: 8b 91 e0 8c  	.word	0x8ce0918b
    99c8: 66 30 81 9a  	.word	0x9a813066
    99cc: 46 36 ed 8d  	.word	0x8ded3646
    99d0: d3 aa e8 af  	.word	0xafe8aad3
    99d4: 29 a8 e6 d4  	.word	0xd4e6a829
    99d8: 3f d4 39 f6  	.word	0xf639d43f
    99dc: 27 80 73 0a  	.word	0x0a738027
    99e0: cc e1 ff 57  	.word	0x57ffe1cc
    99e4: 2f 4a 0f 98  	.word	0x980f4a2f
    99e8: 43 98 83 e1  	.word	0xe1839843
    99ec: 0d 0d 67 00  	.word	0x00670d0d
    99f0: fd 15 fb 49  	.word	0x49fb15fd
    99f4: 4a 3f 5c 10  	.word	0x105c3f4a
    99f8: 9c a6 26 51  	.word	0x5126a69c
    99fc: 63 ca 98 26  	.word	0x2698ca63
    9a00: 78 ba b0 32  	.word	0x32b0ba78
    9a04: 88 31 65 e7  	.word	0xe7653188
    9a08: 8b ff 5c 92  	.word	0x925cff8b
    9a0c: f7 31 18 38  	.word	0x381831f7
    9a10: cc 1f 29 a0  	.word	0xa0291fcc
    9a14: 91 1b a8 08  	.word	0x08a81b91
    9a18: 07 eb ca 49  	.word	0x49caeb07
    9a1c: cc 3d b4 1f  	.word	0x1fb43dcc
    9a20: 0e d9 3d 5e  	.word	0x5e3dd90e
    9a24: 2f 70 3d 2e  	.word	0x2e3d702f
    9a28: 86 53 d2 e4  	.word	0xe4d25386
    9a2c: 18 09 3f 9e  	.word	0x9e3f0918
    9a30: 6a a9 4d 02  	.word	0x024da96a
    9a34: f6 3e 77 5e  	.word	0x5e773ef6
    9a38: 32 33 fa 4a  	.word	0x4afa3332
    9a3c: 0c 4b 00 3c  	.word	0x3c004b0c
    9a40: 2b b8 f4 06  	.word	0x06f4b82b
    9a44: ac 46 a9 9a  	.word	0x9aa946ac
    9a48: f3 c4 06 a8  	.word	0xa806c4f3
    9a4c: a5 84 a2 1c  	.word	0x1ca284a5
    9a50: 87 47 cd c6  	.word	0xc6cd4787
    9a54: 5f 26 d3 3e  	.word	0x3ed3265f
    9a58: 17 d2 1f cd  	.word	0xcd1fd217
    9a5c: 01 fd 43 6b  	.word	0x6b43fd01
    9a60: 44 c5 97 46  	.word	0x4697c544
    9a64: 4b 5d a7 c7  	.word	0xc7a75d4b
    9a68: bf ff 0f df  	.word	0xdf0fffbf
    9a6c: 48 f8 fd 15  	.word	0x15fdf848
    9a70: 5a 78 46 aa  	.word	0xaa46785a
    9a74: eb b9 68 28  	.word	0x2868b9eb
    9a78: 14 f7 52 5b  	.word	0x5b52f714
    9a7c: 10 d7 68 5a  	.word	0x5a68d710
    9a80: f3 0e 76 3e  	.word	0x3e760ef3
    9a84: 58 42 c7 b5  	.word	0xb5c74258
    9a88: 90 b9 0a ee  	.word	0xee0ab990
    9a8c: b9 52 dc 75  	.word	0x75dc52b9
    9a90: 3f 92 2b 07  	.word	0x072b923f
    9a94: c2 27 14 bf  	.word	0xbf1427c2
    9a98: f0 d9 f0 6f  	.word	0x6ff0d9f0
    9a9c: 2d 0b 42 73  	.word	0x73420b2d
    9aa0: 06 1e 85 9e  	.word	0x9e851e06
    9aa4: cb f6 2c af  	.word	0xaf2cf6cb
    9aa8: c4 38 22 c6  	.word	0xc62238c4
    9aac: 13 39 59 8f  	.word	0x8f593913
    9ab0: 73 f3 fb 99  	.word	0x99fbf373
    9ab4: 96 b8 8a da  	.word	0xda8ab896
    9ab8: 9e bc 34 ea  	.word	0xea34bc9e
    9abc: 2f 63 b5 3d  	.word	0x3db5632f
    9ac0: d8 d9 5d f7  	.word	0xf75dd9d8
    9ac4: 2b ee 6e f4  	.word	0xf46eee2b
    9ac8: a5 59 67 39  	.word	0x396759a5
    9acc: f6 b1 17 0d  	.word	0x0d17b1f6
    9ad0: 73 72 9e 49  	.word	0x499e7273
    9ad4: 31 d1 f2 1b  	.word	0x1bf2d131
    9ad8: 13 5f d7 49  	.word	0x49d75f13
    9adc: df 1a 32 04  	.word	0x04321adf
    9ae0: d5 25 98 82  	.word	0x829825d5
    9ae4: b1 90 49 2e  	.word	0x2e4990b1
    9ae8: 91 89 9a 3e  	.word	0x3e9a8991
    9aec: 87 eb ea ed  	.word	0xedeaeb87
    9af0: f8 4a 70 4c  	.word	0x4c704af8
    9af4: 39 3d f0 ee  	.word	0xeef03d39
    9af8: 0e 2b df 95  	.word	0x95df2b0e
    9afc: a4 7e 19 59  	.word	0x59197ea4
    9b00: ae 5a e5 e4  	.word	0xe4e55aae
    9b04: 19 60 e1 04  	.word	0x04e16019
    9b08: e9 92 2f 7e  	.word	0x7e2f92e9
    9b0c: 7a 43 7b e7  	.word	0xe77b437a
    9b10: a4 9a 15 6f  	.word	0x6f159aa4
    9b14: c1 2d ce c7  	.word	0xc7ce2dc1
    9b18: c0 0c d7 f4  	.word	0xf4d70cc0
    9b1c: c1 fd ea 45  	.word	0x45eafdc1
    9b20: 2b d7 45 80  	.word	0x8045d72b
    9b24: 85 01 84 69  	.word	0x69840185
    9b28: 51 06 2f cf  	.word	0xcf2f0651
    9b2c: a2 fa 22 4c  	.word	0x4c22faa2
    9b30: c6 2d 22 6b  	.word	0x6b222dc6
    9b34: 65 36 1a 94  	.word	0x941a3665
    9b38: de da 62 03  	.word	0x0362dade
    9b3c: c8 eb 5e 5a  	.word	0x5a5eebc8
    9b40: ed b1 cc cf  	.word	0xcfccb1ed
    9b44: 24 46 0e b6  	.word	0xb60e4624
    9b48: 95 03 5c bd  	.word	0xbd5c0395
    9b4c: 92 c2 db 59  	.word	0x59dbc292
    9b50: c9 81 04 dc  	.word	0xdc0481c9
    9b54: 1d 9d a0 31  	.word	0x31a09d1d
    9b58: 40 d9 56 5d  	.word	0x5d56d940
    9b5c: ea ce 73 3f  	.word	0x3f73ceea
    9b60: c6 8d 4e 0a  	.word	0x0a4e8dc6
    9b64: d1 bf a7 b7  	.word	0xb7a7bfd1
    9b68: 39 b3 c9 44  	.word	0x44c9b339
    9b6c: 7e 00 57 be  	.word	0xbe57007e
    9b70: fa ae 57 15  	.word	0x1557aefa
    9b74: 7f 20 c1 60  	.word	0x60c1207f
    9b78: db 18 62 26  	.word	0x266218db
    9b7c: 91 88 05 26  	.word	0x26058891
    9b80: 04 ff 60 83  	.word	0x8360ff04
    9b84: a6 04 f7 59  	.word	0x59f704a6
    9b88: f4 e6 61 76  	.word	0x7661e6f4
    9b8c: de 3f d9 c3  	.word	0xc3d93fde
    9b90: 51 35 87 12  	.word	0x12873551
    9b94: 73 2a 1b 83  	.word	0x831b2a73
    9b98: 57 5d 61 4e  	.word	0x4e615d57
    9b9c: 2e 0c ad 54  	.word	0x54ad0c2e
    9ba0: 42 e5 76 c6  	.word	0xc676e542
    9ba4: 3c 8e 81 4c  	.word	0x4c818e3c
    9ba8: ad cc ce 03  	.word	0x03ceccad
    9bac: 93 2c 42 5e  	.word	0x5e422c93
    9bb0: 08 9f 12 b4  	.word	0xb4129f08
    9bb4: ca cc 07 ec  	.word	0xec07ccca
    9bb8: b8 43 44 b2  	.word	0xb24443b8
    9bbc: 10 fa ed 0d  	.word	0x0dedfa10
    9bc0: 2a 52 2b b8  	.word	0xb82b522a
    9bc4: d5 67 3b ee  	.word	0xee3b67d5
    9bc8: eb c1 a5 9f  	.word	0x9fa5c1eb
    9bcc: 46 63 f1 36  	.word	0x36f16346
    9bd0: d3 9f c1 6e  	.word	0x6ec19fd3
    9bd4: f2 d2 b4 a5  	.word	0xa5b4d2f2
    9bd8: 08 94 7a a7  	.word	0xa77a9408
    9bdc: ba b2 ec 62  	.word	0x62ecb2ba
    9be0: 3d 2b 15 61  	.word	0x61152b3d
    9be4: 52 79 ed e5  	.word	0xe5ed7952
    9be8: d1 d7 dd 0e  	.word	0x0eddd7d1
    9bec: 7d 35 62 49  	.word	0x4962357d
    9bf0: 71 4c 6b b9  	.word	0xb96b4c71
    9bf4: d0 c8 82 74  	.word	0x7482c8d0
    9bf8: be d8 66 a9  	.word	0xa966d8be
    9bfc: 19 f9 59 2e  	.word	0x2e59f919
    9c00: 74 28 b6 af  	.word	0xafb62874
    9c04: 36 28 07 92  	.word	0x92072836
    9c08: a5 04 e1 79  	.word	0x79e104a5
    9c0c: 85 5e cd 5f  	.word	0x5fcd5e85
    9c10: 4a a1 30 c6  	.word	0xc630a14a
    9c14: ad 01 ad 5a  	.word	0x5aad01ad
    9c18: 98 3f 66 75  	.word	0x75663f98
    9c1c: 50 3d 91 61  	.word	0x61913d50
    9c20: da 31 32 1a  	.word	0x1a3231da
    9c24: 36 2d c6 0d  	.word	0x0dc62d36
    9c28: 70 02 20 94  	.word	0x94200270
    9c2c: 32 58 47 fa  	.word	0xfa475832
    9c30: ce 94 95 3f  	.word	0x3f9594ce
    9c34: 51 01 d8 02  	.word	0x02d80151
    9c38: 5c 5d c0 31  	.word	0x31c05d5c
    9c3c: a1 c2 db 3d  	.word	0x3ddbc2a1
    9c40: ef 81 fb 4f  	.word	0x4ffb81ef
    9c44: 0a a5 50 3f  	.word	0x3f50a50a
    9c48: bf 20 f4 3b  	.word	0x3bf420bf
    9c4c: 09 35 e0 b1  	.word	0xb1e03509
    9c50: d0 2c aa c6  	.word	0xc6aa2cd0
    9c54: 1c 8e aa 9b  	.word	0x9baa8e1c
    9c58: 40 7a 23 fa  	.word	0xfa237a40
    9c5c: 61 98 23 32  	.word	0x32239861
    9c60: d1 35 4a 00  	.word	0x004a35d1
    9c64: c2 5a 73 fb  	.word	0xfb735ac2
    9c68: c3 07 66 3a  	.word	0x3a6607c3
    9c6c: 43 0f de 31  	.word	0x31de0f43
    9c70: 99 d5 28 c5  	.word	0xc528d599
    9c74: bf 91 85 7b  	.word	0x7b8591bf
    9c78: 0c 05 bb f5  	.word	0xf5bb050c
    9c7c: 25 9a be 55  	.word	0x55be9a25
    9c80: bf 3d db 33  	.word	0x33db3dbf
    9c84: cd 5a 00 0d  	.word	0x0d005acd
    9c88: e2 35 ac 80  	.word	0x80ac35e2
    9c8c: 7c b3 11 01  	.word	0x0111b37c
    9c90: eb eb 88 6f  	.word	0x6f88ebeb
    9c94: 6c d6 92 48  	.word	0x4892d66c
    9c98: cd fb 08 65  	.word	0x6508fbcd
    9c9c: b1 ad 0e 77  	.word	0x770eadb1
    9ca0: dd 89 4e 5e  	.word	0x5e4e89dd
    9ca4: e0 f9 51 84  	.word	0x8451f9e0
    9ca8: 37 39 79 bc  	.word	0xbc793937
    9cac: ff 02 63 c0  	.word	0xc06302ff
    9cb0: 5c 49 a6 56  	.word	0x56a6495c
    9cb4: 95 74 22 5d  	.word	0x5d227495
    9cb8: fb 03 56 a0  	.word	0xa05603fb
    9cbc: 5c 75 a6 09  	.word	0x09a6755c
    9cc0: b9 71 50 a0  	.word	0xa05071b9
    9cc4: 81 b6 d3 f1  	.word	0xf1d3b681
    9cc8: 3a ff 92 35  	.word	0x3592ff3a
    9ccc: 9a 65 07 22  	.word	0x2207659a
    9cd0: 0e e4 81 78  	.word	0x7881e40e
    9cd4: 29 69 01 5f  	.word	0x5f016929
    9cd8: 4e 37 ba 86  	.word	0x86ba374e
    9cdc: 0e dd be 16  	.word	0x16bedd0e
    9ce0: b5 37 27 2c  	.word	0x2c2737b5
    9ce4: 4f cc cc 5e  	.word	0x5ecccc4f
    9ce8: 03 b7 cc 2d  	.word	0x2dccb703
    9cec: 0c 9e b7 43  	.word	0x43b79e0c
    9cf0: f3 3d c4 4e  	.word	0x4ec43df3
    9cf4: bc 08 e0 33  	.word	0x33e008bc
    9cf8: c0 66 75 f0  	.word	0xf07566c0
    9cfc: 40 b8 c1 06  	.word	0x06c1b840
    9d00: 77 f8 88 a3  	.word	0xa388f877
    9d04: c6 a5 88 76  	.word	0x7688a5c6
    9d08: ac b6 b2 de  	.word	0xdeb2b6ac
    9d0c: 14 6c a9 02  	.word	0x02a96c14
    9d10: f8 2a 8c 1b  	.word	0x1b8c2af8
    9d14: 43 f3 c9 64  	.word	0x64c9f343
    9d18: d6 ee a1 54  	.word	0x54a1eed6
    9d1c: 55 43 28 36  	.word	0x36284355
    9d20: 5c 80 02 9b  	.word	0x9b02805c
    9d24: 7f 9e ee 69  	.word	0x69ee9e7f
    9d28: 40 16 7d 54  	.word	0x547d1640
    9d2c: 8a 82 ff cb  	.word	0xcbff828a
    9d30: 68 09 43 b2  	.word	0xb2430968
    9d34: 69 a8 93 3d  	.word	0x3d93a869
    9d38: 72 69 e2 3f  	.word	0x3fe26972
    9d3c: cd b8 b7 46  	.word	0x46b7b8cd
    9d40: e0 eb 7e fe  	.word	0xfe7eebe0
    9d44: 86 20 81 e9  	.word	0xe9812086
    9d48: 37 54 51 2f  	.word	0x2f515437
    9d4c: e7 6b ba 4c  	.word	0x4cba6be7
    9d50: e9 fa 6e 51  	.word	0x516efae9
    9d54: 8b 16 04 1d  	.word	0x1d04168b
    9d58: b9 2c 98 43  	.word	0x43982cb9
    9d5c: 10 39 a1 5e  	.word	0x5ea13910
    9d60: e1 2e 70 f4  	.word	0xf4702ee1
    9d64: 9c 5c 12 49  	.word	0x49125c9c
    9d68: 2d b3 25 8b  	.word	0x8b25b32d
    9d6c: 1f b7 20 45  	.word	0x4520b71f
    9d70: 7e ef 1f 50  	.word	0x501fef7e
    9d74: 26 30 19 33  	.word	0x33193026
    9d78: 2b eb d2 c8  	.word	0xc8d2eb2b
    9d7c: 97 89 6d 65  	.word	0x656d8997
    9d80: 02 b0 d3 d5  	.word	0xd5d3b002
    9d84: e4 3b 2b 6f  	.word	0x6f2b3be4
    9d88: 80 c8 09 6a  	.word	0x6a09c880
    9d8c: d9 33 ec af  	.word	0xafec33d9
    9d90: cc c4 bc a8  	.word	0xa8bcc4cc
    9d94: a4 73 5f 03  	.word	0x035f73a4
    9d98: 8b 19 62 46  	.word	0x4662198b
    9d9c: 28 b9 c5 22  	.word	0x22c5b928
    9da0: 39 89 3d 43  	.word	0x433d8939
    9da4: fe c8 58 cb  	.word	0xcb58c8fe
    9da8: 50 7e 8d 6a  	.word	0x6a8d7e50
    9dac: 2e cb a0 89  	.word	0x89a0cb2e
    9db0: 5a be fb 09  	.word	0x09fbbe5a
    9db4: 53 95 ca 79  	.word	0x79ca9553
    9db8: 06 c1 7f cd  	.word	0xcd7fc106
    9dbc: 16 66 62 0c  	.word	0x0c626616
    9dc0: 1f b6 79 48  	.word	0x4879b61f
    9dc4: 0a b8 fe 1f  	.word	0x1ffeb80a
    9dc8: ed 21 da 4a  	.word	0x4ada21ed
    9dcc: 6e 72 96 63  	.word	0x6396726e
    9dd0: ba 25 80 36  	.word	0x368025ba
    9dd4: 93 b0 c7 33  	.word	0x33c7b093
    9dd8: 88 17 c3 f3  	.word	0xf3c31788
    9ddc: c6 a0 1a 47  	.word	0x471aa0c6
    9de0: b1 54 f4 fb  	.word	0xfbf454b1
    9de4: 79 c3 df 8f  	.word	0x8fdfc379
    9de8: 71 b7 a4 f1  	.word	0xf1a4b771
    9dec: 70 a9 a5 45  	.word	0x45a5a970
    9df0: 15 59 d3 ba  	.word	0xbad35915
    9df4: f7 1e 92 ac  	.word	0xac921ef7
    9df8: 92 21 1c a8  	.word	0xa81c2192
    9dfc: dc 88 d0 42  	.word	0x42d088dc
    9e00: 99 51 16 a0  	.word	0xa0165199
    9e04: 37 0f da 8f  	.word	0x8fda0f37
    9e08: 43 e3 a0 c8  	.word	0xc8a0e343
    9e0c: 77 db da 0a  	.word	0x0adadb77
    9e10: 20 e8 75 c8  	.word	0xc875e820
    9e14: fc fd fb 20  	.word	0x20fbfdfc
    9e18: e7 06 22 0c  	.word	0x0c2206e7
    9e1c: a8 be f2 1c  	.word	0x1cf2bea8
    9e20: ac 02 62 b3  	.word	0xb36202ac
    9e24: de f1 dd c2  	.word	0xc2ddf1de
    9e28: a5 7a e2 d2  	.word	0xd2e27aa5
    9e2c: 09 fe a5 92  	.word	0x92a5fe09
    9e30: d3 f1 09 fc  	.word	0xfc09f1d3
    9e34: f6 48 16 7d  	.word	0x7d1648f6
    9e38: 59 49 bc 13  	.word	0x13bc4959
    9e3c: 05 cc c2 74  	.word	0x74c2cc05
    9e40: 2f 41 c0 02  	.word	0x02c0412f
    9e44: 1a 6e 2d 98  	.word	0x982d6e1a
    9e48: fe e8 58 db  	.word	0xdb58e8fe
    9e4c: 83 4c fa 90  	.word	0x90fa4c83
    9e50: c0 8b b1 dc  	.word	0xdcb18bc0
    9e54: bc f5 c2 01  	.word	0x01c2f5bc
    9e58: 66 bc 6a 21  	.word	0x216abc66
    9e5c: 90 0c 6e 68  	.word	0x686e0c90
    9e60: a7 95 43 a5  	.word	0xa54395a7
    9e64: db ba ad 1f  	.word	0x1fadbadb
    9e68: 6a a6 0d ae  	.word	0xae0da66a
    9e6c: a0 02 1a b4  	.word	0xb41a02a0
    9e70: 07 7c a3 bb  	.word	0xbba37c07
    9e74: 98 f5 19 bf  	.word	0xbf19f598
    9e78: 0d 43 48 de  	.word	0xde48430d
    9e7c: ac b8 12 6a  	.word	0x6a12b8ac
    9e80: d9 95 d4 39  	.word	0x39d495d9
    9e84: 1f ea da f8  	.word	0xf8daea1f
    9e88: fc 1d 5f 52  	.word	0x525f1dfc
    9e8c: 0e 19 2c 59  	.word	0x592c190e
    9e90: 1b 1d 99 c9  	.word	0xc9991d1b
    9e94: 04 bd 8c db  	.word	0xdb8cbd04
    9e98: b7 0c 8f d8  	.word	0xd88f0cb7
    9e9c: a3 fd f7 11  	.word	0x11f7fda3
    9ea0: 5f eb ae 1a  	.word	0x1aaeeb5f
    9ea4: 80 dd 3b 79  	.word	0x793bdd80
    9ea8: 71 88 51 c1  	.word	0xc1518871
    9eac: aa a0 a2 00  	.word	0x00a2a0aa
    9eb0: b4 36 21 1f  	.word	0x1f2136b4
    9eb4: a3 73 a3 e8  	.word	0xe8a373a3
    9eb8: 19 ef 91 fc  	.word	0xfc91ef19
    9ebc: 88 b8 aa 48  	.word	0x48aab888
    9ec0: 0e f4 30 58  	.word	0x5830f40e
    9ec4: 92 7e 1f 04  	.word	0x041f7e92
    9ec8: 06 1c 66 79  	.word	0x79661c06
    9ecc: a9 6c 2d 00  	.word	0x002d6ca9
    9ed0: 2e 6a 04 2b  	.word	0x2b046a2e
    9ed4: f9 9f dc 86  	.word	0x86dc9ff9
    9ed8: d1 93 04 8b  	.word	0x8b0493d1
    9edc: 92 60 03 76  	.word	0x76036092
    9ee0: c6 f9 0c 12  	.word	0x120cf9c6
    9ee4: c6 41 bb 21  	.word	0x21bb41c6
    9ee8: 9b a5 cd de  	.word	0xdecda59b
    9eec: 12 aa b2 ea  	.word	0xeab2aa12
    9ef0: 34 8b a4 0a  	.word	0x0aa48b34
    9ef4: 02 2d a7 c1  	.word	0xc1a72d02
    9ef8: 68 3b 7d e8  	.word	0xe87d3b68
    9efc: 27 4d 5d 21  	.word	0x215d4d27
    9f00: 05 0b 5a 69  	.word	0x695a0b05
    9f04: e5 08 31 b4  	.word	0xb43108e5
    9f08: 8b a3 37 ad  	.word	0xad37a38b
    9f0c: e8 0e b0 6c  	.word	0x6cb00ee8
    9f10: 81 73 53 a3  	.word	0xa3537381
    9f14: ee d6 da 5e  	.word	0x5edad6ee
    9f18: 24 32 dc b6  	.word	0xb6dc3224
    9f1c: d4 02 26 3f  	.word	0x3f2602d4
    9f20: 9c f1 ca 5b  	.word	0x5bcaf19c
    9f24: b6 47 b2 c8  	.word	0xc8b247b6
    9f28: 52 c6 b2 b1  	.word	0xb1b2c652
    9f2c: c3 9d 77 49  	.word	0x49779dc3
    9f30: e2 e2 ec d5  	.word	0xd5ece2e2
    9f34: bb 80 a1 89  	.word	0x89a180bb
    9f38: 39 e0 c8 ce  	.word	0xcec8e039
    9f3c: a3 98 f0 13  	.word	0x13f098a3
    9f40: 4b c5 5e ce  	.word	0xce5ec54b
    9f44: f9 0f dc 9a  	.word	0x9adc0ff9
    9f48: 0d 13 2f 8c  	.word	0x8c2f130d
    9f4c: 6b 2a 9c 03  	.word	0x039c2a6b
    9f50: 15 95 f8 f0  	.word	0xf0f89515
    9f54: c7 07 80 02  	.word	0x028007c7
    9f58: 6b b3 04 ac  	.word	0xac04b36b
    9f5c: 14 83 96 78  	.word	0x78968314
    9f60: 14 bb 96 27  	.word	0x2796bb14
    9f64: a2 57 aa f3  	.word	0xf3aa57a2
    9f68: 21 da 07 9b  	.word	0x9b07da21
    9f6c: b7 ba 3a 88  	.word	0x883abab7
    9f70: 1c 39 a0 31  	.word	0x31a0391c
    9f74: 18 e2 4b e5  	.word	0xe54be218
    9f78: f9 05 32 d8  	.word	0xd83205f9
    9f7c: 38 fb e7 5e  	.word	0x5ee7fb38
    9f80: 8e 6a 44 41  	.word	0x41446a8e
    9f84: cb fd 8d 53  	.word	0x538dfdcb
    9f88: f9 37 49 43  	.word	0x434937f9
    9f8c: a9 fd ac a5  	.word	0xa5acfda9
    9f90: 78 8c 3c 26  	.word	0x263c8c78
    9f94: 8d 90 af 46  	.word	0x46af908d
    9f98: 09 0d ca 9b  	.word	0x9bca0d09
    9f9c: 3c 63 d0 61  	.word	0x61d0633c
    9fa0: 66 25 db ff  	.word	0xffdb2566
    9fa4: 35 49 74 63  	.word	0x63744935
    9fa8: bb 68 0b 78  	.word	0x780b68bb
    9fac: 89 6b bd c5  	.word	0xc5bd6b89
    9fb0: 03 ec 3e 55  	.word	0x553eec03
    9fb4: 80 32 1b 6f  	.word	0x6f1b3280
    9fb8: f5 d7 ae 47  	.word	0x47aed7f5
    9fbc: d8 5f 96 6e  	.word	0x6e965fd8
    9fc0: df 73 fc f8  	.word	0xf8fc73df
    9fc4: bc 28 a3 ad  	.word	0xada328bc
    9fc8: fc 37 f0 a6  	.word	0xa6f037fc
    9fcc: 5d 69 84 ee  	.word	0xee84695d
    9fd0: 09 a9 c2 38  	.word	0x38c2a909
    9fd4: db b4 7f 63  	.word	0x637fb4db
    9fd8: dc 7b 06 f8  	.word	0xf8067bdc
    9fdc: 2d ac 23 5b  	.word	0x5b23ac2d
    9fe0: 7b 52 80 ee  	.word	0xee80527b
    9fe4: 53 b9 d2 9a  	.word	0x9ad2b953
    9fe8: 8d 6d de fa  	.word	0xfade6d8d
    9fec: aa 19 8f e8  	.word	0xe88f19aa
    9ff0: cf 82 0e 15  	.word	0x150e82cf
    9ff4: 04 17 71 0e  	.word	0x0e711704
    9ff8: dc de 95 dd  	.word	0xdd95dedc
    9ffc: b9 bb b9 79  	.word	0x79b9bbb9
    a000: c2 26 31 6a  	.word	0x6a3126c2
    a004: 40 55 b3 eb  	.word	0xebb35540
    a008: 93 c3 c8 68  	.word	0x68c8c393
    a00c: a8 83 63 d2  	.word	0xd26383a8
    a010: 82 7a b9 e5  	.word	0xe5b97a82
    a014: 29 64 0c 6c  	.word	0x6c0c6429
    a018: 47 21 fd c9  	.word	0xc9fd2147
    a01c: 58 f1 65 50  	.word	0x5065f158
    a020: 74 73 9f 8e  	.word	0x8e9f7374
    a024: ae 7d 99 d1  	.word	0xd1997dae
    a028: 16 08 bb cf  	.word	0xcfbb0816
    a02c: f8 a2 32 a0  	.word	0xa032a2f8
    a030: 0a 5f 44 6d  	.word	0x6d445f0a
    a034: 12 ba 6c cd  	.word	0xcd6cba12
    a038: 34 b8 cc 0a  	.word	0x0accb834
    a03c: 46 11 a8 1b  	.word	0x1ba81146
    a040: 54 99 42 0c  	.word	0x0c429954
    a044: fb 69 81 70  	.word	0x708169fb
    a048: 67 cf 6e d7  	.word	0xd76ecf67
    a04c: ac 00 46 e1  	.word	0xe14600ac
    a050: ba 45 e6 70  	.word	0x70e645ba
    a054: 8a b9 aa 2e  	.word	0x2eaab98a
    a058: f2 fa a4 58  	.word	0x58a4faf2
    a05c: 9e f3 81 39  	.word	0x3981f39e
    a060: 93 0a 23 59  	.word	0x59230a93
    a064: 75 8a fb 18  	.word	0x18fb8a75
    a068: 5d f4 e6 60  	.word	0x60e6f45d
    a06c: 69 8f 16 1d  	.word	0x1d168f69
    a070: b5 3c a9 14  	.word	0x14a93cb5
    a074: 45 a9 85 3a  	.word	0x3a85a945
    a078: fd d0 ac 05  	.word	0x05acd0fd
    a07c: 37 08 dc 38  	.word	0x38dc0837
    a080: de 6f e6 6d  	.word	0x6de66fde
    a084: a5 df 45 c8  	.word	0xc845dfa5
    a088: 3a 48 40 2c  	.word	0x2c40483a
    a08c: 00 a5 52 e1  	.word	0xe152a500
    a090: 32 f6 b4 c7  	.word	0xc7b4f632
    a094: 63 e1 d2 e9  	.word	0xe9d2e163
    a098: 65 1b bc dc  	.word	0xdcbc1b65
    a09c: 2e 45 f4 30  	.word	0x30f4452e
    a0a0: 40 97 75 c5  	.word	0xc5759740
    a0a4: 82 27 6d 85  	.word	0x856d2782
    a0a8: cc be 9c f9  	.word	0xf99cbecc
    a0ac: 69 45 13 fa  	.word	0xfa134569
    a0b0: 71 4e ea c0  	.word	0xc0ea4e71
    a0b4: 73 fc 44 88  	.word	0x8844fc73
    a0b8: 69 24 3f 59  	.word	0x593f2469
    a0bc: 1a 9a 2d 63  	.word	0x632d9a1a
    a0c0: a6 cb 07 b8  	.word	0xb807cba6
    a0c4: 15 6b bb f6  	.word	0xf6bb6b15
    a0c8: d7 f0 54 bc  	.word	0xbc54f0d7
    a0cc: df c7 23 18  	.word	0x1823c7df
    a0d0: 0b 67 29 6e  	.word	0x6e29670b
    a0d4: 03 97 1d bb  	.word	0xbb1d9703
    a0d8: 57 4a ed 47  	.word	0x47ed4a57
    a0dc: 88 f4 24 0b  	.word	0x0b24f488
    a0e0: a7 84 0c ed  	.word	0xed0c84a7
    a0e4: 11 fd 09 bf  	.word	0xbf09fd11
    a0e8: 3a 69 9f 0d  	.word	0x0d9f693a
    a0ec: 81 71 f0 63  	.word	0x63f07181
    a0f0: 79 87 cf 57  	.word	0x57cf8779
    a0f4: 2d 8c 90 21  	.word	0x21908c2d
    a0f8: a2 4b f6 8a  	.word	0x8af64ba2
    a0fc: f2 7d 5a 3a  	.word	0x3a5a7df2
    a100: c7 ea 1b 51  	.word	0x511beac7
    a104: be d4 da dc  	.word	0xdcdad4be
    a108: f2 cc 26 ed  	.word	0xed26ccf2
    a10c: 75 80 53 a4  	.word	0xa4538075
    a110: 65 9a 5f 00  	.word	0x005f9a65
    a114: 9f ff 9c e1  	.word	0xe19cff9f
    a118: 63 1f 48 75  	.word	0x75481f63
    a11c: 44 f7 fc 34  	.word	0x34fcf744
    a120: ca 67 97 78  	.word	0x789767ca
    a124: 4c e0 97 c1  	.word	0xc197e04c
    a128: 7d 46 d9 38  	.word	0x38d9467d
    a12c: cb 4d 71 b8  	.word	0xb8714dcb
    a130: a8 5f f9 83  	.word	0x83f95fa8
    a134: 82 88 de 55  	.word	0x55de8882
    a138: f7 63 fa 4d  	.word	0x4dfa63f7
    a13c: 16 dc 3b 3d  	.word	0x3d3bdc16
    a140: 98 aa cf 78  	.word	0x78cfaa98
    a144: ab 1d bb a5  	.word	0xa5bb1dab
    a148: f2 72 0b 19  	.word	0x190b72f2
    a14c: 67 a2 ed 5c  	.word	0x5ceda267
    a150: 8e 60 92 0a  	.word	0x0a92608e
    a154: 11 c9 09 93  	.word	0x9309c911
    a158: b0 74 b3 2f  	.word	0x2fb374b0
    a15c: 04 a3 19 01  	.word	0x0119a304
    a160: 7d 17 c2 e8  	.word	0xe8c2177d
    a164: 9c d8 a2 67  	.word	0x67a2d89c
    a168: c1 d0 95 68  	.word	0x6895d0c1
    a16c: f6 a5 9d 66  	.word	0x669da5f6
    a170: b0 a2 82 b2  	.word	0xb282a2b0
    a174: e5 98 65 f5  	.word	0xf56598e5
    a178: 73 0a e2 ed  	.word	0xede20a73
    a17c: f1 88 c0 56  	.word	0x56c088f1
    a180: 17 6e a8 10  	.word	0x10a86e17
    a184: 11 3d 6d 33  	.word	0x336d3d11
    a188: fa b2 75 0b  	.word	0x0b75b2fa
    a18c: 32 88 f3 d7  	.word	0xd7f38832
    a190: 88 29 07 25  	.word	0x25072988
    a194: 76 33 15 f9  	.word	0xf9153376
    a198: 87 8b 10 99  	.word	0x99108b87
    a19c: 6b 4c 67 09  	.word	0x09674c6b
    a1a0: 02 8f f3 24  	.word	0x24f38f02
    a1a4: ac 5f 1b 58  	.word	0x581b5fac
    a1a8: bd 0c e3 ba  	.word	0xbae30cbd
    a1ac: fe e9 0b a9  	.word	0xa90be9fe
    a1b0: f0 92 cf 8a  	.word	0x8acf92f0
    a1b4: 02 69 21 9a  	.word	0x9a216902
    a1b8: 8f 03 59 83  	.word	0x8359038f
    a1bc: a4 7e 8b 03  	.word	0x038b7ea4
    a1c0: f8 6f 31 99  	.word	0x99316ff8
    a1c4: 21 f8 4e 9f  	.word	0x9f4ef821
    a1c8: 4f 8d a7 ea  	.word	0xeaa78d4f
    a1cc: 82 d2 49 2f  	.word	0x2f49d282
    a1d0: 74 31 ef 5a  	.word	0x5aef3174
    a1d4: ab a5 71 09  	.word	0x0971a5ab
    a1d8: 65 eb 69 59  	.word	0x5969eb65
    a1dc: 02 31 5e 6e  	.word	0x6e5e3102
    a1e0: fb 93 e5 87  	.word	0x87e593fb
    a1e4: f5 62 6c b1  	.word	0xb16c62f5
    a1e8: 71 3e 5d ca  	.word	0xca5d3e71
    a1ec: de ed 99 49  	.word	0x4999edde
    a1f0: 6d 3e cc 14  	.word	0x14cc3e6d
    a1f4: e0 c1 91 b4  	.word	0xb491c1e0
    a1f8: a8 db a8 89  	.word	0x89a8dba8
    a1fc: 47 11 f5 08  	.word	0x08f51147
    a200: 22 62 06 63  	.word	0x63066222
    a204: 0e fb 04 33  	.word	0x3304fb0e
    a208: 3f ba ac 87  	.word	0x87acba3f
    a20c: 89 06 35 fb  	.word	0xfb350689
    a210: a3 61 10 8c  	.word	0x8c1061a3
    a214: 77 24 19 bd  	.word	0xbd192477
    a218: 20 86 83 d1  	.word	0xd1838620
    a21c: 43 ad 58 30  	.word	0x3058ad43
    a220: d0 63 76 e5  	.word	0xe57663d0
    a224: fd 0f 3c 32  	.word	0x323c0ffd
    a228: 10 a6 2e a2  	.word	0xa22ea610
    a22c: 38 df c3 05  	.word	0x05c3df38
    a230: 9a 4f 99 ac  	.word	0xac994f9a
    a234: bd 8a c7 bd  	.word	0xbdc78abd
    a238: 99 dc e3 ef  	.word	0xefe3dc99
    a23c: a4 9f 54 26  	.word	0x26549fa4
    a240: 89 8f ce 87  	.word	0x87ce8f89
    a244: d7 38 8b 73  	.word	0x738b38d7
    a248: 8d a8 79 41  	.word	0x4179a88d
    a24c: e2 58 26 b6  	.word	0xb62658e2
    a250: 6d 31 51 f1  	.word	0xf151316d
    a254: 9c 8c 73 30  	.word	0x30738c9c
    a258: c9 75 72 72  	.word	0x727275c9
    a25c: 7f 8c 12 49  	.word	0x49128c7f
    a260: b9 96 53 f7  	.word	0xf75396b9
    a264: 17 bc db 04  	.word	0x04dbbc17
    a268: 46 67 f8 d2  	.word	0xd2f86746
    a26c: d7 a2 e6 69  	.word	0x69e6a2d7
    a270: c6 ab 3e f5  	.word	0xf53eabc6
    a274: 99 9d 40 c6  	.word	0xc6409d99
    a278: d2 25 2e 33  	.word	0x332e25d2
    a27c: f6 75 61 60  	.word	0x606175f6
    a280: dd e7 40 f5  	.word	0xf540e7dd
    a284: 0e 37 21 40  	.word	0x4021370e
    a288: a5 d0 f1 a1  	.word	0xa1f1d0a5
    a28c: f5 d6 10 09  	.word	0x0910d6f5
    a290: 07 b8 06 5b  	.word	0x5b06b807
    a294: cd aa 34 46  	.word	0x4634aacd
    a298: 35 f2 44 69  	.word	0x6944f235
    a29c: 35 e6 39 6a  	.word	0x6a39e635
    a2a0: e7 f3 90 df  	.word	0xdf90f3e7
    a2a4: 40 56 cd 96  	.word	0x96cd5640
    a2a8: ea 25 fa db  	.word	0xdbfa25ea
    a2ac: 0e 76 3a 6c  	.word	0x6c3a760e
    a2b0: c4 3c e3 59  	.word	0x59e33cc4
    a2b4: 09 ef f3 24  	.word	0x24f3ef09
    a2b8: 58 2e 0d 53  	.word	0x530d2e58
    a2bc: 7e 9e 88 42  	.word	0x42889e7e
    a2c0: 9d 9e 04 74  	.word	0x74049e9d
    a2c4: 57 96 a1 1d  	.word	0x1da19657
    a2c8: 2b 35 fe 98  	.word	0x98fe352b
    a2cc: a1 6e cd fb  	.word	0xfbcd6ea1
    a2d0: a6 36 52 cc  	.word	0xcc5236a6
    a2d4: 50 cd cb b1  	.word	0xb1cbcd50
    a2d8: e2 46 98 3f  	.word	0x3f9846e2
    a2dc: 3d c8 5e 1f  	.word	0x1f5ec83d
    a2e0: 75 cb 8c 32  	.word	0x328ccb75
    a2e4: c3 23 fb 8e  	.word	0x8efb23c3
    a2e8: e9 6e 87 dd  	.word	0xdd876ee9
    a2ec: 07 a2 42 af  	.word	0xaf42a207
    a2f0: 96 e7 fa 5d  	.word	0x5dfae796
    a2f4: dc da fb 20  	.word	0x20fbdadc
    a2f8: 51 9f bf 06  	.word	0x06bf9f51
    a2fc: 6b 24 1e 24  	.word	0x241e246b
    a300: f6 98 6e ad  	.word	0xad6e98f6
    a304: 57 8e e6 29  	.word	0x29e68e57
    a308: 65 20 46 0b  	.word	0x0b462065
    a30c: c8 60 92 4c  	.word	0x4c9260c8
    a310: 4b bb 1e a5  	.word	0xa51ebb4b
    a314: 2e 86 00 3f  	.word	0x3f00862e
    a318: 97 90 8d b3  	.word	0xb38d9097
    a31c: 7f c7 c2 5b  	.word	0x5bc2c77f
    a320: b8 bb 80 62  	.word	0x6280bbb8
    a324: 9a fc aa 7e  	.word	0x7eaafc9a
    a328: 09 d8 03 f4  	.word	0xf403d809
    a32c: 12 0f a7 22  	.word	0x22a70f12
    a330: 20 8d fc 1b  	.word	0x1bfc8d20
    a334: bb 40 ce 31  	.word	0x31ce40bb
    a338: ee 53 bd e8  	.word	0xe8bd53ee
    a33c: 35 56 c6 2b  	.word	0x2bc65635
    a340: 93 ad 6b a9  	.word	0xa96bad93
    a344: 9f dc d5 e8  	.word	0xe8d5dc9f
    a348: dc 47 19 de  	.word	0xde1947dc
    a34c: 7d b1 8f e5  	.word	0xe58fb17d
    a350: a3 5f 18 65  	.word	0x65185fa3
    a354: ea 32 15 68  	.word	0x681532ea
    a358: 30 78 4a 03  	.word	0x034a7830
    a35c: 3b 6c dd 1f  	.word	0x1fdd6c3b
    a360: fe 18 dc 55  	.word	0x55dc18fe
    a364: 8c e2 64 0a  	.word	0x0a64e28c
    a368: dd eb 99 33  	.word	0x3399ebdd
    a36c: 99 9e df e3  	.word	0xe3df9e99
    a370: 52 e6 e2 70  	.word	0x70e2e652
    a374: 23 43 ac 79  	.word	0x79ac4323
    a378: 0e cc e4 3a  	.word	0x3ae4cc0e
    a37c: c3 7f ff 35  	.word	0x35ff7fc3
    a380: a9 f7 d8 2d  	.word	0x2dd8f7a9
    a384: a5 a6 13 9c  	.word	0x9c13a6a5
    a388: bf ca fd 3e  	.word	0x3efdcabf
    a38c: 8c 1f bb 2d  	.word	0x2dbb1f8c
    a390: b5 f7 08 5e  	.word	0x5e08f7b5
    a394: 40 32 1e 96  	.word	0x961e3240
    a398: e5 c9 e6 bb  	.word	0xbbe6c9e5
    a39c: 21 a1 c8 48  	.word	0x48c8a121
    a3a0: 45 64 64 59  	.word	0x59646445
    a3a4: 7c 5a 41 fc  	.word	0xfc415a7c
    a3a8: 15 b6 28 c1  	.word	0xc128b615
    a3ac: d7 b2 24 d2  	.word	0xd224b2d7
    a3b0: 12 b9 fb 05  	.word	0x05fbb912
    a3b4: c9 c9 35 60  	.word	0x6035c9c9
    a3b8: ab 9f 42 74  	.word	0x74429fab
    a3bc: 12 a9 d7 42  	.word	0x42d7a912
    a3c0: d3 2e f7 ea  	.word	0xeaf72ed3
    a3c4: e3 13 62 4e  	.word	0x4e6213e3
    a3c8: e7 d4 ac 43  	.word	0x43acd4e7
    a3cc: 1a 98 94 67  	.word	0x6794981a
    a3d0: cb 08 b5 6e  	.word	0x6eb508cb
    a3d4: de 7c 54 ff  	.word	0xff547cde
    a3d8: 32 b5 fc 10  	.word	0x10fcb532
    a3dc: dd 19 ed 6f  	.word	0x6fed19dd
    a3e0: bc a5 3d 93  	.word	0x933da5bc
    a3e4: 47 89 a4 a9  	.word	0xa9a48947
    a3e8: ec 79 e9 c2  	.word	0xc2e979ec
    a3ec: 0e 92 58 4a  	.word	0x4a58920e
    a3f0: 4c ac e5 13  	.word	0x13e5ac4c
    a3f4: 00 80 d8 96  	.word	0x96d88000
    a3f8: 47 b1 48 4b  	.word	0x4b48b147
    a3fc: d7 92 36 45  	.word	0x453692d7
    a400: 6f 9c 55 a8  	.word	0xa8559c6f
    a404: 99 5d 77 dd  	.word	0xdd775d99
    a408: 24 3e 00 df  	.word	0xdf003e24
    a40c: 40 21 2a f4  	.word	0xf42a2140
    a410: 66 8a 92 da  	.word	0xda928a66
    a414: 29 e2 23 52  	.word	0x5223e229
    a418: 2c f2 38 6d  	.word	0x6d38f22c
    a41c: ba 46 3f 06  	.word	0x063f46ba
    a420: 94 66 53 5f  	.word	0x5f536694
    a424: 89 42 d2 d2  	.word	0xd2d24289
    a428: 2c 9b 93 42  	.word	0x42939b2c
    a42c: c5 a2 33 ca  	.word	0xca33a2c5
    a430: 5c b9 dd c7  	.word	0xc7ddb95c
    a434: a6 ad 6f 98  	.word	0x986fada6
    a438: 5d 2d 71 2f  	.word	0x2f712d5d
    a43c: 04 2c 15 5a  	.word	0x5a152c04
    a440: 21 69 34 37  	.word	0x37346921
    a444: b7 3c 84 39  	.word	0x39843cb7
    a448: 47 94 c8 38  	.word	0x38c89447
    a44c: 07 fb 47 a7  	.word	0xa747fb07
    a450: 7e 30 45 a2  	.word	0xa245307e
    a454: 31 80 8d cb  	.word	0xcb8d8031
    a458: 68 f0 82 6d  	.word	0x6d82f068
    a45c: 8e 0f 81 67  	.word	0x67810f8e
    a460: b4 7d 28 d2  	.word	0xd2287db4
    a464: bc 8f eb 3e  	.word	0x3eeb8fbc
    a468: 93 3e a0 01  	.word	0x01a03e93
    a46c: a3 d3 c7 72  	.word	0x72c7d3a3
    a470: 5a 26 98 bd  	.word	0xbd98265a
    a474: 8c e8 73 54  	.word	0x5473e88c
    a478: 03 b4 21 59  	.word	0x5921b403
    a47c: 51 aa 24 73  	.word	0x7324aa51
    a480: 8e be 3c 6c  	.word	0x6c3cbe8e
    a484: f4 42 79 85  	.word	0x857942f4
    a488: 46 c0 30 47  	.word	0x4730c046
    a48c: b1 64 d3 a1  	.word	0xa1d364b1
    a490: bf 41 3c d2  	.word	0xd23c41bf
    a494: 14 d9 8e 1c  	.word	0x1c8ed914
    a498: d2 d5 f6 ee  	.word	0xeef6d5d2
    a49c: 61 e1 38 08  	.word	0x0838e161
    a4a0: cb 54 23 e8  	.word	0xe82354cb
    a4a4: da f6 23 ad  	.word	0xad23f6da
    a4a8: 6d 1a 57 b6  	.word	0xb6571a6d
    a4ac: 2a 50 62 69  	.word	0x6962502a
    a4b0: d1 37 8e e3  	.word	0xe38e37d1
    a4b4: 36 16 65 9b  	.word	0x9b651636
    a4b8: 2f 31 a3 d1  	.word	0xd1a3312f
    a4bc: 05 50 ac 5c  	.word	0x5cac5005
    a4c0: 04 99 e3 e9  	.word	0xe9e39904
    a4c4: cc 54 c1 8c  	.word	0x8cc154cc
    a4c8: 46 68 de 84  	.word	0x84de6846
    a4cc: 0b 04 3a 5b  	.word	0x5b3a040b
    a4d0: 6e 5d be b1  	.word	0xb1be5d6e
    a4d4: 1c a6 d8 c4  	.word	0xc4d8a61c
    a4d8: 02 1f 86 d8  	.word	0xd8861f02
    a4dc: 7b 89 fb 40  	.word	0x40fb897b
    a4e0: a1 37 de 62  	.word	0x62de37a1
    a4e4: 90 aa c5 84  	.word	0x84c5aa90
    a4e8: e1 96 1d 0d  	.word	0x0d1d96e1
    a4ec: 00 a5 1d 42  	.word	0x421da500
    a4f0: d9 42 92 6a  	.word	0x6a9242d9
    a4f4: 30 86 82 78  	.word	0x78828630
    a4f8: da 10 0d 69  	.word	0x690d10da
    a4fc: 4a 46 5e 3c  	.word	0x3c5e464a
    a500: 61 07 b1 5a  	.word	0x5ab10761
    a504: 47 d8 7e e5  	.word	0xe57ed847
    a508: 46 37 d1 6f  	.word	0x6fd13746
    a50c: 20 5e 43 71  	.word	0x71435e20
    a510: 32 56 02 cd  	.word	0xcd025632
    a514: 4e 82 2f 34  	.word	0x342f824e
    a518: 7b 1e 79 a8  	.word	0xa8791e7b
    a51c: 1e 28 16 4b  	.word	0x4b16281e
    a520: 81 33 81 0b  	.word	0x0b813381
    a524: d5 01 c1 d1  	.word	0xd1c101d5
    a528: 28 68 ee 76  	.word	0x76ee6828
    a52c: 11 0f e6 de  	.word	0xdee60f11
    a530: 09 64 3f 38  	.word	0x383f6409
    a534: 93 88 b6 0c  	.word	0x0cb68893
    a538: 4a 48 ff f6  	.word	0xf6ff484a
    a53c: 65 c5 83 61  	.word	0x6183c565
    a540: d6 f9 6b 1e  	.word	0x1e6bf9d6
    a544: 46 5a 1d 74  	.word	0x741d5a46
    a548: 81 a5 77 77  	.word	0x7777a581
    a54c: fc b3 05 23  	.word	0x2305b3fc
    a550: d9 d3 74 64  	.word	0x6474d3d9
    a554: a2 74 55 d4  	.word	0xd45574a2
    a558: ff e0 01 64  	.word	0x6401e0ff
    a55c: dc e1 26 19  	.word	0x1926e1dc
    a560: 6e 66 3f af  	.word	0xaf3f666e
    a564: 49 85 46 db  	.word	0xdb468549
    a568: a5 0e 4a f1  	.word	0xf14a0ea5
    a56c: 04 cf 7f d7  	.word	0xd77fcf04
    a570: 47 0c ba a4  	.word	0xa4ba0c47
    a574: f7 3f f2 3d  	.word	0x3df23ff7
    a578: 85 3c ce 32  	.word	0x32ce3c85
    a57c: e1 df 10 3a  	.word	0x3a10dfe1
    a580: a0 ce 17 ea  	.word	0xea17cea0
    a584: 8a 4e 7f e0  	.word	0xe07f4e8a
    a588: fd c1 1f 3a  	.word	0x3a1fc1fd
    a58c: 46 15 d5 2f  	.word	0x2fd51546
    a590: f1 c0 f2 31  	.word	0x31f2c0f1
    a594: fd 22 53 17  	.word	0x175322fd
    a598: 15 5d 1e 86  	.word	0x861e5d15
    a59c: 1d d0 a1 1f  	.word	0x1fa1d01d
    a5a0: 32 98 59 7d  	.word	0x7d599832
    a5a4: 94 55 80 cc  	.word	0xcc805594
    a5a8: 20 55 f1 37  	.word	0x37f15520
    a5ac: da 56 46 1e  	.word	0x1e4656da
    a5b0: 20 93 05 4e  	.word	0x4e059320
    a5b4: 74 f7 f6 99  	.word	0x99f6f774
    a5b8: 33 cf 75 6a  	.word	0x6a75cf33
    a5bc: bc 63 35 77  	.word	0x773563bc
    a5c0: ab 94 df d1  	.word	0xd1df94ab
    a5c4: 00 ac dc 38  	.word	0x38dcac00
    a5c8: e9 0d 08 d1  	.word	0xd1080de9
    a5cc: dd 2b 71 2e  	.word	0x2e712bdd
    a5d0: 62 e2 d5 fd  	.word	0xfdd5e262
    a5d4: 3e e9 13 7f  	.word	0x7f13e93e
    a5d8: e5 01 9a ee  	.word	0xee9a01e5
    a5dc: 18 ed fc 73  	.word	0x73fced18
    a5e0: b3 9c 13 63  	.word	0x63139cb3
    a5e4: 08 e9 b1 06  	.word	0x06b1e908
    a5e8: cd 3e a0 c5  	.word	0xc5a03ecd
    a5ec: 67 da 93 a4  	.word	0xa493da67
    a5f0: 32 89 63 ad  	.word	0xad638932
    a5f4: c8 ce 77 8d  	.word	0x8d77cec8
    a5f8: 44 4f 86 1b  	.word	0x1b864f44
    a5fc: 70 6b 42 1f  	.word	0x1f426b70
    a600: 01 1c 91 41  	.word	0x41911c01
    a604: 4c 26 c9 ef  	.word	0xefc9264c
    a608: 25 2c a2 17  	.word	0x17a22c25
    a60c: b8 b7 a3 f1  	.word	0xf1a3b7b8
    a610: 47 14 0f f3  	.word	0xf30f1447
    a614: 6b da 75 58  	.word	0x5875da6b
    a618: 90 b0 31 1d  	.word	0x1d31b090
    a61c: 27 f5 1a 4e  	.word	0x4e1af527
    a620: 52 25 a1 91  	.word	0x91a12552
    a624: c8 35 7e f1  	.word	0xf17e35c8
    a628: 76 9c 5e 57  	.word	0x575e9c76
    a62c: 53 81 6b b7  	.word	0xb76b8153
    a630: 3e 72 9b 0d  	.word	0x0d9b723e
    a634: 6f 40 83 fa  	.word	0xfa83406f
    a638: 38 e4 a7 3f  	.word	0x3fa7e438
    a63c: 1b bb 76 0b  	.word	0x0b76bb1b
    a640: 9b 93 92 7f  	.word	0x7f92939b
    a644: f9 c1 b8 08  	.word	0x08b8c1f9
    a648: 6e ab 44 d4  	.word	0xd444ab6e
    a64c: cb 71 67 be  	.word	0xbe6771cb
    a650: 17 80 bb 99  	.word	0x99bb8017
    a654: 63 64 e5 22  	.word	0x22e56463
    a658: 55 a9 72 b7  	.word	0xb772a955
    a65c: 1e d6 6d 7b  	.word	0x7b6dd61e
    a660: 92 3d f3 50  	.word	0x50f33d92
    a664: e8 c1 ad b7  	.word	0xb7adc1e8
    a668: cf d5 8c 60  	.word	0x608cd5cf
    a66c: 4f fa 98 79  	.word	0x7998fa4f
    a670: db 5b fc 8d  	.word	0x8dfc5bdb
    a674: bd 2d 96 ad  	.word	0xad962dbd
    a678: 4f 2f 1d af  	.word	0xaf1d2f4f
    a67c: ce 9b 3e 70  	.word	0x703e9bce
    a680: c7 d2 01 ab  	.word	0xab01d2c7
    a684: f9 ab 30 57  	.word	0x5730abf9
    a688: 18 3b 14 40  	.word	0x40143b18
    a68c: dc 76 fb 16  	.word	0x16fb76dc
    a690: 81 b2 cb a0  	.word	0xa0cbb281
    a694: 65 be 6c 86  	.word	0x866cbe65
    a698: fe 6a ff 9b  	.word	0x9bff6afe
    a69c: 65 9b fa 53  	.word	0x53fa9b65
    a6a0: 55 54 88 94  	.word	0x94885455
    a6a4: e9 c8 14 6c  	.word	0x6c14c8e9
    a6a8: e5 d4 ae 65  	.word	0x65aed4e5
    a6ac: 66 5d 3a 84  	.word	0x843a5d66
    a6b0: f1 5a d6 bc  	.word	0xbcd65af1
    a6b4: 3e b7 1b 18  	.word	0x181bb73e
    a6b8: 50 1f c6 c4  	.word	0xc4c61f50
    a6bc: e5 93 8d 39  	.word	0x398d93e5
    a6c0: f3 48 e2 33  	.word	0x33e248f3
    a6c4: 67 d1 4b 1c  	.word	0x1c4bd167
    a6c8: 5f 0a bf 15  	.word	0x15bf0a5f
    a6cc: 87 12 9e bd  	.word	0xbd9e1287
    a6d0: 76 03 0b a1  	.word	0xa10b0376
    a6d4: f0 8c 3f d4  	.word	0xd43f8cf0
    a6d8: 13 1b 19 df  	.word	0xdf191b13
    a6dc: 5d 9b b0 53  	.word	0x53b09b5d
    a6e0: f2 e3 e7 d2  	.word	0xd2e7e3f2
    a6e4: 60 7c 87 c3  	.word	0xc3877c60
    a6e8: b1 8b 82 30  	.word	0x30828bb1
    a6ec: a0 aa 34 3b  	.word	0x3b34aaa0
    a6f0: 38 f1 9e 73  	.word	0x739ef138
    a6f4: e7 26 3e 28  	.word	0x283e26e7
    a6f8: 77 05 c3 02  	.word	0x02c30577
    a6fc: 90 9c 9c 69  	.word	0x699c9c90
    a700: cc f1 46 59  	.word	0x5946f1cc
    a704: 23 a7 06 f3  	.word	0xf306a723
    a708: 7d d9 e5 cc  	.word	0xcce5d97d
    a70c: b5 18 17 92  	.word	0x921718b5
    a710: 75 e9 b4 81  	.word	0x81b4e975
    a714: 47 d2 cd 28  	.word	0x28cdd247
    a718: 07 d9 cd 6f  	.word	0x6fcdd907
    a71c: 0c f3 ca 51  	.word	0x51caf30c
    a720: 0a e0 74 76  	.word	0x7674e00a
    a724: 42 a7 0b a6  	.word	0xa60ba742
    a728: f3 7b 7a a1  	.word	0xa17a7bf3
    a72c: 70 85 0e 63  	.word	0x630e8570
    a730: cc 24 33 cf  	.word	0xcf3324cc
    a734: 3d 56 58 37  	.word	0x3758563d
    a738: aa fd 83 23  	.word	0x2383fdaa
    a73c: 29 aa 04 55  	.word	0x5504aa29
    a740: c7 54 ac 18  	.word	0x18ac54c7
    a744: 9a f9 7a 73  	.word	0x737af99a
    a748: 0f b3 1c c5  	.word	0xc51cb30f
    a74c: dc 78 33 90  	.word	0x903378dc
    a750: c7 0c e1 4c  	.word	0x4ce10cc7
    a754: 33 bc 89 2b  	.word	0x2b89bc33
    a758: 9a e9 f8 89  	.word	0x89f8e99a
    a75c: c1 29 ae 12  	.word	0x12ae29c1
    a760: cf 01 0d 1f  	.word	0x1f0d01cf
    a764: cb c0 9e a9  	.word	0xa99ec0cb
    a768: ae f7 34 3a  	.word	0x3a34f7ae
    a76c: cc ef d1 0d  	.word	0x0dd1efcc
    a770: 22 4e 9c d0  	.word	0xd09c4e22
    a774: 21 75 ca 55  	.word	0x55ca7521
    a778: ea a5 eb 58  	.word	0x58eba5ea
    a77c: e9 4f d1 5f  	.word	0x5fd14fe9
    a780: 2c ab 45 28  	.word	0x2845ab2c
    a784: df 2d dc b5  	.word	0xb5dc2ddf
    a788: 93 e9 7f 0a  	.word	0x0a7fe993
    a78c: b1 91 94 06  	.word	0x069491b1
    a790: 46 e3 02 40  	.word	0x4002e346
    a794: d6 f3 aa 4d  	.word	0x4daaf3d6
    a798: d1 74 64 58  	.word	0x586474d1
    a79c: 6e f2 3f 09  	.word	0x093ff26e
    a7a0: 8e cb 93 bf  	.word	0xbf93cb8e
    a7a4: 5e fe 42 3c  	.word	0x3c42fe5e
    a7a8: 5f 56 d4 36  	.word	0x36d4565f
    a7ac: 51 a8 df be  	.word	0xbedfa851
    a7b0: e8 20 42 88  	.word	0x884220e8
    a7b4: 9e 85 f0 e0  	.word	0xe0f0859e
    a7b8: 28 d1 25 07  	.word	0x0725d128
    a7bc: 96 3f d7 7d  	.word	0x7dd73f96
    a7c0: 29 98 05 68  	.word	0x68059829
    a7c4: fe 24 0d b1  	.word	0xb10d24fe
    a7c8: e5 23 af db  	.word	0xdbaf23e5
    a7cc: 72 06 73 75  	.word	0x75730672
    a7d0: 29 ac 57 b4  	.word	0xb457ac29
    a7d4: 3a 25 67 13  	.word	0x1367253a
    a7d8: a4 70 b4 86  	.word	0x86b470a4
    a7dc: bc bc 59 2f  	.word	0x2f59bcbc
    a7e0: 5f 13 17 99  	.word	0x9917135f
    a7e4: 42 7d 84 83  	.word	0x83847d42
    a7e8: d7 03 7d 56  	.word	0x567d03d7
    a7ec: 1f 91 1b ad  	.word	0xad1b911f
    a7f0: d1 aa 77 be  	.word	0xbe77aad1
    a7f4: d9 48 77 7e  	.word	0x7e7748d9
    a7f8: 4a af 51 2e  	.word	0x2e51af4a
    a7fc: 2e b4 58 54  	.word	0x5458b42e
    a800: 01 c3 91 b6  	.word	0xb691c301
    a804: 60 d5 41 70  	.word	0x7041d560
    a808: 1e e7 d7 ad  	.word	0xadd7e71e
    a80c: 3f 1b 20 85  	.word	0x85201b3f
    a810: 85 55 33 11  	.word	0x11335585
    a814: 63 e1 c2 16  	.word	0x16c2e163
    a818: b1 28 08 01  	.word	0x010828b1
    a81c: 3d 5e a5 2a  	.word	0x2aa55e3d
    a820: 4f 44 07 0c  	.word	0x0c07444f
    a824: e6 92 51 ed  	.word	0xed5192e6
    a828: 10 1d 42 74  	.word	0x74421d10
    a82c: 2d 4e c5 42  	.word	0x42c54e2d
    a830: 64 c8 b5 fd  	.word	0xfdb5c864
    a834: 82 4c 2b 35  	.word	0x352b4c82
    a838: 64 86 76 8a  	.word	0x8a768664
    a83c: 4a 00 e9 13  	.word	0x13e9004a
    a840: ff 2b 03 6c  	.word	0x6c032bff
    a844: 55 b5 b5 cb  	.word	0xcbb5b555
    a848: 3a 7a 29 29  	.word	0x29297a3a
    a84c: b7 91 71 df  	.word	0xdf7191b7
    a850: bb 81 ed ad  	.word	0xaded81bb
    a854: 26 73 ff c1  	.word	0xc1ff7326
    a858: f5 03 be 68  	.word	0x68be03f5
    a85c: bb e8 ad 71  	.word	0x71ade8bb
    a860: 7c 46 6b 80  	.word	0x806b467c
    a864: c5 84 62 1e  	.word	0x1e6284c5
    a868: 7b 60 5d e7  	.word	0xe75d607b
    a86c: 7b 99 f6 c5  	.word	0xc5f6997b
    a870: 62 d2 78 b3  	.word	0xb378d262
    a874: 58 d9 67 8b  	.word	0x8b67d958
    a878: 70 8b cd 81  	.word	0x81cd8b70
    a87c: 6a d6 88 3d  	.word	0x3d88d66a
    a880: 89 d7 4e 20  	.word	0x204ed789
    a884: 93 7a 76 8b  	.word	0x8b767a93
    a888: 2a ae a0 9f  	.word	0x9fa0ae2a
    a88c: cb ca 2f 76  	.word	0x762fcacb
    a890: 87 48 ce 6d  	.word	0x6dce4887
    a894: cc eb 1f 77  	.word	0x771febcc
    a898: b3 5f f0 8f  	.word	0x8ff05fb3
    a89c: 15 62 30 34  	.word	0x34306215
    a8a0: 49 bf f5 e1  	.word	0xe1f5bf49
    a8a4: a7 a1 5d e0  	.word	0xe05da1a7
    a8a8: 92 60 73 d4  	.word	0xd4736092
    a8ac: 6d 7d 45 26  	.word	0x26457d6d
    a8b0: f6 32 cc 73  	.word	0x73cc32f6
    a8b4: 77 b0 dc 77  	.word	0x77dcb077
    a8b8: cd 5f dd 9c  	.word	0x9cdd5fcd
    a8bc: 96 94 5d 0a  	.word	0x0a5d9496
    a8c0: b4 31 7b 2a  	.word	0x2a7b31b4
    a8c4: 07 19 e2 fc  	.word	0xfce21907
    a8c8: 16 80 57 aa  	.word	0xaa578016
    a8cc: 75 dc 7a 4d  	.word	0x4d7adc75
    a8d0: 24 93 47 87  	.word	0x87479324
    a8d4: a6 76 c2 0e  	.word	0x0ec276a6
    a8d8: eb 4b da 1f  	.word	0x1fda4beb
    a8dc: 5d 9d 6d 6d  	.word	0x6d6d9d5d
    a8e0: 83 81 b0 e9  	.word	0xe9b08183
    a8e4: 8a a5 b1 22  	.word	0x22b1a58a
    a8e8: 8b 38 5c c1  	.word	0xc15c388b
    a8ec: 71 d0 95 fd  	.word	0xfd95d071
    a8f0: 17 05 0a 85  	.word	0x850a0517
    a8f4: 76 23 81 a9  	.word	0xa9812376
    a8f8: 5e 33 7f bb  	.word	0xbb7f335e
    a8fc: ba 4c 38 33  	.word	0x33384cba
    a900: b5 c7 a2 0c  	.word	0x0ca2c7b5
    a904: 68 a2 6f 3c  	.word	0x3c6fa268
    a908: da 4f b6 6f  	.word	0x6fb64fda
    a90c: 04 82 50 1b  	.word	0x1b508204
    a910: de d6 31 54  	.word	0x5431d6de
    a914: 9c 34 53 eb  	.word	0xeb53349c
    a918: 89 9c 87 6b  	.word	0x6b879c89
    a91c: 8f b3 78 52  	.word	0x5278b38f
    a920: 8d 8b 21 26  	.word	0x26218b8d
    a924: 7a 62 bc 33  	.word	0x33bc627a
    a928: 61 0c a8 c7  	.word	0xc7a80c61
    a92c: 1f b2 80 ea  	.word	0xea80b21f
    a930: e6 9e 3e 17  	.word	0x173e9ee6
    a934: 2b b1 58 94  	.word	0x9458b12b
    a938: 59 30 2f 0e  	.word	0x0e2f3059
    a93c: be 47 62 07  	.word	0x076247be
    a940: 5a 37 16 14  	.word	0x1416375a
    a944: f6 05 e1 52  	.word	0x52e105f6
    a948: a4 eb ab 85  	.word	0x85abeba4
    a94c: 36 af 97 ec  	.word	0xec97af36
    a950: 36 7c a6 23  	.word	0x23a67c36
    a954: 06 b5 e6 26  	.word	0x26e6b506
    a958: 01 fb d4 f3  	.word	0xf3d4fb01
    a95c: 56 e8 f0 5c  	.word	0x5cf0e856
    a960: b4 ca e8 1a  	.word	0x1ae8cab4
    a964: 73 68 c9 f6  	.word	0xf6c96873
    a968: c5 92 4f cb  	.word	0xcb4f92c5
    a96c: 1e 74 20 5e  	.word	0x5e20741e
    a970: 3e bc cd 8c  	.word	0x8ccdbc3e
    a974: e5 3b a5 2d  	.word	0x2da53be5
    a978: f7 0d 97 69  	.word	0x69970df7
    a97c: a2 fe dd 2d  	.word	0x2dddfea2
    a980: a8 42 b3 3d  	.word	0x3db342a8
    a984: 31 ce ae be  	.word	0xbeaece31
    a988: ee b7 2d 84  	.word	0x842db7ee
    a98c: 5b 63 a3 cb  	.word	0xcba3635b
    a990: ef 13 7f 81  	.word	0x817f13ef
    a994: 20 66 8c e8  	.word	0xe88c6620
    a998: c6 d5 76 4e  	.word	0x4e76d5c6
    a99c: aa 38 94 1b  	.word	0x1b9438aa
    a9a0: 1a 03 6f 16  	.word	0x166f031a
    a9a4: 7e 77 50 8a  	.word	0x8a50777e
    a9a8: 28 a3 b7 0f  	.word	0x0fb7a328
    a9ac: f1 39 7b 06  	.word	0x067b39f1
    a9b0: 76 bd 0f 01  	.word	0x010fbd76
    a9b4: a6 c9 25 19  	.word	0x1925c9a6
    a9b8: 05 09 74 cc  	.word	0xcc740905
    a9bc: 75 b5 f9 6d  	.word	0x6df9b575
    a9c0: cf bd f6 27  	.word	0x27f6bdcf
    a9c4: 29 19 c1 42  	.word	0x42c11929
    a9c8: ca 61 3d 40  	.word	0x403d61ca
    a9cc: 7a 91 91 8f  	.word	0x8f91917a
    a9d0: 61 1f 9e 8b  	.word	0x8b9e1f61
    a9d4: 66 5a 1c dc  	.word	0xdc1c5a66
    a9d8: 8d 0f ec 04  	.word	0x04ec0f8d
    a9dc: 78 04 96 15  	.word	0x15960478
    a9e0: 41 de ca 48  	.word	0x48cade41
    a9e4: 5b c3 df ec  	.word	0xecdfc35b
    a9e8: 70 82 32 b2  	.word	0xb2328270
    a9ec: 1f 47 88 6a  	.word	0x6a88471f
    a9f0: 6a 1b a0 40  	.word	0x40a01b6a
    a9f4: 24 4a 0a 74  	.word	0x740a4a24
    a9f8: 29 5f 3b 00  	.word	0x003b5f29
    a9fc: 96 57 1e 47  	.word	0x471e5796
    aa00: ac 37 ed ac  	.word	0xaced37ac
    aa04: b3 bb 96 da  	.word	0xda96bbb3
    aa08: ea 8c 20 e9  	.word	0xe9208cea
    aa0c: b5 23 24 7a  	.word	0x7a2423b5
    aa10: e2 ba ae 38  	.word	0x38aebae2
    aa14: 30 5c cc 24  	.word	0x24cc5c30
    aa18: 2f ae 5d dc  	.word	0xdc5dae2f
    aa1c: af 56 c3 50  	.word	0x50c356af
    aa20: 18 03 c3 41  	.word	0x41c30318
    aa24: 43 bf dc 09  	.word	0x09dcbf43
    aa28: ce 1d 18 83  	.word	0x83181dce
    aa2c: 11 06 ba ee  	.word	0xeeba0611
    aa30: a1 29 1e dc  	.word	0xdc1e29a1
    aa34: ce c0 79 c1  	.word	0xc179c0ce
    aa38: b0 35 3f 07  	.word	0x073f35b0
    aa3c: 89 7b bf 1d  	.word	0x1dbf7b89
    aa40: 64 b9 31 1b  	.word	0x1b31b964
    aa44: df 9c ed cf  	.word	0xcfed9cdf
    aa48: f3 1a a5 8c  	.word	0x8ca51af3
    aa4c: 85 a9 86 f4  	.word	0xf486a985
    aa50: 84 1f 8c ea  	.word	0xea8c1f84
    aa54: 65 72 89 14  	.word	0x14897265
    aa58: 00 cc 2a 93  	.word	0x932acc00
    aa5c: dd 53 4a 78  	.word	0x784a53dd
    aa60: 20 49 fc 14  	.word	0x14fc4920
    aa64: df f9 99 2d  	.word	0x2d99f9df
    aa68: e5 9f 49 c4  	.word	0xc4499fe5
    aa6c: 0c b6 cc 76  	.word	0x76ccb60c
    aa70: 03 00 cf e5  	.word	0xe5cf0003
    aa74: bb 2c 13 a4  	.word	0xa4132cbb
    aa78: ea 00 f0 54  	.word	0x54f000ea
    aa7c: 23 d8 93 3f  	.word	0x3f93d823
    aa80: 85 ce 04 9e  	.word	0x9e04ce85
    aa84: 68 e7 83 81  	.word	0x8183e768
    aa88: 41 53 46 04  	.word	0x04465341
    aa8c: 1e b7 8f 67  	.word	0x678fb71e
    aa90: ac ed 88 66  	.word	0x6688edac
    aa94: 8f 05 92 ad  	.word	0xad92058f
    aa98: 9a 09 2b 53  	.word	0x532b099a
    aa9c: d3 50 a3 5d  	.word	0x5da350d3
    aaa0: 78 49 e1 79  	.word	0x79e14978
    aaa4: d1 12 ac ea  	.word	0xeaac12d1
    aaa8: 5e ff eb bb  	.word	0xbbebff5e
    aaac: f3 3f 92 ff  	.word	0xff923ff3
    aab0: 27 ce 63 06  	.word	0x0663ce27
    aab4: e4 63 f6 4a  	.word	0x4af663e4
    aab8: ff f5 a5 11  	.word	0x11a5f5ff
    aabc: a8 81 d3 0f  	.word	0x0fd381a8
    aac0: 54 df 36 a4  	.word	0xa436df54
    aac4: ec ac 56 f2  	.word	0xf256acec
    aac8: e8 d6 69 ae  	.word	0xae69d6e8
    aacc: 68 61 8b 10  	.word	0x108b6168
    aad0: 6c 03 5d 6b  	.word	0x6b5d036c
    aad4: cb 86 d9 20  	.word	0x20d986cb
    aad8: 50 af e2 fe  	.word	0xfee2af50
    aadc: b9 57 59 65  	.word	0x655957b9
    aae0: 0f 03 02 a9  	.word	0xa902030f
    aae4: 7f b0 a8 ae  	.word	0xaea8b07f
    aae8: 43 d1 63 f4  	.word	0xf463d143
    aaec: 6a 76 8c f8  	.word	0xf88c766a
    aaf0: 60 7a 78 3c  	.word	0x3c787a60
    aaf4: 66 83 b0 15  	.word	0x15b08366
    aaf8: a8 a4 67 82  	.word	0x8267a4a8
    aafc: 14 b1 ea 08  	.word	0x08eab114
    ab00: ac d0 02 d0  	.word	0xd002d0ac
    ab04: 9b 40 c1 bd  	.word	0xbdc1409b
    ab08: a6 d9 cc b5  	.word	0xb5ccd9a6
    ab0c: 45 02 66 66  	.word	0x66660245
    ab10: ec 85 de fa  	.word	0xfade85ec
    ab14: c4 7d 31 82  	.word	0x82317dc4
    ab18: 0d df d7 6a  	.word	0x6ad7df0d
    ab1c: 4b 93 fe 02  	.word	0x02fe934b
    ab20: 74 ea b7 cf  	.word	0xcfb7ea74
    ab24: 00 f1 5c ef  	.word	0xef5cf100
    ab28: ac 42 cb a1  	.word	0xa1cb42ac
    ab2c: 33 76 89 22  	.word	0x22897633
    ab30: e2 85 f2 ce  	.word	0xcef285e2
    ab34: 54 0c ce d4  	.word	0xd4ce0c54
    ab38: 55 6a 14 8a  	.word	0x8a146a55
    ab3c: 04 8c 40 30  	.word	0x30408c04
    ab40: db ce 2f 83  	.word	0x832fcedb
    ab44: 45 88 9d 73  	.word	0x739d8845
    ab48: 63 f8 6b ae  	.word	0xae6bf863
    ab4c: c9 d6 38 fa  	.word	0xfa38d6c9
    ab50: f7 fe 4f b7  	.word	0xb74ffef7
    ab54: ca 0d bc 32  	.word	0x32bc0dca
    ab58: 5e e4 bc 14  	.word	0x14bce45e
    ab5c: 88 7e 93 73  	.word	0x73937e88
    ab60: 7f 87 3b 19  	.word	0x193b877f
    ab64: c9 00 2e bb  	.word	0xbb2e00c9
    ab68: 6b 50 dc e0  	.word	0xe0dc506b
    ab6c: 90 a8 e3 ec  	.word	0xece3a890
    ab70: 9f 64 de 36  	.word	0x36de649f
    ab74: c0 b7 f3 ec  	.word	0xecf3b7c0
    ab78: 1a 9e de 98  	.word	0x98de9e1a
    ab7c: 08 04 46 5f  	.word	0x5f460408
    ab80: 8d f4 7b 29  	.word	0x297bf48d
    ab84: 16 71 03 b9  	.word	0xb9037116
    ab88: 34 68 f0 d4  	.word	0xd4f06834
    ab8c: 22 3b d1 a9  	.word	0xa9d13b22
    ab90: c6 bd 96 46  	.word	0x4696bdc6
    ab94: 57 15 97 e1  	.word	0xe1971557
    ab98: 35 e8 d5 91  	.word	0x91d5e835
    ab9c: e8 a4 f8 2c  	.word	0x2cf8a4e8
    aba0: 67 0f 11 07  	.word	0x07110f67
    aba4: 87 fd 93 6d  	.word	0x6d93fd87
    aba8: 49 b5 38 7c  	.word	0x7c38b549
    abac: d3 09 4c dd  	.word	0xdd4c09d3
    abb0: 86 6a 73 c2  	.word	0xc2736a86
    abb4: 4c 6a b1 7c  	.word	0x7cb16a4c
    abb8: 09 2a 25 58  	.word	0x58252a09
    abbc: 6e bd 49 20  	.word	0x2049bd6e
    abc0: a2 6b d0 17  	.word	0x17d06ba2
    abc4: 7e 48 b5 2c  	.word	0x2cb5487e
    abc8: 6b 19 50 39  	.word	0x3950196b
    abcc: 1c 38 d2 24  	.word	0x24d2381c
    abd0: 30 8a 97 85  	.word	0x85978a30
    abd4: 81 9c 65 d7  	.word	0xd7659c81
    abd8: f6 a4 d6 91  	.word	0x91d6a4f6
    abdc: 28 7f 6f 7a  	.word	0x7a6f7f28
    abe0: 49 ef 9a 6a  	.word	0x6a9aef49
    abe4: 8d fd 09 7d  	.word	0x7d09fd8d
    abe8: 0b b9 3d 5b  	.word	0x5b3db90b
    abec: be 60 ee f0  	.word	0xf0ee60be
    abf0: d4 bf 9e 51  	.word	0x519ebfd4
    abf4: 2c b5 21 4c  	.word	0x4c21b52c
    abf8: 1d 94 45 c5  	.word	0xc545941d
    abfc: df aa 11 60  	.word	0x6011aadf
    ac00: 3c f8 95 cf  	.word	0xcf95f83c
    ac04: 6d 92 67 5f  	.word	0x5f67926d
    ac08: 71 90 28 71  	.word	0x71289071
    ac0c: 61 85 7e 7c  	.word	0x7c7e8561
    ac10: 5b 7a 8f 99  	.word	0x998f7a5b
    ac14: f3 e7 a1 d6  	.word	0xd6a1e7f3
    ac18: e0 f9 62 0b  	.word	0x0b62f9e0
    ac1c: 1b cc c5 6f  	.word	0x6fc5cc1b
    ac20: 90 f8 cb 02  	.word	0x02cbf890
    ac24: c8 d0 de 63  	.word	0x63ded0c8
    ac28: aa 6a ff 0d  	.word	0x0dff6aaa
    ac2c: ca 98 d0 fb  	.word	0xfbd098ca
    ac30: 99 ed b6 b9  	.word	0xb9b6ed99
    ac34: fd 0a 4d 62  	.word	0x624d0afd
    ac38: 1e 0b 34 79  	.word	0x79340b1e
    ac3c: b7 18 ce 69  	.word	0x69ce18b7
    ac40: cb 79 98 b2  	.word	0xb29879cb
    ac44: 28 55 ef d1  	.word	0xd1ef5528
    ac48: 92 90 7e d4  	.word	0xd47e9092
    ac4c: 3c ae 1a dd  	.word	0xdd1aae3c
    ac50: 52 23 9f 18  	.word	0x189f2352
    ac54: 42 04 7e 12  	.word	0x127e0442
    ac58: f1 01 71 e5  	.word	0xe57101f1
    ac5c: 3a 6b 59 15  	.word	0x15596b3a
    ac60: a2 79 91 3f  	.word	0x3f9179a2
    ac64: d2 39 27 46  	.word	0x462739d2
    ac68: cf dd d6 97  	.word	0x97d6ddcf
    ac6c: 31 12 83 ff  	.word	0xff831231
    ac70: 8a 14 f2 53  	.word	0x53f2148a
    ac74: b5 de 07 13  	.word	0x1307deb5
    ac78: da 4d 5f 7b  	.word	0x7b5f4dda
    ac7c: 68 37 22 0d  	.word	0x0d223768
    ac80: ca 24 51 7e  	.word	0x7e5124ca
    ac84: 16 31 ff 09  	.word	0x09ff3116
    ac88: df 45 c7 d9  	.word	0xd9c745df
    ac8c: 8b 15 e4 0b  	.word	0x0be4158b
    ac90: e5 56 f5 7e  	.word	0x7ef556e5
    ac94: 22 7d 2b 29  	.word	0x292b7d22
    ac98: 38 d1 b6 af  	.word	0xafb6d138
    ac9c: 41 e2 a4 3a  	.word	0x3aa4e241
    aca0: f5 05 33 2a  	.word	0x2a3305f5
    aca4: bf 38 c1 2c  	.word	0x2cc138bf
    aca8: c3 26 e9 a2  	.word	0xa2e926c3
    acac: 8f 3f 58 48  	.word	0x48583f8f
    acb0: eb d2 49 55  	.word	0x5549d2eb
    acb4: a2 b1 3a 08  	.word	0x083ab1a2
    acb8: 6c a3 87 46  	.word	0x4687a36c
    acbc: 6e aa fc 32  	.word	0x32fcaa6e
    acc0: f5 9a 7d c5  	.word	0xc57d9af5
    acc4: 8d 6e c5 7b  	.word	0x7bc56e8d
    acc8: f2 bd f0 9d  	.word	0x9df0bdf2
    accc: ed d2 0b 3e  	.word	0x3e0bd2ed
    acd0: a3 e4 ef 22  	.word	0x22efe4a3
    acd4: de 14 c0 aa  	.word	0xaac014de
    acd8: 5c 6a bd fe  	.word	0xfebd6a5c
    acdc: ce e9 27 46  	.word	0x4627e9ce
    ace0: df cc 87 27  	.word	0x2787ccdf
    ace4: 73 a4 07 32  	.word	0x3207a473
    ace8: f8 e3 13 f2  	.word	0xf213e3f8
    acec: 08 19 e3 17  	.word	0x17e31908
    acf0: 4e 96 0d f6  	.word	0xf60d964e
    acf4: d7 ec b2 d5  	.word	0xd5b2ecd7
    acf8: e9 0b 60 c2  	.word	0xc2600be9
    acfc: 36 63 6f 74  	.word	0x746f6336
    ad00: 1c 97 6c ab  	.word	0xab6c971c
    ad04: 45 f3 4a 3f  	.word	0x3f4af345
    ad08: 1f 73 43 99  	.word	0x9943731f
    ad0c: 72 eb 88 e2  	.word	0xe288eb72
    ad10: 6d 18 44 03  	.word	0x0344186d
    ad14: 8a 6a 59 33  	.word	0x33596a8a
    ad18: 93 62 d6 7e  	.word	0x7ed66293
    ad1c: 00 17 49 7b  	.word	0x7b491700
    ad20: 64 b0 84 ab  	.word	0xab84b064
    ad24: 5c fb 85 2d  	.word	0x2d85fb5c
    ad28: 14 bc f3 89  	.word	0x89f3bc14
    ad2c: d2 10 78 49  	.word	0x497810d2
    ad30: 0c ce 15 7b  	.word	0x7b15ce0c
    ad34: 44 dc 6a 47  	.word	0x476adc44
    ad38: 7b fd 44 f8  	.word	0xf844fd7b
    ad3c: 76 a3 2b 12  	.word	0x122ba376
    ad40: dd a2 53 dd  	.word	0xdd53a2dd
    ad44: 28 1b 34 54  	.word	0x54341b28
    ad48: 3f fc 42 df  	.word	0xdf42fc3f
    ad4c: 5b 90 17 aa  	.word	0xaa17905b
    ad50: f4 f8 d2 4d  	.word	0x4dd2f8f4
    ad54: d9 92 f5 0f  	.word	0x0ff592d9
    ad58: 7d d3 8c e0  	.word	0xe08cd37d
    ad5c: 0f 62 03 1d  	.word	0x1d03620f
    ad60: 54 e5 b4 a2  	.word	0xa2b4e554
    ad64: cd 32 02 c2  	.word	0xc20232cd
    ad68: 7f 18 5d 11  	.word	0x115d187f
    ad6c: 42 fd d0 9e  	.word	0x9ed0fd42
    ad70: d9 79 d4 7d  	.word	0x7dd479d9
    ad74: be b4 ab 2e  	.word	0x2eabb4be
    ad78: 4c ec 68 2b  	.word	0x2b68ec4c
    ad7c: f5 0b c7 02  	.word	0x02c70bf5
    ad80: bb 2f 0b 5d  	.word	0x5d0b2fbb
    ad84: 4b ec 87 a2  	.word	0xa287ec4b
    ad88: ca 82 48 07  	.word	0x074882ca
    ad8c: 90 57 5c 41  	.word	0x415c5790
    ad90: 5c 81 d0 c1  	.word	0xc1d0815c
    ad94: 1e a6 44 e0  	.word	0xe044a61e
    ad98: e0 f5 9e 40  	.word	0x409ef5e0
    ad9c: 0a 4f 33 26  	.word	0x26334f0a
    ada0: e1 72 8d 45  	.word	0x458d72e1
    ada4: bf 32 e5 ac  	.word	0xace532bf
    ada8: b5 3c b7 7c  	.word	0x7cb73cb5
    adac: e0 68 e7 5b  	.word	0x5be768e0
    adb0: e7 bd 8b ee  	.word	0xee8bbde7
    adb4: 94 7d cf 56  	.word	0x56cf7d94
    adb8: 03 3a b4 fe  	.word	0xfeb43a03
    adbc: e3 97 06 6b  	.word	0x6b0697e3
    adc0: c0 a3 62 df  	.word	0xdf62a3c0
    adc4: 4a f0 c8 b6  	.word	0xb6c8f04a
    adc8: 5d a4 6d 07  	.word	0x076da45d
    adcc: ef 00 f0 3e  	.word	0x3ef000ef
    add0: a9 d2 f0 49  	.word	0x49f0d2a9
    add4: 58 b9 9c 9c  	.word	0x9c9cb958
    add8: ae 2f 1b 44  	.word	0x441b2fae
    addc: 43 7f c3 1c  	.word	0x1cc37f43
    ade0: 4f 32 c7 5c  	.word	0x5cc7324f
    ade4: 5a 56 8f 50  	.word	0x508f565a
    ade8: 22 a9 06 e5  	.word	0xe506a922
    adec: c0 c4 61 d0  	.word	0xd061c4c0
    adf0: 19 ac 45 5c  	.word	0x5c45ac19
    adf4: db ab 18 fb  	.word	0xfb18abdb
    adf8: 4a 31 80 03  	.word	0x0380314a
    adfc: c1 09 68 6c  	.word	0x6c6809c1
    ae00: b9 ae ce c9  	.word	0xc9ceaeb9
    ae04: f1 56 66 d7  	.word	0xd76656f1
    ae08: 6a 65 e5 18  	.word	0x18e5656a
    ae0c: f8 15 5b 1c  	.word	0x1c5b15f8
    ae10: 34 23 4c 84  	.word	0x844c2334
    ae14: 32 28 e7 26  	.word	0x26e72832
    ae18: 38 68 19 2f  	.word	0x2f196838
    ae1c: 77 6f 34 3a  	.word	0x3a346f77
    ae20: c8 6a da e2  	.word	0xe2da6ac8
    ae24: 12 51 d5 d2  	.word	0xd2d55112
    ae28: ed 51 e8 b1  	.word	0xb1e851ed
    ae2c: 31 03 bd e9  	.word	0xe9bd0331
    ae30: 62 72 c6 8e  	.word	0x8ec67262
    ae34: dd 46 07 96  	.word	0x960746dd
    ae38: d0 c5 f7 6e  	.word	0x6ef7c5d0
    ae3c: 9f 1b 91 05  	.word	0x05911b9f
    ae40: 2d ff 37 b6  	.word	0xb637ff2d
    ae44: 56 d7 dc e9  	.word	0xe9dcd756
    ae48: c4 f0 87 c9  	.word	0xc987f0c4
    ae4c: 8f 34 4c ec  	.word	0xec4c348f
    ae50: b7 c7 fb f3  	.word	0xf3fbc7b7
    ae54: 85 92 d5 ce  	.word	0xced59285
    ae58: 87 ea e1 93  	.word	0x93e1ea87
    ae5c: 47 35 05 33  	.word	0x33053547
    ae60: 94 9f fe c5  	.word	0xc5fe9f94
    ae64: 80 89 c1 01  	.word	0x01c18980
    ae68: c8 d5 6f 71  	.word	0x716fd5c8
    ae6c: 69 67 65 cd  	.word	0xcd656769
    ae70: 86 a0 95 d1  	.word	0xd195a086
    ae74: c3 45 60 81  	.word	0x816045c3
    ae78: 82 79 cc 66  	.word	0x66cc7982
    ae7c: 32 7f 2b 6e  	.word	0x6e2b7f32
    ae80: 8f 56 c3 f7  	.word	0xf7c3568f
    ae84: 68 24 80 cc  	.word	0xcc802468
    ae88: b3 4c 97 19  	.word	0x19974cb3
    ae8c: 82 ba e9 9d  	.word	0x9de9ba82
    ae90: 60 13 b8 b5  	.word	0xb5b81360
    ae94: 9c 22 b7 ab  	.word	0xabb7229c
    ae98: 62 ba be 6f  	.word	0x6fbeba62
    ae9c: 7a 01 e2 44  	.word	0x44e2017a
    aea0: 74 b7 da 54  	.word	0x54dab774
    aea4: 43 a7 c2 c4  	.word	0xc4c2a743
    aea8: 1a 03 af 4e  	.word	0x4eaf031a
    aeac: 3c 4c 5d 8e  	.word	0x8e5d4c3c
    aeb0: 17 8f 83 42  	.word	0x42838f17
    aeb4: d2 23 6c b7  	.word	0xb76c23d2
    aeb8: ea e4 dc 68  	.word	0x68dce4ea
    aebc: 8f 09 9a 74  	.word	0x749a098f
    aec0: cd 6e ca b6  	.word	0xb6ca6ecd
    aec4: f3 2c f8 87  	.word	0x87f82cf3
    aec8: c2 a0 f4 18  	.word	0x18f4a0c2
    aecc: 3e 89 0f 58  	.word	0x580f893e
    aed0: 57 e5 04 26  	.word	0x2604e557
    aed4: 07 30 89 05  	.word	0x05893007
    aed8: 1d 9c d1 56  	.word	0x56d19c1d
    aedc: c2 6a ab 6c  	.word	0x6cab6ac2
    aee0: 60 de c1 2c  	.word	0x2cc1de60
    aee4: a0 e0 df dc  	.word	0xdcdfe0a0
    aee8: 5b 57 c5 51  	.word	0x51c5575b
    aeec: ff 65 26 03  	.word	0x032665ff
    aef0: eb be 3a 07  	.word	0x073abeeb
    aef4: f1 32 0c 2c  	.word	0x2c0c32f1
    aef8: 06 86 7b cd  	.word	0xcd7b8606
    aefc: 14 20 88 6a  	.word	0x6a882014
    af00: b5 7f 74 a4  	.word	0xa4747fb5
    af04: fe 92 2a a5  	.word	0xa52a92fe
    af08: 89 ab a5 1f  	.word	0x1fa5ab89
    af0c: 49 a4 12 dc  	.word	0xdc12a449
    af10: ce a4 47 b8  	.word	0xb847a4ce
    af14: 4b a9 2d d8  	.word	0xd82da94b
    af18: 4e cc 12 95  	.word	0x9512cc4e
    af1c: ce ed 77 4d  	.word	0x4d77edce
    af20: 6e eb 4f af  	.word	0xaf4feb6e
    af24: 7c d1 11 d1  	.word	0xd111d17c
    af28: a3 a4 3a b3  	.word	0xb33aa4a3
    af2c: 42 ba 0b 05  	.word	0x050bba42
    af30: 30 6c b4 ee  	.word	0xeeb46c30
    af34: 3c 4c 51 17  	.word	0x17514c3c
    af38: 75 7d c2 1b  	.word	0x1bc27d75
    af3c: 8b db be 54  	.word	0x54bedb8b
    af40: 9c 18 e2 77  	.word	0x77e2189c
    af44: 45 e1 c8 77  	.word	0x77c8e145
    af48: 45 c4 99 ff  	.word	0xff99c445
    af4c: 6a 6f e4 a3  	.word	0xa3e46f6a
    af50: 43 53 33 6d  	.word	0x6d335343
    af54: c8 df 44 31  	.word	0x3144dfc8
    af58: a9 16 42 7c  	.word	0x7c4216a9
    af5c: 9e 55 96 3a  	.word	0x3a96559e
    af60: ee d2 2a f4  	.word	0xf42ad2ee
    af64: 37 0d 55 12  	.word	0x12550d37
    af68: f5 fb a1 98  	.word	0x98a1fbf5
    af6c: 04 e0 78 8b  	.word	0x8b78e004
    af70: b2 4c 89 33  	.word	0x33894cb2
    af74: 82 07 53 5d  	.word	0x5d530782
    af78: 0c 8d 49 3e  	.word	0x3e498d0c
    af7c: 4e 4e c8 02  	.word	0x02c84e4e
    af80: 52 aa ba 80  	.word	0x80baaa52
    af84: 68 89 93 44  	.word	0x44938968
    af88: 0e 94 85 f2  	.word	0xf285940e
    af8c: c4 af 98 4c  	.word	0x4c98afc4
    af90: b6 48 54 a4  	.word	0xa45448b6
    af94: 9b a7 4a ef  	.word	0xef4aa79b
    af98: 7f ae 7a a5  	.word	0xa57aae7f
    af9c: 10 c5 78 52  	.word	0x5278c510
    afa0: 94 0b 4c 29  	.word	0x294c0b94
    afa4: 74 d0 4d a5  	.word	0xa54dd074
    afa8: b6 ff 18 df  	.word	0xdf18ffb6
    afac: b8 46 5d f5  	.word	0xf55d46b8
    afb0: 66 83 ae 8d  	.word	0x8dae8366
    afb4: c5 ec 6f f0  	.word	0xf06fecc5
    afb8: 65 d1 90 81  	.word	0x8190d165
    afbc: 66 57 86 58  	.word	0x58865766
    afc0: 17 71 ef 1a  	.word	0x1aef7117
    afc4: 31 12 77 d4  	.word	0xd4771231
    afc8: c7 92 9e 22  	.word	0x229e92c7
    afcc: 01 31 34 50  	.word	0x50343101
    afd0: 97 9b 15 9d  	.word	0x9d159b97
    afd4: 84 e1 95 7a  	.word	0x7a95e184
    afd8: c9 29 5d 8b  	.word	0x8b5d29c9
    afdc: 9b 95 49 24  	.word	0x2449959b
    afe0: c3 5c e2 3d  	.word	0x3de25cc3
    afe4: f0 34 58 bf  	.word	0xbf5834f0
    afe8: 96 54 81 d6  	.word	0xd6815496
    afec: ae c8 87 b8  	.word	0xb887c8ae
    aff0: 92 e8 81 94  	.word	0x9481e892
    aff4: 1a 22 05 51  	.word	0x5105221a
    aff8: 93 3f 72 f7  	.word	0xf7723f93
    affc: 19 ed 60 67  	.word	0x6760ed19
    b000: 60 e1 35 ac  	.word	0xac35e160
    b004: b7 a3 9b 66  	.word	0x669ba3b7
    b008: 56 20 84 ba  	.word	0xba842056
    b00c: 3f f7 cc 2e  	.word	0x2eccf73f
    b010: 07 4f 80 c0  	.word	0xc0804f07
    b014: 17 1f ec 1a  	.word	0x1aec1f17
    b018: e7 f4 56 18  	.word	0x1856f4e7
    b01c: 03 bc 96 0d  	.word	0x0d96bc03
    b020: 82 2d c5 75  	.word	0x75c52d82
    b024: 77 be 18 33  	.word	0x3318be77
    b028: b9 aa d0 54  	.word	0x54d0aab9
    b02c: b5 64 b7 4c  	.word	0x4cb764b5
    b030: 91 3d 77 cc  	.word	0xcc773d91
    b034: 27 3d cf ab  	.word	0xabcf3d27
    b038: 8a 28 23 81  	.word	0x8123288a
    b03c: 84 d1 f4 3b  	.word	0x3bf4d184
    b040: e1 05 75 cc  	.word	0xcc7505e1
    b044: b0 34 d5 b1  	.word	0xb1d534b0
    b048: 88 52 c3 16  	.word	0x16c35288
    b04c: 34 00 cd 32  	.word	0x32cd0034
    b050: 9d c2 62 07  	.word	0x0762c29d
    b054: 80 a5 36 cb  	.word	0xcb36a580
    b058: f8 0b 7a 23  	.word	0x237a0bf8
    b05c: b9 69 fe 5b  	.word	0x5bfe69b9
    b060: ab 51 a1 78  	.word	0x78a151ab
    b064: 7e ab 3e 18  	.word	0x183eab7e
    b068: 63 37 09 99  	.word	0x99093763
    b06c: c9 90 e9 bb  	.word	0xbbe990c9
    b070: 35 e3 c7 4a  	.word	0x4ac7e335
    b074: 6e 7d 71 ff  	.word	0xff717d6e
    b078: 88 9f f3 25  	.word	0x25f39f88
    b07c: b3 dd 5c 4c  	.word	0x4c5cddb3
    b080: eb a6 90 61  	.word	0x6190a6eb
    b084: 4d b7 f6 c0  	.word	0xc0f6b74d
    b088: e4 f4 b8 2d  	.word	0x2db8f4e4
    b08c: a4 81 ea 20  	.word	0x20ea81a4
    b090: 60 57 31 97  	.word	0x97315760
    b094: 7d 6f bd a8  	.word	0xa8bd6f7d
    b098: 21 7c ac 62  	.word	0x62ac7c21
    b09c: 02 d6 b1 33  	.word	0x33b1d602
    b0a0: 02 f9 a9 e7  	.word	0xe7a9f902
    b0a4: 67 09 75 57  	.word	0x57750967
    b0a8: 7e 46 5b 4f  	.word	0x4f5b467e
    b0ac: fc fd 37 2c  	.word	0x2c37fdfc
    b0b0: 46 ba 77 31  	.word	0x3177ba46
    b0b4: 3a 66 61 b2  	.word	0xb261663a
    b0b8: 2b 53 2d dc  	.word	0xdc2d532b
    b0bc: 78 5e 37 3a  	.word	0x3a375e78
    b0c0: ea dd 4d 2d  	.word	0x2d4dddea
    b0c4: 2f e7 41 81  	.word	0x8141e72f
    b0c8: c8 07 c6 62  	.word	0x62c607c8
    b0cc: 98 fe ea e6  	.word	0xe6eafe98
    b0d0: d0 af 3c 57  	.word	0x573cafd0
    b0d4: 58 84 c2 23  	.word	0x23c28458
    b0d8: 46 73 f9 4f  	.word	0x4ff97346
    b0dc: 6f 47 b9 46  	.word	0x46b9476f
    b0e0: 5c 1e 90 4f  	.word	0x4f901e5c
    b0e4: a4 fe 1f 0c  	.word	0x0c1ffea4
    b0e8: 82 b7 84 21  	.word	0x2184b782
    b0ec: b7 6f 0b 2b  	.word	0x2b0b6fb7
    b0f0: 88 db 14 01  	.word	0x0114db88
    b0f4: 91 ff 87 e5  	.word	0xe587ff91
    b0f8: 42 a1 85 47  	.word	0x4785a142
    b0fc: 36 0f 13 37  	.word	0x37130f36
    b100: 9f 35 58 0d  	.word	0x0d58359f
    b104: 5c 50 15 12  	.word	0x1215505c
    b108: 6b c4 28 fc  	.word	0xfc28c46b
    b10c: c7 13 20 2a  	.word	0x2a2013c7
    b110: 4e 66 ea 89  	.word	0x89ea664e
    b114: af a1 a0 24  	.word	0x24a0a1af
    b118: 1f 0e 13 a1  	.word	0xa1130e1f
    b11c: 38 b6 00 44  	.word	0x4400b638
    b120: c3 19 ed 96  	.word	0x96ed19c3
    b124: 64 b7 01 3a  	.word	0x3a01b764
    b128: 30 72 32 ed  	.word	0xed327230
    b12c: b0 0a e0 31  	.word	0x31e00ab0
    b130: b1 15 ca 83  	.word	0x83ca15b1
    b134: 57 88 0a 52  	.word	0x520a8857
    b138: c7 be cc 5a  	.word	0x5accbec7
    b13c: 87 b9 aa 06  	.word	0x06aab987
    b140: bb 0e df f5  	.word	0xf5df0ebb
    b144: 83 99 33 c1  	.word	0xc1339983
    b148: ac 4c 2c 51  	.word	0x512c4cac
    b14c: 8f 75 f3 c0  	.word	0xc0f3758f
    b150: e1 98 b3 0b  	.word	0x0bb398e1
    b154: 0a 13 f1 2c  	.word	0x2cf1130a
    b158: 62 0c 27 aa  	.word	0xaa270c62
    b15c: f9 ec 3c 6b  	.word	0x6b3cecf9
    b160: ef ea 2e 51  	.word	0x512eeaef
    b164: f3 ac 49 53  	.word	0x5349acf3
    b168: 49 cb c1 1c  	.word	0x1cc1cb49
    b16c: d3 41 c1 20  	.word	0x20c141d3
    b170: 8d 68 9a a9  	.word	0xa99a688d
    b174: 07 0c 18 24  	.word	0x24180c07
    b178: 17 2d 4b c6  	.word	0xc64b2d17
    b17c: d1 f9 5e 55  	.word	0x555ef9d1
    b180: 08 bd 73 3b  	.word	0x3b73bd08
    b184: ba 70 a7 36  	.word	0x36a770ba
    b188: 0c bf af a3  	.word	0xa3afbf0c
    b18c: 08 ef 4a 62  	.word	0x624aef08
    b190: f2 46 09 b4  	.word	0xb40946f2
    b194: 98 ff 37 57  	.word	0x5737ff98
    b198: 9d 74 81 33  	.word	0x3381749d
    b19c: e1 4d 5f 67  	.word	0x675f4de1
    b1a0: fc 82 17 6b  	.word	0x6b1782fc
    b1a4: 03 52 2c 0e  	.word	0x0e2c5203
    b1a8: b4 83 ad 6c  	.word	0x6cad83b4
    b1ac: 81 6c 81 64  	.word	0x64816c81
    b1b0: 3e 07 64 69  	.word	0x6964073e
    b1b4: d9 bd dc d0  	.word	0xd0dcbdd9
    b1b8: 20 c5 64 01  	.word	0x0164c520
    b1bc: f7 9d d9 13  	.word	0x13d99df7
    b1c0: 1d b3 da 3b  	.word	0x3bdab31d
    b1c4: d9 f6 2f a1  	.word	0xa12ff6d9
    b1c8: fe 2d 65 9d  	.word	0x9d652dfe
    b1cc: 0f d8 25 07  	.word	0x0725d80f
    b1d0: 87 94 be 9a  	.word	0x9abe9487
    b1d4: f3 4f 9c 01  	.word	0x019c4ff3
    b1d8: 43 3c cd 82  	.word	0x82cd3c43
    b1dc: b8 50 f4 60  	.word	0x60f450b8
    b1e0: ca c0 e5 21  	.word	0x21e5c0ca
    b1e4: c3 5e 4b 01  	.word	0x014b5ec3
    b1e8: a2 bf 19 d7  	.word	0xd719bfa2
    b1ec: c9 69 cb 4f  	.word	0x4fcb69c9
    b1f0: a0 23 00 75  	.word	0x750023a0
    b1f4: 18 1c 5f 4e  	.word	0x4e5f1c18
    b1f8: 80 ac ed 55  	.word	0x55edac80
    b1fc: 9e de 06 1c  	.word	0x1c06de9e
    b200: e2 c4 3e a3  	.word	0xa33ec4e2
    b204: d6 7a 0f 99  	.word	0x990f7ad6
    b208: 8e e0 2e be  	.word	0xbe2ee08e
    b20c: 38 f9 08 66  	.word	0x6608f938
    b210: 15 45 28 63  	.word	0x63284515
    b214: c5 43 a1 9c  	.word	0x9ca143c5
    b218: 0d b6 2d ec  	.word	0xec2db60d
    b21c: 1f 8a f3 4c  	.word	0x4cf38a1f
    b220: aa 69 6d ff  	.word	0xff6d69aa
    b224: 40 2b d5 ff  	.word	0xffd52b40
    b228: bb 49 40 dc  	.word	0xdc4049bb
    b22c: 18 0b 53 34  	.word	0x34530b18
    b230: 97 98 4d a3  	.word	0xa34d9897
    b234: 2f 5c 4a 5e  	.word	0x5e4a5c2f
    b238: 2d ba 32 7d  	.word	0x7d32ba2d
    b23c: 8e 6f 09 78  	.word	0x78096f8e
    b240: e7 5c fa 0d  	.word	0x0dfa5ce7
    b244: 65 aa aa a0  	.word	0xa0aaaa65
    b248: 8c 47 b5 48  	.word	0x48b5478c
    b24c: 2a 9e c4 f9  	.word	0xf9c49e2a
    b250: 5b 72 03 70  	.word	0x7003725b
    b254: 7d cc 09 4f  	.word	0x4f09cc7d
    b258: be 1a 09 26  	.word	0x26091abe
    b25c: 3a ad 3c 37  	.word	0x373cad3a
    b260: 7c f5 c9 82  	.word	0x82c9f57c
    b264: 4d 63 94 b2  	.word	0xb294634d
    b268: 36 45 93 24  	.word	0x24934536
    b26c: e1 fd cb 1f  	.word	0x1fcbfde1
    b270: 5a db 8c 41  	.word	0x418cdb5a
    b274: b3 4d 9c 9e  	.word	0x9e9c4db3
    b278: fc 19 44 45  	.word	0x454419fc
    b27c: d9 f3 40 00  	.word	0x0040f3d9
    b280: ad bb dd 89  	.word	0x89ddbbad
    b284: fb a8 be f1  	.word	0xf1bea8fb
    b288: cb ae ae 61  	.word	0x61aeaecb
    b28c: bc 2c cb 3b  	.word	0x3bcb2cbc
    b290: 9d 8d 9b 1f  	.word	0x1f9b8d9d
    b294: bb a7 58 8f  	.word	0x8f58a7bb
    b298: 86 a6 12 51  	.word	0x5112a686
    b29c: da 7e 54 21  	.word	0x21547eda
    b2a0: d3 86 59 fd  	.word	0xfd5986d3
    b2a4: 39 e9 fd de  	.word	0xdefde939
    b2a8: 0c 38 0a 51  	.word	0x510a380c
    b2ac: 89 2c 27 f4  	.word	0xf4272c89
    b2b0: b9 19 31 bb  	.word	0xbb3119b9
    b2b4: 07 a4 2b b7  	.word	0xb72ba407
    b2b8: f4 4d 25 4a  	.word	0x4a254df4
    b2bc: 33 0a 55 63  	.word	0x63550a33
    b2c0: 37 cf 69 b5  	.word	0xb569cf37
    b2c4: ed d6 07 65  	.word	0x6507d6ed
    b2c8: e1 2e a5 0c  	.word	0x0ca52ee1
    b2cc: b0 29 84 17  	.word	0x178429b0
    b2d0: 5d d6 6b eb  	.word	0xeb6bd65d
    b2d4: 90 00 7c ea  	.word	0xea7c0090
    b2d8: 51 8f f7 da  	.word	0xdaf78f51
    b2dc: c7 62 ea 3e  	.word	0x3eea62c7
    b2e0: 49 7b 54 72  	.word	0x72547b49
    b2e4: 45 58 ba 9b  	.word	0x9bba5845
    b2e8: e0 08 c4 e2  	.word	0xe2c408e0
    b2ec: fa c6 05 f3  	.word	0xf305c6fa
    b2f0: 8d f1 34 c7  	.word	0xc734f18d
    b2f4: 69 fa e8 60  	.word	0x60e8fa69
    b2f8: 7a 76 7d aa  	.word	0xaa7d767a
    b2fc: af 2b a9 39  	.word	0x39a92baf
    b300: 4e 27 93 e6  	.word	0xe693274e
    b304: 13 c7 24 9d  	.word	0x9d24c713
    b308: 75 d3 db 68  	.word	0x68dbd375
    b30c: 77 85 63 5f  	.word	0x5f638577
    b310: 9a b3 8a eb  	.word	0xeb8ab39a
    b314: 60 55 52 70  	.word	0x70525560
    b318: cd c4 c9 65  	.word	0x65c9c4cd
    b31c: 06 6a 43 68  	.word	0x68436a06
    b320: 27 3f 2f 20  	.word	0x202f3f27
    b324: e8 35 02 bc  	.word	0xbc0235e8
    b328: b0 75 f9 64  	.word	0x64f975b0
    b32c: e2 00 5c c7  	.word	0xc75c00e2
    b330: 16 24 8c a3  	.word	0xa38c2416
    b334: d5 e9 a4 91  	.word	0x91a4e9d5
    b338: f9 89 b7 8a  	.word	0x8ab789f9
    b33c: f6 e7 b6 17  	.word	0x17b6e7f6
    b340: 7c 10 20 e8  	.word	0xe820107c
    b344: 17 d3 56 1e  	.word	0x1e56d317
    b348: 65 e9 0a 84  	.word	0x840ae965
    b34c: 44 68 26 c5  	.word	0xc5266844
    b350: 7a fc 0f 32  	.word	0x320ffc7a
    b354: c6 a1 e0 c1  	.word	0xc1e0a1c6
    b358: 72 14 61 91  	.word	0x91611472
    b35c: 9c 66 73 53  	.word	0x5373669c
    b360: 57 52 0e 9a  	.word	0x9a0e5257
    b364: ab 14 28 5d  	.word	0x5d2814ab
    b368: fc b3 ca c9  	.word	0xc9cab3fc
    b36c: 84 20 8f 90  	.word	0x908f2084
    b370: ca 1e 2d 5b  	.word	0x5b2d1eca
    b374: 88 f5 ca af  	.word	0xafcaf588
    b378: 11 7d f8 78  	.word	0x78f87d11
    b37c: a6 b5 b4 1c  	.word	0x1cb4b5a6
    b380: 6c fc 4a 39  	.word	0x394afc6c
    b384: 6b c0 64 b6  	.word	0xb664c06b
    b388: b1 5f da 98  	.word	0x98da5fb1
    b38c: 24 de 88 0c  	.word	0x0c88de24
    b390: 34 d8 ca 4b  	.word	0x4bcad834
    b394: 16 03 8d 4f  	.word	0x4f8d0316
    b398: a2 34 74 de  	.word	0xde7434a2
    b39c: 78 ca 0b 33  	.word	0x330bca78
    b3a0: e7 07 a0 a2  	.word	0xa2a007e7
    b3a4: 62 aa 74 6b  	.word	0x6b74aa62
    b3a8: b1 c7 71 f0  	.word	0xf071c7b1
    b3ac: b0 e0 11 f3  	.word	0xf311e0b0
    b3b0: 23 e2 0b 00  	.word	0x000be223
    b3b4: 38 e4 07 57  	.word	0x5707e438
    b3b8: ac 6e ef 82  	.word	0x82ef6eac
    b3bc: 2d fd c0 2d  	.word	0x2dc0fd2d
    b3c0: 4e 74 19 11  	.word	0x1119744e
    b3c4: 84 ff 2e 98  	.word	0x982eff84
    b3c8: 24 47 07 2b  	.word	0x2b074724
    b3cc: 96 5e 69 f9  	.word	0xf9695e96
    b3d0: fb 53 c9 bf  	.word	0xbfc953fb
    b3d4: 4f c1 8a c5  	.word	0xc58ac14f
    b3d8: f5 1c 9f 36  	.word	0x369f1cf5
    b3dc: 1b be 31 3c  	.word	0x3c31be1b
    b3e0: ee 8a 94 08  	.word	0x08948aee
    b3e4: 4d 86 f4 b0  	.word	0xb0f4864d
    b3e8: 6f 1c ba 91  	.word	0x91ba1c6f
    b3ec: ee 19 dc 07  	.word	0x07dc19ee
    b3f0: 58 a1 ac a6  	.word	0xa6aca158
    b3f4: ae cd 75 79  	.word	0x7975cdae
    b3f8: bb d4 62 42  	.word	0x4262d4bb
    b3fc: 13 61 0b 33  	.word	0x330b6113
    b400: 72 42 cb f9  	.word	0xf9cb4272
    b404: 93 bc 68 c1  	.word	0xc168bc93
    b408: 98 db ce c7  	.word	0xc7cedb98
    b40c: 1f 71 b8 ae  	.word	0xaeb8711f
    b410: 7a 8d ac 34  	.word	0x34ac8d7a
    b414: aa 52 0e 7f  	.word	0x7f0e52aa
    b418: bb 55 7d 7e  	.word	0x7e7d55bb
    b41c: 09 c1 ce 41  	.word	0x41cec109
    b420: 8a 80 6d a2  	.word	0xa26d808a
    b424: d7 19 96 f7  	.word	0xf79619d7
    b428: 6d 15 9e 1d  	.word	0x1d9e156d
    b42c: 9e d4 1f bb  	.word	0xbb1fd49e
    b430: 27 df a1 db  	.word	0xdba1df27
    b434: 6c c3 d7 73  	.word	0x73d7c36c
    b438: 7d 77 28 1f  	.word	0x1f28777d
    b43c: d9 4c b4 26  	.word	0x26b44cd9
    b440: d8 a6 3a 39  	.word	0x393aa6d8
    b444: 35 90 0a 30  	.word	0x300a9035
    b448: cd b1 2b a1  	.word	0xa12bb1cd
    b44c: 31 11 50 2b  	.word	0x2b501131
    b450: 22 c2 93 f0  	.word	0xf093c222
    b454: 77 f6 1f 7b  	.word	0x7b1ff677
    b458: ad 2b b8 ca  	.word	0xcab82bad
    b45c: f8 c1 09 43  	.word	0x4309c1f8
    b460: 37 5f 28 b0  	.word	0xb0285f37
    b464: 2d 84 44 af  	.word	0xaf44842d
    b468: df c8 ef 47  	.word	0x47efc8df
    b46c: 90 18 53 87  	.word	0x87531890
    b470: 9a 97 20 f8  	.word	0xf820979a
    b474: 91 e0 74 95  	.word	0x9574e091
    b478: 79 55 61 69  	.word	0x69615579
    b47c: 60 8d 37 0e  	.word	0x0e378d60
    b480: 55 5a 07 83  	.word	0x83075a55
    b484: 71 91 fa d9  	.word	0xd9fa9171
    b488: dc 9f 00 6b  	.word	0x6b009fdc
    b48c: d2 5a db 4b  	.word	0x4bdb5ad2
    b490: 0e ef 3d d6  	.word	0xd63def0e
    b494: 2c ad 29 78  	.word	0x7829ad2c
    b498: 77 38 fd 75  	.word	0x75fd3877
    b49c: 49 c5 8f 07  	.word	0x078fc549
    b4a0: 2d 8f 87 28  	.word	0x28878f2d
    b4a4: 14 bd df 87  	.word	0x87dfbd14
    b4a8: a1 21 94 1e  	.word	0x1e9421a1
    b4ac: dd 36 46 13  	.word	0x134636dd
    b4b0: a3 41 73 25  	.word	0x257341a3
    b4b4: 51 c9 17 4f  	.word	0x4f17c951
    b4b8: b8 6c 29 ad  	.word	0xad296cb8
    b4bc: 4b 8d f9 5d  	.word	0x5df98d4b
    b4c0: 8a a9 33 b8  	.word	0xb833a98a
    b4c4: 5b 4b 00 e2  	.word	0xe2004b5b
    b4c8: 30 33 4c 2d  	.word	0x2d4c3330
    b4cc: ec 5d 77 44  	.word	0x44775dec
    b4d0: 13 e9 ac 7e  	.word	0x7eace913
    b4d4: 06 44 a2 3a  	.word	0x3aa24406
    b4d8: a9 00 8e d5  	.word	0xd58e00a9
    b4dc: e3 30 26 27  	.word	0x272630e3
    b4e0: 54 0b c9 ec  	.word	0xecc90b54
    b4e4: d0 8f 67 f3  	.word	0xf3678fd0
    b4e8: 99 35 04 12  	.word	0x12043599
    b4ec: 9b 45 01 f0  	.word	0xf001459b
    b4f0: 9b b8 58 37  	.word	0x3758b89b
    b4f4: bc 5f 72 26  	.word	0x26725fbc
    b4f8: ae 19 a7 73  	.word	0x73a719ae
    b4fc: aa e4 25 43  	.word	0x4325e4aa
    b500: 93 34 3c 43  	.word	0x433c3493
    b504: ef c6 7d 65  	.word	0x657dc6ef
    b508: c3 f8 db 80  	.word	0x80dbf8c3
    b50c: 9f 5e 37 65  	.word	0x65375e9f
    b510: ae 2d 37 5b  	.word	0x5b372dae
    b514: 46 2d fd 47  	.word	0x47fd2d46
    b518: 47 79 6e 79  	.word	0x796e7947
    b51c: 79 ab 66 49  	.word	0x4966ab79
    b520: 9d f5 69 cf  	.word	0xcf69f59d
    b524: 9a 62 24 ed  	.word	0xed24629a
    b528: f4 bb 5a dd  	.word	0xdd5abbf4
    b52c: ce 1c 4a 2a  	.word	0x2a4a1cce
    b530: 7b d6 b2 56  	.word	0x56b2d67b
    b534: 1f ca 35 35  	.word	0x3535ca1f
    b538: 2d b4 b1 43  	.word	0x43b1b42d
    b53c: d0 68 8c 5d  	.word	0x5d8c68d0
    b540: 0a 2b b4 e3  	.word	0xe3b42b0a
    b544: 4d 2d 33 ee  	.word	0xee332d4d
    b548: 1c 60 a4 16  	.word	0x16a4601c
    b54c: 2b 5a 4e d8  	.word	0xd84e5a2b
    b550: e4 a3 8b 07  	.word	0x078ba3e4
    b554: 77 38 24 78  	.word	0x78243877
    b558: 37 e4 4e 18  	.word	0x184ee437
    b55c: b4 1e ed 77  	.word	0x77ed1eb4
    b560: a0 39 18 20  	.word	0x201839a0
    b564: 3f e1 d4 bf  	.word	0xbfd4e13f
    b568: 61 f1 3d 3e  	.word	0x3e3df161
    b56c: e2 ff ef ae  	.word	0xaeefffe2
    b570: e3 1f 5d 6b  	.word	0x6b5d1fe3
    b574: f0 04 5b b6  	.word	0xb65b04f0
    b578: c0 fb 62 2b  	.word	0x2b62fbc0
    b57c: fb 85 e0 52  	.word	0x52e085fb
    b580: 1a ed 92 9e  	.word	0x9e92ed1a
    b584: f8 43 5d 18  	.word	0x185d43f8
    b588: c6 19 47 fe  	.word	0xfe4719c6
    b58c: ea 1e 4a b0  	.word	0xb04a1eea
    b590: 4f 3f f0 a6  	.word	0xa6f03f4f
    b594: 88 be 9f 49  	.word	0x499fbe88
    b598: dd 9b 85 3c  	.word	0x3c859bdd
    b59c: 2f 0d 8b 5d  	.word	0x5d8b0d2f
    b5a0: ba f2 4c a5  	.word	0xa54cf2ba
    b5a4: ea 79 40 12  	.word	0x124079ea
    b5a8: e7 26 1b 00  	.word	0x001b26e7
    b5ac: eb 65 24 d7  	.word	0xd72465eb
    b5b0: fd f7 7a c9  	.word	0xc97af7fd
    b5b4: fd bc 43 68  	.word	0x6843bcfd
    b5b8: 02 cd ea 55  	.word	0x55eacd02
    b5bc: 2b b4 24 05  	.word	0x0524b42b
    b5c0: b0 47 54 e4  	.word	0xe45447b0
    b5c4: be 5d 0d fd  	.word	0xfd0d5dbe
    b5c8: ee 05 20 09  	.word	0x092005ee
    b5cc: 1a 35 ec 6c  	.word	0x6cec351a
    b5d0: cb 79 75 56  	.word	0x567579cb
    b5d4: 44 78 a4 99  	.word	0x99a47844
    b5d8: 45 fa e7 16  	.word	0x16e7fa45
    b5dc: a2 42 d2 59  	.word	0x59d242a2
    b5e0: ac 9e 82 9b  	.word	0x9b829eac
    b5e4: ad dc 18 bc  	.word	0xbc18dcad
    b5e8: d0 79 f5 b5  	.word	0xb5f579d0
    b5ec: 28 7d ae 23  	.word	0x23ae7d28
    b5f0: 33 42 38 69  	.word	0x69384233
    b5f4: 2a 12 46 c3  	.word	0xc346122a
    b5f8: 89 ac d4 e7  	.word	0xe7d4ac89
    b5fc: b2 10 61 1a  	.word	0x1a6110b2
    b600: ac 97 69 e6  	.word	0xe66997ac
    b604: 6a 3f 83 4f  	.word	0x4f833f6a
    b608: a4 39 18 36  	.word	0x361839a4
    b60c: 2a 76 49 68  	.word	0x6849762a
    b610: 25 b5 0a 97  	.word	0x970ab525
    b614: c1 de 85 69  	.word	0x6985dec1
    b618: 46 f5 b1 dc  	.word	0xdcb1f546
    b61c: 89 5e 04 53  	.word	0x53045e89
    b620: db 53 53 d7  	.word	0xd75353db
    b624: 46 b3 8b cb  	.word	0xcb8bb346
    b628: 22 1e 51 ae  	.word	0xae511e22
    b62c: 4b b2 fc fc  	.word	0xfcfcb24b
    b630: ef e6 0a d5  	.word	0xd50ae6ef
    b634: 40 8d a4 cb  	.word	0xcba48d40
    b638: 5d cb f7 f4  	.word	0xf4f7cb5d
    b63c: e5 ba e3 26  	.word	0x26e3bae5
    b640: 12 fe 45 8d  	.word	0x8d45fe12
    b644: de 3c da 84  	.word	0x84da3cde
    b648: d2 e2 44 e4  	.word	0xe444e2d2
    b64c: 18 c2 42 bd  	.word	0xbd42c218
    b650: 98 35 7e 1f  	.word	0x1f7e3598
    b654: 78 96 51 a8  	.word	0xa8519678
    b658: b2 e2 16 56  	.word	0x5616e2b2
    b65c: 3f c9 42 76  	.word	0x7642c93f
    b660: e4 f8 95 45  	.word	0x4595f8e4
    b664: a7 da 23 23  	.word	0x2323daa7
    b668: b4 be 7a 85  	.word	0x857abeb4
    b66c: 8b 8c 68 de  	.word	0xde688c8b
    b670: 6e 32 59 1c  	.word	0x1c59326e
    b674: 96 8e c4 3f  	.word	0x3fc48e96
    b678: ba b8 c9 15  	.word	0x15c9b8ba
    b67c: ca 73 2e 0b  	.word	0x0b2e73ca
    b680: 26 50 7f c1  	.word	0xc17f5026
    b684: 28 44 bb d6  	.word	0xd6bb4428
    b688: a7 9c 5a fb  	.word	0xfb5a9ca7
    b68c: 23 72 b2 9e  	.word	0x9eb27223
    b690: 44 c6 19 19  	.word	0x1919c644
    b694: 03 a5 7b e3  	.word	0xe37ba503
    b698: 02 66 9a b5  	.word	0xb59a6602
    b69c: 0d 38 ce 21  	.word	0x21ce380d
    b6a0: 55 3a c0 79  	.word	0x79c03a55
    b6a4: af bf 3f 0e  	.word	0x0e3fbfaf
    b6a8: cf 5a bb 4c  	.word	0x4cbb5acf
    b6ac: 05 af 77 30  	.word	0x3077af05
    b6b0: 9f e3 3d db  	.word	0xdb3de39f
    b6b4: 45 52 c5 d5  	.word	0xd5c55245
    b6b8: f7 4a 6a 47  	.word	0x476a4af7
    b6bc: c1 68 5e 01  	.word	0x015e68c1
    b6c0: 38 6a 06 20  	.word	0x20066a38
    b6c4: 52 28 d5 c1  	.word	0xc1d52852
    b6c8: f3 ae 70 35  	.word	0x3570aef3
    b6cc: 52 3e 60 95  	.word	0x95603e52
    b6d0: 4d 8a 6b 22  	.word	0x226b8a4d
    b6d4: a7 59 26 83  	.word	0x832659a7
    b6d8: c9 ed 8e 1f  	.word	0x1f8eedc9
    b6dc: 09 89 d6 5d  	.word	0x5dd68909
    b6e0: 56 c8 d3 bf  	.word	0xbfd3c856
    b6e4: de 84 ac cb  	.word	0xcbac84de
    b6e8: 44 f2 5f b3  	.word	0xb35ff244
    b6ec: 48 c3 24 16  	.word	0x1624c348
    b6f0: 07 ad 9c 5d  	.word	0x5d9cad07
    b6f4: ca 8d f8 b7  	.word	0xb7f88dca
    b6f8: e8 eb c2 a2  	.word	0xa2c2ebe8
    b6fc: 4d 57 0e 3b  	.word	0x3b0e574d
    b700: 84 30 31 a5  	.word	0xa5313084
    b704: 91 25 02 1d  	.word	0x1d022591
    b708: 72 08 27 d6  	.word	0xd6270872
    b70c: ae 4a 2d ca  	.word	0xca2d4aae
    b710: 20 fd 0b 2f  	.word	0x2f0bfd20
    b714: 85 2b a1 86  	.word	0x86a12b85
    b718: 48 a7 7d ad  	.word	0xad7da748
    b71c: 39 c4 e6 56  	.word	0x56e6c439
    b720: e6 ba bd 42  	.word	0x42bdbae6
    b724: 49 ff 04 c7  	.word	0xc704ff49
    b728: 79 1f de b2  	.word	0xb2de1f79
    b72c: e2 ad 21 5e  	.word	0x5e21ade2
    b730: d8 fa 52 56  	.word	0x5652fad8
    b734: f3 b3 5d e9  	.word	0xe95db3f3
    b738: c1 eb 08 8f  	.word	0x8f08ebc1
    b73c: 37 b5 22 08  	.word	0x0822b537
    b740: 75 74 38 8f  	.word	0x8f387475
    b744: 47 48 f0 51  	.word	0x51f04847
    b748: 3c cb be 9c  	.word	0x9cbecb3c
    b74c: f4 bc 5d b2  	.word	0xb25dbcf4
    b750: 55 20 9f d9  	.word	0xd99f2055
    b754: 44 12 ab 9a  	.word	0x9aab1244
    b758: d6 a5 10 1c  	.word	0x1c10a5d6
    b75c: 6c 9e 70 2c  	.word	0x2c709e6c
    b760: 83 03 73 62  	.word	0x62730383
    b764: 93 f2 b7 e1  	.word	0xe1b7f293
    b768: 2c 8a ca eb  	.word	0xebca8a2c
    b76c: ff 79 52 4b  	.word	0x4b5279ff
    b770: 14 13 d4 bf  	.word	0xbfd41314
    b774: 8a 77 fc da  	.word	0xdafc778a
    b778: 0f 61 72 9c  	.word	0x9c72610f
    b77c: 14 10 eb 7d  	.word	0x7deb1014
    b780: 7a ee 66 87  	.word	0x8766ee7a
    b784: 6a af 62 cb  	.word	0xcb62af6a
    b788: 0e cd 53 55  	.word	0x5553cd0e
    b78c: 04 ec cb 66  	.word	0x66cbec04
    b790: b5 e4 0b 0f  	.word	0x0f0be4b5
    b794: 38 01 80 58  	.word	0x58800138
    b798: ea e2 2c f6  	.word	0xf62ce2ea
    b79c: 9f 8e e6 08  	.word	0x08e68e9f
    b7a0: ad 30 c1 4b  	.word	0x4bc130ad
    b7a4: 0a 50 ad 34  	.word	0x34ad500a
    b7a8: 9c d4 0b 3d  	.word	0x3d0bd49c
    b7ac: 49 db 38 8d  	.word	0x8d38db49
    b7b0: be 89 0a 50  	.word	0x500a89be
    b7b4: 98 3d 5c a2  	.word	0xa25c3d98
    b7b8: 09 3b ba ee  	.word	0xeeba3b09
    b7bc: 87 3f 1f 2f  	.word	0x2f1f3f87
    b7c0: f9 f2 b8 0a  	.word	0x0ab8f2f9
    b7c4: d5 09 2d 2f  	.word	0x2f2d09d5
    b7c8: df 23 59 c5  	.word	0xc55923df
    b7cc: 8d 21 b9 ac  	.word	0xacb9218d
    b7d0: b9 6c 76 73  	.word	0x73766cb9
    b7d4: 26 34 8f 4a  	.word	0x4a8f3426
    b7d8: f5 19 f7 38  	.word	0x38f719f5
    b7dc: d7 3b b1 4c  	.word	0x4cb13bd7
    b7e0: 4a b6 15 e5  	.word	0xe515b64a
    b7e4: 75 8c 84 f7  	.word	0xf7848c75
    b7e8: 38 90 4a db  	.word	0xdb4a9038
    b7ec: ba 01 95 a5  	.word	0xa59501ba
    b7f0: 50 1b 75 3f  	.word	0x3f751b50
    b7f4: 3f 31 0d c2  	.word	0xc20d313f
    b7f8: e8 2e ae c0  	.word	0xc0ae2ee8
    b7fc: 53 e3 a1 19  	.word	0x19a1e353
    b800: c3 05 fa ba  	.word	0xbafa05c3
    b804: 60 75 1c 7d  	.word	0x7d1c7560
    b808: 61 5e e5 c6  	.word	0xc6e55e61
    b80c: a0 a0 e1 b3  	.word	0xb3e1a0a0
    b810: 73 64 d6 c0  	.word	0xc0d66473
    b814: 18 97 52 e3  	.word	0xe3529718
    b818: 86 34 0c c2  	.word	0xc20c3486
    b81c: 11 6b 54 41  	.word	0x41546b11
    b820: bd bd 96 d5  	.word	0xd596bdbd
    b824: cd 72 21 b4  	.word	0xb42172cd
    b828: 40 fc ee 98  	.word	0x98eefc40
    b82c: 43 45 e0 93  	.word	0x93e04543
    b830: b5 09 41 b4  	.word	0xb44109b5
    b834: 47 53 b1 9f  	.word	0x9fb15347
    b838: 34 ae 66 02  	.word	0x0266ae34
    b83c: 99 d3 6b 73  	.word	0x736bd399
    b840: b4 b3 34 93  	.word	0x9334b3b4
    b844: 50 2d 53 85  	.word	0x85532d50
    b848: 73 65 81 60  	.word	0x60816573
    b84c: 4b 11 fd 46  	.word	0x46fd114b
    b850: 75 83 5c 42  	.word	0x425c8375
    b854: 30 5f 5f cc  	.word	0xcc5f5f30
    b858: 5c ab 7f b8  	.word	0xb87fab5c
    b85c: a2 95 22 41  	.word	0x412295a2
    b860: e9 d6 7e f5  	.word	0xf57ed6e9
    b864: 88 9b c9 19  	.word	0x19c99b88
    b868: 25 c8 f8 6d  	.word	0x6df8c825
    b86c: 26 cb 93 53  	.word	0x5393cb26
    b870: 73 d2 0a b3  	.word	0xb30ad273
    b874: 13 32 ee 5c  	.word	0x5cee3213
    b878: 34 2e 2d b5  	.word	0xb52d2e34
    b87c: eb 53 e1 14  	.word	0x14e153eb
    b880: c6 ea 93 e2  	.word	0xe293eac6
    b884: 61 52 65 2e  	.word	0x2e655261
    b888: db ac 33 21  	.word	0x2133acdb
    b88c: 03 92 5a 84  	.word	0x845a9203
    b890: 6b 99 00 79  	.word	0x7900996b
    b894: cb 75 09 46  	.word	0x460975cb
    b898: 80 dd 5a 19  	.word	0x195add80
    b89c: 8d bb 60 07  	.word	0x0760bb8d
    b8a0: 8a 81 e6 cd  	.word	0xcde6818a
    b8a4: 17 1a 3e 41  	.word	0x413e1a17
    b8a8: 84 a0 69 ed  	.word	0xed69a084
    b8ac: a9 6d 15 57  	.word	0x57156da9
    b8b0: b1 cc ca 46  	.word	0x46caccb1
    b8b4: 8f 26 bf 2c  	.word	0x2cbf268f
    b8b8: f2 c5 3a c3  	.word	0xc33ac5f2
    b8bc: 9b be 34 6b  	.word	0x6b34be9b
    b8c0: b2 c0 78 3a  	.word	0x3a78c0b2
    b8c4: 64 2f df f3  	.word	0xf3df2f64
    b8c8: 7c 02 2e f2  	.word	0xf22e027c
    b8cc: 1e 97 3e 4c  	.word	0x4c3e971e
    b8d0: a3 b5 c1 49  	.word	0x49c1b5a3
    b8d4: 5e 1c 7d ec  	.word	0xec7d1c5e
    b8d8: 2d dd 22 09  	.word	0x0922dd2d
    b8dc: 8f c1 12 20  	.word	0x2012c18f
    b8e0: d3 f2 71 65  	.word	0x6571f2d3
    b8e4: 65 69 fc 11  	.word	0x11fc6965
    b8e8: 7a 73 0e 53  	.word	0x530e737a
    b8ec: 45 e8 c9 c6  	.word	0xc6c9e845
    b8f0: 35 50 fe d4  	.word	0xd4fe5035
    b8f4: a2 e7 3a e3  	.word	0xe33ae7a2
    b8f8: 0b d3 6d 2e  	.word	0x2e6dd30b
    b8fc: b6 c7 b9 01  	.word	0x01b9c7b6
    b900: 29 9d c8 5a  	.word	0x5ac89d29
    b904: e5 55 0b 88  	.word	0x880b55e5
    b908: 63 a7 a0 45  	.word	0x45a0a763
    b90c: 1f 24 83 14  	.word	0x1483241f
    b910: 1f 6c e7 c2  	.word	0xc2e76c1f
    b914: df ef 36 3d  	.word	0x3d36efdf
    b918: e8 ad 4b 4e  	.word	0x4e4bade8
    b91c: 78 5b af 08  	.word	0x08af5b78
    b920: 33 25 1f 88  	.word	0x881f2533
    b924: dc 99 34 28  	.word	0x283499dc
    b928: b6 23 93 77  	.word	0x779323b6
    b92c: da 25 05 9d  	.word	0x9d0525da
    b930: f4 41 34 67  	.word	0x673441f4
    b934: fb dd 7a 89  	.word	0x897addfb
    b938: 8d 16 3a 16  	.word	0x163a168d
    b93c: 71 9d b7 32  	.word	0x32b79d71
    b940: 4b 2c cc 89  	.word	0x89cc2c4b
    b944: d2 14 73 e2  	.word	0xe27314d2
    b948: 8d 17 87 a2  	.word	0xa287178d
    b94c: 11 bd e4 4b  	.word	0x4be4bd11
    b950: ce 64 33 fa  	.word	0xfa3364ce
    b954: d6 28 d5 18  	.word	0x18d528d6
    b958: 6e 82 d9 af  	.word	0xafd9826e
    b95c: d5 c1 23 64  	.word	0x6423c1d5
    b960: 6a b3 fc ed  	.word	0xedfcb36a
    b964: d9 f8 85 cc  	.word	0xcc85f8d9
    b968: f9 e5 46 37  	.word	0x3746e5f9
    b96c: 8f c2 bc 22  	.word	0x22bcc28f
    b970: cd d3 e5 f9  	.word	0xf9e5d3cd
    b974: 38 e3 9d e4  	.word	0xe49de338
    b978: cc 2d 3e c1  	.word	0xc13e2dcc
    b97c: fb 5e 0a 48  	.word	0x480a5efb
    b980: 71 20 62 01  	.word	0x01622071
    b984: 0b e7 51 0b  	.word	0x0b51e70b
    b988: c5 af 1d 8b  	.word	0x8b1dafc5
    b98c: cf 05 b5 06  	.word	0x06b505cf
    b990: cd ab 5a ef  	.word	0xef5aabcd
    b994: 61 b0 6b 2c  	.word	0x2c6bb061
    b998: 31 bf b7 0c  	.word	0x0cb7bf31
    b99c: 60 27 aa 47  	.word	0x47aa2760
    b9a0: 1f 22 ce 42  	.word	0x42ce221f
    b9a4: e4 4c 61 b6  	.word	0xb6614ce4
    b9a8: 28 39 05 4c  	.word	0x4c053928
    b9ac: cc 9d 19 6e  	.word	0x6e199dcc
    b9b0: 03 be 1c dc  	.word	0xdc1cbe03
    b9b4: a4 b4 3f 66  	.word	0x663fb4a4
    b9b8: 06 8e 1c 69  	.word	0x691c8e06
    b9bc: 47 1d b3 24  	.word	0x24b31d47
    b9c0: c3 f8 15 c0  	.word	0xc015f8c3
    b9c4: ed 1e 54 2a  	.word	0x2a541eed
    b9c8: 7c 3f 69 7c  	.word	0x7c693f7c
    b9cc: 7e fe a4 11  	.word	0x11a4fe7e
    b9d0: d6 78 a2 4e  	.word	0x4ea278d6
    b9d4: 13 66 af f0  	.word	0xf0af6613
    b9d8: 94 a0 dd 14  	.word	0x14dda094
    b9dc: 5d 58 5b 54  	.word	0x545b585d
    b9e0: 0f 3a d4 a0  	.word	0xa0d43a0f
    b9e4: 5e 27 bf 67  	.word	0x67bf275e
    b9e8: be ee 9b 08  	.word	0x089beebe
    b9ec: 34 8e e6 ad  	.word	0xade68e34
    b9f0: 2e e7 79 d4  	.word	0xd479e72e
    b9f4: 4c 13 89 42  	.word	0x4289134c
    b9f8: 54 54 ba 32  	.word	0x32ba5454
    b9fc: c3 f9 62 0f  	.word	0x0f62f9c3
    ba00: e1 21 b3 e3  	.word	0xe3b321e1
    ba04: d0 e4 04 62  	.word	0x6204e4d0
    ba08: 95 1e ff 28  	.word	0x28ff1e95
    ba0c: 7a 63 aa 3b  	.word	0x3baa637a
    ba10: 9e bd 99 5b  	.word	0x5b99bd9e
    ba14: fd cf 0c 0b  	.word	0x0b0ccffd
    ba18: 71 d0 c8 64  	.word	0x64c8d071
    ba1c: 3e dc 22 4d  	.word	0x4d22dc3e
    ba20: 39 5f 3b d6  	.word	0xd63b5f39
    ba24: 89 65 b4 fc  	.word	0xfcb46589
    ba28: 61 cf cb 57  	.word	0x57cbcf61
    ba2c: 3f 6a ae 5c  	.word	0x5cae6a3f
    ba30: 05 fa 3a 95  	.word	0x953afa05
    ba34: d2 c2 ba fe  	.word	0xfebac2d2
    ba38: 36 14 37 36  	.word	0x36371436
    ba3c: 1a a0 0f 1c  	.word	0x1c0fa01a
    ba40: 92 d6 7c bc  	.word	0xbc7cd692
    ba44: 49 74 54 e7  	.word	0xe7547449
    ba48: df 3d f7 e6  	.word	0xe6f73ddf
    ba4c: aa be 9a 0f  	.word	0x0f9abeaa
    ba50: 29 7e 83 00  	.word	0x00837e29
    ba54: a7 1c f0 4a  	.word	0x4af01ca7
    ba58: 83 c1 1b 3f  	.word	0x3f1bc183
    ba5c: 5d 1b ab 63  	.word	0x63ab1b5d
    ba60: ae 3f c5 54  	.word	0x54c53fae
    ba64: e8 e5 1e c1  	.word	0xc11ee5e8
    ba68: f4 3f 4f 2b  	.word	0x2b4f3ff4
    ba6c: c1 06 0b 6a  	.word	0x6a0b06c1
    ba70: 72 7a b6 e0  	.word	0xe0b67a72
    ba74: 80 0f 54 33  	.word	0x33540f80
    ba78: ef e3 07 cd  	.word	0xcd07e3ef
    ba7c: c3 8f f1 15  	.word	0x15f18fc3
    ba80: 8c f4 28 b0  	.word	0xb028f48c
    ba84: 63 07 75 32  	.word	0x32750763
    ba88: 5f 06 6a 55  	.word	0x556a065f
    ba8c: 40 07 02 06  	.word	0x06020740
    ba90: 58 5b 49 c3  	.word	0xc3495b58
    ba94: 12 d8 3b d5  	.word	0xd53bd812
    ba98: 8d 50 5f 86  	.word	0x865f508d
    ba9c: 9b 6c 70 08  	.word	0x08706c9b
    baa0: ff 3d 34 3d  	.word	0x3d343dff
    baa4: ab a2 7c f3  	.word	0xf37ca2ab
    baa8: 17 c6 ab 80  	.word	0x80abc617
    baac: 2d 6a 8c 1a  	.word	0x1a8c6a2d
    bab0: ca ff cc d4  	.word	0xd4ccffca
    bab4: 35 e0 49 8e  	.word	0x8e49e035
    bab8: b9 d1 a1 ba  	.word	0xbaa1d1b9
    babc: ee 6b b4 48  	.word	0x48b46bee
    bac0: 46 12 b4 38  	.word	0x38b41246
    bac4: 41 1b 99 cc  	.word	0xcc991b41
    bac8: 6b c2 9a 6f  	.word	0x6f9ac26b
    bacc: 52 9c 3b 24  	.word	0x243b9c52
    bad0: bd ab cb b7  	.word	0xb7cbabbd
    bad4: 4d 49 ef b9  	.word	0xb9ef494d
    bad8: 00 ed 82 d0  	.word	0xd082ed00
    badc: 3d 43 ba 5f  	.word	0x5fba433d
    bae0: d0 1a 94 c9  	.word	0xc9941ad0
    bae4: 55 e3 49 9c  	.word	0x9c49e355
    bae8: 84 8f 49 74  	.word	0x74498f84
    baec: de 4a 73 b9  	.word	0xb9734ade
    baf0: 5c 3e 66 66  	.word	0x66663e5c
    baf4: d0 fe c3 41  	.word	0x41c3fed0
    baf8: b3 10 e7 e8  	.word	0xe8e710b3
    bafc: f8 ed cf 0e  	.word	0x0ecfedf8
    bb00: d9 70 d4 9c  	.word	0x9cd470d9
    bb04: 9f 0f 43 76  	.word	0x76430f9f
    bb08: 08 60 2f a4  	.word	0xa42f6008
    bb0c: 9b cc 2a b6  	.word	0xb62acc9b
    bb10: 5e ad ad 59  	.word	0x59adad5e
    bb14: 7c 29 98 18  	.word	0x1898297c
    bb18: 80 50 8c b7  	.word	0xb78c5080
    bb1c: 2d dd 89 77  	.word	0x7789dd2d
    bb20: 62 37 40 e9  	.word	0xe9403762
    bb24: 63 74 4f 74  	.word	0x744f7463
    bb28: c9 c9 fc 8d  	.word	0x8dfcc9c9
    bb2c: ee 8d 9a f7  	.word	0xf79a8dee
    bb30: e3 cd e4 55  	.word	0x55e4cde3
    bb34: 96 64 3a 16  	.word	0x163a6496
    bb38: 35 f4 84 b2  	.word	0xb284f435
    bb3c: 8d 78 61 3b  	.word	0x3b61788d
    bb40: b2 f6 6e 0d  	.word	0x0d6ef6b2
    bb44: 19 28 22 b2  	.word	0xb2222819
    bb48: fa 4b ce 46  	.word	0x46ce4bfa
    bb4c: b2 66 4a a9  	.word	0xa94a66b2
    bb50: c7 6c 0b 4f  	.word	0x4f0b6cc7
    bb54: 7a a7 c1 46  	.word	0x46c1a77a
    bb58: cf 38 73 eb  	.word	0xeb7338cf
    bb5c: ff cc 36 42  	.word	0x4236ccff
    bb60: 74 e2 55 0d  	.word	0x0d55e274
    bb64: 4d 40 97 84  	.word	0x8497404d
    bb68: 53 2b ad c4  	.word	0xc4ad2b53
    bb6c: d9 63 66 6c  	.word	0x6c6663d9
    bb70: 34 57 a9 ad  	.word	0xada95734
    bb74: d9 b0 2f ec  	.word	0xec2fb0d9
    bb78: 3c f7 b8 cd  	.word	0xcdb8f73c
    bb7c: 20 e1 17 26  	.word	0x2617e120
    bb80: f6 7d 77 da  	.word	0xda777df6
    bb84: bf 2d d8 3b  	.word	0x3bd82dbf
    bb88: 9e 36 98 0b  	.word	0x0b98369e
    bb8c: cc 77 b1 71  	.word	0x71b177cc
    bb90: 99 36 0c 85  	.word	0x850c3699
    bb94: 63 84 0e 1d  	.word	0x1d0e8463
    bb98: f1 d1 e2 48  	.word	0x48e2d1f1
    bb9c: 5b 94 71 5a  	.word	0x5a71945b
    bba0: 42 4b 5b 40  	.word	0x405b4b42
    bba4: d5 3d 20 6f  	.word	0x6f203dd5
    bba8: 09 45 b2 10  	.word	0x10b24509
    bbac: 04 c6 7e 32  	.word	0x327ec604
    bbb0: 46 88 2a ac  	.word	0xac2a8846
    bbb4: 30 72 34 9c  	.word	0x9c347230
    bbb8: 6a eb ff 11  	.word	0x11ffeb6a
    bbbc: fc 29 de 77  	.word	0x77de29fc
    bbc0: a8 78 b7 83  	.word	0x83b778a8
    bbc4: c9 57 ac b0  	.word	0xb0ac57c9
    bbc8: 2c 91 fe d7  	.word	0xd7fe912c
    bbcc: a9 cc cd 53  	.word	0x53cdcca9
    bbd0: dc 59 1f ff  	.word	0xff1f59dc
    bbd4: 54 b8 c2 61  	.word	0x61c2b854
    bbd8: ac 7d de f0  	.word	0xf0de7dac
    bbdc: f0 2c 1a 3a  	.word	0x3a1a2cf0
    bbe0: ca d2 ce ec  	.word	0xecced2ca
    bbe4: 8f 13 5e 83  	.word	0x835e138f
    bbe8: 9a 3b 96 ea  	.word	0xea963b9a
    bbec: 13 af 9e 8c  	.word	0x8c9eaf13
    bbf0: a6 0e 16 b2  	.word	0xb2160ea6
    bbf4: c0 bf 5f c9  	.word	0xc95fbfc0
    bbf8: 92 78 87 ad  	.word	0xad877892
    bbfc: f3 66 5e 57  	.word	0x575e66f3
    bc00: 3a cb 8f c8  	.word	0xc88fcb3a
    bc04: 27 3a 80 99  	.word	0x99803a27
    bc08: b0 c0 5e 27  	.word	0x275ec0b0
    bc0c: 89 67 5a 34  	.word	0x345a6789
    bc10: e5 2b 6c ff  	.word	0xff6c2be5
    bc14: d0 89 97 45  	.word	0x459789d0
    bc18: b2 a8 70 1e  	.word	0x1e70a8b2
    bc1c: 65 82 f8 62  	.word	0x62f88265
    bc20: e4 1b ff 59  	.word	0x59ff1be4
    bc24: c7 e2 5a 08  	.word	0x085ae2c7
    bc28: b7 40 0e 3b  	.word	0x3b0e40b7
    bc2c: c9 45 91 14  	.word	0x149145c9
    bc30: 79 73 f2 7f  	.word	0x7ff27379
    bc34: fa e7 67 c4  	.word	0xc467e7fa
    bc38: 95 3a c7 d5  	.word	0xd5c73a95
    bc3c: 0a cf ee 4e  	.word	0x4eeecf0a
    bc40: e0 19 8a 69  	.word	0x698a19e0
    bc44: 86 29 82 6d  	.word	0x6d822986
    bc48: 71 8a d7 74  	.word	0x74d78a71
    bc4c: e1 21 98 dc  	.word	0xdc9821e1
    bc50: 47 1f cb f6  	.word	0xf6cb1f47
    bc54: 31 5f a8 41  	.word	0x41a85f31
    bc58: 51 9c da bc  	.word	0xbcda9c51
    bc5c: c2 21 27 35  	.word	0x352721c2
    bc60: 85 c9 3f 21  	.word	0x213fc985
    bc64: 52 99 32 48  	.word	0x48329952
    bc68: 46 17 8a 36  	.word	0x368a1746
    bc6c: 0d cf 87 10  	.word	0x1087cf0d
    bc70: a5 5a c1 66  	.word	0x66c15aa5
    bc74: b1 61 52 8e  	.word	0x8e5261b1
    bc78: 21 4c d2 2e  	.word	0x2ed24c21
    bc7c: 84 2d 5b 2d  	.word	0x2d5b2d84
    bc80: d1 de d3 eb  	.word	0xebd3ded1
    bc84: d9 eb cf 02  	.word	0x02cfebd9
    bc88: 74 19 02 39  	.word	0x39021974
    bc8c: 77 21 5b d4  	.word	0xd45b2177
    bc90: b7 a1 30 fe  	.word	0xfe30a1b7
    bc94: 13 f8 76 75  	.word	0x7576f813
    bc98: c2 f6 4e a3  	.word	0xa34ef6c2
    bc9c: f9 b6 91 56  	.word	0x5691b6f9
    bca0: 33 c5 6a 19  	.word	0x196ac533
    bca4: 3d d1 b7 5e  	.word	0x5eb7d13d
    bca8: 2b be 80 db  	.word	0xdb80be2b
    bcac: ec 34 72 37  	.word	0x377234ec
    bcb0: 24 ae f5 7c  	.word	0x7cf5ae24
    bcb4: fc cf 44 e1  	.word	0xe144cffc
    bcb8: ec ac 41 c4  	.word	0xc441acec
    bcbc: f9 bc 26 52  	.word	0x5226bcf9
    bcc0: 47 b5 e5 23  	.word	0x23e5b547
    bcc4: 72 6c ee 79  	.word	0x79ee6c72
    bcc8: 79 d6 30 83  	.word	0x8330d679
    bccc: 76 50 5f 6f  	.word	0x6f5f5076
    bcd0: e9 dc 8a 6d  	.word	0x6d8adce9
    bcd4: e9 e1 73 ed  	.word	0xed73e1e9
    bcd8: 03 cc 8c 1d  	.word	0x1d8ccc03
    bcdc: 1e da c3 27  	.word	0x27c3da1e
    bce0: 74 4c e2 3f  	.word	0x3fe24c74
    bce4: b2 ef b9 7e  	.word	0x7eb9efb2
    bce8: 01 be 51 16  	.word	0x1651be01
    bcec: 9f f4 50 3e  	.word	0x3e50f49f
    bcf0: ea 8d 85 21  	.word	0x21858dea
    bcf4: dc 32 a7 3e  	.word	0x3ea732dc
    bcf8: f9 10 b8 5b  	.word	0x5bb810f9
    bcfc: d7 7b 37 17  	.word	0x17377bd7
    bd00: f6 f9 0e 63  	.word	0x630ef9f6
    bd04: 71 2e 30 28  	.word	0x28302e71
    bd08: e0 ce 64 2b  	.word	0x2b64cee0
    bd0c: 03 a2 d4 c2  	.word	0xc2d4a203
    bd10: be 92 62 4b  	.word	0x4b6292be
    bd14: 30 20 08 09  	.word	0x09082030
    bd18: 18 df 2a a8  	.word	0xa82adf18
    bd1c: 7a 74 ca 5f  	.word	0x5fca747a
    bd20: a5 8e 25 5c  	.word	0x5c258ea5
    bd24: c3 03 2a 23  	.word	0x232a03c3
    bd28: f1 0c cb 6b  	.word	0x6bcb0cf1
    bd2c: 2c 3a f2 86  	.word	0x86f23a2c
    bd30: 66 21 44 2e  	.word	0x2e442166
    bd34: 0d 8d ad 3d  	.word	0x3dad8d0d
    bd38: 2b 86 76 ab  	.word	0xab76862b
    bd3c: 3c 93 a8 04  	.word	0x04a8933c
    bd40: ff 3d 94 22  	.word	0x22943dff
    bd44: b6 04 c6 d2  	.word	0xd2c604b6
    bd48: a0 b3 cf 44  	.word	0x44cfb3a0
    bd4c: ce be 8c bc  	.word	0xbc8cbece
    bd50: 78 86 80 97  	.word	0x97808678
    bd54: f3 4f 25 5d  	.word	0x5d254ff3
    bd58: bf a6 1c 3b  	.word	0x3b1ca6bf
    bd5c: 4f 61 a3 0f  	.word	0x0fa3614f
    bd60: 50 6a 93 8c  	.word	0x8c936a50
    bd64: 0e 2b 08 69  	.word	0x69082b0e
    bd68: b6 c5 da c1  	.word	0xc1dac5b6
    bd6c: 35 a0 c9 f9  	.word	0xf9c9a035
    bd70: 34 b6 df c4  	.word	0xc4dfb634
    bd74: 54 3e b7 6f  	.word	0x6fb73e54
    bd78: 40 c1 2b 1d  	.word	0x1d2bc140
    bd7c: 9b 41 05 40  	.word	0x4005419b
    bd80: f0 82 be b9  	.word	0xb9be82f0
    bd84: bd fe 03 a0  	.word	0xa003febd
    bd88: 90 ac 44 3a  	.word	0x3a44ac90
    bd8c: af c1 89 20  	.word	0x2089c1af
    bd90: 8e fa 54 19  	.word	0x1954fa8e
    bd94: 91 9f 49 f8  	.word	0xf8499f91
    bd98: 42 ab 40 ef  	.word	0xef40ab42
    bd9c: 8a 21 ba 1f  	.word	0x1fba218a
    bda0: 3e f5 c8 fa  	.word	0xfac8f53e
    bda4: 48 94 54 ab  	.word	0xab549448
    bda8: 41 37 a6 7b  	.word	0x7ba63741
    bdac: 9a e8 f6 81  	.word	0x81f6e89a
    bdb0: 01 5e 2b 6c  	.word	0x6c2b5e01
    bdb4: 7d 6c fd 74  	.word	0x74fd6c7d
    bdb8: 42 6e c8 a8  	.word	0xa8c86e42
    bdbc: ca 3a 2e 39  	.word	0x392e3aca
    bdc0: 94 01 7b 3e  	.word	0x3e7b0194
    bdc4: 04 57 3e 4f  	.word	0x4f3e5704
    bdc8: 7f af da 08  	.word	0x08daaf7f
    bdcc: ee 3e 1d a8  	.word	0xa81d3eee
    bdd0: f1 de dc 99  	.word	0x99dcdef1
    bdd4: ab c6 39 c8  	.word	0xc839c6ab
    bdd8: d5 61 77 ff  	.word	0xff7761d5
    bddc: 13 5d 53 6c  	.word	0x6c535d13
    bde0: af 35 8a 3e  	.word	0x3e8a35af
    bde4: e9 34 bd 4c  	.word	0x4cbd34e9
    bde8: 16 e8 87 58  	.word	0x5887e816
    bdec: 44 81 07 2e  	.word	0x2e078144
    bdf0: ab b0 9a f2  	.word	0xf29ab0ab
    bdf4: 76 9c 31 19  	.word	0x19319c76
    bdf8: 3b c1 0a d5  	.word	0xd50ac13b
    bdfc: e4 7f e1 25  	.word	0x25e17fe4
    be00: 76 f6 04 1e  	.word	0x1e04f676
    be04: d7 9b 28 0a  	.word	0x0a289bd7
    be08: 95 0f 42 d6  	.word	0xd6420f95
    be0c: 52 1c 8e 20  	.word	0x208e1c52
    be10: ab 1f 69 34  	.word	0x34691fab
    be14: b0 d8 86 51  	.word	0x5186d8b0
    be18: 51 b3 9f 2a  	.word	0x2a9fb351
    be1c: 44 51 57 25  	.word	0x25575144
    be20: a7 21 f1 76  	.word	0x76f121a7
    be24: f5 7f 5f 91  	.word	0x915f7ff5
    be28: e3 87 cd 2f  	.word	0x2fcd87e3
    be2c: 27 32 4a c3  	.word	0xc34a3227
    be30: 26 e5 1b 4d  	.word	0x4d1be526
    be34: de 2f ba cc  	.word	0xccba2fde
    be38: 9b 89 69 89  	.word	0x8969899b
    be3c: 8f 82 ba 6b  	.word	0x6bba828f
    be40: 01 39 fe 90  	.word	0x90fe3901
    be44: 66 bc d1 e2  	.word	0xe2d1bc66
    be48: d5 7a 99 a0  	.word	0xa0997ad5
    be4c: 18 4a b5 4c  	.word	0x4cb54a18
    be50: d4 60 84 af  	.word	0xaf8460d4
    be54: 14 69 1d 97  	.word	0x971d6914
    be58: e4 7b 6b 7f  	.word	0x7f6b7be4
    be5c: 4f 50 9d 55  	.word	0x559d504f
    be60: d5 54 eb b3  	.word	0xb3eb54d5
    be64: 78 83 73 a7  	.word	0xa7738378
    be68: 7c 3c 55 a5  	.word	0xa5553c7c
    be6c: 66 d3 69 1d  	.word	0x1d69d366
    be70: ba 00 28 f9  	.word	0xf92800ba
    be74: 62 cf 26 0a  	.word	0x0a26cf62
    be78: 17 32 7e 80  	.word	0x807e3217
    be7c: d5 12 ab 01  	.word	0x01ab12d5
    be80: fd 66 d2 f6  	.word	0xf6d266fd
    be84: e7 91 48 9c  	.word	0x9c4891e7
    be88: 1b 78 07 03  	.word	0x0307781b
    be8c: 9b a1 44 07  	.word	0x0744a19b
    be90: 3b e2 61 60  	.word	0x6061e23b
    be94: 1d 8f 38 88  	.word	0x88388f1d
    be98: 0e d5 4b 35  	.word	0x354bd50e
    be9c: a3 a6 3e 12  	.word	0x123ea6a3
    bea0: 96 2d e3 41  	.word	0x41e32d96
    bea4: 90 18 8d 11  	.word	0x118d1890
    bea8: 48 58 31 d8  	.word	0xd8315848
    beac: c2 e3 ed b9  	.word	0xb9ede3c2
    beb0: d9 45 32 d8  	.word	0xd83245d9
    beb4: 71 42 ab 1e  	.word	0x1eab4271
    beb8: 54 a1 18 c9  	.word	0xc918a154
    bebc: e2 61 39 4a  	.word	0x4a3961e2
    bec0: a0 bb e6 f8  	.word	0xf8e6bba0
    bec4: e0 3b dc 71  	.word	0x71dc3be0
    bec8: 0a e3 ff 7e  	.word	0x7effe30a
    becc: 34 f8 ce d6  	.word	0xd6cef834
    bed0: 6a 47 3a e1  	.word	0xe13a476a
    bed4: 5f 42 92 a9  	.word	0xa992425f
    bed8: 63 b7 1d fb  	.word	0xfb1db763
    bedc: e3 bc d6 2c  	.word	0x2cd6bce3
    bee0: 1e 3f 23 f3  	.word	0xf3233f1e
    bee4: 44 d6 27 03  	.word	0x0327d644
    bee8: 16 f0 fc 34  	.word	0x34fcf016
    beec: 0e 26 9a 49  	.word	0x499a260e
    bef0: 79 b9 da f2  	.word	0xf2dab979
    bef4: 16 a7 b5 83  	.word	0x83b5a716
    bef8: 1f 11 d4 9b  	.word	0x9bd4111f
    befc: ad ee ac 68  	.word	0x68aceead
    bf00: 10 c2 d7 f3  	.word	0xf3d7c210
    bf04: 0e c9 b4 38  	.word	0x38b4c90e
    bf08: 0c 04 ad b7  	.word	0xb7ad040c
    bf0c: 24 6e 8e 30  	.word	0x308e6e24
    bf10: 23 3e e7 b7  	.word	0xb7e73e23
    bf14: f1 d9 60 38  	.word	0x3860d9f1
    bf18: 97 f5 08 b5  	.word	0xb508f597
    bf1c: d5 60 57 59  	.word	0x595760d5
    bf20: 97 63 aa 04  	.word	0x04aa6397
    bf24: e1 bf 29 61  	.word	0x6129bfe1
    bf28: cb fc a7 a4  	.word	0xa4a7fccb
    bf2c: 08 00 96 8f  	.word	0x8f960008
    bf30: 58 94 90 7d  	.word	0x7d909458
    bf34: 89 c0 8b 3f  	.word	0x3f8bc089
    bf38: a9 91 b2 dc  	.word	0xdcb291a9
    bf3c: 3e a4 9f 70  	.word	0x709fa43e
    bf40: 90 27 02 fd  	.word	0xfd022790
    bf44: eb cb 2a 88  	.word	0x882acbeb
    bf48: 60 57 11 c4  	.word	0xc4115760
    bf4c: 05 33 af 89  	.word	0x89af3305
    bf50: f4 73 34 7d  	.word	0x7d3473f4
    bf54: e3 92 f4 65  	.word	0x65f492e3
    bf58: 2b 5a 51 54  	.word	0x54515a2b
    bf5c: df c5 b2 2c  	.word	0x2cb2c5df
    bf60: ca 2a fd 63  	.word	0x63fd2aca
    bf64: 8c 5d 0a eb  	.word	0xeb0a5d8c
    bf68: ff 4e 69 2e  	.word	0x2e694eff
    bf6c: 66 c1 2b d2  	.word	0xd22bc166
    bf70: 3a b0 cb f8  	.word	0xf8cbb03a
    bf74: 6e f3 23 27  	.word	0x2723f36e
    bf78: 1f 13 c8 f0  	.word	0xf0c8131f
    bf7c: ec 29 f0 70  	.word	0x70f029ec
    bf80: 33 3e ed 2e  	.word	0x2eed3e33
    bf84: b3 07 13 46  	.word	0x461307b3
    bf88: e7 81 55 a4  	.word	0xa45581e7
    bf8c: 33 2f 04 ae  	.word	0xae042f33
    bf90: 66 03 5f 19  	.word	0x195f0366
    bf94: d3 49 44 c9  	.word	0xc94449d3
    bf98: 58 48 31 6c  	.word	0x6c314858
    bf9c: 8a 5d 7d 0b  	.word	0x0b7d5d8a
    bfa0: b9 b0 10 5e  	.word	0x5e10b0b9
    bfa4: aa af 6a 2a  	.word	0x2a6aafaa
    bfa8: a9 1a 04 ef  	.word	0xef041aa9
    bfac: 70 a3 f0 78  	.word	0x78f0a370
    bfb0: 1f d6 3a aa  	.word	0xaa3ad61f
    bfb4: 77 fb 3e 77  	.word	0x773efb77
    bfb8: e1 d9 4b a7  	.word	0xa74bd9e1
    bfbc: a2 a5 ec 44  	.word	0x44eca5a2
    bfc0: 43 d5 95 7b  	.word	0x7b95d543
    bfc4: 32 48 d4 25  	.word	0x25d44832
    bfc8: 1d 0f 34 a3  	.word	0xa3340f1d
    bfcc: 00 83 d3 70  	.word	0x70d38300
    bfd0: 2b c5 e1 60  	.word	0x60e1c52b
    bfd4: 1c 53 1c de  	.word	0xde1c531c
    bfd8: e4 e9 7d 2c  	.word	0x2c7de9e4
    bfdc: 51 24 22 27  	.word	0x27222451
    bfe0: 2e 34 c5 49  	.word	0x49c5342e
    bfe4: af 92 bc 1a  	.word	0x1abc92af
    bfe8: d0 fa e6 b2  	.word	0xb2e6fad0
    bfec: 11 d8 ee ff  	.word	0xffeed811
    bff0: 29 4e c8 fc  	.word	0xfcc84e29
    bff4: 8d 8c a2 ef  	.word	0xefa28c8d
    bff8: 43 c5 4c a4  	.word	0xa44cc543
    bffc: 18 df b5 11  	.word	0x11b5df18
    c000: fc 75 a9 42  	.word	0x42a975fc
    c004: 8a bb 7b bf  	.word	0xbf7bbb8a
    c008: 58 a3 ad 96  	.word	0x96ada358
    c00c: 77 39 5c 8c  	.word	0x8c5c3977
    c010: 48 aa ed cd  	.word	0xcdedaa48
    c014: 6f c7 7f e2  	.word	0xe27fc76f
    c018: a6 20 bc f6  	.word	0xf6bc20a6
    c01c: d7 5f 73 19  	.word	0x19735fd7
    c020: 66 42 c8 42  	.word	0x42c84266
    c024: d0 90 ab e3  	.word	0xe3ab90d0
    c028: 7e 54 19 7f  	.word	0x7f19547e
    c02c: 0f 8e 84 eb  	.word	0xeb848e0f
    c030: b9 97 a4 65  	.word	0x65a497b9
    c034: d0 a1 03 25  	.word	0x2503a1d0
    c038: 5f 89 df 91  	.word	0x91df895f
    c03c: 11 91 ef 0f  	.word	0x0fef9111

Disassembly of section .eh_frame:

0000000000000000 <.eh_frame>:
       0: 00000010     	udf	#0x10
       4: 00000000     	udf	#0x0
       8: 00527a01     	<unknown>
       c: 011e7804     	<unknown>
      10: 001f0c1b     	<unknown>
      14: 10 00 00 00  	.word	0x00000010
      18: 18 00 00 00  	.word	0x00000018
      1c: 00 00 00 00  	.word	0x00000000
      20: d0 00 00 00  	.word	0x000000d0
      24: 00 00 00 00  	.word	0x00000000
      28: 20 00 00 00  	.word	0x00000020
      2c: 2c 00 00 00  	.word	0x0000002c
      30: 00 00 00 00  	.word	0x00000000
      34: 74 01 00 00  	.word	0x00000174
      38: 00 41 0e d0  	.word	0xd00e4100
      3c: 05 43 9d 5a  	.word	0x5a9d4305
      40: 9e 59 02 4d  	.word	0x4d02599e
      44: 0a dd de 0e  	.word	0x0ededd0a
      48: 00 41 0b 00  	.word	0x000b4100
      4c: 24 00 00 00  	.word	0x00000024
      50: 50 00 00 00  	.word	0x00000050
      54: 00 00 00 00  	.word	0x00000000
      58: 50 00 00 00  	.word	0x00000050
      5c: 00 42 0e 30  	.word	0x300e4200
      60: 9d 06 9e 05  	.word	0x059e069d
      64: 42 93 04 94  	.word	0x94049342
      68: 03 43 95 02  	.word	0x02954303
      6c: 4b de dd d5  	.word	0xd5ddde4b
      70: d3 d4 0e 00  	.word	0x000ed4d3
      74: 10 00 00 00  	.word	0x00000010
      78: 78 00 00 00  	.word	0x00000078
      7c: 00 00 00 00  	.word	0x00000000
      80: a0 00 00 00  	.word	0x000000a0
      84: 00 00 00 00  	.word	0x00000000

Disassembly of section .rela.eh_frame:

0000000000000000 <.rela.eh_frame>:
       0: 0000001c     	udf	#0x1c
       4: 00000000     	udf	#0x0
       8: 00000105     	udf	#0x105
       c: 00000001     	udf	#0x1
      10: 00008eb8     	udf	#0x8eb8
      14: 00000000     	udf	#0x0
      18: 00000030     	udf	#0x30
      1c: 00000000     	udf	#0x0
      20: 00000105     	udf	#0x105
      24: 00000001     	udf	#0x1
      28: 00008f88     	udf	#0x8f88
      2c: 00000000     	udf	#0x0
      30: 00000054     	udf	#0x54
      34: 00000000     	udf	#0x0
      38: 00000105     	udf	#0x105
      3c: 00000001     	udf	#0x1
      40: 000090fc     	udf	#0x90fc
      44: 00000000     	udf	#0x0
      48: 0000007c     	udf	#0x7c
      4c: 00000000     	udf	#0x0
      50: 00000105     	udf	#0x105
      54: 00000001     	udf	#0x1
      58: 0000914c     	udf	#0x914c
      5c: 00000000     	udf	#0x0

Disassembly of section .symtab:

0000000000000000 <.symtab>:
		...
      1c: 00010003     	<unknown>
		...
      34: 00030003     	<unknown>
		...
      4c: 00040003     	<unknown>
		...
      60: 00000001     	udf	#0x1
      64: 00010000     	<unknown>
		...
      78: 00000004     	udf	#0x4
      7c: 00010002     	<unknown>
      80: 0000914c     	udf	#0x914c
      84: 00000000     	udf	#0x0
      88: 000000a0     	udf	#0xa0
      8c: 00000000     	udf	#0x0
      90: 00000010     	udf	#0x10
      94: 00010002     	<unknown>
      98: 000091ec     	udf	#0x91ec
      9c: 00000000     	udf	#0x0
      a0: 000000e8     	udf	#0xe8
      a4: 00000000     	udf	#0x0
      a8: 0000001e     	udf	#0x1e
      ac: 00010002     	<unknown>
      b0: 000092d4     	udf	#0x92d4
      b4: 00000000     	udf	#0x0
      b8: 00000100     	udf	#0x100
      bc: 00000000     	udf	#0x0
      c0: 0000002b     	udf	#0x2b
      c4: 00010002     	<unknown>
      c8: 000013f0     	udf	#0x13f0
      cc: 00000000     	udf	#0x0
      d0: 00002420     	udf	#0x2420
      d4: 00000000     	udf	#0x0
      d8: 0000004a     	udf	#0x4a
      dc: 00010000     	<unknown>
      e0: 000012e8     	udf	#0x12e8
		...
      f0: 0000005e     	udf	#0x5e
      f4: 00010000     	<unknown>
      f8: 00000074     	udf	#0x74
		...
     108: 00000072     	udf	#0x72
     10c: 00010000     	<unknown>
     110: 000000fc     	udf	#0xfc
		...
     120: 0000008b     	udf	#0x8b
     124: 00010000     	<unknown>
     128: 000009b8     	udf	#0x9b8
		...
     138: 0000009d     	udf	#0x9d
     13c: 00010000     	<unknown>
     140: 0000016c     	udf	#0x16c
		...
     150: 000000b7     	udf	#0xb7
     154: 00010000     	<unknown>
     158: 000006ac     	udf	#0x6ac
		...
     168: 000000ce     	udf	#0xce
     16c: 00010000     	<unknown>
     170: 000001e4     	udf	#0x1e4
		...
     180: 000000e4     	udf	#0xe4
     184: 00010000     	<unknown>
     188: 00000624     	udf	#0x624
		...
     198: 000000ee     	udf	#0xee
     19c: 00010000     	<unknown>
     1a0: 0000033c     	udf	#0x33c
		...
     1b0: 00000109     	udf	#0x109
     1b4: 00010000     	<unknown>
     1b8: 00000b38     	udf	#0xb38
		...
     1c8: 00000121     	udf	#0x121
     1cc: 00010000     	<unknown>
     1d0: 00000288     	udf	#0x288
		...
     1e0: 0000013c     	udf	#0x13c
     1e4: 00010000     	<unknown>
     1e8: 00000ae8     	udf	#0xae8
		...
     1f8: 0000014e     	udf	#0x14e
     1fc: 00010002     	<unknown>
     200: 00003810     	udf	#0x3810
     204: 00000000     	udf	#0x0
     208: 000056a8     	udf	#0x56a8
     20c: 00000000     	udf	#0x0
     210: 0000016f     	udf	#0x16f
     214: 00010000     	<unknown>
     218: 00000340     	udf	#0x340
		...
     228: 0000018e     	udf	#0x18e
     22c: 00010000     	<unknown>
     230: 0000038c     	udf	#0x38c
		...
     240: 0000019a     	udf	#0x19a
     244: 00010000     	<unknown>
     248: 000003f4     	udf	#0x3f4
		...
     258: 000001ab     	udf	#0x1ab
     25c: 00010000     	<unknown>
     260: 000003e8     	udf	#0x3e8
		...
     270: 000001c1     	udf	#0x1c1
     274: 00010000     	<unknown>
     278: 00000464     	udf	#0x464
		...
     288: 000001d6     	udf	#0x1d6
     28c: 00010000     	<unknown>
     290: 00000468     	udf	#0x468
		...
     2a0: 000001ef     	udf	#0x1ef
     2a4: 00010000     	<unknown>
     2a8: 000004d4     	udf	#0x4d4
		...
     2b8: 00000206     	udf	#0x206
     2bc: 00010000     	<unknown>
     2c0: 000004d8     	udf	#0x4d8
		...
     2d0: 00000221     	udf	#0x221
     2d4: 00010000     	<unknown>
     2d8: 00000570     	udf	#0x570
		...
     2e8: 00000235     	udf	#0x235
     2ec: 00010000     	<unknown>
     2f0: 00000574     	udf	#0x574
		...
     300: 0000024d     	udf	#0x24d
     304: 00010000     	<unknown>
     308: 0000060c     	udf	#0x60c
		...
     318: 00000263     	udf	#0x263
     31c: 00010000     	<unknown>
     320: 00000610     	udf	#0x610
		...
     330: 0000027d     	udf	#0x27d
     334: 00010000     	<unknown>
     338: 0000066c     	udf	#0x66c
		...
     348: 0000028f     	udf	#0x28f
     34c: 00010000     	<unknown>
     350: 0000064c     	udf	#0x64c
		...
     360: 0000029f     	udf	#0x29f
     364: 00010000     	<unknown>
     368: 00000634     	udf	#0x634
		...
     378: 000002b3     	udf	#0x2b3
     37c: 00010000     	<unknown>
     380: 00000664     	udf	#0x664
		...
     390: 000002c3     	udf	#0x2c3
     394: 00010000     	<unknown>
     398: 00000650     	udf	#0x650
		...
     3a8: 000002d6     	udf	#0x2d6
     3ac: 00010000     	<unknown>
     3b0: 00000690     	udf	#0x690
		...
     3c0: 000002e9     	udf	#0x2e9
     3c4: 00010000     	<unknown>
     3c8: 00000678     	udf	#0x678
		...
     3d8: 000002fd     	udf	#0x2fd
     3dc: 00010000     	<unknown>
     3e0: 00000ab4     	udf	#0xab4
		...
     3f0: 00000315     	udf	#0x315
     3f4: 00010000     	<unknown>
     3f8: 00000aa8     	udf	#0xaa8
		...
     408: 00000331     	udf	#0x331
     40c: 00010000     	<unknown>
     410: 00000a44     	udf	#0xa44
		...
     420: 00000348     	udf	#0x348
     424: 00010000     	<unknown>
     428: 00001194     	udf	#0x1194
		...
     438: 0000036c     	udf	#0x36c
     43c: 00010000     	<unknown>
     440: 00001000     	udf	#0x1000
		...
     450: 0000038f     	udf	#0x38f
     454: 00010000     	<unknown>
     458: 000011a0     	udf	#0x11a0
		...
     468: 000003ac     	udf	#0x3ac
     46c: 00010000     	<unknown>
     470: 00001534     	udf	#0x1534
		...
     480: 000003d6     	udf	#0x3d6
     484: 00010000     	<unknown>
     488: 000029b8     	udf	#0x29b8
		...
     498: 00000400     	udf	#0x400
     49c: 00010000     	<unknown>
     4a0: 00002590     	udf	#0x2590
		...
     4b0: 00000427     	udf	#0x427
     4b4: 00010000     	<unknown>
     4b8: 00005c98     	udf	#0x5c98
		...
     4c8: 00000451     	udf	#0x451
     4cc: 00010000     	<unknown>
     4d0: 000072e8     	udf	#0x72e8
		...
     4e0: 00000478     	udf	#0x478
     4e4: 00010000     	<unknown>
     4e8: 000082ac     	udf	#0x82ac
		...
     4f8: 000004a0     	udf	#0x4a0
     4fc: 00010000     	<unknown>
     500: 000041a4     	udf	#0x41a4
		...
     510: 000004c6     	udf	#0x4c6
     514: 00010000     	<unknown>
     518: 0000687c     	udf	#0x687c
		...
     528: 000004ef     	udf	#0x4ef
     52c: 00010000     	<unknown>
     530: 00004e24     	udf	#0x4e24
		...
     540: 0000051b     	udf	#0x51b
     544: 00010000     	<unknown>
     548: 000049fc     	udf	#0x49fc
		...
     558: 00000544     	udf	#0x544
     55c: 00010002     	<unknown>
     560: 00008eb8     	udf	#0x8eb8
     564: 00000000     	udf	#0x0
     568: 000000d0     	udf	#0xd0
     56c: 00000000     	udf	#0x0
     570: 00000551     	udf	#0x551
     574: 00010002     	<unknown>
     578: 00008f88     	udf	#0x8f88
     57c: 00000000     	udf	#0x0
     580: 00000174     	udf	#0x174
     584: 00000000     	udf	#0x0
     588: 00000566     	udf	#0x566
     58c: 00010002     	<unknown>
     590: 000090fc     	udf	#0x90fc
     594: 00000000     	udf	#0x0
     598: 00000050     	udf	#0x50
		...
     5a4: 00050003     	<unknown>
		...
     5bc: 00060003     	<unknown>
		...
     5d0: 0000057c     	udf	#0x57c
     5d4: 00060000     	<unknown>
		...
     5e8: 0000057c     	udf	#0x57c
     5ec: 00070000     	<unknown>
     5f0: 00000014     	udf	#0x14
		...
     604: 00070003     	<unknown>
		...
     618: 0000057f     	udf	#0x57f
     61c: 00010010     	<unknown>
		...
     630: 000005a7     	udf	#0x5a7
     634: 00010010     	<unknown>
     638: 00000358     	udf	#0x358
		...
     648: 000005cc     	udf	#0x5cc
     64c: 00010010     	<unknown>
     650: 00000374     	udf	#0x374
		...
     660: 000005f3     	udf	#0x5f3
     664: 00010010     	<unknown>
     668: 00000404     	udf	#0x404
		...
     678: 0000061b     	udf	#0x61b
     67c: 00010010     	<unknown>
     680: 00000478     	udf	#0x478
		...
     690: 00000645     	udf	#0x645
     694: 00010010     	<unknown>
     698: 000004e8     	udf	#0x4e8
		...
     6a8: 0000066c     	udf	#0x66c
     6ac: 00010010     	<unknown>
     6b0: 00000588     	udf	#0x588
		...
     6c0: 00000695     	udf	#0x695
     6c4: 00060011     	<unknown>
     6c8: 00000280     	udf	#0x280
     6cc: 00000000     	udf	#0x0
     6d0: 0000bdc0     	udf	#0xbdc0
     6d4: 00000000     	udf	#0x0
     6d8: 000006bd     	udf	#0x6bd
     6dc: 00060011     	<unknown>
     6e0: 00000340     	udf	#0x340
     6e4: 00000000     	udf	#0x0
     6e8: 00000300     	udf	#0x300
     6ec: 00000000     	udf	#0x0
     6f0: 000006e7     	udf	#0x6e7
     6f4: 00060011     	<unknown>
		...
     700: 00000280     	udf	#0x280
     704: 00000000     	udf	#0x0

Disassembly of section .strtab:

0000000000000000 <.strtab>:
       0: 00782400     	<unknown>
       4: 35616873     	cbnz	w19, 0xc2d10 <.strtab+0xc2d10>
       8: 695f3231     	ldpsw	x17, x12, [x17, #0xf8]
       c: 0074696e     	<unknown>
      10: 35616873     	cbnz	w19, 0xc2d1c <.strtab+0xc2d1c>
      14: 755f3231     	<unknown>
      18: 74616470     	<unknown>
      1c: 68730065     	<unknown>
      20: 32313561     	orr	w1, w11, #0x1fff8000
      24: 6e69665f     	umax	v31.8h, v18.8h, v9.8h
      28: 65006c61     	<unknown>
      2c: 72617764     	<unknown>
      30: 35327364     	cbnz	w4, 0x64e9c <.strtab+0x64e9c>
      34: 5f393135     	<unknown>
      38: 6c616373     	ldnp	d19, d24, [x27, #-0x1f0]
      3c: 756d7261     	<unknown>
      40: 7361626c     	<unknown>
      44: 6c615f65     	ldnp	d5, d23, [x27, #-0x1f0]
      48: 64650074     	fmla	z20.h, z3.h, z5.h[4]
      4c: 64726177     	<unknown>
      50: 35353273     	cbnz	w19, 0x6a69c <.strtab+0x6a69c>
      54: 655f3931     	<unknown>
      58: 646f636e     	<unknown>
      5c: 64650065     	fmla	z5.h, z3.h, z5.h[4]
      60: 31353532     	adds	w18, w9, #0xd4d
      64: 69735f39     	ldpsw	x25, x23, [x25, #-0x68]
      68: 635f6e67     	<unknown>
      6c: 6f6d6d6f     	<unknown>
      70: 6465006e     	fmla	z14.h, z3.h, z5.h[4]
      74: 31353532     	adds	w18, w9, #0xd4d
      78: 69735f39     	ldpsw	x25, x23, [x25, #-0x68]
      7c: 635f6e67     	<unknown>
      80: 6f6d6d6f     	<unknown>
      84: 75705f6e     	<unknown>
      88: 62006572     	<unknown>
      8c: 756e6769     	<unknown>
      90: 6f6d5f6d     	<unknown>
      94: 326e5f64     	<unknown>
      98: 39313535     	strb	w21, [x9, #0xc4d]
      9c: 32646500     	<unknown>
      a0: 39313535     	strb	w21, [x9, #0xc4d]
      a4: 6769735f     	<unknown>
      a8: 6f635f6e     	<unknown>
      ac: 6e6f6d6d     	umin	v13.8h, v11.8h, v15.8h
      b0: 7275705f     	<unknown>
      b4: 62003265     	<unknown>
      b8: 756e6769     	<unknown>
      bc: 616d5f6d     	<unknown>
      c0: 6e5f6464     	<unknown>
      c4: 31353532     	adds	w18, w9, #0xd4d
      c8: 6c615f39     	ldnp	d25, d23, [x25, #-0x1f0]
      cc: 64650074     	fmla	z20.h, z3.h, z5.h[4]
      d0: 31353532     	adds	w18, w9, #0xd4d
      d4: 65765f39     	fnmla	z25.h, p7/m, z25.h, z22.h
      d8: 79666972     	ldrh	w18, [x11, #0x1334]
      dc: 6d6f635f     	ldp	d31, d24, [x26, #-0x110]
      e0: 006e6f6d     	<unknown>
      e4: 6e676962     	<unknown>
      e8: 6c5f6d75     	ldnp	d21, d27, [x11, #0x1f0]
      ec: 64650065     	fmla	z5.h, z3.h, z5.h[4]
      f0: 31353532     	adds	w18, w9, #0xd4d
      f4: 65765f39     	fnmla	z25.h, p7/m, z25.h, z22.h
      f8: 79666972     	ldrh	w18, [x11, #0x1334]
      fc: 6d6f635f     	ldp	d31, d24, [x26, #-0x110]
     100: 5f6e6f6d     	<unknown>
     104: 6c696166     	ldnp	d6, d24, [x11, #-0x170]
     108: 77646500     	<unknown>
     10c: 73647261     	<unknown>
     110: 31353532     	adds	w18, w9, #0xd4d
     114: 65645f39     	fnmla	z25.h, p7/m, z25.h, z4.h
     118: 65646f63     	fnmls	z3.h, p3/m, z27.h, z4.h
     11c: 746c615f     	<unknown>
     120: 32646500     	<unknown>
     124: 39313535     	strb	w21, [x9, #0xc4d]
     128: 7265765f     	<unknown>
     12c: 5f796669     	<unknown>
     130: 6d6d6f63     	ldp	d3, d27, [x27, #-0x130]
     134: 705f6e6f     	adr	x15, 0xbef03 <.strtab+0xbef03>
     138: 00657275     	<unknown>
     13c: 6e676962     	<unknown>
     140: 6e5f6d75     	<unknown>
     144: 705f6765     	adr	x5, 0xbee33 <.strtab+0xbee33>
     148: 31353532     	adds	w18, w9, #0xd4d
     14c: 64650039     	fmla	z25.h, z1.h, z5.h[4]
     150: 64726177     	<unknown>
     154: 35353273     	cbnz	w19, 0x6a7a0 <.strtab+0x6a7a0>
     158: 735f3931     	<unknown>
     15c: 616c6163     	<unknown>
     160: 6c756d72     	ldnp	d18, d27, [x11, #-0xb0]
     164: 62756f64     	<unknown>
     168: 615f656c     	<unknown>
     16c: 6500746c     	<unknown>
     170: 35353264     	cbnz	w4, 0x6a7bc <.strtab+0x6a7bc>
     174: 765f3931     	<unknown>
     178: 66697265     	<unknown>
     17c: 6f635f79     	<unknown>
     180: 6e6f6d6d     	umin	v13.8h, v11.8h, v15.8h
     184: 6970655f     	ldpsw	xzr, x25, [x10, #-0x80]
     188: 75676f6c     	<unknown>
     18c: 6f640065     	mla	v5.8h, v3.8h, v4.h[2]
     190: 635f326d     	<unknown>
     194: 6f6d6d6f     	<unknown>
     198: 6f64006e     	mla	v14.8h, v3.8h, v4.h[2]
     19c: 635f326d     	<unknown>
     1a0: 6f6d6d6f     	<unknown>
     1a4: 6f6c5f6e     	<unknown>
     1a8: 6400706f     	<unknown>
     1ac: 5f326d6f     	<unknown>
     1b0: 6d6d6f63     	ldp	d3, d27, [x27, #-0x130]
     1b4: 6c5f6e6f     	ldnp	d15, d27, [x19, #0x1f0]
     1b8: 5f706f6f     	<unknown>
     1bc: 79646f62     	ldrh	w2, [x27, #0x1236]
     1c0: 32646500     	<unknown>
     1c4: 39313535     	strb	w21, [x9, #0xc4d]
     1c8: 5f787463     	sqshl	d3, d3, #0x38
     1cc: 6e676973     	<unknown>
     1d0: 6961665f     	ldpsw	xzr, x25, [x18, #-0xf8]
     1d4: 6465006c     	fmla	z12.h, z3.h, z5.h[4]
     1d8: 31353532     	adds	w18, w9, #0xd4d
     1dc: 78746339     	ldumaxlh	w20, w25, [x25]
     1e0: 6769735f     	<unknown>
     1e4: 70655f6e     	adr	x14, 0xcadd3 <.strtab+0xcadd3>
     1e8: 676f6c69     	<unknown>
     1ec: 65006575     	<unknown>
     1f0: 35353264     	cbnz	w4, 0x6a83c <.strtab+0x6a83c>
     1f4: 74633931     	<unknown>
     1f8: 65765f78     	fnmla	z24.h, p7/m, z27.h, z22.h
     1fc: 79666972     	ldrh	w18, [x11, #0x1334]
     200: 6961665f     	ldpsw	xzr, x25, [x18, #-0xf8]
     204: 6465006c     	fmla	z12.h, z3.h, z5.h[4]
     208: 31353532     	adds	w18, w9, #0xd4d
     20c: 78746339     	ldumaxlh	w20, w25, [x25]
     210: 7265765f     	<unknown>
     214: 5f796669     	<unknown>
     218: 6c697065     	ldnp	d5, d28, [x3, #-0x170]
     21c: 6575676f     	fnmls	z15.h, p1/m, z27.h, z21.h
     220: 32646500     	<unknown>
     224: 39313535     	strb	w21, [x9, #0xc4d]
     228: 735f6870     	<unknown>
     22c: 5f6e6769     	<unknown>
     230: 6c696166     	ldnp	d6, d24, [x11, #-0x170]
     234: 32646500     	<unknown>
     238: 39313535     	strb	w21, [x9, #0xc4d]
     23c: 735f6870     	<unknown>
     240: 5f6e6769     	<unknown>
     244: 6c697065     	ldnp	d5, d28, [x3, #-0x170]
     248: 6575676f     	fnmls	z15.h, p1/m, z27.h, z21.h
     24c: 32646500     	<unknown>
     250: 39313535     	strb	w21, [x9, #0xc4d]
     254: 765f6870     	<unknown>
     258: 66697265     	<unknown>
     25c: 61665f79     	<unknown>
     260: 65006c69     	<unknown>
     264: 35353264     	cbnz	w4, 0x6a8b0 <.strtab+0x6a8b0>
     268: 68703931     	<unknown>
     26c: 7265765f     	<unknown>
     270: 5f796669     	<unknown>
     274: 6c697065     	ldnp	d5, d28, [x3, #-0x170]
     278: 6575676f     	fnmls	z15.h, p1/m, z27.h, z21.h
     27c: 67696200     	<unknown>
     280: 5f6d756e     	sqshl	d14, d11, #0x2d
     284: 795f656c     	ldrh	w12, [x11, #0xfb2]
     288: 676e6f6c     	<unknown>
     28c: 62007265     	<unknown>
     290: 756e6769     	<unknown>
     294: 656c5f6d     	fnmla	z13.h, p7/m, z27.h, z12.h
     298: 6574785f     	fnmls	z31.h, p6/m, z2.h, z20.h
     29c: 62007473     	<unknown>
     2a0: 756e6769     	<unknown>
     2a4: 656c5f6d     	fnmla	z13.h, p7/m, z27.h, z12.h
     2a8: 616d785f     	<unknown>
     2ac: 6f6c6e69     	<unknown>
     2b0: 6200706f     	<unknown>
     2b4: 756e6769     	<unknown>
     2b8: 656c5f6d     	fnmla	z13.h, p7/m, z27.h, z12.h
     2bc: 6b73785f     	<unknown>
     2c0: 62007069     	<unknown>
     2c4: 756e6769     	<unknown>
     2c8: 656c5f6d     	fnmla	z13.h, p7/m, z27.h, z12.h
     2cc: 6f74785f     	fcmla	v31.8h, v2.8h, v20.h[3], #270
     2d0: 6f6f6c70     	<unknown>
     2d4: 69620070     	ldpsw	x16, x0, [x3, #-0xf0]
     2d8: 6d756e67     	ldp	d7, d27, [x19, #-0xb0]
     2dc: 5f656c5f     	<unknown>
     2e0: 706f7479     	adr	x25, 0xdf16f <.strtab+0xdf16f>
     2e4: 706f6f6c     	adr	x12, 0xdf0d3 <.strtab+0xdf0d3>
     2e8: 67696200     	<unknown>
     2ec: 5f6d756e     	sqshl	d14, d11, #0x2d
     2f0: 795f656c     	ldrh	w12, [x11, #0xfb2]
     2f4: 6e69616d     	rsubhn2	v13.8h, v11.4s, v9.4s
     2f8: 706f6f6c     	adr	x12, 0xdf0e7 <.strtab+0xdf0e7>
     2fc: 67696200     	<unknown>
     300: 5f6d756e     	sqshl	d14, d11, #0x2d
     304: 5f646f6d     	<unknown>
     308: 3535326e     	cbnz	w14, 0x6a954 <.strtab+0x6a954>
     30c: 735f3931     	<unknown>
     310: 74726f68     	<unknown>
     314: 67696200     	<unknown>
     318: 5f6d756e     	sqshl	d14, d11, #0x2d
     31c: 5f646f6d     	<unknown>
     320: 3535326e     	cbnz	w14, 0x6a96c <.strtab+0x6a96c>
     324: 775f3931     	<unknown>
     328: 65746972     	fnmls	z18.h, p2/m, z11.h, z20.h
     32c: 6b636162     	<unknown>
     330: 67696200     	<unknown>
     334: 5f6d756e     	sqshl	d14, d11, #0x2d
     338: 5f646f6d     	<unknown>
     33c: 3535326e     	cbnz	w14, 0x6a988 <.strtab+0x6a988>
     340: 6c5f3931     	ldnp	d17, d14, [x9, #0x1f0]
     344: 00706f6f     	<unknown>
     348: 61776465     	<unknown>
     34c: 32736472     	<unknown>
     350: 39313535     	strb	w21, [x9, #0xc4d]
     354: 6365645f     	<unknown>
     358: 5f65646f     	<unknown>
     35c: 5f746c61     	<unknown>
     360: 7271736e     	<unknown>
     364: 3532705f     	cbnz	wzr, 0x6516c <.strtab+0x6516c>
     368: 00393135     	<unknown>
     36c: 61776465     	<unknown>
     370: 32736472     	<unknown>
     374: 39313535     	strb	w21, [x9, #0xc4d]
     378: 6365645f     	<unknown>
     37c: 5f65646f     	<unknown>
     380: 5f746c61     	<unknown>
     384: 5f6c756d     	sqshl	d13, d11, #0x2c
     388: 35353270     	cbnz	w16, 0x6a9d4 <.strtab+0x6a9d4>
     38c: 65003931     	<unknown>
     390: 72617764     	<unknown>
     394: 35327364     	cbnz	w4, 0x65200 <.strtab+0x65200>
     398: 5f393135     	<unknown>
     39c: 6f636564     	sqshlu	v4.2d, v11.2d, #0x23
     3a0: 615f6564     	<unknown>
     3a4: 6c5f746c     	ldnp	d12, d29, [x3, #0x1f0]
     3a8: 00706f6f     	<unknown>
     3ac: 61776465     	<unknown>
     3b0: 32736472     	<unknown>
     3b4: 39313535     	strb	w21, [x9, #0xc4d]
     3b8: 6163735f     	<unknown>
     3bc: 6d72616c     	ldp	d12, d24, [x11, #-0xe0]
     3c0: 61626c75     	<unknown>
     3c4: 615f6573     	<unknown>
     3c8: 735f746c     	<unknown>
     3cc: 616c6163     	<unknown>
     3d0: 6f6f6c72     	<unknown>
     3d4: 64650070     	fmla	z16.h, z3.h, z5.h[4]
     3d8: 64726177     	<unknown>
     3dc: 35353273     	cbnz	w19, 0x6aa28 <.strtab+0x6aa28>
     3e0: 735f3931     	<unknown>
     3e4: 616c6163     	<unknown>
     3e8: 6c756d72     	ldnp	d18, d27, [x11, #-0xb0]
     3ec: 65736162     	fnmls	z2.h, p0/m, z11.h, z19.h
     3f0: 746c615f     	<unknown>
     3f4: 766e695f     	<unknown>
     3f8: 6c64696d     	ldnp	d13, d26, [x11, #-0x1c0]
     3fc: 00706f6f     	<unknown>
     400: 61776465     	<unknown>
     404: 32736472     	<unknown>
     408: 39313535     	strb	w21, [x9, #0xc4d]
     40c: 6163735f     	<unknown>
     410: 6d72616c     	ldp	d12, d24, [x11, #-0xe0]
     414: 61626c75     	<unknown>
     418: 615f6573     	<unknown>
     41c: 695f746c     	ldpsw	x12, x29, [x3, #0xf8]
     420: 6f6c766e     	uqshl	v14.2d, v19.2d, #0x2c
     424: 6500706f     	<unknown>
     428: 72617764     	<unknown>
     42c: 35327364     	cbnz	w4, 0x65298 <.strtab+0x65298>
     430: 5f393135     	<unknown>
     434: 6c616373     	ldnp	d19, d24, [x27, #-0x1f0]
     438: 756d7261     	<unknown>
     43c: 756f646c     	<unknown>
     440: 5f656c62     	<unknown>
     444: 5f746c61     	<unknown>
     448: 6f647065     	fcmla	v5.8h, v3.8h, v4.h[1], #270
     44c: 656c6275     	fnmls	z21.h, p0/m, z19.h, z12.h
     450: 77646500     	<unknown>
     454: 73647261     	<unknown>
     458: 31353532     	adds	w18, w9, #0xd4d
     45c: 63735f39     	<unknown>
     460: 72616c61     	<unknown>
     464: 646c756d     	<unknown>
     468: 6c62756f     	ldnp	d15, d29, [x11, #-0x1e0]
     46c: 6c615f65     	ldnp	d5, d23, [x27, #-0x1f0]
     470: 70655f74     	adr	x20, 0xcb05f <.strtab+0xcb05f>
     474: 00646461     	<unknown>
     478: 61776465     	<unknown>
     47c: 32736472     	<unknown>
     480: 39313535     	strb	w21, [x9, #0xc4d]
     484: 6163735f     	<unknown>
     488: 6d72616c     	ldp	d12, d24, [x11, #-0xe0]
     48c: 6f646c75     	<unknown>
     490: 656c6275     	fnmls	z21.h, p0/m, z19.h, z12.h
     494: 746c615f     	<unknown>
     498: 7065705f     	adr	xzr, 0xcb2a3 <.strtab+0xcb2a3>
     49c: 00646461     	<unknown>
     4a0: 61776465     	<unknown>
     4a4: 32736472     	<unknown>
     4a8: 39313535     	strb	w21, [x9, #0xc4d]
     4ac: 6163735f     	<unknown>
     4b0: 6d72616c     	ldp	d12, d24, [x11, #-0xe0]
     4b4: 6f646c75     	<unknown>
     4b8: 656c6275     	fnmls	z21.h, p0/m, z19.h, z12.h
     4bc: 746c615f     	<unknown>
     4c0: 6f6f6c5f     	<unknown>
     4c4: 64650070     	fmla	z16.h, z3.h, z5.h[4]
     4c8: 64726177     	<unknown>
     4cc: 35353273     	cbnz	w19, 0x6ab18 <.strtab+0x6ab18>
     4d0: 735f3931     	<unknown>
     4d4: 616c6163     	<unknown>
     4d8: 6c756d72     	ldnp	d18, d27, [x11, #-0xb0]
     4dc: 62756f64     	<unknown>
     4e0: 615f656c     	<unknown>
     4e4: 705f746c     	adr	x12, 0xbf373 <.strtab+0xbf373>
     4e8: 62756f64     	<unknown>
     4ec: 6500656c     	<unknown>
     4f0: 72617764     	<unknown>
     4f4: 35327364     	cbnz	w4, 0x65360 <.strtab+0x65360>
     4f8: 5f393135     	<unknown>
     4fc: 6c616373     	ldnp	d19, d24, [x27, #-0x1f0]
     500: 756d7261     	<unknown>
     504: 756f646c     	<unknown>
     508: 5f656c62     	<unknown>
     50c: 5f746c61     	<unknown>
     510: 6d766e69     	ldp	d9, d27, [x19, #-0xa0]
     514: 6f6c6469     	sqshlu	v9.2d, v3.2d, #0x2c
     518: 6500706f     	<unknown>
     51c: 72617764     	<unknown>
     520: 35327364     	cbnz	w4, 0x6538c <.strtab+0x6538c>
     524: 5f393135     	<unknown>
     528: 6c616373     	ldnp	d19, d24, [x27, #-0x1f0]
     52c: 756d7261     	<unknown>
     530: 756f646c     	<unknown>
     534: 5f656c62     	<unknown>
     538: 5f746c61     	<unknown>
     53c: 6c766e69     	ldnp	d9, d27, [x19, #-0xa0]
     540: 00706f6f     	<unknown>
     544: 5f67736d     	sqdmlsl	s13, h27, v7.h[2]
     548: 65686373     	fnmls	z19.h, p0/m, z27.h, z8.h
     54c: 656c7564     	fnmls	z4.h, p5/m, z11.h, z12.h
     550: 61687300     	<unknown>
     554: 5f323135     	<unknown>
     558: 636f7270     	<unknown>
     55c: 5f737365     	sqdmlsl	s5, h27, v3.h[3]
     560: 636f6c62     	<unknown>
     564: 6873006b     	<unknown>
     568: 32313561     	orr	w1, w11, #0x1fff8000
     56c: 6f72705f     	fcmla	v31.8h, v2.8h, v18.h[1], #270
     570: 73736563     	<unknown>
     574: 6f6c625f     	umlsl2	v31.4s, v18.8h, v12.h[2]
     578: 00736b63     	<unknown>
     57c: 65006424     	<unknown>
     580: 35353264     	cbnz	w4, 0x6abcc <.strtab+0x6abcc>
     584: 705f3931     	adr	x17, 0xbecab <.strtab+0xbecab>
     588: 696c6275     	ldpsw	x21, x24, [x19, #-0xa0]
     58c: 656b5f63     	fnmla	z3.h, p7/m, z27.h, z11.h
     590: 72665f79     	<unknown>
     594: 735f6d6f     	<unknown>
     598: 5f646565     	<unknown>
     59c: 5f6e3273     	sqdmlal	s19, h19, v14.h[2]
     5a0: 6e676962     	<unknown>
     5a4: 65006d75     	<unknown>
     5a8: 35353264     	cbnz	w4, 0x6abf4 <.strtab+0x6abf4>
     5ac: 735f3931     	<unknown>
     5b0: 5f6e6769     	<unknown>
     5b4: 735f6f6e     	<unknown>
     5b8: 5f666c65     	<unknown>
     5bc: 74736574     	<unknown>
     5c0: 6e32735f     	uabdl2	v31.8h, v26.16b, v18.16b
     5c4: 6769625f     	<unknown>
     5c8: 006d756e     	<unknown>
     5cc: 35326465     	cbnz	w5, 0x65258 <.strtab+0x65258>
     5d0: 5f393135     	<unknown>
     5d4: 69726576     	ldpsw	x22, x25, [x11, #-0x70]
     5d8: 6e5f7966     	<unknown>
     5dc: 65735f6f     	fnmla	z15.h, p7/m, z27.h, z19.h
     5e0: 745f666c     	<unknown>
     5e4: 5f747365     	sqdmlsl	s5, h27, v4.h[3]
     5e8: 5f6e3273     	sqdmlal	s19, h19, v14.h[2]
     5ec: 6e676962     	<unknown>
     5f0: 65006d75     	<unknown>
     5f4: 35353264     	cbnz	w4, 0x6ac40 <.strtab+0x6ac40>
     5f8: 74633931     	<unknown>
     5fc: 69735f78     	ldpsw	x24, x23, [x27, #-0x68]
     600: 6e5f6e67     	<unknown>
     604: 65735f6f     	fnmla	z15.h, p7/m, z27.h, z19.h
     608: 745f666c     	<unknown>
     60c: 5f747365     	sqdmlsl	s5, h27, v4.h[3]
     610: 5f6e3273     	sqdmlal	s19, h19, v14.h[2]
     614: 6e676962     	<unknown>
     618: 65006d75     	<unknown>
     61c: 35353264     	cbnz	w4, 0x6ac68 <.strtab+0x6ac68>
     620: 74633931     	<unknown>
     624: 65765f78     	fnmla	z24.h, p7/m, z27.h, z22.h
     628: 79666972     	ldrh	w18, [x11, #0x1334]
     62c: 5f6f6e5f     	<unknown>
     630: 666c6573     	<unknown>
     634: 7365745f     	<unknown>
     638: 32735f74     	<unknown>
     63c: 69625f6e     	ldpsw	x14, x23, [x27, #-0xf0]
     640: 6d756e67     	ldp	d7, d27, [x19, #-0xb0]
     644: 32646500     	<unknown>
     648: 39313535     	strb	w21, [x9, #0xc4d]
     64c: 735f6870     	<unknown>
     650: 5f6e6769     	<unknown>
     654: 735f6f6e     	<unknown>
     658: 5f666c65     	<unknown>
     65c: 74736574     	<unknown>
     660: 6e32735f     	uabdl2	v31.8h, v26.16b, v18.16b
     664: 6769625f     	<unknown>
     668: 006d756e     	<unknown>
     66c: 35326465     	cbnz	w5, 0x652f8 <.strtab+0x652f8>
     670: 70393135     	adr	x21, 0x72c97 <.strtab+0x72c97>
     674: 65765f68     	fnmla	z8.h, p7/m, z27.h, z22.h
     678: 79666972     	ldrh	w18, [x11, #0x1334]
     67c: 5f6f6e5f     	<unknown>
     680: 666c6573     	<unknown>
     684: 7365745f     	<unknown>
     688: 32735f74     	<unknown>
     68c: 69625f6e     	ldpsw	x14, x23, [x27, #-0xf0]
     690: 6d756e67     	ldp	d7, d27, [x19, #-0xb0]
     694: 77646500     	<unknown>
     698: 73647261     	<unknown>
     69c: 31353532     	adds	w18, w9, #0xd4d
     6a0: 63735f39     	<unknown>
     6a4: 72616c61     	<unknown>
     6a8: 626c756d     	<unknown>
     6ac: 5f657361     	sqdmlsl	s1, h27, v5.h[2]
     6b0: 5f746c61     	<unknown>
     6b4: 736e6f63     	<unknown>
     6b8: 746e6174     	<unknown>
     6bc: 77646500     	<unknown>
     6c0: 73647261     	<unknown>
     6c4: 31353532     	adds	w18, w9, #0xd4d
     6c8: 63735f39     	<unknown>
     6cc: 72616c61     	<unknown>
     6d0: 646c756d     	<unknown>
     6d4: 6c62756f     	ldnp	d15, d29, [x11, #-0x1e0]
     6d8: 6c615f65     	ldnp	d5, d23, [x27, #-0x1f0]
     6dc: 6f635f74     	<unknown>
     6e0: 6174736e     	<unknown>
     6e4: 4b00746e     	sub	w14, w3, w0, lsl #29
     6e8: 00           	<unknown>

Disassembly of section .shstrtab:

0000000000000000 <.shstrtab>:
       0: 79732e00     	ldrh	w0, [x16, #0x1996]
       4: 6261746d     	<unknown>
       8: 74732e00     	<unknown>
       c: 62617472     	<unknown>
      10: 68732e00     	<unknown>
      14: 74727473     	<unknown>
      18: 2e006261     	<unknown>
      1c: 616c6572     	<unknown>
      20: 7865742e     	<unknown>
      24: 642e0074     	fmla	z20.h, z3.h, z6.h[1]
      28: 00617461     	<unknown>
      2c: 7373622e     	<unknown>
      30: 6f6e2e00     	<unknown>
      34: 472e6574     	<unknown>
      38: 732d554e     	<unknown>
      3c: 6b636174     	<unknown>
      40: 6f722e00     	<unknown>
      44: 61746164     	<unknown>
      48: 65722e00     	fmls	z0.h, p3/m, z16.h, z18.h
      4c: 652e616c     	<unknown>
      50: 72665f68     	<unknown>
      54: 00656d61     	<unknown>
