
ed25519.o:     file format elf64-littleaarch64


Disassembly of section .text:

0000000000000000 <ed25519_public_key_from_seed_s2n_bignum>:
       0:	a9a953f3 	stp	x19, x20, [sp, #-368]!
       4:	f9000bfe 	str	x30, [sp, #16]
       8:	aa0003f3 	mov	x19, x0
       c:	aa0103f4 	mov	x20, x1
      10:	910063e0 	add	x0, sp, #0x18
      14:	9400244e 	bl	914c <sha512_init>
      18:	910063e0 	add	x0, sp, #0x18
      1c:	aa1403e1 	mov	x1, x20
      20:	d2800402 	mov	x2, #0x20                  	// #32
      24:	94002472 	bl	91ec <sha512_update>
      28:	9103c3e0 	add	x0, sp, #0xf0
      2c:	910063e1 	add	x1, sp, #0x18
      30:	940024a9 	bl	92d4 <sha512_final>
      34:	3943c3e0 	ldrb	w0, [sp, #240]
      38:	121d1000 	and	w0, w0, #0xf8
      3c:	3903c3e0 	strb	w0, [sp, #240]
      40:	39443fe0 	ldrb	w0, [sp, #271]
      44:	12001800 	and	w0, w0, #0x7f
      48:	321a0000 	orr	w0, w0, #0x40
      4c:	39043fe0 	strb	w0, [sp, #271]
      50:	9104c3e0 	add	x0, sp, #0x130
      54:	9103c3e1 	add	x1, sp, #0xf0
      58:	94000000 	bl	13f0 <edwards25519_scalarmulbase_alt>
      5c:	aa1303e0 	mov	x0, x19
      60:	9104c3e1 	add	x1, sp, #0x130
      64:	94000000 	bl	12e8 <edwards25519_encode>
      68:	f9400bfe 	ldr	x30, [sp, #16]
      6c:	a8d753f3 	ldp	x19, x20, [sp], #368
      70:	d65f03c0 	ret

0000000000000074 <ed25519_sign_common>:
      74:	d10843ff 	sub	sp, sp, #0x210
      78:	a90053f3 	stp	x19, x20, [sp]
      7c:	a9015bf5 	stp	x21, x22, [sp, #16]
      80:	a90263f7 	stp	x23, x24, [sp, #32]
      84:	f9001bfe 	str	x30, [sp, #48]
      88:	aa0003f3 	mov	x19, x0
      8c:	aa0103f4 	mov	x20, x1
      90:	aa0203f5 	mov	x21, x2
      94:	aa0303f6 	mov	x22, x3
      98:	aa0403f7 	mov	x23, x4
      9c:	aa0503f8 	mov	x24, x5
      a0:	9100e3e0 	add	x0, sp, #0x38
      a4:	9400242a 	bl	914c <sha512_init>
      a8:	9100e3e0 	add	x0, sp, #0x38
      ac:	aa1603e1 	mov	x1, x22
      b0:	d2800402 	mov	x2, #0x20                  	// #32
      b4:	9400244e 	bl	91ec <sha512_update>
      b8:	910443e0 	add	x0, sp, #0x110
      bc:	9100e3e1 	add	x1, sp, #0x38
      c0:	94002485 	bl	92d4 <sha512_final>
      c4:	394443e0 	ldrb	w0, [sp, #272]
      c8:	121d1000 	and	w0, w0, #0xf8
      cc:	390443e0 	strb	w0, [sp, #272]
      d0:	3944bfe0 	ldrb	w0, [sp, #303]
      d4:	12001800 	and	w0, w0, #0x7f
      d8:	321a0000 	orr	w0, w0, #0x40
      dc:	3904bfe0 	strb	w0, [sp, #303]
      e0:	9100e3e0 	add	x0, sp, #0x38
      e4:	9400241a 	bl	914c <sha512_init>
      e8:	b40000b8 	cbz	x24, fc <ed25519_sign_common_pure>
      ec:	9100e3e0 	add	x0, sp, #0x38
      f0:	aa1703e1 	mov	x1, x23
      f4:	aa1803e2 	mov	x2, x24
      f8:	9400243d 	bl	91ec <sha512_update>

00000000000000fc <ed25519_sign_common_pure>:
      fc:	9100e3e0 	add	x0, sp, #0x38
     100:	9104c3e1 	add	x1, sp, #0x130
     104:	d2800402 	mov	x2, #0x20                  	// #32
     108:	94002439 	bl	91ec <sha512_update>
     10c:	9100e3e0 	add	x0, sp, #0x38
     110:	aa1403e1 	mov	x1, x20
     114:	aa1503e2 	mov	x2, x21
     118:	94002435 	bl	91ec <sha512_update>
     11c:	910543e0 	add	x0, sp, #0x150
     120:	9100e3e1 	add	x1, sp, #0x38
     124:	9400246c 	bl	92d4 <sha512_final>
     128:	910543e0 	add	x0, sp, #0x150
     12c:	d2800101 	mov	x1, #0x8                   	// #8
     130:	aa0003e2 	mov	x2, x0
     134:	94000000 	bl	9b8 <bignum_mod_n25519>
     138:	910643e0 	add	x0, sp, #0x190
     13c:	910543e1 	add	x1, sp, #0x150
     140:	94000000 	bl	13f0 <edwards25519_scalarmulbase_alt>
     144:	aa1303e0 	mov	x0, x19
     148:	910643e1 	add	x1, sp, #0x190
     14c:	94000000 	bl	12e8 <edwards25519_encode>
     150:	9100e3e0 	add	x0, sp, #0x38
     154:	940023fe 	bl	914c <sha512_init>
     158:	b40000b8 	cbz	x24, 16c <ed25519_sign_common_pure2>
     15c:	9100e3e0 	add	x0, sp, #0x38
     160:	aa1703e1 	mov	x1, x23
     164:	aa1803e2 	mov	x2, x24
     168:	94002421 	bl	91ec <sha512_update>

000000000000016c <ed25519_sign_common_pure2>:
     16c:	9100e3e0 	add	x0, sp, #0x38
     170:	aa1303e1 	mov	x1, x19
     174:	d2800402 	mov	x2, #0x20                  	// #32
     178:	9400241d 	bl	91ec <sha512_update>
     17c:	9100e3e0 	add	x0, sp, #0x38
     180:	910082c1 	add	x1, x22, #0x20
     184:	d2800402 	mov	x2, #0x20                  	// #32
     188:	94002419 	bl	91ec <sha512_update>
     18c:	9100e3e0 	add	x0, sp, #0x38
     190:	aa1403e1 	mov	x1, x20
     194:	aa1503e2 	mov	x2, x21
     198:	94002415 	bl	91ec <sha512_update>
     19c:	910743e0 	add	x0, sp, #0x1d0
     1a0:	9100e3e1 	add	x1, sp, #0x38
     1a4:	9400244c 	bl	92d4 <sha512_final>
     1a8:	910743e0 	add	x0, sp, #0x1d0
     1ac:	d2800101 	mov	x1, #0x8                   	// #8
     1b0:	aa0003e2 	mov	x2, x0
     1b4:	94000000 	bl	9b8 <bignum_mod_n25519>
     1b8:	91008260 	add	x0, x19, #0x20
     1bc:	910743e1 	add	x1, sp, #0x1d0
     1c0:	910443e2 	add	x2, sp, #0x110
     1c4:	910543e3 	add	x3, sp, #0x150
     1c8:	94000000 	bl	6ac <bignum_madd_n25519_alt>
     1cc:	a94053f3 	ldp	x19, x20, [sp]
     1d0:	a9415bf5 	ldp	x21, x22, [sp, #16]
     1d4:	a94263f7 	ldp	x23, x24, [sp, #32]
     1d8:	f9401bfe 	ldr	x30, [sp, #48]
     1dc:	910843ff 	add	sp, sp, #0x210
     1e0:	d65f03c0 	ret

00000000000001e4 <ed25519_verify_common>:
     1e4:	d10843ff 	sub	sp, sp, #0x210
     1e8:	a90053f3 	stp	x19, x20, [sp]
     1ec:	a9015bf5 	stp	x21, x22, [sp, #16]
     1f0:	a90263f7 	stp	x23, x24, [sp, #32]
     1f4:	f9001bfe 	str	x30, [sp, #48]
     1f8:	aa0003f3 	mov	x19, x0
     1fc:	aa0103f4 	mov	x20, x1
     200:	aa0203f5 	mov	x21, x2
     204:	aa0303f6 	mov	x22, x3
     208:	aa0403f7 	mov	x23, x4
     20c:	aa0503f8 	mov	x24, x5
     210:	d29a7da0 	mov	x0, #0xd3ed                	// #54253
     214:	f2ab9ea0 	movk	x0, #0x5cf5, lsl #16
     218:	f2cc6340 	movk	x0, #0x631a, lsl #32
     21c:	f2eb0240 	movk	x0, #0x5812, lsl #48
     220:	d2939ac1 	mov	x1, #0x9cd6                	// #40150
     224:	f2b45ee1 	movk	x1, #0xa2f7, lsl #16
     228:	f2df3bc1 	movk	x1, #0xf9de, lsl #32
     22c:	f2e29bc1 	movk	x1, #0x14de, lsl #48
     230:	a90387e0 	stp	x0, x1, [sp, #56]
     234:	aa1f03e0 	mov	x0, xzr
     238:	d2800021 	mov	x1, #0x1                   	// #1
     23c:	d3410021 	lsl	x1, x1, #63
     240:	a90487e0 	stp	x0, x1, [sp, #72]
     244:	d2800080 	mov	x0, #0x4                   	// #4
     248:	9100e3e1 	add	x1, sp, #0x38
     24c:	d2800082 	mov	x2, #0x4                   	// #4
     250:	910082a3 	add	x3, x21, #0x20
     254:	94000000 	bl	624 <bignum_le>
     258:	b5000720 	cbnz	x0, 33c <ed25519_verify_common_fail>
     25c:	910163e0 	add	x0, sp, #0x58
     260:	aa1603e1 	mov	x1, x22
     264:	94000000 	bl	b38 <edwards25519_decode_alt>
     268:	b50006a0 	cbnz	x0, 33c <ed25519_verify_common_fail>
     26c:	910263e0 	add	x0, sp, #0x98
     270:	940023b7 	bl	914c <sha512_init>
     274:	b40000b8 	cbz	x24, 288 <ed25519_verify_common_pure>
     278:	910263e0 	add	x0, sp, #0x98
     27c:	aa1703e1 	mov	x1, x23
     280:	aa1803e2 	mov	x2, x24
     284:	940023da 	bl	91ec <sha512_update>

0000000000000288 <ed25519_verify_common_pure>:
     288:	910263e0 	add	x0, sp, #0x98
     28c:	aa1503e1 	mov	x1, x21
     290:	d2800402 	mov	x2, #0x20                  	// #32
     294:	940023d6 	bl	91ec <sha512_update>
     298:	910263e0 	add	x0, sp, #0x98
     29c:	aa1603e1 	mov	x1, x22
     2a0:	d2800402 	mov	x2, #0x20                  	// #32
     2a4:	940023d2 	bl	91ec <sha512_update>
     2a8:	910263e0 	add	x0, sp, #0x98
     2ac:	aa1303e1 	mov	x1, x19
     2b0:	aa1403e2 	mov	x2, x20
     2b4:	940023ce 	bl	91ec <sha512_update>
     2b8:	9105c3e0 	add	x0, sp, #0x170
     2bc:	910263e1 	add	x1, sp, #0x98
     2c0:	94002405 	bl	92d4 <sha512_final>
     2c4:	910163e0 	add	x0, sp, #0x58
     2c8:	aa0003e1 	mov	x1, x0
     2cc:	94000000 	bl	ae8 <bignum_neg_p25519>
     2d0:	9105c3e0 	add	x0, sp, #0x170
     2d4:	d2800101 	mov	x1, #0x8                   	// #8
     2d8:	aa0003e2 	mov	x2, x0
     2dc:	94000000 	bl	9b8 <bignum_mod_n25519>
     2e0:	9106c3e0 	add	x0, sp, #0x1b0
     2e4:	9105c3e1 	add	x1, sp, #0x170
     2e8:	910163e2 	add	x2, sp, #0x58
     2ec:	910082a3 	add	x3, x21, #0x20
     2f0:	94000000 	bl	3810 <edwards25519_scalarmuldouble_alt>
     2f4:	9107c3e0 	add	x0, sp, #0x1f0
     2f8:	9106c3e1 	add	x1, sp, #0x1b0
     2fc:	94000000 	bl	12e8 <edwards25519_encode>
     300:	a95f07e0 	ldp	x0, x1, [sp, #496]
     304:	a9400ea2 	ldp	x2, x3, [x21]
     308:	eb02001f 	cmp	x0, x2
     30c:	54000181 	b.ne	33c <ed25519_verify_common_fail>  // b.any
     310:	eb03003f 	cmp	x1, x3
     314:	54000141 	b.ne	33c <ed25519_verify_common_fail>  // b.any
     318:	910803e4 	add	x4, sp, #0x200
     31c:	a9400480 	ldp	x0, x1, [x4]
     320:	a9410ea2 	ldp	x2, x3, [x21, #16]
     324:	eb02001f 	cmp	x0, x2
     328:	540000a1 	b.ne	33c <ed25519_verify_common_fail>  // b.any
     32c:	eb03003f 	cmp	x1, x3
     330:	54000061 	b.ne	33c <ed25519_verify_common_fail>  // b.any
     334:	d2800020 	mov	x0, #0x1                   	// #1
     338:	14000002 	b	340 <ed25519_verify_common_epilogue>

000000000000033c <ed25519_verify_common_fail>:
     33c:	aa1f03e0 	mov	x0, xzr

0000000000000340 <ed25519_verify_common_epilogue>:
     340:	a94053f3 	ldp	x19, x20, [sp]
     344:	a9415bf5 	ldp	x21, x22, [sp, #16]
     348:	a94263f7 	ldp	x23, x24, [sp, #32]
     34c:	f9401bfe 	ldr	x30, [sp, #48]
     350:	910843ff 	add	sp, sp, #0x210
     354:	d65f03c0 	ret

0000000000000358 <ed25519_sign_no_self_test_s2n_bignum>:
     358:	a9bf7bfd 	stp	x29, x30, [sp, #-16]!
     35c:	aa1f03e4 	mov	x4, xzr
     360:	aa1f03e5 	mov	x5, xzr
     364:	97ffff44 	bl	74 <ed25519_sign_common>
     368:	d2800020 	mov	x0, #0x1                   	// #1
     36c:	a8c17bfd 	ldp	x29, x30, [sp], #16
     370:	d65f03c0 	ret

0000000000000374 <ed25519_verify_no_self_test_s2n_bignum>:
     374:	a9bf7bfd 	stp	x29, x30, [sp, #-16]!
     378:	aa1f03e4 	mov	x4, xzr
     37c:	aa1f03e5 	mov	x5, xzr
     380:	97ffff99 	bl	1e4 <ed25519_verify_common>
     384:	a8c17bfd 	ldp	x29, x30, [sp], #16
     388:	d65f03c0 	ret

000000000000038c <dom2_common>:
     38c:	d28d2a64 	mov	x4, #0x6953                	// #26963
     390:	f2a8ace4 	movk	x4, #0x4567, lsl #16
     394:	f2c64c84 	movk	x4, #0x3264, lsl #32
     398:	f2e6a6a4 	movk	x4, #0x3535, lsl #48
     39c:	d2872625 	mov	x5, #0x3931                	// #14641
     3a0:	f2adc405 	movk	x5, #0x6e20, lsl #16
     3a4:	f2c40de5 	movk	x5, #0x206f, lsl #32
     3a8:	f2ec88a5 	movk	x5, #0x6445, lsl #48
     3ac:	a9001404 	stp	x4, x5, [x0]
     3b0:	d286a644 	mov	x4, #0x3532                	// #13618
     3b4:	f2a626a4 	movk	x4, #0x3135, lsl #16
     3b8:	f2c40724 	movk	x4, #0x2039, lsl #32
     3bc:	f2edec64 	movk	x4, #0x6f63, lsl #48
     3c0:	d28d8d85 	mov	x5, #0x6c6c                	// #27756
     3c4:	f2ae6d25 	movk	x5, #0x7369, lsl #16
     3c8:	f2cded25 	movk	x5, #0x6f69, lsl #32
     3cc:	f2ee6dc5 	movk	x5, #0x736e, lsl #48
     3d0:	a9011404 	stp	x4, x5, [x0, #16]
     3d4:	39008001 	strb	w1, [x0, #32]
     3d8:	39008403 	strb	w3, [x0, #33]
     3dc:	91008804 	add	x4, x0, #0x22
     3e0:	aa1f03e5 	mov	x5, xzr
     3e4:	14000004 	b	3f4 <dom2_common_loop>

00000000000003e8 <dom2_common_loop_body>:
     3e8:	38656846 	ldrb	w6, [x2, x5]
     3ec:	38256886 	strb	w6, [x4, x5]
     3f0:	910004a5 	add	x5, x5, #0x1

00000000000003f4 <dom2_common_loop>:
     3f4:	eb05007f 	cmp	x3, x5
     3f8:	54ffff81 	b.ne	3e8 <dom2_common_loop_body>  // b.any
     3fc:	91008860 	add	x0, x3, #0x22
     400:	d65f03c0 	ret

0000000000000404 <ed25519ctx_sign_no_self_test_s2n_bignum>:
     404:	a9ab53f3 	stp	x19, x20, [sp, #-336]!
     408:	a9015bf5 	stp	x21, x22, [sp, #16]
     40c:	f90013fe 	str	x30, [sp, #32]
     410:	aa0003f3 	mov	x19, x0
     414:	aa0103f4 	mov	x20, x1
     418:	aa0203f5 	mov	x21, x2
     41c:	aa0303f6 	mov	x22, x3
     420:	b4000225 	cbz	x5, 464 <ed25519ctx_sign_fail>
     424:	f103fcbf 	cmp	x5, #0xff
     428:	540001e8 	b.hi	464 <ed25519ctx_sign_fail>  // b.pmore
     42c:	9100a3e0 	add	x0, sp, #0x28
     430:	aa1f03e1 	mov	x1, xzr
     434:	aa0403e2 	mov	x2, x4
     438:	aa0503e3 	mov	x3, x5
     43c:	97ffffd4 	bl	38c <dom2_common>
     440:	aa0003e5 	mov	x5, x0
     444:	aa1303e0 	mov	x0, x19
     448:	aa1403e1 	mov	x1, x20
     44c:	aa1503e2 	mov	x2, x21
     450:	aa1603e3 	mov	x3, x22
     454:	9100a3e4 	add	x4, sp, #0x28
     458:	97ffff07 	bl	74 <ed25519_sign_common>
     45c:	d2800020 	mov	x0, #0x1                   	// #1
     460:	14000002 	b	468 <ed25519ctx_sign_epilogue>

0000000000000464 <ed25519ctx_sign_fail>:
     464:	aa1f03e0 	mov	x0, xzr

0000000000000468 <ed25519ctx_sign_epilogue>:
     468:	a9415bf5 	ldp	x21, x22, [sp, #16]
     46c:	f94013fe 	ldr	x30, [sp, #32]
     470:	a8d553f3 	ldp	x19, x20, [sp], #336
     474:	d65f03c0 	ret

0000000000000478 <ed25519ctx_verify_no_self_test_s2n_bignum>:
     478:	a9ab53f3 	stp	x19, x20, [sp, #-336]!
     47c:	a9015bf5 	stp	x21, x22, [sp, #16]
     480:	f90013fe 	str	x30, [sp, #32]
     484:	aa0003f3 	mov	x19, x0
     488:	aa0103f4 	mov	x20, x1
     48c:	aa0203f5 	mov	x21, x2
     490:	aa0303f6 	mov	x22, x3
     494:	b4000205 	cbz	x5, 4d4 <ed25519ctx_verify_fail>
     498:	f103fcbf 	cmp	x5, #0xff
     49c:	540001c8 	b.hi	4d4 <ed25519ctx_verify_fail>  // b.pmore
     4a0:	9100a3e0 	add	x0, sp, #0x28
     4a4:	aa1f03e1 	mov	x1, xzr
     4a8:	aa0403e2 	mov	x2, x4
     4ac:	aa0503e3 	mov	x3, x5
     4b0:	97ffffb7 	bl	38c <dom2_common>
     4b4:	aa0003e5 	mov	x5, x0
     4b8:	aa1303e0 	mov	x0, x19
     4bc:	aa1403e1 	mov	x1, x20
     4c0:	aa1503e2 	mov	x2, x21
     4c4:	aa1603e3 	mov	x3, x22
     4c8:	9100a3e4 	add	x4, sp, #0x28
     4cc:	97ffff46 	bl	1e4 <ed25519_verify_common>
     4d0:	14000002 	b	4d8 <ed25519ctx_verify_epilogue>

00000000000004d4 <ed25519ctx_verify_fail>:
     4d4:	aa1f03e0 	mov	x0, xzr

00000000000004d8 <ed25519ctx_verify_epilogue>:
     4d8:	a9415bf5 	ldp	x21, x22, [sp, #16]
     4dc:	f94013fe 	ldr	x30, [sp, #32]
     4e0:	a8d553f3 	ldp	x19, x20, [sp], #336
     4e4:	d65f03c0 	ret

00000000000004e8 <ed25519ph_sign_no_self_test_s2n_bignum>:
     4e8:	d109c3ff 	sub	sp, sp, #0x270
     4ec:	a90053f3 	stp	x19, x20, [sp]
     4f0:	a9015bf5 	stp	x21, x22, [sp, #16]
     4f4:	f90013fe 	str	x30, [sp, #32]
     4f8:	aa0003f3 	mov	x19, x0
     4fc:	aa0103f4 	mov	x20, x1
     500:	aa0203f5 	mov	x21, x2
     504:	aa0303f6 	mov	x22, x3
     508:	f103fcbf 	cmp	x5, #0xff
     50c:	54000328 	b.hi	570 <ed25519ph_sign_fail>  // b.pmore
     510:	9100a3e0 	add	x0, sp, #0x28
     514:	d2800021 	mov	x1, #0x1                   	// #1
     518:	aa0403e2 	mov	x2, x4
     51c:	aa0503e3 	mov	x3, x5
     520:	97ffff9b 	bl	38c <dom2_common>
     524:	f900abe0 	str	x0, [sp, #336]
     528:	910563e0 	add	x0, sp, #0x158
     52c:	94002308 	bl	914c <sha512_init>
     530:	910563e0 	add	x0, sp, #0x158
     534:	aa1403e1 	mov	x1, x20
     538:	aa1503e2 	mov	x2, x21
     53c:	9400232c 	bl	91ec <sha512_update>
     540:	9108c3e0 	add	x0, sp, #0x230
     544:	910563e1 	add	x1, sp, #0x158
     548:	94002363 	bl	92d4 <sha512_final>
     54c:	aa1303e0 	mov	x0, x19
     550:	9108c3e1 	add	x1, sp, #0x230
     554:	d2800802 	mov	x2, #0x40                  	// #64
     558:	aa1603e3 	mov	x3, x22
     55c:	9100a3e4 	add	x4, sp, #0x28
     560:	f940abe5 	ldr	x5, [sp, #336]
     564:	97fffec4 	bl	74 <ed25519_sign_common>
     568:	d2800020 	mov	x0, #0x1                   	// #1
     56c:	14000002 	b	574 <ed25519ph_sign_epilogue>

0000000000000570 <ed25519ph_sign_fail>:
     570:	aa1f03e0 	mov	x0, xzr

0000000000000574 <ed25519ph_sign_epilogue>:
     574:	a94053f3 	ldp	x19, x20, [sp]
     578:	a9415bf5 	ldp	x21, x22, [sp, #16]
     57c:	f94013fe 	ldr	x30, [sp, #32]
     580:	9109c3ff 	add	sp, sp, #0x270
     584:	d65f03c0 	ret

0000000000000588 <ed25519ph_verify_no_self_test_s2n_bignum>:
     588:	d109c3ff 	sub	sp, sp, #0x270
     58c:	a90053f3 	stp	x19, x20, [sp]
     590:	a9015bf5 	stp	x21, x22, [sp, #16]
     594:	f90013fe 	str	x30, [sp, #32]
     598:	aa0003f3 	mov	x19, x0
     59c:	aa0103f4 	mov	x20, x1
     5a0:	aa0203f5 	mov	x21, x2
     5a4:	aa0303f6 	mov	x22, x3
     5a8:	f103fcbf 	cmp	x5, #0xff
     5ac:	54000308 	b.hi	60c <ed25519ph_verify_fail>  // b.pmore
     5b0:	9100a3e0 	add	x0, sp, #0x28
     5b4:	d2800021 	mov	x1, #0x1                   	// #1
     5b8:	aa0403e2 	mov	x2, x4
     5bc:	aa0503e3 	mov	x3, x5
     5c0:	97ffff73 	bl	38c <dom2_common>
     5c4:	f900abe0 	str	x0, [sp, #336]
     5c8:	910563e0 	add	x0, sp, #0x158
     5cc:	940022e0 	bl	914c <sha512_init>
     5d0:	910563e0 	add	x0, sp, #0x158
     5d4:	aa1303e1 	mov	x1, x19
     5d8:	aa1403e2 	mov	x2, x20
     5dc:	94002304 	bl	91ec <sha512_update>
     5e0:	9108c3e0 	add	x0, sp, #0x230
     5e4:	910563e1 	add	x1, sp, #0x158
     5e8:	9400233b 	bl	92d4 <sha512_final>
     5ec:	9108c3e0 	add	x0, sp, #0x230
     5f0:	d2800801 	mov	x1, #0x40                  	// #64
     5f4:	aa1503e2 	mov	x2, x21
     5f8:	aa1603e3 	mov	x3, x22
     5fc:	9100a3e4 	add	x4, sp, #0x28
     600:	f940abe5 	ldr	x5, [sp, #336]
     604:	97fffef8 	bl	1e4 <ed25519_verify_common>
     608:	14000002 	b	610 <ed25519ph_verify_epilogue>

000000000000060c <ed25519ph_verify_fail>:
     60c:	aa1f03e0 	mov	x0, xzr

0000000000000610 <ed25519ph_verify_epilogue>:
     610:	a94053f3 	ldp	x19, x20, [sp]
     614:	a9415bf5 	ldp	x21, x22, [sp, #16]
     618:	f94013fe 	ldr	x30, [sp, #32]
     61c:	9109c3ff 	add	sp, sp, #0x270
     620:	d65f03c0 	ret

0000000000000624 <bignum_le>:
     624:	aa1f03e4 	mov	x4, xzr
     628:	eb000042 	subs	x2, x2, x0
     62c:	54000203 	b.cc	66c <bignum_le_ylonger>  // b.lo, b.ul, b.last
     630:	b40000e0 	cbz	x0, 64c <bignum_le_xtest>

0000000000000634 <bignum_le_xmainloop>:
     634:	f8647865 	ldr	x5, [x3, x4, lsl #3]
     638:	f8647826 	ldr	x6, [x1, x4, lsl #3]
     63c:	fa0600bf 	sbcs	xzr, x5, x6
     640:	91000484 	add	x4, x4, #0x1
     644:	d1000400 	sub	x0, x0, #0x1
     648:	b5ffff60 	cbnz	x0, 634 <bignum_le_xmainloop>

000000000000064c <bignum_le_xtest>:
     64c:	b40000c2 	cbz	x2, 664 <bignum_le_xskip>

0000000000000650 <bignum_le_xtoploop>:
     650:	f8647865 	ldr	x5, [x3, x4, lsl #3]
     654:	fa1f00bf 	sbcs	xzr, x5, xzr
     658:	91000484 	add	x4, x4, #0x1
     65c:	d1000442 	sub	x2, x2, #0x1
     660:	b5ffff82 	cbnz	x2, 650 <bignum_le_xtoploop>

0000000000000664 <bignum_le_xskip>:
     664:	9a9f37e0 	cset	x0, cs	// cs = hs, nlast
     668:	d65f03c0 	ret

000000000000066c <bignum_le_ylonger>:
     66c:	ab000042 	adds	x2, x2, x0
     670:	b4000102 	cbz	x2, 690 <bignum_le_ytoploop>
     674:	cb020000 	sub	x0, x0, x2

0000000000000678 <bignum_le_ymainloop>:
     678:	f8647865 	ldr	x5, [x3, x4, lsl #3]
     67c:	f8647826 	ldr	x6, [x1, x4, lsl #3]
     680:	fa0600bf 	sbcs	xzr, x5, x6
     684:	91000484 	add	x4, x4, #0x1
     688:	d1000442 	sub	x2, x2, #0x1
     68c:	b5ffff62 	cbnz	x2, 678 <bignum_le_ymainloop>

0000000000000690 <bignum_le_ytoploop>:
     690:	f8647825 	ldr	x5, [x1, x4, lsl #3]
     694:	fa0503ff 	ngcs	xzr, x5
     698:	91000484 	add	x4, x4, #0x1
     69c:	d1000400 	sub	x0, x0, #0x1
     6a0:	b5ffff80 	cbnz	x0, 690 <bignum_le_ytoploop>
     6a4:	9a9f37e0 	cset	x0, cs	// cs = hs, nlast
     6a8:	d65f03c0 	ret

00000000000006ac <bignum_madd_n25519_alt>:
     6ac:	a9bf53f3 	stp	x19, x20, [sp, #-16]!
     6b0:	aa0003f3 	mov	x19, x0
     6b4:	a940382d 	ldp	x13, x14, [x1]
     6b8:	a9400047 	ldp	x7, x0, [x2]
     6bc:	9b077da8 	mul	x8, x13, x7
     6c0:	9bc77da9 	umulh	x9, x13, x7
     6c4:	9b007db0 	mul	x16, x13, x0
     6c8:	9bc07daa 	umulh	x10, x13, x0
     6cc:	ab100129 	adds	x9, x9, x16
     6d0:	a9411444 	ldp	x4, x5, [x2, #16]
     6d4:	9b047db0 	mul	x16, x13, x4
     6d8:	9bc47dab 	umulh	x11, x13, x4
     6dc:	ba10014a 	adcs	x10, x10, x16
     6e0:	9b057db0 	mul	x16, x13, x5
     6e4:	9bc57dac 	umulh	x12, x13, x5
     6e8:	ba10016b 	adcs	x11, x11, x16
     6ec:	9a1f018c 	adc	x12, x12, xzr
     6f0:	a940186f 	ldp	x15, x6, [x3]
     6f4:	ab0f0108 	adds	x8, x8, x15
     6f8:	ba060129 	adcs	x9, x9, x6
     6fc:	a941186f 	ldp	x15, x6, [x3, #16]
     700:	ba0f014a 	adcs	x10, x10, x15
     704:	ba06016b 	adcs	x11, x11, x6
     708:	9a1f018c 	adc	x12, x12, xzr
     70c:	a941182f 	ldp	x15, x6, [x1, #16]
     710:	9b077dd0 	mul	x16, x14, x7
     714:	ab100129 	adds	x9, x9, x16
     718:	9b007dd0 	mul	x16, x14, x0
     71c:	ba10014a 	adcs	x10, x10, x16
     720:	9b047dd0 	mul	x16, x14, x4
     724:	ba10016b 	adcs	x11, x11, x16
     728:	9b057dd0 	mul	x16, x14, x5
     72c:	ba10018c 	adcs	x12, x12, x16
     730:	9bc57dcd 	umulh	x13, x14, x5
     734:	9a1f01ad 	adc	x13, x13, xzr
     738:	9bc77dd0 	umulh	x16, x14, x7
     73c:	ab10014a 	adds	x10, x10, x16
     740:	9bc07dd0 	umulh	x16, x14, x0
     744:	ba10016b 	adcs	x11, x11, x16
     748:	9bc47dd0 	umulh	x16, x14, x4
     74c:	ba10018c 	adcs	x12, x12, x16
     750:	9a1f01ad 	adc	x13, x13, xzr
     754:	9b077df0 	mul	x16, x15, x7
     758:	ab10014a 	adds	x10, x10, x16
     75c:	9b007df0 	mul	x16, x15, x0
     760:	ba10016b 	adcs	x11, x11, x16
     764:	9b047df0 	mul	x16, x15, x4
     768:	ba10018c 	adcs	x12, x12, x16
     76c:	9b057df0 	mul	x16, x15, x5
     770:	ba1001ad 	adcs	x13, x13, x16
     774:	9bc57dee 	umulh	x14, x15, x5
     778:	9a1f01ce 	adc	x14, x14, xzr
     77c:	9bc77df0 	umulh	x16, x15, x7
     780:	ab10016b 	adds	x11, x11, x16
     784:	9bc07df0 	umulh	x16, x15, x0
     788:	ba10018c 	adcs	x12, x12, x16
     78c:	9bc47df0 	umulh	x16, x15, x4
     790:	ba1001ad 	adcs	x13, x13, x16
     794:	9a1f01ce 	adc	x14, x14, xzr
     798:	9b077cd0 	mul	x16, x6, x7
     79c:	ab10016b 	adds	x11, x11, x16
     7a0:	9b007cd0 	mul	x16, x6, x0
     7a4:	ba10018c 	adcs	x12, x12, x16
     7a8:	9b047cd0 	mul	x16, x6, x4
     7ac:	ba1001ad 	adcs	x13, x13, x16
     7b0:	9b057cd0 	mul	x16, x6, x5
     7b4:	ba1001ce 	adcs	x14, x14, x16
     7b8:	9bc57ccf 	umulh	x15, x6, x5
     7bc:	9a1f01ef 	adc	x15, x15, xzr
     7c0:	9bc77cd0 	umulh	x16, x6, x7
     7c4:	ab10018c 	adds	x12, x12, x16
     7c8:	9bc07cd0 	umulh	x16, x6, x0
     7cc:	ba1001ad 	adcs	x13, x13, x16
     7d0:	9bc47cd0 	umulh	x16, x6, x4
     7d4:	ba1001ce 	adcs	x14, x14, x16
     7d8:	9a1f01ef 	adc	x15, x15, xzr
     7dc:	d29a7da3 	mov	x3, #0xd3ed                	// #54253
     7e0:	f2ab9ea3 	movk	x3, #0x5cf5, lsl #16
     7e4:	f2cc6343 	movk	x3, #0x631a, lsl #32
     7e8:	f2eb0243 	movk	x3, #0x5812, lsl #48
     7ec:	d2939ac4 	mov	x4, #0x9cd6                	// #40150
     7f0:	f2b45ee4 	movk	x4, #0xa2f7, lsl #16
     7f4:	f2df3bc4 	movk	x4, #0xf9de, lsl #32
     7f8:	f2e29bc4 	movk	x4, #0x14de, lsl #48
     7fc:	d37cfde2 	lsr	x2, x15, #60
     800:	9240edef 	and	x15, x15, #0xfffffffffffffff
     804:	9b027c65 	mul	x5, x3, x2
     808:	9b027c86 	mul	x6, x4, x2
     80c:	9bc27c67 	umulh	x7, x3, x2
     810:	ab0700c6 	adds	x6, x6, x7
     814:	9bc27c87 	umulh	x7, x4, x2
     818:	9a1f00e7 	adc	x7, x7, xzr
     81c:	eb05018c 	subs	x12, x12, x5
     820:	fa0601ad 	sbcs	x13, x13, x6
     824:	fa0701ce 	sbcs	x14, x14, x7
     828:	fa1f01ef 	sbcs	x15, x15, xzr
     82c:	9a9f3065 	csel	x5, x3, xzr, cc	// cc = lo, ul, last
     830:	9a9f3086 	csel	x6, x4, xzr, cc	// cc = lo, ul, last
     834:	ab05018c 	adds	x12, x12, x5
     838:	924400a7 	and	x7, x5, #0x1000000000000000
     83c:	ba0601ad 	adcs	x13, x13, x6
     840:	ba1f01ce 	adcs	x14, x14, xzr
     844:	9a0701ef 	adc	x15, x15, x7
     848:	93cef1e2 	extr	x2, x15, x14, #60
     84c:	9240edce 	and	x14, x14, #0xfffffffffffffff
     850:	cb4ff042 	sub	x2, x2, x15, lsr #60
     854:	92440de5 	and	x5, x15, #0xf000000000000000
     858:	8b0501ce 	add	x14, x14, x5
     85c:	9b027c65 	mul	x5, x3, x2
     860:	9b027c86 	mul	x6, x4, x2
     864:	9bc27c67 	umulh	x7, x3, x2
     868:	ab0700c6 	adds	x6, x6, x7
     86c:	9bc27c87 	umulh	x7, x4, x2
     870:	9a1f00e7 	adc	x7, x7, xzr
     874:	eb05016b 	subs	x11, x11, x5
     878:	fa06018c 	sbcs	x12, x12, x6
     87c:	fa0701ad 	sbcs	x13, x13, x7
     880:	fa1f01ce 	sbcs	x14, x14, xzr
     884:	9a9f3065 	csel	x5, x3, xzr, cc	// cc = lo, ul, last
     888:	9a9f3086 	csel	x6, x4, xzr, cc	// cc = lo, ul, last
     88c:	ab05016b 	adds	x11, x11, x5
     890:	924400a7 	and	x7, x5, #0x1000000000000000
     894:	ba06018c 	adcs	x12, x12, x6
     898:	ba1f01ad 	adcs	x13, x13, xzr
     89c:	9a0701ce 	adc	x14, x14, x7
     8a0:	93cdf1c2 	extr	x2, x14, x13, #60
     8a4:	9240edad 	and	x13, x13, #0xfffffffffffffff
     8a8:	cb4ef042 	sub	x2, x2, x14, lsr #60
     8ac:	92440dc5 	and	x5, x14, #0xf000000000000000
     8b0:	8b0501ad 	add	x13, x13, x5
     8b4:	9b027c65 	mul	x5, x3, x2
     8b8:	9b027c86 	mul	x6, x4, x2
     8bc:	9bc27c67 	umulh	x7, x3, x2
     8c0:	ab0700c6 	adds	x6, x6, x7
     8c4:	9bc27c87 	umulh	x7, x4, x2
     8c8:	9a1f00e7 	adc	x7, x7, xzr
     8cc:	eb05014a 	subs	x10, x10, x5
     8d0:	fa06016b 	sbcs	x11, x11, x6
     8d4:	fa07018c 	sbcs	x12, x12, x7
     8d8:	fa1f01ad 	sbcs	x13, x13, xzr
     8dc:	9a9f3065 	csel	x5, x3, xzr, cc	// cc = lo, ul, last
     8e0:	9a9f3086 	csel	x6, x4, xzr, cc	// cc = lo, ul, last
     8e4:	ab05014a 	adds	x10, x10, x5
     8e8:	924400a7 	and	x7, x5, #0x1000000000000000
     8ec:	ba06016b 	adcs	x11, x11, x6
     8f0:	ba1f018c 	adcs	x12, x12, xzr
     8f4:	9a0701ad 	adc	x13, x13, x7
     8f8:	93ccf1a2 	extr	x2, x13, x12, #60
     8fc:	9240ed8c 	and	x12, x12, #0xfffffffffffffff
     900:	cb4df042 	sub	x2, x2, x13, lsr #60
     904:	92440da5 	and	x5, x13, #0xf000000000000000
     908:	8b05018c 	add	x12, x12, x5
     90c:	9b027c65 	mul	x5, x3, x2
     910:	9b027c86 	mul	x6, x4, x2
     914:	9bc27c67 	umulh	x7, x3, x2
     918:	ab0700c6 	adds	x6, x6, x7
     91c:	9bc27c87 	umulh	x7, x4, x2
     920:	9a1f00e7 	adc	x7, x7, xzr
     924:	eb050129 	subs	x9, x9, x5
     928:	fa06014a 	sbcs	x10, x10, x6
     92c:	fa07016b 	sbcs	x11, x11, x7
     930:	fa1f018c 	sbcs	x12, x12, xzr
     934:	9a9f3065 	csel	x5, x3, xzr, cc	// cc = lo, ul, last
     938:	9a9f3086 	csel	x6, x4, xzr, cc	// cc = lo, ul, last
     93c:	ab050129 	adds	x9, x9, x5
     940:	924400a7 	and	x7, x5, #0x1000000000000000
     944:	ba06014a 	adcs	x10, x10, x6
     948:	ba1f016b 	adcs	x11, x11, xzr
     94c:	9a07018c 	adc	x12, x12, x7
     950:	93cbf182 	extr	x2, x12, x11, #60
     954:	9240ed6b 	and	x11, x11, #0xfffffffffffffff
     958:	cb4cf042 	sub	x2, x2, x12, lsr #60
     95c:	92440d85 	and	x5, x12, #0xf000000000000000
     960:	8b05016b 	add	x11, x11, x5
     964:	9b027c65 	mul	x5, x3, x2
     968:	9b027c86 	mul	x6, x4, x2
     96c:	9bc27c67 	umulh	x7, x3, x2
     970:	ab0700c6 	adds	x6, x6, x7
     974:	9bc27c87 	umulh	x7, x4, x2
     978:	9a1f00e7 	adc	x7, x7, xzr
     97c:	eb050108 	subs	x8, x8, x5
     980:	fa060129 	sbcs	x9, x9, x6
     984:	fa07014a 	sbcs	x10, x10, x7
     988:	fa1f016b 	sbcs	x11, x11, xzr
     98c:	9a9f3065 	csel	x5, x3, xzr, cc	// cc = lo, ul, last
     990:	9a9f3086 	csel	x6, x4, xzr, cc	// cc = lo, ul, last
     994:	ab050108 	adds	x8, x8, x5
     998:	924400a7 	and	x7, x5, #0x1000000000000000
     99c:	ba060129 	adcs	x9, x9, x6
     9a0:	ba1f014a 	adcs	x10, x10, xzr
     9a4:	9a07016b 	adc	x11, x11, x7
     9a8:	a9002668 	stp	x8, x9, [x19]
     9ac:	a9012e6a 	stp	x10, x11, [x19, #16]
     9b0:	a8c153f3 	ldp	x19, x20, [sp], #16
     9b4:	d65f03c0 	ret

00000000000009b8 <bignum_mod_n25519>:
     9b8:	f100103f 	cmp	x1, #0x4
     9bc:	540007c3 	b.cc	ab4 <bignum_mod_n25519_short>  // b.lo, b.ul, b.last
     9c0:	d1001021 	sub	x1, x1, #0x4
     9c4:	d37df027 	lsl	x7, x1, #3
     9c8:	8b0200e7 	add	x7, x7, x2
     9cc:	a94118e5 	ldp	x5, x6, [x7, #16]
     9d0:	a94010e3 	ldp	x3, x4, [x7]
     9d4:	d29a7dab 	mov	x11, #0xd3ed                	// #54253
     9d8:	f2ab9eab 	movk	x11, #0x5cf5, lsl #16
     9dc:	f2cc634b 	movk	x11, #0x631a, lsl #32
     9e0:	f2eb024b 	movk	x11, #0x5812, lsl #48
     9e4:	d2939acc 	mov	x12, #0x9cd6                	// #40150
     9e8:	f2b45eec 	movk	x12, #0xa2f7, lsl #16
     9ec:	f2df3bcc 	movk	x12, #0xf9de, lsl #32
     9f0:	f2e29bcc 	movk	x12, #0x14de, lsl #48
     9f4:	d37cfccd 	lsr	x13, x6, #60
     9f8:	9240ecc6 	and	x6, x6, #0xfffffffffffffff
     9fc:	9b0d7d67 	mul	x7, x11, x13
     a00:	9b0d7d88 	mul	x8, x12, x13
     a04:	9bcd7d69 	umulh	x9, x11, x13
     a08:	ab090108 	adds	x8, x8, x9
     a0c:	9bcd7d89 	umulh	x9, x12, x13
     a10:	9a1f0129 	adc	x9, x9, xzr
     a14:	eb070063 	subs	x3, x3, x7
     a18:	fa080084 	sbcs	x4, x4, x8
     a1c:	fa0900a5 	sbcs	x5, x5, x9
     a20:	fa1f00c6 	sbcs	x6, x6, xzr
     a24:	9a9f3167 	csel	x7, x11, xzr, cc	// cc = lo, ul, last
     a28:	9a9f3188 	csel	x8, x12, xzr, cc	// cc = lo, ul, last
     a2c:	ab070063 	adds	x3, x3, x7
     a30:	ba080084 	adcs	x4, x4, x8
     a34:	924400e7 	and	x7, x7, #0x1000000000000000
     a38:	ba1f00a5 	adcs	x5, x5, xzr
     a3c:	9a0700c6 	adc	x6, x6, x7
     a40:	b4000341 	cbz	x1, aa8 <bignum_mod_n25519_writeback>

0000000000000a44 <bignum_mod_n25519_loop>:
     a44:	93c5f0cd 	extr	x13, x6, x5, #60
     a48:	9240eca5 	and	x5, x5, #0xfffffffffffffff
     a4c:	cb46f1ad 	sub	x13, x13, x6, lsr #60
     a50:	92440cc6 	and	x6, x6, #0xf000000000000000
     a54:	8b0600a5 	add	x5, x5, x6
     a58:	9b0d7d67 	mul	x7, x11, x13
     a5c:	9b0d7d88 	mul	x8, x12, x13
     a60:	9bcd7d69 	umulh	x9, x11, x13
     a64:	ab090108 	adds	x8, x8, x9
     a68:	9bcd7d89 	umulh	x9, x12, x13
     a6c:	9a1f0129 	adc	x9, x9, xzr
     a70:	d1000421 	sub	x1, x1, #0x1
     a74:	f861784d 	ldr	x13, [x2, x1, lsl #3]
     a78:	eb0701a7 	subs	x7, x13, x7
     a7c:	fa080068 	sbcs	x8, x3, x8
     a80:	fa090089 	sbcs	x9, x4, x9
     a84:	fa1f00aa 	sbcs	x10, x5, xzr
     a88:	9a9f3163 	csel	x3, x11, xzr, cc	// cc = lo, ul, last
     a8c:	9a9f3184 	csel	x4, x12, xzr, cc	// cc = lo, ul, last
     a90:	ab0300e3 	adds	x3, x7, x3
     a94:	92440086 	and	x6, x4, #0x1000000000000000
     a98:	ba040104 	adcs	x4, x8, x4
     a9c:	ba1f0125 	adcs	x5, x9, xzr
     aa0:	9a060146 	adc	x6, x10, x6
     aa4:	b5fffd01 	cbnz	x1, a44 <bignum_mod_n25519_loop>

0000000000000aa8 <bignum_mod_n25519_writeback>:
     aa8:	a9001003 	stp	x3, x4, [x0]
     aac:	a9011805 	stp	x5, x6, [x0, #16]
     ab0:	d65f03c0 	ret

0000000000000ab4 <bignum_mod_n25519_short>:
     ab4:	aa1f03e3 	mov	x3, xzr
     ab8:	aa1f03e4 	mov	x4, xzr
     abc:	aa1f03e5 	mov	x5, xzr
     ac0:	aa1f03e6 	mov	x6, xzr
     ac4:	b4ffff21 	cbz	x1, aa8 <bignum_mod_n25519_writeback>
     ac8:	f9400043 	ldr	x3, [x2]
     acc:	f1000421 	subs	x1, x1, #0x1
     ad0:	54fffec0 	b.eq	aa8 <bignum_mod_n25519_writeback>  // b.none
     ad4:	f9400444 	ldr	x4, [x2, #8]
     ad8:	f1000421 	subs	x1, x1, #0x1
     adc:	54fffe60 	b.eq	aa8 <bignum_mod_n25519_writeback>  // b.none
     ae0:	f9400845 	ldr	x5, [x2, #16]
     ae4:	17fffff1 	b	aa8 <bignum_mod_n25519_writeback>

0000000000000ae8 <bignum_neg_p25519>:
     ae8:	a9400c22 	ldp	x2, x3, [x1]
     aec:	92800247 	mov	x7, #0xffffffffffffffed    	// #-19
     af0:	aa030046 	orr	x6, x2, x3
     af4:	eb0200e2 	subs	x2, x7, x2
     af8:	92800007 	mov	x7, #0xffffffffffffffff    	// #-1
     afc:	fa0300e3 	sbcs	x3, x7, x3
     b00:	a9411424 	ldp	x4, x5, [x1, #16]
     b04:	aa0400c6 	orr	x6, x6, x4
     b08:	fa0400e4 	sbcs	x4, x7, x4
     b0c:	92f00007 	mov	x7, #0x7fffffffffffffff    	// #9223372036854775807
     b10:	aa0500c6 	orr	x6, x6, x5
     b14:	da0500e5 	sbc	x5, x7, x5
     b18:	eb1f00df 	cmp	x6, xzr
     b1c:	9a9f1042 	csel	x2, x2, xzr, ne	// ne = any
     b20:	9a9f1063 	csel	x3, x3, xzr, ne	// ne = any
     b24:	9a9f1084 	csel	x4, x4, xzr, ne	// ne = any
     b28:	9a9f10a5 	csel	x5, x5, xzr, ne	// ne = any
     b2c:	a9000c02 	stp	x2, x3, [x0]
     b30:	a9011404 	stp	x4, x5, [x0, #16]
     b34:	d65f03c0 	ret

0000000000000b38 <edwards25519_decode_alt>:
     b38:	a9bf53f3 	stp	x19, x20, [sp, #-16]!
     b3c:	a9bf7bf5 	stp	x21, x30, [sp, #-16]!
     b40:	d10303ff 	sub	sp, sp, #0xc0
     b44:	aa0003f3 	mov	x19, x0
     b48:	39400020 	ldrb	w0, [x1]
     b4c:	d3481c04 	lsl	x4, x0, #56
     b50:	39400420 	ldrb	w0, [x1, #1]
     b54:	93c42004 	extr	x4, x0, x4, #8
     b58:	39400820 	ldrb	w0, [x1, #2]
     b5c:	93c42004 	extr	x4, x0, x4, #8
     b60:	39400c20 	ldrb	w0, [x1, #3]
     b64:	93c42004 	extr	x4, x0, x4, #8
     b68:	39401020 	ldrb	w0, [x1, #4]
     b6c:	93c42004 	extr	x4, x0, x4, #8
     b70:	39401420 	ldrb	w0, [x1, #5]
     b74:	93c42004 	extr	x4, x0, x4, #8
     b78:	39401820 	ldrb	w0, [x1, #6]
     b7c:	93c42004 	extr	x4, x0, x4, #8
     b80:	39401c20 	ldrb	w0, [x1, #7]
     b84:	93c42004 	extr	x4, x0, x4, #8
     b88:	39402020 	ldrb	w0, [x1, #8]
     b8c:	d3481c05 	lsl	x5, x0, #56
     b90:	39402420 	ldrb	w0, [x1, #9]
     b94:	93c52005 	extr	x5, x0, x5, #8
     b98:	39402820 	ldrb	w0, [x1, #10]
     b9c:	93c52005 	extr	x5, x0, x5, #8
     ba0:	39402c20 	ldrb	w0, [x1, #11]
     ba4:	93c52005 	extr	x5, x0, x5, #8
     ba8:	39403020 	ldrb	w0, [x1, #12]
     bac:	93c52005 	extr	x5, x0, x5, #8
     bb0:	39403420 	ldrb	w0, [x1, #13]
     bb4:	93c52005 	extr	x5, x0, x5, #8
     bb8:	39403820 	ldrb	w0, [x1, #14]
     bbc:	93c52005 	extr	x5, x0, x5, #8
     bc0:	39403c20 	ldrb	w0, [x1, #15]
     bc4:	93c52005 	extr	x5, x0, x5, #8
     bc8:	39404020 	ldrb	w0, [x1, #16]
     bcc:	d3481c06 	lsl	x6, x0, #56
     bd0:	39404420 	ldrb	w0, [x1, #17]
     bd4:	93c62006 	extr	x6, x0, x6, #8
     bd8:	39404820 	ldrb	w0, [x1, #18]
     bdc:	93c62006 	extr	x6, x0, x6, #8
     be0:	39404c20 	ldrb	w0, [x1, #19]
     be4:	93c62006 	extr	x6, x0, x6, #8
     be8:	39405020 	ldrb	w0, [x1, #20]
     bec:	93c62006 	extr	x6, x0, x6, #8
     bf0:	39405420 	ldrb	w0, [x1, #21]
     bf4:	93c62006 	extr	x6, x0, x6, #8
     bf8:	39405820 	ldrb	w0, [x1, #22]
     bfc:	93c62006 	extr	x6, x0, x6, #8
     c00:	39405c20 	ldrb	w0, [x1, #23]
     c04:	93c62006 	extr	x6, x0, x6, #8
     c08:	39406020 	ldrb	w0, [x1, #24]
     c0c:	d3481c07 	lsl	x7, x0, #56
     c10:	39406420 	ldrb	w0, [x1, #25]
     c14:	93c72007 	extr	x7, x0, x7, #8
     c18:	39406820 	ldrb	w0, [x1, #26]
     c1c:	93c72007 	extr	x7, x0, x7, #8
     c20:	39406c20 	ldrb	w0, [x1, #27]
     c24:	93c72007 	extr	x7, x0, x7, #8
     c28:	39407020 	ldrb	w0, [x1, #28]
     c2c:	93c72007 	extr	x7, x0, x7, #8
     c30:	39407420 	ldrb	w0, [x1, #29]
     c34:	93c72007 	extr	x7, x0, x7, #8
     c38:	39407820 	ldrb	w0, [x1, #30]
     c3c:	93c72007 	extr	x7, x0, x7, #8
     c40:	39407c20 	ldrb	w0, [x1, #31]
     c44:	93c72007 	extr	x7, x0, x7, #8
     c48:	a90017e4 	stp	x4, x5, [sp]
     c4c:	d37ffcf4 	lsr	x20, x7, #63
     c50:	9240f8e7 	and	x7, x7, #0x7fffffffffffffff
     c54:	a9011fe6 	stp	x6, x7, [sp, #16]
     c58:	b1004c9f 	cmn	x4, #0x13
     c5c:	ba1f00bf 	adcs	xzr, x5, xzr
     c60:	ba1f00df 	adcs	xzr, x6, xzr
     c64:	ba1f00ff 	adcs	xzr, x7, xzr
     c68:	9a9f57f5 	cset	x21, mi	// mi = first
     c6c:	910203e0 	add	x0, sp, #0x80
     c70:	d2800021 	mov	x1, #0x1                   	// #1
     c74:	910003e2 	mov	x2, sp
     c78:	94000147 	bl	1194 <edwards25519_decode_alt_nsqr_p25519>
     c7c:	a94807e0 	ldp	x0, x1, [sp, #128]
     c80:	a9490fe2 	ldp	x2, x3, [sp, #144]
     c84:	d2f00004 	mov	x4, #0x8000000000000000    	// #-9223372036854775808
     c88:	f1005000 	subs	x0, x0, #0x14
     c8c:	fa1f0021 	sbcs	x1, x1, xzr
     c90:	fa1f0042 	sbcs	x2, x2, xzr
     c94:	da040063 	sbc	x3, x3, x4
     c98:	a90607e0 	stp	x0, x1, [sp, #96]
     c9c:	a9070fe2 	stp	x2, x3, [sp, #112]
     ca0:	d28f1460 	mov	x0, #0x78a3                	// #30883
     ca4:	f2a26b20 	movk	x0, #0x1359, lsl #16
     ca8:	f2c9b940 	movk	x0, #0x4dca, lsl #32
     cac:	f2eebd60 	movk	x0, #0x75eb, lsl #48
     cb0:	d29b1561 	mov	x1, #0xd8ab                	// #55467
     cb4:	f2a82821 	movk	x1, #0x4141, lsl #16
     cb8:	f2c149a1 	movk	x1, #0xa4d, lsl #32
     cbc:	f2e00e01 	movk	x1, #0x70, lsl #48
     cc0:	d29d1302 	mov	x2, #0xe898                	// #59544
     cc4:	f2aeef22 	movk	x2, #0x7779, lsl #16
     cc8:	f2c80f22 	movk	x2, #0x4079, lsl #32
     ccc:	f2f198e2 	movk	x2, #0x8cc7, lsl #48
     cd0:	d29fce63 	mov	x3, #0xfe73                	// #65139
     cd4:	f2a56de3 	movk	x3, #0x2b6f, lsl #16
     cd8:	f2cd9dc3 	movk	x3, #0x6cee, lsl #32
     cdc:	f2ea4063 	movk	x3, #0x5203, lsl #48
     ce0:	a90a07e0 	stp	x0, x1, [sp, #160]
     ce4:	a90b0fe2 	stp	x2, x3, [sp, #176]
     ce8:	910203e0 	add	x0, sp, #0x80
     cec:	910283e1 	add	x1, sp, #0xa0
     cf0:	910203e2 	add	x2, sp, #0x80
     cf4:	940000c3 	bl	1000 <edwards25519_decode_alt_mul_p25519>
     cf8:	a94807e0 	ldp	x0, x1, [sp, #128]
     cfc:	a9490fe2 	ldp	x2, x3, [sp, #144]
     d00:	b1000400 	adds	x0, x0, #0x1
     d04:	ba1f0021 	adcs	x1, x1, xzr
     d08:	ba1f0042 	adcs	x2, x2, xzr
     d0c:	ba1f0063 	adcs	x3, x3, xzr
     d10:	a90807e0 	stp	x0, x1, [sp, #128]
     d14:	a9090fe2 	stp	x2, x3, [sp, #144]
     d18:	910283e0 	add	x0, sp, #0xa0
     d1c:	910183e1 	add	x1, sp, #0x60
     d20:	910203e2 	add	x2, sp, #0x80
     d24:	940000b7 	bl	1000 <edwards25519_decode_alt_mul_p25519>
     d28:	910103e0 	add	x0, sp, #0x40
     d2c:	d2800021 	mov	x1, #0x1                   	// #1
     d30:	910283e2 	add	x2, sp, #0xa0
     d34:	94000118 	bl	1194 <edwards25519_decode_alt_nsqr_p25519>
     d38:	910103e0 	add	x0, sp, #0x40
     d3c:	910103e1 	add	x1, sp, #0x40
     d40:	910283e2 	add	x2, sp, #0xa0
     d44:	940000af 	bl	1000 <edwards25519_decode_alt_mul_p25519>
     d48:	910083e0 	add	x0, sp, #0x20
     d4c:	d2800041 	mov	x1, #0x2                   	// #2
     d50:	910103e2 	add	x2, sp, #0x40
     d54:	94000110 	bl	1194 <edwards25519_decode_alt_nsqr_p25519>
     d58:	910103e0 	add	x0, sp, #0x40
     d5c:	910083e1 	add	x1, sp, #0x20
     d60:	910103e2 	add	x2, sp, #0x40
     d64:	940000a7 	bl	1000 <edwards25519_decode_alt_mul_p25519>
     d68:	910083e0 	add	x0, sp, #0x20
     d6c:	d2800021 	mov	x1, #0x1                   	// #1
     d70:	910103e2 	add	x2, sp, #0x40
     d74:	94000108 	bl	1194 <edwards25519_decode_alt_nsqr_p25519>
     d78:	910203e0 	add	x0, sp, #0x80
     d7c:	910083e1 	add	x1, sp, #0x20
     d80:	910283e2 	add	x2, sp, #0xa0
     d84:	9400009f 	bl	1000 <edwards25519_decode_alt_mul_p25519>
     d88:	910083e0 	add	x0, sp, #0x20
     d8c:	d28000a1 	mov	x1, #0x5                   	// #5
     d90:	910203e2 	add	x2, sp, #0x80
     d94:	94000100 	bl	1194 <edwards25519_decode_alt_nsqr_p25519>
     d98:	910103e0 	add	x0, sp, #0x40
     d9c:	910083e1 	add	x1, sp, #0x20
     da0:	910203e2 	add	x2, sp, #0x80
     da4:	94000097 	bl	1000 <edwards25519_decode_alt_mul_p25519>
     da8:	910083e0 	add	x0, sp, #0x20
     dac:	d2800141 	mov	x1, #0xa                   	// #10
     db0:	910103e2 	add	x2, sp, #0x40
     db4:	940000f8 	bl	1194 <edwards25519_decode_alt_nsqr_p25519>
     db8:	910103e0 	add	x0, sp, #0x40
     dbc:	910083e1 	add	x1, sp, #0x20
     dc0:	910103e2 	add	x2, sp, #0x40
     dc4:	9400008f 	bl	1000 <edwards25519_decode_alt_mul_p25519>
     dc8:	910083e0 	add	x0, sp, #0x20
     dcc:	d28000a1 	mov	x1, #0x5                   	// #5
     dd0:	910103e2 	add	x2, sp, #0x40
     dd4:	940000f0 	bl	1194 <edwards25519_decode_alt_nsqr_p25519>
     dd8:	910203e0 	add	x0, sp, #0x80
     ddc:	910083e1 	add	x1, sp, #0x20
     de0:	910203e2 	add	x2, sp, #0x80
     de4:	94000087 	bl	1000 <edwards25519_decode_alt_mul_p25519>
     de8:	910083e0 	add	x0, sp, #0x20
     dec:	d2800321 	mov	x1, #0x19                  	// #25
     df0:	910203e2 	add	x2, sp, #0x80
     df4:	940000e8 	bl	1194 <edwards25519_decode_alt_nsqr_p25519>
     df8:	910103e0 	add	x0, sp, #0x40
     dfc:	910083e1 	add	x1, sp, #0x20
     e00:	910203e2 	add	x2, sp, #0x80
     e04:	9400007f 	bl	1000 <edwards25519_decode_alt_mul_p25519>
     e08:	910083e0 	add	x0, sp, #0x20
     e0c:	d2800641 	mov	x1, #0x32                  	// #50
     e10:	910103e2 	add	x2, sp, #0x40
     e14:	940000e0 	bl	1194 <edwards25519_decode_alt_nsqr_p25519>
     e18:	910103e0 	add	x0, sp, #0x40
     e1c:	910083e1 	add	x1, sp, #0x20
     e20:	910103e2 	add	x2, sp, #0x40
     e24:	94000077 	bl	1000 <edwards25519_decode_alt_mul_p25519>
     e28:	910083e0 	add	x0, sp, #0x20
     e2c:	d2800321 	mov	x1, #0x19                  	// #25
     e30:	910103e2 	add	x2, sp, #0x40
     e34:	940000d8 	bl	1194 <edwards25519_decode_alt_nsqr_p25519>
     e38:	910203e0 	add	x0, sp, #0x80
     e3c:	910083e1 	add	x1, sp, #0x20
     e40:	910203e2 	add	x2, sp, #0x80
     e44:	9400006f 	bl	1000 <edwards25519_decode_alt_mul_p25519>
     e48:	910083e0 	add	x0, sp, #0x20
     e4c:	d2800fa1 	mov	x1, #0x7d                  	// #125
     e50:	910203e2 	add	x2, sp, #0x80
     e54:	940000d0 	bl	1194 <edwards25519_decode_alt_nsqr_p25519>
     e58:	910203e0 	add	x0, sp, #0x80
     e5c:	910083e1 	add	x1, sp, #0x20
     e60:	910203e2 	add	x2, sp, #0x80
     e64:	94000067 	bl	1000 <edwards25519_decode_alt_mul_p25519>
     e68:	910083e0 	add	x0, sp, #0x20
     e6c:	d2800041 	mov	x1, #0x2                   	// #2
     e70:	910203e2 	add	x2, sp, #0x80
     e74:	940000c8 	bl	1194 <edwards25519_decode_alt_nsqr_p25519>
     e78:	910083e0 	add	x0, sp, #0x20
     e7c:	910083e1 	add	x1, sp, #0x20
     e80:	910283e2 	add	x2, sp, #0xa0
     e84:	9400005f 	bl	1000 <edwards25519_decode_alt_mul_p25519>
     e88:	910203e0 	add	x0, sp, #0x80
     e8c:	d2800021 	mov	x1, #0x1                   	// #1
     e90:	910083e2 	add	x2, sp, #0x20
     e94:	940000c0 	bl	1194 <edwards25519_decode_alt_nsqr_p25519>
     e98:	910203e0 	add	x0, sp, #0x80
     e9c:	910203e1 	add	x1, sp, #0x80
     ea0:	910283e2 	add	x2, sp, #0xa0
     ea4:	94000057 	bl	1000 <edwards25519_decode_alt_mul_p25519>
     ea8:	910083e0 	add	x0, sp, #0x20
     eac:	910183e1 	add	x1, sp, #0x60
     eb0:	910083e2 	add	x2, sp, #0x20
     eb4:	94000053 	bl	1000 <edwards25519_decode_alt_mul_p25519>
     eb8:	d2941600 	mov	x0, #0xa0b0                	// #41136
     ebc:	f2a941c0 	movk	x0, #0x4a0e, lsl #16
     ec0:	f2c364e0 	movk	x0, #0x1b27, lsl #32
     ec4:	f2f89dc0 	movk	x0, #0xc4ee, lsl #48
     ec8:	d29c8f01 	mov	x1, #0xe478                	// #58488
     ecc:	f2b5a5e1 	movk	x1, #0xad2f, lsl #16
     ed0:	f2c300c1 	movk	x1, #0x1806, lsl #32
     ed4:	f2e5e861 	movk	x1, #0x2f43, lsl #48
     ed8:	d29af4e2 	mov	x2, #0xd7a7                	// #55207
     edc:	f2a7bf62 	movk	x2, #0x3dfb, lsl #16
     ee0:	f2c01322 	movk	x2, #0x99, lsl #32
     ee4:	f2e569a2 	movk	x2, #0x2b4d, lsl #48
     ee8:	d29be163 	mov	x3, #0xdf0b                	// #57099
     eec:	f2a9f823 	movk	x3, #0x4fc1, lsl #16
     ef0:	f2c49003 	movk	x3, #0x2480, lsl #32
     ef4:	f2e57063 	movk	x3, #0x2b83, lsl #48
     ef8:	a90407e0 	stp	x0, x1, [sp, #64]
     efc:	a9050fe2 	stp	x2, x3, [sp, #80]
     f00:	910103e0 	add	x0, sp, #0x40
     f04:	910083e1 	add	x1, sp, #0x20
     f08:	910103e2 	add	x2, sp, #0x40
     f0c:	9400003d 	bl	1000 <edwards25519_decode_alt_mul_p25519>
     f10:	a94807e0 	ldp	x0, x1, [sp, #128]
     f14:	a9490fe2 	ldp	x2, x3, [sp, #144]
     f18:	927ff804 	and	x4, x0, #0xfffffffffffffffe
     f1c:	aa010084 	orr	x4, x4, x1
     f20:	aa030045 	orr	x5, x2, x3
     f24:	aa050084 	orr	x4, x4, x5
     f28:	91005000 	add	x0, x0, #0x14
     f2c:	91000421 	add	x1, x1, #0x1
     f30:	aa010000 	orr	x0, x0, x1
     f34:	91000442 	add	x2, x2, #0x1
     f38:	d240f863 	eor	x3, x3, #0x7fffffffffffffff
     f3c:	aa030042 	orr	x2, x2, x3
     f40:	aa020000 	orr	x0, x0, x2
     f44:	eb1f009f 	cmp	x4, xzr
     f48:	a9422fea 	ldp	x10, x11, [sp, #32]
     f4c:	a9443fee 	ldp	x14, x15, [sp, #64]
     f50:	9a8e014a 	csel	x10, x10, x14, eq	// eq = none
     f54:	9a8f016b 	csel	x11, x11, x15, eq	// eq = none
     f58:	a94337ec 	ldp	x12, x13, [sp, #48]
     f5c:	a94547f0 	ldp	x16, x17, [sp, #80]
     f60:	9a90018c 	csel	x12, x12, x16, eq	// eq = none
     f64:	9a9101ad 	csel	x13, x13, x17, eq	// eq = none
     f68:	a9022fea 	stp	x10, x11, [sp, #32]
     f6c:	a90337ec 	stp	x12, x13, [sp, #48]
     f70:	fa5f1004 	ccmp	x0, xzr, #0x4, ne	// ne = any
     f74:	9a9f07e0 	cset	x0, ne	// ne = any
     f78:	aa0002b5 	orr	x21, x21, x0
     f7c:	a94207e0 	ldp	x0, x1, [sp, #32]
     f80:	a9430fe2 	ldp	x2, x3, [sp, #48]
     f84:	92800244 	mov	x4, #0xffffffffffffffed    	// #-19
     f88:	eb000084 	subs	x4, x4, x0
     f8c:	92800006 	mov	x6, #0xffffffffffffffff    	// #-1
     f90:	fa0100c5 	sbcs	x5, x6, x1
     f94:	fa0200c6 	sbcs	x6, x6, x2
     f98:	92f00007 	mov	x7, #0x7fffffffffffffff    	// #9223372036854775807
     f9c:	da0300e7 	sbc	x7, x7, x3
     fa0:	92400009 	and	x9, x0, #0x1
     fa4:	ca140134 	eor	x20, x9, x20
     fa8:	aa010008 	orr	x8, x0, x1
     fac:	aa030049 	orr	x9, x2, x3
     fb0:	aa090108 	orr	x8, x8, x9
     fb4:	aa1402aa 	orr	x10, x21, x20
     fb8:	eb1f011f 	cmp	x8, xzr
     fbc:	9a950155 	csel	x21, x10, x21, eq	// eq = none
     fc0:	fa5f1284 	ccmp	x20, xzr, #0x4, ne	// ne = any
     fc4:	9a840000 	csel	x0, x0, x4, eq	// eq = none
     fc8:	9a850021 	csel	x1, x1, x5, eq	// eq = none
     fcc:	9a860042 	csel	x2, x2, x6, eq	// eq = none
     fd0:	9a870063 	csel	x3, x3, x7, eq	// eq = none
     fd4:	a94027e8 	ldp	x8, x9, [sp]
     fd8:	a9412fea 	ldp	x10, x11, [sp, #16]
     fdc:	a9000660 	stp	x0, x1, [x19]
     fe0:	a9010e62 	stp	x2, x3, [x19, #16]
     fe4:	a9022668 	stp	x8, x9, [x19, #32]
     fe8:	a9032e6a 	stp	x10, x11, [x19, #48]
     fec:	aa1503e0 	mov	x0, x21
     ff0:	910303ff 	add	sp, sp, #0xc0
     ff4:	a8c17bf5 	ldp	x21, x30, [sp], #16
     ff8:	a8c153f3 	ldp	x19, x20, [sp], #16
     ffc:	d65f03c0 	ret

0000000000001000 <edwards25519_decode_alt_mul_p25519>:
    1000:	a9401023 	ldp	x3, x4, [x1]
    1004:	a9402047 	ldp	x7, x8, [x2]
    1008:	9b077c6c 	mul	x12, x3, x7
    100c:	9bc77c6d 	umulh	x13, x3, x7
    1010:	9b087c6b 	mul	x11, x3, x8
    1014:	9bc87c6e 	umulh	x14, x3, x8
    1018:	ab0b01ad 	adds	x13, x13, x11
    101c:	a9412849 	ldp	x9, x10, [x2, #16]
    1020:	9b097c6b 	mul	x11, x3, x9
    1024:	9bc97c6f 	umulh	x15, x3, x9
    1028:	ba0b01ce 	adcs	x14, x14, x11
    102c:	9b0a7c6b 	mul	x11, x3, x10
    1030:	9bca7c70 	umulh	x16, x3, x10
    1034:	ba0b01ef 	adcs	x15, x15, x11
    1038:	9a1f0210 	adc	x16, x16, xzr
    103c:	a9411825 	ldp	x5, x6, [x1, #16]
    1040:	9b077c8b 	mul	x11, x4, x7
    1044:	ab0b01ad 	adds	x13, x13, x11
    1048:	9b087c8b 	mul	x11, x4, x8
    104c:	ba0b01ce 	adcs	x14, x14, x11
    1050:	9b097c8b 	mul	x11, x4, x9
    1054:	ba0b01ef 	adcs	x15, x15, x11
    1058:	9b0a7c8b 	mul	x11, x4, x10
    105c:	ba0b0210 	adcs	x16, x16, x11
    1060:	9bca7c83 	umulh	x3, x4, x10
    1064:	9a1f0063 	adc	x3, x3, xzr
    1068:	9bc77c8b 	umulh	x11, x4, x7
    106c:	ab0b01ce 	adds	x14, x14, x11
    1070:	9bc87c8b 	umulh	x11, x4, x8
    1074:	ba0b01ef 	adcs	x15, x15, x11
    1078:	9bc97c8b 	umulh	x11, x4, x9
    107c:	ba0b0210 	adcs	x16, x16, x11
    1080:	9a1f0063 	adc	x3, x3, xzr
    1084:	9b077cab 	mul	x11, x5, x7
    1088:	ab0b01ce 	adds	x14, x14, x11
    108c:	9b087cab 	mul	x11, x5, x8
    1090:	ba0b01ef 	adcs	x15, x15, x11
    1094:	9b097cab 	mul	x11, x5, x9
    1098:	ba0b0210 	adcs	x16, x16, x11
    109c:	9b0a7cab 	mul	x11, x5, x10
    10a0:	ba0b0063 	adcs	x3, x3, x11
    10a4:	9bca7ca4 	umulh	x4, x5, x10
    10a8:	9a1f0084 	adc	x4, x4, xzr
    10ac:	9bc77cab 	umulh	x11, x5, x7
    10b0:	ab0b01ef 	adds	x15, x15, x11
    10b4:	9bc87cab 	umulh	x11, x5, x8
    10b8:	ba0b0210 	adcs	x16, x16, x11
    10bc:	9bc97cab 	umulh	x11, x5, x9
    10c0:	ba0b0063 	adcs	x3, x3, x11
    10c4:	9a1f0084 	adc	x4, x4, xzr
    10c8:	9b077ccb 	mul	x11, x6, x7
    10cc:	ab0b01ef 	adds	x15, x15, x11
    10d0:	9b087ccb 	mul	x11, x6, x8
    10d4:	ba0b0210 	adcs	x16, x16, x11
    10d8:	9b097ccb 	mul	x11, x6, x9
    10dc:	ba0b0063 	adcs	x3, x3, x11
    10e0:	9b0a7ccb 	mul	x11, x6, x10
    10e4:	ba0b0084 	adcs	x4, x4, x11
    10e8:	9bca7cc5 	umulh	x5, x6, x10
    10ec:	9a1f00a5 	adc	x5, x5, xzr
    10f0:	9bc77ccb 	umulh	x11, x6, x7
    10f4:	ab0b0210 	adds	x16, x16, x11
    10f8:	9bc87ccb 	umulh	x11, x6, x8
    10fc:	ba0b0063 	adcs	x3, x3, x11
    1100:	9bc97ccb 	umulh	x11, x6, x9
    1104:	ba0b0084 	adcs	x4, x4, x11
    1108:	9a1f00a5 	adc	x5, x5, xzr
    110c:	d28004c7 	mov	x7, #0x26                  	// #38
    1110:	9b107ceb 	mul	x11, x7, x16
    1114:	9bd07ce9 	umulh	x9, x7, x16
    1118:	ab0b018c 	adds	x12, x12, x11
    111c:	9b037ceb 	mul	x11, x7, x3
    1120:	9bc37ce3 	umulh	x3, x7, x3
    1124:	ba0b01ad 	adcs	x13, x13, x11
    1128:	9b047ceb 	mul	x11, x7, x4
    112c:	9bc47ce4 	umulh	x4, x7, x4
    1130:	ba0b01ce 	adcs	x14, x14, x11
    1134:	9b057ceb 	mul	x11, x7, x5
    1138:	9bc57ce5 	umulh	x5, x7, x5
    113c:	ba0b01ef 	adcs	x15, x15, x11
    1140:	9a9f37f0 	cset	x16, cs	// cs = hs, nlast
    1144:	ab0401ef 	adds	x15, x15, x4
    1148:	9a050210 	adc	x16, x16, x5
    114c:	ab0f01ff 	cmn	x15, x15
    1150:	b24101ef 	orr	x15, x15, #0x8000000000000000
    1154:	9a100208 	adc	x8, x16, x16
    1158:	d2800267 	mov	x7, #0x13                  	// #19
    115c:	9b081ceb 	madd	x11, x7, x8, x7
    1160:	ab0b018c 	adds	x12, x12, x11
    1164:	ba0901ad 	adcs	x13, x13, x9
    1168:	ba0301ce 	adcs	x14, x14, x3
    116c:	ba1f01ef 	adcs	x15, x15, xzr
    1170:	9a9f30e7 	csel	x7, x7, xzr, cc	// cc = lo, ul, last
    1174:	eb07018c 	subs	x12, x12, x7
    1178:	fa1f01ad 	sbcs	x13, x13, xzr
    117c:	fa1f01ce 	sbcs	x14, x14, xzr
    1180:	da1f01ef 	sbc	x15, x15, xzr
    1184:	9240f9ef 	and	x15, x15, #0x7fffffffffffffff
    1188:	a900340c 	stp	x12, x13, [x0]
    118c:	a9013c0e 	stp	x14, x15, [x0, #16]
    1190:	d65f03c0 	ret

0000000000001194 <edwards25519_decode_alt_nsqr_p25519>:
    1194:	a9400c46 	ldp	x6, x3, [x2]
    1198:	a9411444 	ldp	x4, x5, [x2, #16]
    119c:	aa0603e2 	mov	x2, x6

00000000000011a0 <edwards25519_decode_alt_loop>:
    11a0:	9b037c49 	mul	x9, x2, x3
    11a4:	9bc37c4a 	umulh	x10, x2, x3
    11a8:	9b057c4b 	mul	x11, x2, x5
    11ac:	9bc57c4c 	umulh	x12, x2, x5
    11b0:	9b047c47 	mul	x7, x2, x4
    11b4:	9bc47c46 	umulh	x6, x2, x4
    11b8:	ab07014a 	adds	x10, x10, x7
    11bc:	ba06016b 	adcs	x11, x11, x6
    11c0:	9b047c67 	mul	x7, x3, x4
    11c4:	9bc47c66 	umulh	x6, x3, x4
    11c8:	9a1f00c6 	adc	x6, x6, xzr
    11cc:	ab07016b 	adds	x11, x11, x7
    11d0:	9b057c8d 	mul	x13, x4, x5
    11d4:	9bc57c8e 	umulh	x14, x4, x5
    11d8:	ba06018c 	adcs	x12, x12, x6
    11dc:	9b057c67 	mul	x7, x3, x5
    11e0:	9bc57c66 	umulh	x6, x3, x5
    11e4:	9a1f00c6 	adc	x6, x6, xzr
    11e8:	ab07018c 	adds	x12, x12, x7
    11ec:	ba0601ad 	adcs	x13, x13, x6
    11f0:	9a1f01ce 	adc	x14, x14, xzr
    11f4:	ab090129 	adds	x9, x9, x9
    11f8:	ba0a014a 	adcs	x10, x10, x10
    11fc:	ba0b016b 	adcs	x11, x11, x11
    1200:	ba0c018c 	adcs	x12, x12, x12
    1204:	ba0d01ad 	adcs	x13, x13, x13
    1208:	ba0e01ce 	adcs	x14, x14, x14
    120c:	9a9f37e6 	cset	x6, cs	// cs = hs, nlast
    1210:	9bc27c47 	umulh	x7, x2, x2
    1214:	9b027c48 	mul	x8, x2, x2
    1218:	ab070129 	adds	x9, x9, x7
    121c:	9b037c67 	mul	x7, x3, x3
    1220:	ba07014a 	adcs	x10, x10, x7
    1224:	9bc37c67 	umulh	x7, x3, x3
    1228:	ba07016b 	adcs	x11, x11, x7
    122c:	9b047c87 	mul	x7, x4, x4
    1230:	ba07018c 	adcs	x12, x12, x7
    1234:	9bc47c87 	umulh	x7, x4, x4
    1238:	ba0701ad 	adcs	x13, x13, x7
    123c:	9b057ca7 	mul	x7, x5, x5
    1240:	ba0701ce 	adcs	x14, x14, x7
    1244:	9bc57ca7 	umulh	x7, x5, x5
    1248:	9a0700c6 	adc	x6, x6, x7
    124c:	d28004c3 	mov	x3, #0x26                  	// #38
    1250:	9b0c7c67 	mul	x7, x3, x12
    1254:	9bcc7c64 	umulh	x4, x3, x12
    1258:	ab070108 	adds	x8, x8, x7
    125c:	9b0d7c67 	mul	x7, x3, x13
    1260:	9bcd7c6d 	umulh	x13, x3, x13
    1264:	ba070129 	adcs	x9, x9, x7
    1268:	9b0e7c67 	mul	x7, x3, x14
    126c:	9bce7c6e 	umulh	x14, x3, x14
    1270:	ba07014a 	adcs	x10, x10, x7
    1274:	9b067c67 	mul	x7, x3, x6
    1278:	9bc67c66 	umulh	x6, x3, x6
    127c:	ba07016b 	adcs	x11, x11, x7
    1280:	9a9f37ec 	cset	x12, cs	// cs = hs, nlast
    1284:	ab0e016b 	adds	x11, x11, x14
    1288:	9a06018c 	adc	x12, x12, x6
    128c:	ab0b017f 	cmn	x11, x11
    1290:	9240f96b 	and	x11, x11, #0x7fffffffffffffff
    1294:	9a0c0182 	adc	x2, x12, x12
    1298:	d2800263 	mov	x3, #0x13                  	// #19
    129c:	9b027c67 	mul	x7, x3, x2
    12a0:	ab070102 	adds	x2, x8, x7
    12a4:	ba040123 	adcs	x3, x9, x4
    12a8:	ba0d0144 	adcs	x4, x10, x13
    12ac:	9a1f0165 	adc	x5, x11, xzr
    12b0:	f1000421 	subs	x1, x1, #0x1
    12b4:	54fff761 	b.ne	11a0 <edwards25519_decode_alt_loop>  // b.any
    12b8:	b1004c46 	adds	x6, x2, #0x13
    12bc:	ba1f0067 	adcs	x7, x3, xzr
    12c0:	ba1f0088 	adcs	x8, x4, xzr
    12c4:	ba1f00a9 	adcs	x9, x5, xzr
    12c8:	9a865042 	csel	x2, x2, x6, pl	// pl = nfrst
    12cc:	9a875063 	csel	x3, x3, x7, pl	// pl = nfrst
    12d0:	9a885084 	csel	x4, x4, x8, pl	// pl = nfrst
    12d4:	9a8950a5 	csel	x5, x5, x9, pl	// pl = nfrst
    12d8:	9240f8a5 	and	x5, x5, #0x7fffffffffffffff
    12dc:	a9000c02 	stp	x2, x3, [x0]
    12e0:	a9011404 	stp	x4, x5, [x0, #16]
    12e4:	d65f03c0 	ret

00000000000012e8 <edwards25519_encode>:
    12e8:	f9400026 	ldr	x6, [x1]
    12ec:	a9420c22 	ldp	x2, x3, [x1, #32]
    12f0:	a9431424 	ldp	x4, x5, [x1, #48]
    12f4:	9240f8a5 	and	x5, x5, #0x7fffffffffffffff
    12f8:	aa06fca5 	orr	x5, x5, x6, lsl #63
    12fc:	39000002 	strb	w2, [x0]
    1300:	d348fc42 	lsr	x2, x2, #8
    1304:	39000402 	strb	w2, [x0, #1]
    1308:	d348fc42 	lsr	x2, x2, #8
    130c:	39000802 	strb	w2, [x0, #2]
    1310:	d348fc42 	lsr	x2, x2, #8
    1314:	39000c02 	strb	w2, [x0, #3]
    1318:	d348fc42 	lsr	x2, x2, #8
    131c:	39001002 	strb	w2, [x0, #4]
    1320:	d348fc42 	lsr	x2, x2, #8
    1324:	39001402 	strb	w2, [x0, #5]
    1328:	d348fc42 	lsr	x2, x2, #8
    132c:	39001802 	strb	w2, [x0, #6]
    1330:	d348fc42 	lsr	x2, x2, #8
    1334:	39001c02 	strb	w2, [x0, #7]
    1338:	39002003 	strb	w3, [x0, #8]
    133c:	d348fc63 	lsr	x3, x3, #8
    1340:	39002403 	strb	w3, [x0, #9]
    1344:	d348fc63 	lsr	x3, x3, #8
    1348:	39002803 	strb	w3, [x0, #10]
    134c:	d348fc63 	lsr	x3, x3, #8
    1350:	39002c03 	strb	w3, [x0, #11]
    1354:	d348fc63 	lsr	x3, x3, #8
    1358:	39003003 	strb	w3, [x0, #12]
    135c:	d348fc63 	lsr	x3, x3, #8
    1360:	39003403 	strb	w3, [x0, #13]
    1364:	d348fc63 	lsr	x3, x3, #8
    1368:	39003803 	strb	w3, [x0, #14]
    136c:	d348fc63 	lsr	x3, x3, #8
    1370:	39003c03 	strb	w3, [x0, #15]
    1374:	39004004 	strb	w4, [x0, #16]
    1378:	d348fc84 	lsr	x4, x4, #8
    137c:	39004404 	strb	w4, [x0, #17]
    1380:	d348fc84 	lsr	x4, x4, #8
    1384:	39004804 	strb	w4, [x0, #18]
    1388:	d348fc84 	lsr	x4, x4, #8
    138c:	39004c04 	strb	w4, [x0, #19]
    1390:	d348fc84 	lsr	x4, x4, #8
    1394:	39005004 	strb	w4, [x0, #20]
    1398:	d348fc84 	lsr	x4, x4, #8
    139c:	39005404 	strb	w4, [x0, #21]
    13a0:	d348fc84 	lsr	x4, x4, #8
    13a4:	39005804 	strb	w4, [x0, #22]
    13a8:	d348fc84 	lsr	x4, x4, #8
    13ac:	39005c04 	strb	w4, [x0, #23]
    13b0:	39006005 	strb	w5, [x0, #24]
    13b4:	d348fca5 	lsr	x5, x5, #8
    13b8:	39006405 	strb	w5, [x0, #25]
    13bc:	d348fca5 	lsr	x5, x5, #8
    13c0:	39006805 	strb	w5, [x0, #26]
    13c4:	d348fca5 	lsr	x5, x5, #8
    13c8:	39006c05 	strb	w5, [x0, #27]
    13cc:	d348fca5 	lsr	x5, x5, #8
    13d0:	39007005 	strb	w5, [x0, #28]
    13d4:	d348fca5 	lsr	x5, x5, #8
    13d8:	39007405 	strb	w5, [x0, #29]
    13dc:	d348fca5 	lsr	x5, x5, #8
    13e0:	39007805 	strb	w5, [x0, #30]
    13e4:	d348fca5 	lsr	x5, x5, #8
    13e8:	39007c05 	strb	w5, [x0, #31]
    13ec:	d65f03c0 	ret

00000000000013f0 <edwards25519_scalarmulbase_alt>:
    13f0:	a9bf53f3 	stp	x19, x20, [sp, #-16]!
    13f4:	a9bf5bf5 	stp	x21, x22, [sp, #-16]!
    13f8:	a9bf63f7 	stp	x23, x24, [sp, #-16]!
    13fc:	d10703ff 	sub	sp, sp, #0x1c0
    1400:	aa0003f7 	mov	x23, x0
    1404:	a9402c2a 	ldp	x10, x11, [x1]
    1408:	a941342c 	ldp	x12, x13, [x1, #16]
    140c:	d37cfda9 	lsr	x9, x13, #60
    1410:	d29a7da0 	mov	x0, #0xd3ed                	// #54253
    1414:	f2ab9ea0 	movk	x0, #0x5cf5, lsl #16
    1418:	f2cc6340 	movk	x0, #0x631a, lsl #32
    141c:	f2eb0240 	movk	x0, #0x5812, lsl #48
    1420:	d2939ac1 	mov	x1, #0x9cd6                	// #40150
    1424:	f2b45ee1 	movk	x1, #0xa2f7, lsl #16
    1428:	f2df3bc1 	movk	x1, #0xf9de, lsl #32
    142c:	f2e29bc1 	movk	x1, #0x14de, lsl #48
    1430:	9b007d22 	mul	x2, x9, x0
    1434:	9b017d23 	mul	x3, x9, x1
    1438:	9bc07d24 	umulh	x4, x9, x0
    143c:	9bc17d25 	umulh	x5, x9, x1
    1440:	ab040063 	adds	x3, x3, x4
    1444:	9a1f00a4 	adc	x4, x5, xzr
    1448:	d3440d25 	lsl	x5, x9, #60
    144c:	eb02014a 	subs	x10, x10, x2
    1450:	fa03016b 	sbcs	x11, x11, x3
    1454:	fa04018c 	sbcs	x12, x12, x4
    1458:	fa0501ad 	sbcs	x13, x13, x5
    145c:	da9f23e9 	csetm	x9, cc	// cc = lo, ul, last
    1460:	ab09013f 	cmn	x9, x9
    1464:	ca09014a 	eor	x10, x10, x9
    1468:	ba1f014a 	adcs	x10, x10, xzr
    146c:	ca09016b 	eor	x11, x11, x9
    1470:	ba1f016b 	adcs	x11, x11, xzr
    1474:	ca09018c 	eor	x12, x12, x9
    1478:	ba1f018c 	adcs	x12, x12, xzr
    147c:	ca0901ad 	eor	x13, x13, x9
    1480:	9a1f01ad 	adc	x13, x13, xzr
    1484:	92410129 	and	x9, x9, #0x8000000000000000
    1488:	aa0901ad 	orr	x13, x13, x9
    148c:	a9002fea 	stp	x10, x11, [sp]
    1490:	f24501bf 	tst	x13, #0x800000000000000
    1494:	9244f9ad 	and	x13, x13, #0xf7ffffffffffffff
    1498:	a90137ec 	stp	x12, x13, [sp, #16]
    149c:	90000013 	adrp	x19, 280 <ed25519_verify_common+0x9c>
    14a0:	91000273 	add	x19, x19, #0x0
    14a4:	a9400660 	ldp	x0, x1, [x19]
    14a8:	a9460e62 	ldp	x2, x3, [x19, #96]
    14ac:	9a820000 	csel	x0, x0, x2, eq	// eq = none
    14b0:	9a830021 	csel	x1, x1, x3, eq	// eq = none
    14b4:	a90807e0 	stp	x0, x1, [sp, #128]
    14b8:	a9410660 	ldp	x0, x1, [x19, #16]
    14bc:	a9470e62 	ldp	x2, x3, [x19, #112]
    14c0:	9a820000 	csel	x0, x0, x2, eq	// eq = none
    14c4:	9a830021 	csel	x1, x1, x3, eq	// eq = none
    14c8:	a90907e0 	stp	x0, x1, [sp, #144]
    14cc:	a9420660 	ldp	x0, x1, [x19, #32]
    14d0:	a9480e62 	ldp	x2, x3, [x19, #128]
    14d4:	9a820000 	csel	x0, x0, x2, eq	// eq = none
    14d8:	9a830021 	csel	x1, x1, x3, eq	// eq = none
    14dc:	a90a07e0 	stp	x0, x1, [sp, #160]
    14e0:	a9430660 	ldp	x0, x1, [x19, #48]
    14e4:	a9490e62 	ldp	x2, x3, [x19, #144]
    14e8:	9a820000 	csel	x0, x0, x2, eq	// eq = none
    14ec:	9a830021 	csel	x1, x1, x3, eq	// eq = none
    14f0:	a90b07e0 	stp	x0, x1, [sp, #176]
    14f4:	d2800020 	mov	x0, #0x1                   	// #1
    14f8:	a90c7fe0 	stp	x0, xzr, [sp, #192]
    14fc:	a90d7fff 	stp	xzr, xzr, [sp, #208]
    1500:	a9440660 	ldp	x0, x1, [x19, #64]
    1504:	a94a0e62 	ldp	x2, x3, [x19, #160]
    1508:	9a820000 	csel	x0, x0, x2, eq	// eq = none
    150c:	9a830021 	csel	x1, x1, x3, eq	// eq = none
    1510:	a90e07e0 	stp	x0, x1, [sp, #224]
    1514:	a9450660 	ldp	x0, x1, [x19, #80]
    1518:	a94b0e62 	ldp	x2, x3, [x19, #176]
    151c:	9a820000 	csel	x0, x0, x2, eq	// eq = none
    1520:	9a830021 	csel	x1, x1, x3, eq	// eq = none
    1524:	a90f07e0 	stp	x0, x1, [sp, #240]
    1528:	d2800014 	mov	x20, #0x0                   	// #0
    152c:	91030273 	add	x19, x19, #0xc0
    1530:	aa1f03f5 	mov	x21, xzr

0000000000001534 <edwards25519_scalarmulbase_alt_scalarloop>:
    1534:	d346fe80 	lsr	x0, x20, #6
    1538:	f8607be2 	ldr	x2, [sp, x0, lsl #3]
    153c:	9ad42442 	lsr	x2, x2, x20
    1540:	92400c42 	and	x2, x2, #0xf
    1544:	8b150056 	add	x22, x2, x21
    1548:	f10026df 	cmp	x22, #0x9
    154c:	9a9f37f5 	cset	x21, cs	// cs = hs, nlast
    1550:	d2800200 	mov	x0, #0x10                  	// #16
    1554:	cb160000 	sub	x0, x0, x22
    1558:	eb1f02bf 	cmp	x21, xzr
    155c:	9a961016 	csel	x22, x0, x22, ne	// ne = any
    1560:	d2800020 	mov	x0, #0x1                   	// #1
    1564:	aa1f03e1 	mov	x1, xzr
    1568:	aa1f03e2 	mov	x2, xzr
    156c:	aa1f03e3 	mov	x3, xzr
    1570:	d2800024 	mov	x4, #0x1                   	// #1
    1574:	aa1f03e5 	mov	x5, xzr
    1578:	aa1f03e6 	mov	x6, xzr
    157c:	aa1f03e7 	mov	x7, xzr
    1580:	aa1f03e8 	mov	x8, xzr
    1584:	aa1f03e9 	mov	x9, xzr
    1588:	aa1f03ea 	mov	x10, xzr
    158c:	aa1f03eb 	mov	x11, xzr
    1590:	f10006df 	cmp	x22, #0x1
    1594:	a940366c 	ldp	x12, x13, [x19]
    1598:	9a8c1000 	csel	x0, x0, x12, ne	// ne = any
    159c:	9a8d1021 	csel	x1, x1, x13, ne	// ne = any
    15a0:	a941366c 	ldp	x12, x13, [x19, #16]
    15a4:	9a8c1042 	csel	x2, x2, x12, ne	// ne = any
    15a8:	9a8d1063 	csel	x3, x3, x13, ne	// ne = any
    15ac:	a942366c 	ldp	x12, x13, [x19, #32]
    15b0:	9a8c1084 	csel	x4, x4, x12, ne	// ne = any
    15b4:	9a8d10a5 	csel	x5, x5, x13, ne	// ne = any
    15b8:	a943366c 	ldp	x12, x13, [x19, #48]
    15bc:	9a8c10c6 	csel	x6, x6, x12, ne	// ne = any
    15c0:	9a8d10e7 	csel	x7, x7, x13, ne	// ne = any
    15c4:	a944366c 	ldp	x12, x13, [x19, #64]
    15c8:	9a8c1108 	csel	x8, x8, x12, ne	// ne = any
    15cc:	9a8d1129 	csel	x9, x9, x13, ne	// ne = any
    15d0:	a945366c 	ldp	x12, x13, [x19, #80]
    15d4:	9a8c114a 	csel	x10, x10, x12, ne	// ne = any
    15d8:	9a8d116b 	csel	x11, x11, x13, ne	// ne = any
    15dc:	91018273 	add	x19, x19, #0x60
    15e0:	f1000adf 	cmp	x22, #0x2
    15e4:	a940366c 	ldp	x12, x13, [x19]
    15e8:	9a8c1000 	csel	x0, x0, x12, ne	// ne = any
    15ec:	9a8d1021 	csel	x1, x1, x13, ne	// ne = any
    15f0:	a941366c 	ldp	x12, x13, [x19, #16]
    15f4:	9a8c1042 	csel	x2, x2, x12, ne	// ne = any
    15f8:	9a8d1063 	csel	x3, x3, x13, ne	// ne = any
    15fc:	a942366c 	ldp	x12, x13, [x19, #32]
    1600:	9a8c1084 	csel	x4, x4, x12, ne	// ne = any
    1604:	9a8d10a5 	csel	x5, x5, x13, ne	// ne = any
    1608:	a943366c 	ldp	x12, x13, [x19, #48]
    160c:	9a8c10c6 	csel	x6, x6, x12, ne	// ne = any
    1610:	9a8d10e7 	csel	x7, x7, x13, ne	// ne = any
    1614:	a944366c 	ldp	x12, x13, [x19, #64]
    1618:	9a8c1108 	csel	x8, x8, x12, ne	// ne = any
    161c:	9a8d1129 	csel	x9, x9, x13, ne	// ne = any
    1620:	a945366c 	ldp	x12, x13, [x19, #80]
    1624:	9a8c114a 	csel	x10, x10, x12, ne	// ne = any
    1628:	9a8d116b 	csel	x11, x11, x13, ne	// ne = any
    162c:	91018273 	add	x19, x19, #0x60
    1630:	f1000edf 	cmp	x22, #0x3
    1634:	a940366c 	ldp	x12, x13, [x19]
    1638:	9a8c1000 	csel	x0, x0, x12, ne	// ne = any
    163c:	9a8d1021 	csel	x1, x1, x13, ne	// ne = any
    1640:	a941366c 	ldp	x12, x13, [x19, #16]
    1644:	9a8c1042 	csel	x2, x2, x12, ne	// ne = any
    1648:	9a8d1063 	csel	x3, x3, x13, ne	// ne = any
    164c:	a942366c 	ldp	x12, x13, [x19, #32]
    1650:	9a8c1084 	csel	x4, x4, x12, ne	// ne = any
    1654:	9a8d10a5 	csel	x5, x5, x13, ne	// ne = any
    1658:	a943366c 	ldp	x12, x13, [x19, #48]
    165c:	9a8c10c6 	csel	x6, x6, x12, ne	// ne = any
    1660:	9a8d10e7 	csel	x7, x7, x13, ne	// ne = any
    1664:	a944366c 	ldp	x12, x13, [x19, #64]
    1668:	9a8c1108 	csel	x8, x8, x12, ne	// ne = any
    166c:	9a8d1129 	csel	x9, x9, x13, ne	// ne = any
    1670:	a945366c 	ldp	x12, x13, [x19, #80]
    1674:	9a8c114a 	csel	x10, x10, x12, ne	// ne = any
    1678:	9a8d116b 	csel	x11, x11, x13, ne	// ne = any
    167c:	91018273 	add	x19, x19, #0x60
    1680:	f10012df 	cmp	x22, #0x4
    1684:	a940366c 	ldp	x12, x13, [x19]
    1688:	9a8c1000 	csel	x0, x0, x12, ne	// ne = any
    168c:	9a8d1021 	csel	x1, x1, x13, ne	// ne = any
    1690:	a941366c 	ldp	x12, x13, [x19, #16]
    1694:	9a8c1042 	csel	x2, x2, x12, ne	// ne = any
    1698:	9a8d1063 	csel	x3, x3, x13, ne	// ne = any
    169c:	a942366c 	ldp	x12, x13, [x19, #32]
    16a0:	9a8c1084 	csel	x4, x4, x12, ne	// ne = any
    16a4:	9a8d10a5 	csel	x5, x5, x13, ne	// ne = any
    16a8:	a943366c 	ldp	x12, x13, [x19, #48]
    16ac:	9a8c10c6 	csel	x6, x6, x12, ne	// ne = any
    16b0:	9a8d10e7 	csel	x7, x7, x13, ne	// ne = any
    16b4:	a944366c 	ldp	x12, x13, [x19, #64]
    16b8:	9a8c1108 	csel	x8, x8, x12, ne	// ne = any
    16bc:	9a8d1129 	csel	x9, x9, x13, ne	// ne = any
    16c0:	a945366c 	ldp	x12, x13, [x19, #80]
    16c4:	9a8c114a 	csel	x10, x10, x12, ne	// ne = any
    16c8:	9a8d116b 	csel	x11, x11, x13, ne	// ne = any
    16cc:	91018273 	add	x19, x19, #0x60
    16d0:	f10016df 	cmp	x22, #0x5
    16d4:	a940366c 	ldp	x12, x13, [x19]
    16d8:	9a8c1000 	csel	x0, x0, x12, ne	// ne = any
    16dc:	9a8d1021 	csel	x1, x1, x13, ne	// ne = any
    16e0:	a941366c 	ldp	x12, x13, [x19, #16]
    16e4:	9a8c1042 	csel	x2, x2, x12, ne	// ne = any
    16e8:	9a8d1063 	csel	x3, x3, x13, ne	// ne = any
    16ec:	a942366c 	ldp	x12, x13, [x19, #32]
    16f0:	9a8c1084 	csel	x4, x4, x12, ne	// ne = any
    16f4:	9a8d10a5 	csel	x5, x5, x13, ne	// ne = any
    16f8:	a943366c 	ldp	x12, x13, [x19, #48]
    16fc:	9a8c10c6 	csel	x6, x6, x12, ne	// ne = any
    1700:	9a8d10e7 	csel	x7, x7, x13, ne	// ne = any
    1704:	a944366c 	ldp	x12, x13, [x19, #64]
    1708:	9a8c1108 	csel	x8, x8, x12, ne	// ne = any
    170c:	9a8d1129 	csel	x9, x9, x13, ne	// ne = any
    1710:	a945366c 	ldp	x12, x13, [x19, #80]
    1714:	9a8c114a 	csel	x10, x10, x12, ne	// ne = any
    1718:	9a8d116b 	csel	x11, x11, x13, ne	// ne = any
    171c:	91018273 	add	x19, x19, #0x60
    1720:	f1001adf 	cmp	x22, #0x6
    1724:	a940366c 	ldp	x12, x13, [x19]
    1728:	9a8c1000 	csel	x0, x0, x12, ne	// ne = any
    172c:	9a8d1021 	csel	x1, x1, x13, ne	// ne = any
    1730:	a941366c 	ldp	x12, x13, [x19, #16]
    1734:	9a8c1042 	csel	x2, x2, x12, ne	// ne = any
    1738:	9a8d1063 	csel	x3, x3, x13, ne	// ne = any
    173c:	a942366c 	ldp	x12, x13, [x19, #32]
    1740:	9a8c1084 	csel	x4, x4, x12, ne	// ne = any
    1744:	9a8d10a5 	csel	x5, x5, x13, ne	// ne = any
    1748:	a943366c 	ldp	x12, x13, [x19, #48]
    174c:	9a8c10c6 	csel	x6, x6, x12, ne	// ne = any
    1750:	9a8d10e7 	csel	x7, x7, x13, ne	// ne = any
    1754:	a944366c 	ldp	x12, x13, [x19, #64]
    1758:	9a8c1108 	csel	x8, x8, x12, ne	// ne = any
    175c:	9a8d1129 	csel	x9, x9, x13, ne	// ne = any
    1760:	a945366c 	ldp	x12, x13, [x19, #80]
    1764:	9a8c114a 	csel	x10, x10, x12, ne	// ne = any
    1768:	9a8d116b 	csel	x11, x11, x13, ne	// ne = any
    176c:	91018273 	add	x19, x19, #0x60
    1770:	f1001edf 	cmp	x22, #0x7
    1774:	a940366c 	ldp	x12, x13, [x19]
    1778:	9a8c1000 	csel	x0, x0, x12, ne	// ne = any
    177c:	9a8d1021 	csel	x1, x1, x13, ne	// ne = any
    1780:	a941366c 	ldp	x12, x13, [x19, #16]
    1784:	9a8c1042 	csel	x2, x2, x12, ne	// ne = any
    1788:	9a8d1063 	csel	x3, x3, x13, ne	// ne = any
    178c:	a942366c 	ldp	x12, x13, [x19, #32]
    1790:	9a8c1084 	csel	x4, x4, x12, ne	// ne = any
    1794:	9a8d10a5 	csel	x5, x5, x13, ne	// ne = any
    1798:	a943366c 	ldp	x12, x13, [x19, #48]
    179c:	9a8c10c6 	csel	x6, x6, x12, ne	// ne = any
    17a0:	9a8d10e7 	csel	x7, x7, x13, ne	// ne = any
    17a4:	a944366c 	ldp	x12, x13, [x19, #64]
    17a8:	9a8c1108 	csel	x8, x8, x12, ne	// ne = any
    17ac:	9a8d1129 	csel	x9, x9, x13, ne	// ne = any
    17b0:	a945366c 	ldp	x12, x13, [x19, #80]
    17b4:	9a8c114a 	csel	x10, x10, x12, ne	// ne = any
    17b8:	9a8d116b 	csel	x11, x11, x13, ne	// ne = any
    17bc:	91018273 	add	x19, x19, #0x60
    17c0:	f10022df 	cmp	x22, #0x8
    17c4:	a940366c 	ldp	x12, x13, [x19]
    17c8:	9a8c1000 	csel	x0, x0, x12, ne	// ne = any
    17cc:	9a8d1021 	csel	x1, x1, x13, ne	// ne = any
    17d0:	a941366c 	ldp	x12, x13, [x19, #16]
    17d4:	9a8c1042 	csel	x2, x2, x12, ne	// ne = any
    17d8:	9a8d1063 	csel	x3, x3, x13, ne	// ne = any
    17dc:	a942366c 	ldp	x12, x13, [x19, #32]
    17e0:	9a8c1084 	csel	x4, x4, x12, ne	// ne = any
    17e4:	9a8d10a5 	csel	x5, x5, x13, ne	// ne = any
    17e8:	a943366c 	ldp	x12, x13, [x19, #48]
    17ec:	9a8c10c6 	csel	x6, x6, x12, ne	// ne = any
    17f0:	9a8d10e7 	csel	x7, x7, x13, ne	// ne = any
    17f4:	a944366c 	ldp	x12, x13, [x19, #64]
    17f8:	9a8c1108 	csel	x8, x8, x12, ne	// ne = any
    17fc:	9a8d1129 	csel	x9, x9, x13, ne	// ne = any
    1800:	a945366c 	ldp	x12, x13, [x19, #80]
    1804:	9a8c114a 	csel	x10, x10, x12, ne	// ne = any
    1808:	9a8d116b 	csel	x11, x11, x13, ne	// ne = any
    180c:	91018273 	add	x19, x19, #0x60
    1810:	f10002bf 	cmp	x21, #0x0
    1814:	9a84000c 	csel	x12, x0, x4, eq	// eq = none
    1818:	9a85002d 	csel	x13, x1, x5, eq	// eq = none
    181c:	9a86004e 	csel	x14, x2, x6, eq	// eq = none
    1820:	9a87006f 	csel	x15, x3, x7, eq	// eq = none
    1824:	a90237ec 	stp	x12, x13, [sp, #32]
    1828:	a9033fee 	stp	x14, x15, [sp, #48]
    182c:	9a84100c 	csel	x12, x0, x4, ne	// ne = any
    1830:	9a85102d 	csel	x13, x1, x5, ne	// ne = any
    1834:	9a86104e 	csel	x14, x2, x6, ne	// ne = any
    1838:	9a87106f 	csel	x15, x3, x7, ne	// ne = any
    183c:	a90437ec 	stp	x12, x13, [sp, #64]
    1840:	a9053fee 	stp	x14, x15, [sp, #80]
    1844:	92800240 	mov	x0, #0xffffffffffffffed    	// #-19
    1848:	eb080000 	subs	x0, x0, x8
    184c:	92800002 	mov	x2, #0xffffffffffffffff    	// #-1
    1850:	fa090041 	sbcs	x1, x2, x9
    1854:	fa0a0042 	sbcs	x2, x2, x10
    1858:	92f00003 	mov	x3, #0x7fffffffffffffff    	// #9223372036854775807
    185c:	da0b0063 	sbc	x3, x3, x11
    1860:	eb1f02df 	cmp	x22, xzr
    1864:	fa5f12a4 	ccmp	x21, xzr, #0x4, ne	// ne = any
    1868:	9a881000 	csel	x0, x0, x8, ne	// ne = any
    186c:	9a891021 	csel	x1, x1, x9, ne	// ne = any
    1870:	a90607e0 	stp	x0, x1, [sp, #96]
    1874:	9a8a1042 	csel	x2, x2, x10, ne	// ne = any
    1878:	9a8b1063 	csel	x3, x3, x11, ne	// ne = any
    187c:	a9070fe2 	stp	x2, x3, [sp, #112]
    1880:	a94c13e3 	ldp	x3, x4, [sp, #192]
    1884:	ab030063 	adds	x3, x3, x3
    1888:	ba040084 	adcs	x4, x4, x4
    188c:	a94d1be5 	ldp	x5, x6, [sp, #208]
    1890:	ba0500a5 	adcs	x5, x5, x5
    1894:	ba0600c6 	adcs	x6, x6, x6
    1898:	d28004c9 	mov	x9, #0x26                  	// #38
    189c:	9a9f2129 	csel	x9, x9, xzr, cs	// cs = hs, nlast
    18a0:	ab090063 	adds	x3, x3, x9
    18a4:	ba1f0084 	adcs	x4, x4, xzr
    18a8:	ba1f00a5 	adcs	x5, x5, xzr
    18ac:	9a1f00c6 	adc	x6, x6, xzr
    18b0:	a91013e3 	stp	x3, x4, [sp, #256]
    18b4:	a9111be5 	stp	x5, x6, [sp, #272]
    18b8:	a94a1be5 	ldp	x5, x6, [sp, #160]
    18bc:	a9480fe4 	ldp	x4, x3, [sp, #128]
    18c0:	eb0400a5 	subs	x5, x5, x4
    18c4:	fa0300c6 	sbcs	x6, x6, x3
    18c8:	a94b23e7 	ldp	x7, x8, [sp, #176]
    18cc:	a9490fe4 	ldp	x4, x3, [sp, #144]
    18d0:	fa0400e7 	sbcs	x7, x7, x4
    18d4:	fa030108 	sbcs	x8, x8, x3
    18d8:	d28004c4 	mov	x4, #0x26                  	// #38
    18dc:	9a9f3083 	csel	x3, x4, xzr, cc	// cc = lo, ul, last
    18e0:	eb0300a5 	subs	x5, x5, x3
    18e4:	fa1f00c6 	sbcs	x6, x6, xzr
    18e8:	fa1f00e7 	sbcs	x7, x7, xzr
    18ec:	da1f0108 	sbc	x8, x8, xzr
    18f0:	a9121be5 	stp	x5, x6, [sp, #288]
    18f4:	a91323e7 	stp	x7, x8, [sp, #304]
    18f8:	a94a13e3 	ldp	x3, x4, [sp, #160]
    18fc:	a94823e7 	ldp	x7, x8, [sp, #128]
    1900:	ab070063 	adds	x3, x3, x7
    1904:	ba080084 	adcs	x4, x4, x8
    1908:	a94b1be5 	ldp	x5, x6, [sp, #176]
    190c:	a94923e7 	ldp	x7, x8, [sp, #144]
    1910:	ba0700a5 	adcs	x5, x5, x7
    1914:	ba0800c6 	adcs	x6, x6, x8
    1918:	d28004c9 	mov	x9, #0x26                  	// #38
    191c:	9a9f2129 	csel	x9, x9, xzr, cs	// cs = hs, nlast
    1920:	ab090063 	adds	x3, x3, x9
    1924:	ba1f0084 	adcs	x4, x4, xzr
    1928:	ba1f00a5 	adcs	x5, x5, xzr
    192c:	9a1f00c6 	adc	x6, x6, xzr
    1930:	a91413e3 	stp	x3, x4, [sp, #320]
    1934:	a9151be5 	stp	x5, x6, [sp, #336]
    1938:	a94e13e3 	ldp	x3, x4, [sp, #224]
    193c:	a94623e7 	ldp	x7, x8, [sp, #96]
    1940:	9b077c6c 	mul	x12, x3, x7
    1944:	9bc77c6d 	umulh	x13, x3, x7
    1948:	9b087c6b 	mul	x11, x3, x8
    194c:	9bc87c6e 	umulh	x14, x3, x8
    1950:	ab0b01ad 	adds	x13, x13, x11
    1954:	a9472be9 	ldp	x9, x10, [sp, #112]
    1958:	9b097c6b 	mul	x11, x3, x9
    195c:	9bc97c6f 	umulh	x15, x3, x9
    1960:	ba0b01ce 	adcs	x14, x14, x11
    1964:	9b0a7c6b 	mul	x11, x3, x10
    1968:	9bca7c70 	umulh	x16, x3, x10
    196c:	ba0b01ef 	adcs	x15, x15, x11
    1970:	9a1f0210 	adc	x16, x16, xzr
    1974:	a94f1be5 	ldp	x5, x6, [sp, #240]
    1978:	9b077c8b 	mul	x11, x4, x7
    197c:	ab0b01ad 	adds	x13, x13, x11
    1980:	9b087c8b 	mul	x11, x4, x8
    1984:	ba0b01ce 	adcs	x14, x14, x11
    1988:	9b097c8b 	mul	x11, x4, x9
    198c:	ba0b01ef 	adcs	x15, x15, x11
    1990:	9b0a7c8b 	mul	x11, x4, x10
    1994:	ba0b0210 	adcs	x16, x16, x11
    1998:	9bca7c83 	umulh	x3, x4, x10
    199c:	9a1f0063 	adc	x3, x3, xzr
    19a0:	9bc77c8b 	umulh	x11, x4, x7
    19a4:	ab0b01ce 	adds	x14, x14, x11
    19a8:	9bc87c8b 	umulh	x11, x4, x8
    19ac:	ba0b01ef 	adcs	x15, x15, x11
    19b0:	9bc97c8b 	umulh	x11, x4, x9
    19b4:	ba0b0210 	adcs	x16, x16, x11
    19b8:	9a1f0063 	adc	x3, x3, xzr
    19bc:	9b077cab 	mul	x11, x5, x7
    19c0:	ab0b01ce 	adds	x14, x14, x11
    19c4:	9b087cab 	mul	x11, x5, x8
    19c8:	ba0b01ef 	adcs	x15, x15, x11
    19cc:	9b097cab 	mul	x11, x5, x9
    19d0:	ba0b0210 	adcs	x16, x16, x11
    19d4:	9b0a7cab 	mul	x11, x5, x10
    19d8:	ba0b0063 	adcs	x3, x3, x11
    19dc:	9bca7ca4 	umulh	x4, x5, x10
    19e0:	9a1f0084 	adc	x4, x4, xzr
    19e4:	9bc77cab 	umulh	x11, x5, x7
    19e8:	ab0b01ef 	adds	x15, x15, x11
    19ec:	9bc87cab 	umulh	x11, x5, x8
    19f0:	ba0b0210 	adcs	x16, x16, x11
    19f4:	9bc97cab 	umulh	x11, x5, x9
    19f8:	ba0b0063 	adcs	x3, x3, x11
    19fc:	9a1f0084 	adc	x4, x4, xzr
    1a00:	9b077ccb 	mul	x11, x6, x7
    1a04:	ab0b01ef 	adds	x15, x15, x11
    1a08:	9b087ccb 	mul	x11, x6, x8
    1a0c:	ba0b0210 	adcs	x16, x16, x11
    1a10:	9b097ccb 	mul	x11, x6, x9
    1a14:	ba0b0063 	adcs	x3, x3, x11
    1a18:	9b0a7ccb 	mul	x11, x6, x10
    1a1c:	ba0b0084 	adcs	x4, x4, x11
    1a20:	9bca7cc5 	umulh	x5, x6, x10
    1a24:	9a1f00a5 	adc	x5, x5, xzr
    1a28:	9bc77ccb 	umulh	x11, x6, x7
    1a2c:	ab0b0210 	adds	x16, x16, x11
    1a30:	9bc87ccb 	umulh	x11, x6, x8
    1a34:	ba0b0063 	adcs	x3, x3, x11
    1a38:	9bc97ccb 	umulh	x11, x6, x9
    1a3c:	ba0b0084 	adcs	x4, x4, x11
    1a40:	9a1f00a5 	adc	x5, x5, xzr
    1a44:	d28004c7 	mov	x7, #0x26                  	// #38
    1a48:	9b107ceb 	mul	x11, x7, x16
    1a4c:	9bd07ce9 	umulh	x9, x7, x16
    1a50:	ab0b018c 	adds	x12, x12, x11
    1a54:	9b037ceb 	mul	x11, x7, x3
    1a58:	9bc37ce3 	umulh	x3, x7, x3
    1a5c:	ba0b01ad 	adcs	x13, x13, x11
    1a60:	9b047ceb 	mul	x11, x7, x4
    1a64:	9bc47ce4 	umulh	x4, x7, x4
    1a68:	ba0b01ce 	adcs	x14, x14, x11
    1a6c:	9b057ceb 	mul	x11, x7, x5
    1a70:	9bc57ce5 	umulh	x5, x7, x5
    1a74:	ba0b01ef 	adcs	x15, x15, x11
    1a78:	9a9f37f0 	cset	x16, cs	// cs = hs, nlast
    1a7c:	ab0401ef 	adds	x15, x15, x4
    1a80:	9a050210 	adc	x16, x16, x5
    1a84:	ab0f01ff 	cmn	x15, x15
    1a88:	9240f9ef 	and	x15, x15, #0x7fffffffffffffff
    1a8c:	9a100208 	adc	x8, x16, x16
    1a90:	d2800267 	mov	x7, #0x13                  	// #19
    1a94:	9b087ceb 	mul	x11, x7, x8
    1a98:	ab0b018c 	adds	x12, x12, x11
    1a9c:	ba0901ad 	adcs	x13, x13, x9
    1aa0:	ba0301ce 	adcs	x14, x14, x3
    1aa4:	9a1f01ef 	adc	x15, x15, xzr
    1aa8:	a91637ec 	stp	x12, x13, [sp, #352]
    1aac:	a9173fee 	stp	x14, x15, [sp, #368]
    1ab0:	a95213e3 	ldp	x3, x4, [sp, #288]
    1ab4:	a94223e7 	ldp	x7, x8, [sp, #32]
    1ab8:	9b077c6c 	mul	x12, x3, x7
    1abc:	9bc77c6d 	umulh	x13, x3, x7
    1ac0:	9b087c6b 	mul	x11, x3, x8
    1ac4:	9bc87c6e 	umulh	x14, x3, x8
    1ac8:	ab0b01ad 	adds	x13, x13, x11
    1acc:	a9432be9 	ldp	x9, x10, [sp, #48]
    1ad0:	9b097c6b 	mul	x11, x3, x9
    1ad4:	9bc97c6f 	umulh	x15, x3, x9
    1ad8:	ba0b01ce 	adcs	x14, x14, x11
    1adc:	9b0a7c6b 	mul	x11, x3, x10
    1ae0:	9bca7c70 	umulh	x16, x3, x10
    1ae4:	ba0b01ef 	adcs	x15, x15, x11
    1ae8:	9a1f0210 	adc	x16, x16, xzr
    1aec:	a9531be5 	ldp	x5, x6, [sp, #304]
    1af0:	9b077c8b 	mul	x11, x4, x7
    1af4:	ab0b01ad 	adds	x13, x13, x11
    1af8:	9b087c8b 	mul	x11, x4, x8
    1afc:	ba0b01ce 	adcs	x14, x14, x11
    1b00:	9b097c8b 	mul	x11, x4, x9
    1b04:	ba0b01ef 	adcs	x15, x15, x11
    1b08:	9b0a7c8b 	mul	x11, x4, x10
    1b0c:	ba0b0210 	adcs	x16, x16, x11
    1b10:	9bca7c83 	umulh	x3, x4, x10
    1b14:	9a1f0063 	adc	x3, x3, xzr
    1b18:	9bc77c8b 	umulh	x11, x4, x7
    1b1c:	ab0b01ce 	adds	x14, x14, x11
    1b20:	9bc87c8b 	umulh	x11, x4, x8
    1b24:	ba0b01ef 	adcs	x15, x15, x11
    1b28:	9bc97c8b 	umulh	x11, x4, x9
    1b2c:	ba0b0210 	adcs	x16, x16, x11
    1b30:	9a1f0063 	adc	x3, x3, xzr
    1b34:	9b077cab 	mul	x11, x5, x7
    1b38:	ab0b01ce 	adds	x14, x14, x11
    1b3c:	9b087cab 	mul	x11, x5, x8
    1b40:	ba0b01ef 	adcs	x15, x15, x11
    1b44:	9b097cab 	mul	x11, x5, x9
    1b48:	ba0b0210 	adcs	x16, x16, x11
    1b4c:	9b0a7cab 	mul	x11, x5, x10
    1b50:	ba0b0063 	adcs	x3, x3, x11
    1b54:	9bca7ca4 	umulh	x4, x5, x10
    1b58:	9a1f0084 	adc	x4, x4, xzr
    1b5c:	9bc77cab 	umulh	x11, x5, x7
    1b60:	ab0b01ef 	adds	x15, x15, x11
    1b64:	9bc87cab 	umulh	x11, x5, x8
    1b68:	ba0b0210 	adcs	x16, x16, x11
    1b6c:	9bc97cab 	umulh	x11, x5, x9
    1b70:	ba0b0063 	adcs	x3, x3, x11
    1b74:	9a1f0084 	adc	x4, x4, xzr
    1b78:	9b077ccb 	mul	x11, x6, x7
    1b7c:	ab0b01ef 	adds	x15, x15, x11
    1b80:	9b087ccb 	mul	x11, x6, x8
    1b84:	ba0b0210 	adcs	x16, x16, x11
    1b88:	9b097ccb 	mul	x11, x6, x9
    1b8c:	ba0b0063 	adcs	x3, x3, x11
    1b90:	9b0a7ccb 	mul	x11, x6, x10
    1b94:	ba0b0084 	adcs	x4, x4, x11
    1b98:	9bca7cc5 	umulh	x5, x6, x10
    1b9c:	9a1f00a5 	adc	x5, x5, xzr
    1ba0:	9bc77ccb 	umulh	x11, x6, x7
    1ba4:	ab0b0210 	adds	x16, x16, x11
    1ba8:	9bc87ccb 	umulh	x11, x6, x8
    1bac:	ba0b0063 	adcs	x3, x3, x11
    1bb0:	9bc97ccb 	umulh	x11, x6, x9
    1bb4:	ba0b0084 	adcs	x4, x4, x11
    1bb8:	9a1f00a5 	adc	x5, x5, xzr
    1bbc:	d28004c7 	mov	x7, #0x26                  	// #38
    1bc0:	9b107ceb 	mul	x11, x7, x16
    1bc4:	9bd07ce9 	umulh	x9, x7, x16
    1bc8:	ab0b018c 	adds	x12, x12, x11
    1bcc:	9b037ceb 	mul	x11, x7, x3
    1bd0:	9bc37ce3 	umulh	x3, x7, x3
    1bd4:	ba0b01ad 	adcs	x13, x13, x11
    1bd8:	9b047ceb 	mul	x11, x7, x4
    1bdc:	9bc47ce4 	umulh	x4, x7, x4
    1be0:	ba0b01ce 	adcs	x14, x14, x11
    1be4:	9b057ceb 	mul	x11, x7, x5
    1be8:	9bc57ce5 	umulh	x5, x7, x5
    1bec:	ba0b01ef 	adcs	x15, x15, x11
    1bf0:	9a9f37f0 	cset	x16, cs	// cs = hs, nlast
    1bf4:	ab0401ef 	adds	x15, x15, x4
    1bf8:	9a050210 	adc	x16, x16, x5
    1bfc:	ab0f01ff 	cmn	x15, x15
    1c00:	9240f9ef 	and	x15, x15, #0x7fffffffffffffff
    1c04:	9a100208 	adc	x8, x16, x16
    1c08:	d2800267 	mov	x7, #0x13                  	// #19
    1c0c:	9b087ceb 	mul	x11, x7, x8
    1c10:	ab0b018c 	adds	x12, x12, x11
    1c14:	ba0901ad 	adcs	x13, x13, x9
    1c18:	ba0301ce 	adcs	x14, x14, x3
    1c1c:	9a1f01ef 	adc	x15, x15, xzr
    1c20:	a91237ec 	stp	x12, x13, [sp, #288]
    1c24:	a9133fee 	stp	x14, x15, [sp, #304]
    1c28:	a95413e3 	ldp	x3, x4, [sp, #320]
    1c2c:	a94423e7 	ldp	x7, x8, [sp, #64]
    1c30:	9b077c6c 	mul	x12, x3, x7
    1c34:	9bc77c6d 	umulh	x13, x3, x7
    1c38:	9b087c6b 	mul	x11, x3, x8
    1c3c:	9bc87c6e 	umulh	x14, x3, x8
    1c40:	ab0b01ad 	adds	x13, x13, x11
    1c44:	a9452be9 	ldp	x9, x10, [sp, #80]
    1c48:	9b097c6b 	mul	x11, x3, x9
    1c4c:	9bc97c6f 	umulh	x15, x3, x9
    1c50:	ba0b01ce 	adcs	x14, x14, x11
    1c54:	9b0a7c6b 	mul	x11, x3, x10
    1c58:	9bca7c70 	umulh	x16, x3, x10
    1c5c:	ba0b01ef 	adcs	x15, x15, x11
    1c60:	9a1f0210 	adc	x16, x16, xzr
    1c64:	a9551be5 	ldp	x5, x6, [sp, #336]
    1c68:	9b077c8b 	mul	x11, x4, x7
    1c6c:	ab0b01ad 	adds	x13, x13, x11
    1c70:	9b087c8b 	mul	x11, x4, x8
    1c74:	ba0b01ce 	adcs	x14, x14, x11
    1c78:	9b097c8b 	mul	x11, x4, x9
    1c7c:	ba0b01ef 	adcs	x15, x15, x11
    1c80:	9b0a7c8b 	mul	x11, x4, x10
    1c84:	ba0b0210 	adcs	x16, x16, x11
    1c88:	9bca7c83 	umulh	x3, x4, x10
    1c8c:	9a1f0063 	adc	x3, x3, xzr
    1c90:	9bc77c8b 	umulh	x11, x4, x7
    1c94:	ab0b01ce 	adds	x14, x14, x11
    1c98:	9bc87c8b 	umulh	x11, x4, x8
    1c9c:	ba0b01ef 	adcs	x15, x15, x11
    1ca0:	9bc97c8b 	umulh	x11, x4, x9
    1ca4:	ba0b0210 	adcs	x16, x16, x11
    1ca8:	9a1f0063 	adc	x3, x3, xzr
    1cac:	9b077cab 	mul	x11, x5, x7
    1cb0:	ab0b01ce 	adds	x14, x14, x11
    1cb4:	9b087cab 	mul	x11, x5, x8
    1cb8:	ba0b01ef 	adcs	x15, x15, x11
    1cbc:	9b097cab 	mul	x11, x5, x9
    1cc0:	ba0b0210 	adcs	x16, x16, x11
    1cc4:	9b0a7cab 	mul	x11, x5, x10
    1cc8:	ba0b0063 	adcs	x3, x3, x11
    1ccc:	9bca7ca4 	umulh	x4, x5, x10
    1cd0:	9a1f0084 	adc	x4, x4, xzr
    1cd4:	9bc77cab 	umulh	x11, x5, x7
    1cd8:	ab0b01ef 	adds	x15, x15, x11
    1cdc:	9bc87cab 	umulh	x11, x5, x8
    1ce0:	ba0b0210 	adcs	x16, x16, x11
    1ce4:	9bc97cab 	umulh	x11, x5, x9
    1ce8:	ba0b0063 	adcs	x3, x3, x11
    1cec:	9a1f0084 	adc	x4, x4, xzr
    1cf0:	9b077ccb 	mul	x11, x6, x7
    1cf4:	ab0b01ef 	adds	x15, x15, x11
    1cf8:	9b087ccb 	mul	x11, x6, x8
    1cfc:	ba0b0210 	adcs	x16, x16, x11
    1d00:	9b097ccb 	mul	x11, x6, x9
    1d04:	ba0b0063 	adcs	x3, x3, x11
    1d08:	9b0a7ccb 	mul	x11, x6, x10
    1d0c:	ba0b0084 	adcs	x4, x4, x11
    1d10:	9bca7cc5 	umulh	x5, x6, x10
    1d14:	9a1f00a5 	adc	x5, x5, xzr
    1d18:	9bc77ccb 	umulh	x11, x6, x7
    1d1c:	ab0b0210 	adds	x16, x16, x11
    1d20:	9bc87ccb 	umulh	x11, x6, x8
    1d24:	ba0b0063 	adcs	x3, x3, x11
    1d28:	9bc97ccb 	umulh	x11, x6, x9
    1d2c:	ba0b0084 	adcs	x4, x4, x11
    1d30:	9a1f00a5 	adc	x5, x5, xzr
    1d34:	d28004c7 	mov	x7, #0x26                  	// #38
    1d38:	9b107ceb 	mul	x11, x7, x16
    1d3c:	9bd07ce9 	umulh	x9, x7, x16
    1d40:	ab0b018c 	adds	x12, x12, x11
    1d44:	9b037ceb 	mul	x11, x7, x3
    1d48:	9bc37ce3 	umulh	x3, x7, x3
    1d4c:	ba0b01ad 	adcs	x13, x13, x11
    1d50:	9b047ceb 	mul	x11, x7, x4
    1d54:	9bc47ce4 	umulh	x4, x7, x4
    1d58:	ba0b01ce 	adcs	x14, x14, x11
    1d5c:	9b057ceb 	mul	x11, x7, x5
    1d60:	9bc57ce5 	umulh	x5, x7, x5
    1d64:	ba0b01ef 	adcs	x15, x15, x11
    1d68:	9a9f37f0 	cset	x16, cs	// cs = hs, nlast
    1d6c:	ab0401ef 	adds	x15, x15, x4
    1d70:	9a050210 	adc	x16, x16, x5
    1d74:	ab0f01ff 	cmn	x15, x15
    1d78:	9240f9ef 	and	x15, x15, #0x7fffffffffffffff
    1d7c:	9a100208 	adc	x8, x16, x16
    1d80:	d2800267 	mov	x7, #0x13                  	// #19
    1d84:	9b087ceb 	mul	x11, x7, x8
    1d88:	ab0b018c 	adds	x12, x12, x11
    1d8c:	ba0901ad 	adcs	x13, x13, x9
    1d90:	ba0301ce 	adcs	x14, x14, x3
    1d94:	9a1f01ef 	adc	x15, x15, xzr
    1d98:	a91437ec 	stp	x12, x13, [sp, #320]
    1d9c:	a9153fee 	stp	x14, x15, [sp, #336]
    1da0:	a9501be5 	ldp	x5, x6, [sp, #256]
    1da4:	a9560fe4 	ldp	x4, x3, [sp, #352]
    1da8:	eb0400a5 	subs	x5, x5, x4
    1dac:	fa0300c6 	sbcs	x6, x6, x3
    1db0:	a95123e7 	ldp	x7, x8, [sp, #272]
    1db4:	a9570fe4 	ldp	x4, x3, [sp, #368]
    1db8:	fa0400e7 	sbcs	x7, x7, x4
    1dbc:	fa030108 	sbcs	x8, x8, x3
    1dc0:	d28004c4 	mov	x4, #0x26                  	// #38
    1dc4:	9a9f3083 	csel	x3, x4, xzr, cc	// cc = lo, ul, last
    1dc8:	eb0300a5 	subs	x5, x5, x3
    1dcc:	fa1f00c6 	sbcs	x6, x6, xzr
    1dd0:	fa1f00e7 	sbcs	x7, x7, xzr
    1dd4:	da1f0108 	sbc	x8, x8, xzr
    1dd8:	a9181be5 	stp	x5, x6, [sp, #384]
    1ddc:	a91923e7 	stp	x7, x8, [sp, #400]
    1de0:	a95013e3 	ldp	x3, x4, [sp, #256]
    1de4:	a95623e7 	ldp	x7, x8, [sp, #352]
    1de8:	ab070063 	adds	x3, x3, x7
    1dec:	ba080084 	adcs	x4, x4, x8
    1df0:	a9511be5 	ldp	x5, x6, [sp, #272]
    1df4:	a95723e7 	ldp	x7, x8, [sp, #368]
    1df8:	ba0700a5 	adcs	x5, x5, x7
    1dfc:	ba0800c6 	adcs	x6, x6, x8
    1e00:	d28004c9 	mov	x9, #0x26                  	// #38
    1e04:	9a9f2129 	csel	x9, x9, xzr, cs	// cs = hs, nlast
    1e08:	ab090063 	adds	x3, x3, x9
    1e0c:	ba1f0084 	adcs	x4, x4, xzr
    1e10:	ba1f00a5 	adcs	x5, x5, xzr
    1e14:	9a1f00c6 	adc	x6, x6, xzr
    1e18:	a91013e3 	stp	x3, x4, [sp, #256]
    1e1c:	a9111be5 	stp	x5, x6, [sp, #272]
    1e20:	a9541be5 	ldp	x5, x6, [sp, #320]
    1e24:	a9520fe4 	ldp	x4, x3, [sp, #288]
    1e28:	eb0400a5 	subs	x5, x5, x4
    1e2c:	fa0300c6 	sbcs	x6, x6, x3
    1e30:	a95523e7 	ldp	x7, x8, [sp, #336]
    1e34:	a9530fe4 	ldp	x4, x3, [sp, #304]
    1e38:	fa0400e7 	sbcs	x7, x7, x4
    1e3c:	fa030108 	sbcs	x8, x8, x3
    1e40:	d28004c4 	mov	x4, #0x26                  	// #38
    1e44:	9a9f3083 	csel	x3, x4, xzr, cc	// cc = lo, ul, last
    1e48:	eb0300a5 	subs	x5, x5, x3
    1e4c:	fa1f00c6 	sbcs	x6, x6, xzr
    1e50:	fa1f00e7 	sbcs	x7, x7, xzr
    1e54:	da1f0108 	sbc	x8, x8, xzr
    1e58:	a91a1be5 	stp	x5, x6, [sp, #416]
    1e5c:	a91b23e7 	stp	x7, x8, [sp, #432]
    1e60:	a95413e3 	ldp	x3, x4, [sp, #320]
    1e64:	a95223e7 	ldp	x7, x8, [sp, #288]
    1e68:	ab070063 	adds	x3, x3, x7
    1e6c:	ba080084 	adcs	x4, x4, x8
    1e70:	a9551be5 	ldp	x5, x6, [sp, #336]
    1e74:	a95323e7 	ldp	x7, x8, [sp, #304]
    1e78:	ba0700a5 	adcs	x5, x5, x7
    1e7c:	ba0800c6 	adcs	x6, x6, x8
    1e80:	d28004c9 	mov	x9, #0x26                  	// #38
    1e84:	9a9f2129 	csel	x9, x9, xzr, cs	// cs = hs, nlast
    1e88:	ab090063 	adds	x3, x3, x9
    1e8c:	ba1f0084 	adcs	x4, x4, xzr
    1e90:	ba1f00a5 	adcs	x5, x5, xzr
    1e94:	9a1f00c6 	adc	x6, x6, xzr
    1e98:	a91213e3 	stp	x3, x4, [sp, #288]
    1e9c:	a9131be5 	stp	x5, x6, [sp, #304]
    1ea0:	a95813e3 	ldp	x3, x4, [sp, #384]
    1ea4:	a95023e7 	ldp	x7, x8, [sp, #256]
    1ea8:	9b077c6c 	mul	x12, x3, x7
    1eac:	9bc77c6d 	umulh	x13, x3, x7
    1eb0:	9b087c6b 	mul	x11, x3, x8
    1eb4:	9bc87c6e 	umulh	x14, x3, x8
    1eb8:	ab0b01ad 	adds	x13, x13, x11
    1ebc:	a9512be9 	ldp	x9, x10, [sp, #272]
    1ec0:	9b097c6b 	mul	x11, x3, x9
    1ec4:	9bc97c6f 	umulh	x15, x3, x9
    1ec8:	ba0b01ce 	adcs	x14, x14, x11
    1ecc:	9b0a7c6b 	mul	x11, x3, x10
    1ed0:	9bca7c70 	umulh	x16, x3, x10
    1ed4:	ba0b01ef 	adcs	x15, x15, x11
    1ed8:	9a1f0210 	adc	x16, x16, xzr
    1edc:	a9591be5 	ldp	x5, x6, [sp, #400]
    1ee0:	9b077c8b 	mul	x11, x4, x7
    1ee4:	ab0b01ad 	adds	x13, x13, x11
    1ee8:	9b087c8b 	mul	x11, x4, x8
    1eec:	ba0b01ce 	adcs	x14, x14, x11
    1ef0:	9b097c8b 	mul	x11, x4, x9
    1ef4:	ba0b01ef 	adcs	x15, x15, x11
    1ef8:	9b0a7c8b 	mul	x11, x4, x10
    1efc:	ba0b0210 	adcs	x16, x16, x11
    1f00:	9bca7c83 	umulh	x3, x4, x10
    1f04:	9a1f0063 	adc	x3, x3, xzr
    1f08:	9bc77c8b 	umulh	x11, x4, x7
    1f0c:	ab0b01ce 	adds	x14, x14, x11
    1f10:	9bc87c8b 	umulh	x11, x4, x8
    1f14:	ba0b01ef 	adcs	x15, x15, x11
    1f18:	9bc97c8b 	umulh	x11, x4, x9
    1f1c:	ba0b0210 	adcs	x16, x16, x11
    1f20:	9a1f0063 	adc	x3, x3, xzr
    1f24:	9b077cab 	mul	x11, x5, x7
    1f28:	ab0b01ce 	adds	x14, x14, x11
    1f2c:	9b087cab 	mul	x11, x5, x8
    1f30:	ba0b01ef 	adcs	x15, x15, x11
    1f34:	9b097cab 	mul	x11, x5, x9
    1f38:	ba0b0210 	adcs	x16, x16, x11
    1f3c:	9b0a7cab 	mul	x11, x5, x10
    1f40:	ba0b0063 	adcs	x3, x3, x11
    1f44:	9bca7ca4 	umulh	x4, x5, x10
    1f48:	9a1f0084 	adc	x4, x4, xzr
    1f4c:	9bc77cab 	umulh	x11, x5, x7
    1f50:	ab0b01ef 	adds	x15, x15, x11
    1f54:	9bc87cab 	umulh	x11, x5, x8
    1f58:	ba0b0210 	adcs	x16, x16, x11
    1f5c:	9bc97cab 	umulh	x11, x5, x9
    1f60:	ba0b0063 	adcs	x3, x3, x11
    1f64:	9a1f0084 	adc	x4, x4, xzr
    1f68:	9b077ccb 	mul	x11, x6, x7
    1f6c:	ab0b01ef 	adds	x15, x15, x11
    1f70:	9b087ccb 	mul	x11, x6, x8
    1f74:	ba0b0210 	adcs	x16, x16, x11
    1f78:	9b097ccb 	mul	x11, x6, x9
    1f7c:	ba0b0063 	adcs	x3, x3, x11
    1f80:	9b0a7ccb 	mul	x11, x6, x10
    1f84:	ba0b0084 	adcs	x4, x4, x11
    1f88:	9bca7cc5 	umulh	x5, x6, x10
    1f8c:	9a1f00a5 	adc	x5, x5, xzr
    1f90:	9bc77ccb 	umulh	x11, x6, x7
    1f94:	ab0b0210 	adds	x16, x16, x11
    1f98:	9bc87ccb 	umulh	x11, x6, x8
    1f9c:	ba0b0063 	adcs	x3, x3, x11
    1fa0:	9bc97ccb 	umulh	x11, x6, x9
    1fa4:	ba0b0084 	adcs	x4, x4, x11
    1fa8:	9a1f00a5 	adc	x5, x5, xzr
    1fac:	d28004c7 	mov	x7, #0x26                  	// #38
    1fb0:	9b107ceb 	mul	x11, x7, x16
    1fb4:	9bd07ce9 	umulh	x9, x7, x16
    1fb8:	ab0b018c 	adds	x12, x12, x11
    1fbc:	9b037ceb 	mul	x11, x7, x3
    1fc0:	9bc37ce3 	umulh	x3, x7, x3
    1fc4:	ba0b01ad 	adcs	x13, x13, x11
    1fc8:	9b047ceb 	mul	x11, x7, x4
    1fcc:	9bc47ce4 	umulh	x4, x7, x4
    1fd0:	ba0b01ce 	adcs	x14, x14, x11
    1fd4:	9b057ceb 	mul	x11, x7, x5
    1fd8:	9bc57ce5 	umulh	x5, x7, x5
    1fdc:	ba0b01ef 	adcs	x15, x15, x11
    1fe0:	9a9f37f0 	cset	x16, cs	// cs = hs, nlast
    1fe4:	ab0401ef 	adds	x15, x15, x4
    1fe8:	9a050210 	adc	x16, x16, x5
    1fec:	ab0f01ff 	cmn	x15, x15
    1ff0:	9240f9ef 	and	x15, x15, #0x7fffffffffffffff
    1ff4:	9a100208 	adc	x8, x16, x16
    1ff8:	d2800267 	mov	x7, #0x13                  	// #19
    1ffc:	9b087ceb 	mul	x11, x7, x8
    2000:	ab0b018c 	adds	x12, x12, x11
    2004:	ba0901ad 	adcs	x13, x13, x9
    2008:	ba0301ce 	adcs	x14, x14, x3
    200c:	9a1f01ef 	adc	x15, x15, xzr
    2010:	a90c37ec 	stp	x12, x13, [sp, #192]
    2014:	a90d3fee 	stp	x14, x15, [sp, #208]
    2018:	a95a13e3 	ldp	x3, x4, [sp, #416]
    201c:	a95823e7 	ldp	x7, x8, [sp, #384]
    2020:	9b077c6c 	mul	x12, x3, x7
    2024:	9bc77c6d 	umulh	x13, x3, x7
    2028:	9b087c6b 	mul	x11, x3, x8
    202c:	9bc87c6e 	umulh	x14, x3, x8
    2030:	ab0b01ad 	adds	x13, x13, x11
    2034:	a9592be9 	ldp	x9, x10, [sp, #400]
    2038:	9b097c6b 	mul	x11, x3, x9
    203c:	9bc97c6f 	umulh	x15, x3, x9
    2040:	ba0b01ce 	adcs	x14, x14, x11
    2044:	9b0a7c6b 	mul	x11, x3, x10
    2048:	9bca7c70 	umulh	x16, x3, x10
    204c:	ba0b01ef 	adcs	x15, x15, x11
    2050:	9a1f0210 	adc	x16, x16, xzr
    2054:	a95b1be5 	ldp	x5, x6, [sp, #432]
    2058:	9b077c8b 	mul	x11, x4, x7
    205c:	ab0b01ad 	adds	x13, x13, x11
    2060:	9b087c8b 	mul	x11, x4, x8
    2064:	ba0b01ce 	adcs	x14, x14, x11
    2068:	9b097c8b 	mul	x11, x4, x9
    206c:	ba0b01ef 	adcs	x15, x15, x11
    2070:	9b0a7c8b 	mul	x11, x4, x10
    2074:	ba0b0210 	adcs	x16, x16, x11
    2078:	9bca7c83 	umulh	x3, x4, x10
    207c:	9a1f0063 	adc	x3, x3, xzr
    2080:	9bc77c8b 	umulh	x11, x4, x7
    2084:	ab0b01ce 	adds	x14, x14, x11
    2088:	9bc87c8b 	umulh	x11, x4, x8
    208c:	ba0b01ef 	adcs	x15, x15, x11
    2090:	9bc97c8b 	umulh	x11, x4, x9
    2094:	ba0b0210 	adcs	x16, x16, x11
    2098:	9a1f0063 	adc	x3, x3, xzr
    209c:	9b077cab 	mul	x11, x5, x7
    20a0:	ab0b01ce 	adds	x14, x14, x11
    20a4:	9b087cab 	mul	x11, x5, x8
    20a8:	ba0b01ef 	adcs	x15, x15, x11
    20ac:	9b097cab 	mul	x11, x5, x9
    20b0:	ba0b0210 	adcs	x16, x16, x11
    20b4:	9b0a7cab 	mul	x11, x5, x10
    20b8:	ba0b0063 	adcs	x3, x3, x11
    20bc:	9bca7ca4 	umulh	x4, x5, x10
    20c0:	9a1f0084 	adc	x4, x4, xzr
    20c4:	9bc77cab 	umulh	x11, x5, x7
    20c8:	ab0b01ef 	adds	x15, x15, x11
    20cc:	9bc87cab 	umulh	x11, x5, x8
    20d0:	ba0b0210 	adcs	x16, x16, x11
    20d4:	9bc97cab 	umulh	x11, x5, x9
    20d8:	ba0b0063 	adcs	x3, x3, x11
    20dc:	9a1f0084 	adc	x4, x4, xzr
    20e0:	9b077ccb 	mul	x11, x6, x7
    20e4:	ab0b01ef 	adds	x15, x15, x11
    20e8:	9b087ccb 	mul	x11, x6, x8
    20ec:	ba0b0210 	adcs	x16, x16, x11
    20f0:	9b097ccb 	mul	x11, x6, x9
    20f4:	ba0b0063 	adcs	x3, x3, x11
    20f8:	9b0a7ccb 	mul	x11, x6, x10
    20fc:	ba0b0084 	adcs	x4, x4, x11
    2100:	9bca7cc5 	umulh	x5, x6, x10
    2104:	9a1f00a5 	adc	x5, x5, xzr
    2108:	9bc77ccb 	umulh	x11, x6, x7
    210c:	ab0b0210 	adds	x16, x16, x11
    2110:	9bc87ccb 	umulh	x11, x6, x8
    2114:	ba0b0063 	adcs	x3, x3, x11
    2118:	9bc97ccb 	umulh	x11, x6, x9
    211c:	ba0b0084 	adcs	x4, x4, x11
    2120:	9a1f00a5 	adc	x5, x5, xzr
    2124:	d28004c7 	mov	x7, #0x26                  	// #38
    2128:	9b107ceb 	mul	x11, x7, x16
    212c:	9bd07ce9 	umulh	x9, x7, x16
    2130:	ab0b018c 	adds	x12, x12, x11
    2134:	9b037ceb 	mul	x11, x7, x3
    2138:	9bc37ce3 	umulh	x3, x7, x3
    213c:	ba0b01ad 	adcs	x13, x13, x11
    2140:	9b047ceb 	mul	x11, x7, x4
    2144:	9bc47ce4 	umulh	x4, x7, x4
    2148:	ba0b01ce 	adcs	x14, x14, x11
    214c:	9b057ceb 	mul	x11, x7, x5
    2150:	9bc57ce5 	umulh	x5, x7, x5
    2154:	ba0b01ef 	adcs	x15, x15, x11
    2158:	9a9f37f0 	cset	x16, cs	// cs = hs, nlast
    215c:	ab0401ef 	adds	x15, x15, x4
    2160:	9a050210 	adc	x16, x16, x5
    2164:	ab0f01ff 	cmn	x15, x15
    2168:	9240f9ef 	and	x15, x15, #0x7fffffffffffffff
    216c:	9a100208 	adc	x8, x16, x16
    2170:	d2800267 	mov	x7, #0x13                  	// #19
    2174:	9b087ceb 	mul	x11, x7, x8
    2178:	ab0b018c 	adds	x12, x12, x11
    217c:	ba0901ad 	adcs	x13, x13, x9
    2180:	ba0301ce 	adcs	x14, x14, x3
    2184:	9a1f01ef 	adc	x15, x15, xzr
    2188:	a90837ec 	stp	x12, x13, [sp, #128]
    218c:	a9093fee 	stp	x14, x15, [sp, #144]
    2190:	a95013e3 	ldp	x3, x4, [sp, #256]
    2194:	a95223e7 	ldp	x7, x8, [sp, #288]
    2198:	9b077c6c 	mul	x12, x3, x7
    219c:	9bc77c6d 	umulh	x13, x3, x7
    21a0:	9b087c6b 	mul	x11, x3, x8
    21a4:	9bc87c6e 	umulh	x14, x3, x8
    21a8:	ab0b01ad 	adds	x13, x13, x11
    21ac:	a9532be9 	ldp	x9, x10, [sp, #304]
    21b0:	9b097c6b 	mul	x11, x3, x9
    21b4:	9bc97c6f 	umulh	x15, x3, x9
    21b8:	ba0b01ce 	adcs	x14, x14, x11
    21bc:	9b0a7c6b 	mul	x11, x3, x10
    21c0:	9bca7c70 	umulh	x16, x3, x10
    21c4:	ba0b01ef 	adcs	x15, x15, x11
    21c8:	9a1f0210 	adc	x16, x16, xzr
    21cc:	a9511be5 	ldp	x5, x6, [sp, #272]
    21d0:	9b077c8b 	mul	x11, x4, x7
    21d4:	ab0b01ad 	adds	x13, x13, x11
    21d8:	9b087c8b 	mul	x11, x4, x8
    21dc:	ba0b01ce 	adcs	x14, x14, x11
    21e0:	9b097c8b 	mul	x11, x4, x9
    21e4:	ba0b01ef 	adcs	x15, x15, x11
    21e8:	9b0a7c8b 	mul	x11, x4, x10
    21ec:	ba0b0210 	adcs	x16, x16, x11
    21f0:	9bca7c83 	umulh	x3, x4, x10
    21f4:	9a1f0063 	adc	x3, x3, xzr
    21f8:	9bc77c8b 	umulh	x11, x4, x7
    21fc:	ab0b01ce 	adds	x14, x14, x11
    2200:	9bc87c8b 	umulh	x11, x4, x8
    2204:	ba0b01ef 	adcs	x15, x15, x11
    2208:	9bc97c8b 	umulh	x11, x4, x9
    220c:	ba0b0210 	adcs	x16, x16, x11
    2210:	9a1f0063 	adc	x3, x3, xzr
    2214:	9b077cab 	mul	x11, x5, x7
    2218:	ab0b01ce 	adds	x14, x14, x11
    221c:	9b087cab 	mul	x11, x5, x8
    2220:	ba0b01ef 	adcs	x15, x15, x11
    2224:	9b097cab 	mul	x11, x5, x9
    2228:	ba0b0210 	adcs	x16, x16, x11
    222c:	9b0a7cab 	mul	x11, x5, x10
    2230:	ba0b0063 	adcs	x3, x3, x11
    2234:	9bca7ca4 	umulh	x4, x5, x10
    2238:	9a1f0084 	adc	x4, x4, xzr
    223c:	9bc77cab 	umulh	x11, x5, x7
    2240:	ab0b01ef 	adds	x15, x15, x11
    2244:	9bc87cab 	umulh	x11, x5, x8
    2248:	ba0b0210 	adcs	x16, x16, x11
    224c:	9bc97cab 	umulh	x11, x5, x9
    2250:	ba0b0063 	adcs	x3, x3, x11
    2254:	9a1f0084 	adc	x4, x4, xzr
    2258:	9b077ccb 	mul	x11, x6, x7
    225c:	ab0b01ef 	adds	x15, x15, x11
    2260:	9b087ccb 	mul	x11, x6, x8
    2264:	ba0b0210 	adcs	x16, x16, x11
    2268:	9b097ccb 	mul	x11, x6, x9
    226c:	ba0b0063 	adcs	x3, x3, x11
    2270:	9b0a7ccb 	mul	x11, x6, x10
    2274:	ba0b0084 	adcs	x4, x4, x11
    2278:	9bca7cc5 	umulh	x5, x6, x10
    227c:	9a1f00a5 	adc	x5, x5, xzr
    2280:	9bc77ccb 	umulh	x11, x6, x7
    2284:	ab0b0210 	adds	x16, x16, x11
    2288:	9bc87ccb 	umulh	x11, x6, x8
    228c:	ba0b0063 	adcs	x3, x3, x11
    2290:	9bc97ccb 	umulh	x11, x6, x9
    2294:	ba0b0084 	adcs	x4, x4, x11
    2298:	9a1f00a5 	adc	x5, x5, xzr
    229c:	d28004c7 	mov	x7, #0x26                  	// #38
    22a0:	9b107ceb 	mul	x11, x7, x16
    22a4:	9bd07ce9 	umulh	x9, x7, x16
    22a8:	ab0b018c 	adds	x12, x12, x11
    22ac:	9b037ceb 	mul	x11, x7, x3
    22b0:	9bc37ce3 	umulh	x3, x7, x3
    22b4:	ba0b01ad 	adcs	x13, x13, x11
    22b8:	9b047ceb 	mul	x11, x7, x4
    22bc:	9bc47ce4 	umulh	x4, x7, x4
    22c0:	ba0b01ce 	adcs	x14, x14, x11
    22c4:	9b057ceb 	mul	x11, x7, x5
    22c8:	9bc57ce5 	umulh	x5, x7, x5
    22cc:	ba0b01ef 	adcs	x15, x15, x11
    22d0:	9a9f37f0 	cset	x16, cs	// cs = hs, nlast
    22d4:	ab0401ef 	adds	x15, x15, x4
    22d8:	9a050210 	adc	x16, x16, x5
    22dc:	ab0f01ff 	cmn	x15, x15
    22e0:	9240f9ef 	and	x15, x15, #0x7fffffffffffffff
    22e4:	9a100208 	adc	x8, x16, x16
    22e8:	d2800267 	mov	x7, #0x13                  	// #19
    22ec:	9b087ceb 	mul	x11, x7, x8
    22f0:	ab0b018c 	adds	x12, x12, x11
    22f4:	ba0901ad 	adcs	x13, x13, x9
    22f8:	ba0301ce 	adcs	x14, x14, x3
    22fc:	9a1f01ef 	adc	x15, x15, xzr
    2300:	a90a37ec 	stp	x12, x13, [sp, #160]
    2304:	a90b3fee 	stp	x14, x15, [sp, #176]
    2308:	a95a13e3 	ldp	x3, x4, [sp, #416]
    230c:	a95223e7 	ldp	x7, x8, [sp, #288]
    2310:	9b077c6c 	mul	x12, x3, x7
    2314:	9bc77c6d 	umulh	x13, x3, x7
    2318:	9b087c6b 	mul	x11, x3, x8
    231c:	9bc87c6e 	umulh	x14, x3, x8
    2320:	ab0b01ad 	adds	x13, x13, x11
    2324:	a9532be9 	ldp	x9, x10, [sp, #304]
    2328:	9b097c6b 	mul	x11, x3, x9
    232c:	9bc97c6f 	umulh	x15, x3, x9
    2330:	ba0b01ce 	adcs	x14, x14, x11
    2334:	9b0a7c6b 	mul	x11, x3, x10
    2338:	9bca7c70 	umulh	x16, x3, x10
    233c:	ba0b01ef 	adcs	x15, x15, x11
    2340:	9a1f0210 	adc	x16, x16, xzr
    2344:	a95b1be5 	ldp	x5, x6, [sp, #432]
    2348:	9b077c8b 	mul	x11, x4, x7
    234c:	ab0b01ad 	adds	x13, x13, x11
    2350:	9b087c8b 	mul	x11, x4, x8
    2354:	ba0b01ce 	adcs	x14, x14, x11
    2358:	9b097c8b 	mul	x11, x4, x9
    235c:	ba0b01ef 	adcs	x15, x15, x11
    2360:	9b0a7c8b 	mul	x11, x4, x10
    2364:	ba0b0210 	adcs	x16, x16, x11
    2368:	9bca7c83 	umulh	x3, x4, x10
    236c:	9a1f0063 	adc	x3, x3, xzr
    2370:	9bc77c8b 	umulh	x11, x4, x7
    2374:	ab0b01ce 	adds	x14, x14, x11
    2378:	9bc87c8b 	umulh	x11, x4, x8
    237c:	ba0b01ef 	adcs	x15, x15, x11
    2380:	9bc97c8b 	umulh	x11, x4, x9
    2384:	ba0b0210 	adcs	x16, x16, x11
    2388:	9a1f0063 	adc	x3, x3, xzr
    238c:	9b077cab 	mul	x11, x5, x7
    2390:	ab0b01ce 	adds	x14, x14, x11
    2394:	9b087cab 	mul	x11, x5, x8
    2398:	ba0b01ef 	adcs	x15, x15, x11
    239c:	9b097cab 	mul	x11, x5, x9
    23a0:	ba0b0210 	adcs	x16, x16, x11
    23a4:	9b0a7cab 	mul	x11, x5, x10
    23a8:	ba0b0063 	adcs	x3, x3, x11
    23ac:	9bca7ca4 	umulh	x4, x5, x10
    23b0:	9a1f0084 	adc	x4, x4, xzr
    23b4:	9bc77cab 	umulh	x11, x5, x7
    23b8:	ab0b01ef 	adds	x15, x15, x11
    23bc:	9bc87cab 	umulh	x11, x5, x8
    23c0:	ba0b0210 	adcs	x16, x16, x11
    23c4:	9bc97cab 	umulh	x11, x5, x9
    23c8:	ba0b0063 	adcs	x3, x3, x11
    23cc:	9a1f0084 	adc	x4, x4, xzr
    23d0:	9b077ccb 	mul	x11, x6, x7
    23d4:	ab0b01ef 	adds	x15, x15, x11
    23d8:	9b087ccb 	mul	x11, x6, x8
    23dc:	ba0b0210 	adcs	x16, x16, x11
    23e0:	9b097ccb 	mul	x11, x6, x9
    23e4:	ba0b0063 	adcs	x3, x3, x11
    23e8:	9b0a7ccb 	mul	x11, x6, x10
    23ec:	ba0b0084 	adcs	x4, x4, x11
    23f0:	9bca7cc5 	umulh	x5, x6, x10
    23f4:	9a1f00a5 	adc	x5, x5, xzr
    23f8:	9bc77ccb 	umulh	x11, x6, x7
    23fc:	ab0b0210 	adds	x16, x16, x11
    2400:	9bc87ccb 	umulh	x11, x6, x8
    2404:	ba0b0063 	adcs	x3, x3, x11
    2408:	9bc97ccb 	umulh	x11, x6, x9
    240c:	ba0b0084 	adcs	x4, x4, x11
    2410:	9a1f00a5 	adc	x5, x5, xzr
    2414:	d28004c7 	mov	x7, #0x26                  	// #38
    2418:	9b107ceb 	mul	x11, x7, x16
    241c:	9bd07ce9 	umulh	x9, x7, x16
    2420:	ab0b018c 	adds	x12, x12, x11
    2424:	9b037ceb 	mul	x11, x7, x3
    2428:	9bc37ce3 	umulh	x3, x7, x3
    242c:	ba0b01ad 	adcs	x13, x13, x11
    2430:	9b047ceb 	mul	x11, x7, x4
    2434:	9bc47ce4 	umulh	x4, x7, x4
    2438:	ba0b01ce 	adcs	x14, x14, x11
    243c:	9b057ceb 	mul	x11, x7, x5
    2440:	9bc57ce5 	umulh	x5, x7, x5
    2444:	ba0b01ef 	adcs	x15, x15, x11
    2448:	9a9f37f0 	cset	x16, cs	// cs = hs, nlast
    244c:	ab0401ef 	adds	x15, x15, x4
    2450:	9a050210 	adc	x16, x16, x5
    2454:	ab0f01ff 	cmn	x15, x15
    2458:	9240f9ef 	and	x15, x15, #0x7fffffffffffffff
    245c:	9a100208 	adc	x8, x16, x16
    2460:	d2800267 	mov	x7, #0x13                  	// #19
    2464:	9b087ceb 	mul	x11, x7, x8
    2468:	ab0b018c 	adds	x12, x12, x11
    246c:	ba0901ad 	adcs	x13, x13, x9
    2470:	ba0301ce 	adcs	x14, x14, x3
    2474:	9a1f01ef 	adc	x15, x15, xzr
    2478:	a90e37ec 	stp	x12, x13, [sp, #224]
    247c:	a90f3fee 	stp	x14, x15, [sp, #240]
    2480:	91001294 	add	x20, x20, #0x4
    2484:	f103f29f 	cmp	x20, #0xfc
    2488:	54ff8563 	b.cc	1534 <edwards25519_scalarmulbase_alt_scalarloop>  // b.lo, b.ul, b.last
    248c:	a94807e0 	ldp	x0, x1, [sp, #128]
    2490:	a9490fe2 	ldp	x2, x3, [sp, #144]
    2494:	928004a4 	mov	x4, #0xffffffffffffffda    	// #-38
    2498:	eb000084 	subs	x4, x4, x0
    249c:	92800007 	mov	x7, #0xffffffffffffffff    	// #-1
    24a0:	fa0100e5 	sbcs	x5, x7, x1
    24a4:	fa0200e6 	sbcs	x6, x7, x2
    24a8:	da0300e7 	sbc	x7, x7, x3
    24ac:	f9400fea 	ldr	x10, [sp, #24]
    24b0:	f241015f 	tst	x10, #0x8000000000000000
    24b4:	9a801080 	csel	x0, x4, x0, ne	// ne = any
    24b8:	9a8110a1 	csel	x1, x5, x1, ne	// ne = any
    24bc:	9a8210c2 	csel	x2, x6, x2, ne	// ne = any
    24c0:	9a8310e3 	csel	x3, x7, x3, ne	// ne = any
    24c4:	a90807e0 	stp	x0, x1, [sp, #128]
    24c8:	a9090fe2 	stp	x2, x3, [sp, #144]
    24cc:	910383e0 	add	x0, sp, #0xe0
    24d0:	910303e1 	add	x1, sp, #0xc0
    24d4:	aa0003f4 	mov	x20, x0
    24d8:	9280024a 	mov	x10, #0xffffffffffffffed    	// #-19
    24dc:	9280000b 	mov	x11, #0xffffffffffffffff    	// #-1
    24e0:	a9002fea 	stp	x10, x11, [sp]
    24e4:	92f0000c 	mov	x12, #0x7fffffffffffffff    	// #9223372036854775807
    24e8:	a90133eb 	stp	x11, x12, [sp, #16]
    24ec:	a9400c22 	ldp	x2, x3, [x1]
    24f0:	a9411424 	ldp	x4, x5, [x1, #16]
    24f4:	d2800267 	mov	x7, #0x13                  	// #19
    24f8:	d37ffca6 	lsr	x6, x5, #63
    24fc:	9b061ce6 	madd	x6, x7, x6, x7
    2500:	ab060042 	adds	x2, x2, x6
    2504:	ba1f0063 	adcs	x3, x3, xzr
    2508:	ba1f0084 	adcs	x4, x4, xzr
    250c:	b24100a5 	orr	x5, x5, #0x8000000000000000
    2510:	ba1f00a5 	adcs	x5, x5, xzr
    2514:	9a9f30e6 	csel	x6, x7, xzr, cc	// cc = lo, ul, last
    2518:	eb060042 	subs	x2, x2, x6
    251c:	fa1f0063 	sbcs	x3, x3, xzr
    2520:	fa1f0084 	sbcs	x4, x4, xzr
    2524:	da1f00a5 	sbc	x5, x5, xzr
    2528:	9240f8a5 	and	x5, x5, #0x7fffffffffffffff
    252c:	a9020fe2 	stp	x2, x3, [sp, #32]
    2530:	a90317e4 	stp	x4, x5, [sp, #48]
    2534:	a9047fff 	stp	xzr, xzr, [sp, #64]
    2538:	a9057fff 	stp	xzr, xzr, [sp, #80]
    253c:	d284132a 	mov	x10, #0x2099                	// #8345
    2540:	f2aea04a 	movk	x10, #0x7502, lsl #16
    2544:	f2d3c46a 	movk	x10, #0x9e23, lsl #32
    2548:	f2f41f2a 	movk	x10, #0xa0f9, lsl #48
    254c:	d284b2ab 	mov	x11, #0x2595                	// #9621
    2550:	f2a3a26b 	movk	x11, #0x1d13, lsl #16
    2554:	f2d1e7eb 	movk	x11, #0x8f3f, lsl #32
    2558:	f2f518cb 	movk	x11, #0xa8c6, lsl #48
    255c:	d28a484c 	mov	x12, #0x5242                	// #21058
    2560:	f2a0b58c 	movk	x12, #0x5ac, lsl #16
    2564:	f2d1270c 	movk	x12, #0x8938, lsl #32
    2568:	f2ed8d8c 	movk	x12, #0x6c6c, lsl #48
    256c:	d280c2ad 	mov	x13, #0x615                 	// #1557
    2570:	f2a82eed 	movk	x13, #0x4177, lsl #16
    2574:	f2c1164d 	movk	x13, #0x8b2, lsl #32
    2578:	f2e4ecad 	movk	x13, #0x2765, lsl #48
    257c:	a9062fea 	stp	x10, x11, [sp, #96]
    2580:	a90737ec 	stp	x12, x13, [sp, #112]
    2584:	d2800155 	mov	x21, #0xa                   	// #10
    2588:	d2800036 	mov	x22, #0x1                   	// #1
    258c:	1400010b 	b	29b8 <edwards25519_scalarmulbase_alt_invmidloop>

0000000000002590 <edwards25519_scalarmulbase_alt_invloop>:
    2590:	eb1f015f 	cmp	x10, xzr
    2594:	da9f53ee 	csetm	x14, mi	// mi = first
    2598:	da8a554a 	cneg	x10, x10, mi	// mi = first
    259c:	eb1f017f 	cmp	x11, xzr
    25a0:	da9f53ef 	csetm	x15, mi	// mi = first
    25a4:	da8b556b 	cneg	x11, x11, mi	// mi = first
    25a8:	eb1f019f 	cmp	x12, xzr
    25ac:	da9f53f0 	csetm	x16, mi	// mi = first
    25b0:	da8c558c 	cneg	x12, x12, mi	// mi = first
    25b4:	eb1f01bf 	cmp	x13, xzr
    25b8:	da9f53f1 	csetm	x17, mi	// mi = first
    25bc:	da8d55ad 	cneg	x13, x13, mi	// mi = first
    25c0:	8a0e0140 	and	x0, x10, x14
    25c4:	8a0f0161 	and	x1, x11, x15
    25c8:	8b010009 	add	x9, x0, x1
    25cc:	8a100180 	and	x0, x12, x16
    25d0:	8a1101a1 	and	x1, x13, x17
    25d4:	8b010013 	add	x19, x0, x1
    25d8:	f94003e7 	ldr	x7, [sp]
    25dc:	ca0e00e1 	eor	x1, x7, x14
    25e0:	9b0a7c20 	mul	x0, x1, x10
    25e4:	9bca7c21 	umulh	x1, x1, x10
    25e8:	ab000124 	adds	x4, x9, x0
    25ec:	9a0103e2 	adc	x2, xzr, x1
    25f0:	f94013e8 	ldr	x8, [sp, #32]
    25f4:	ca0f0101 	eor	x1, x8, x15
    25f8:	9b0b7c20 	mul	x0, x1, x11
    25fc:	9bcb7c21 	umulh	x1, x1, x11
    2600:	ab000084 	adds	x4, x4, x0
    2604:	9a010042 	adc	x2, x2, x1
    2608:	ca1000e1 	eor	x1, x7, x16
    260c:	9b0c7c20 	mul	x0, x1, x12
    2610:	9bcc7c21 	umulh	x1, x1, x12
    2614:	ab000265 	adds	x5, x19, x0
    2618:	9a0103e3 	adc	x3, xzr, x1
    261c:	ca110101 	eor	x1, x8, x17
    2620:	9b0d7c20 	mul	x0, x1, x13
    2624:	9bcd7c21 	umulh	x1, x1, x13
    2628:	ab0000a5 	adds	x5, x5, x0
    262c:	9a010063 	adc	x3, x3, x1
    2630:	f94007e7 	ldr	x7, [sp, #8]
    2634:	ca0e00e1 	eor	x1, x7, x14
    2638:	9b0a7c20 	mul	x0, x1, x10
    263c:	9bca7c21 	umulh	x1, x1, x10
    2640:	ab000042 	adds	x2, x2, x0
    2644:	9a0103e6 	adc	x6, xzr, x1
    2648:	f94017e8 	ldr	x8, [sp, #40]
    264c:	ca0f0101 	eor	x1, x8, x15
    2650:	9b0b7c20 	mul	x0, x1, x11
    2654:	9bcb7c21 	umulh	x1, x1, x11
    2658:	ab000042 	adds	x2, x2, x0
    265c:	9a0100c6 	adc	x6, x6, x1
    2660:	93c4ec44 	extr	x4, x2, x4, #59
    2664:	f90003e4 	str	x4, [sp]
    2668:	ca1000e1 	eor	x1, x7, x16
    266c:	9b0c7c20 	mul	x0, x1, x12
    2670:	9bcc7c21 	umulh	x1, x1, x12
    2674:	ab000063 	adds	x3, x3, x0
    2678:	9a0103e4 	adc	x4, xzr, x1
    267c:	ca110101 	eor	x1, x8, x17
    2680:	9b0d7c20 	mul	x0, x1, x13
    2684:	9bcd7c21 	umulh	x1, x1, x13
    2688:	ab000063 	adds	x3, x3, x0
    268c:	9a010084 	adc	x4, x4, x1
    2690:	93c5ec65 	extr	x5, x3, x5, #59
    2694:	f90013e5 	str	x5, [sp, #32]
    2698:	f9400be7 	ldr	x7, [sp, #16]
    269c:	ca0e00e1 	eor	x1, x7, x14
    26a0:	9b0a7c20 	mul	x0, x1, x10
    26a4:	9bca7c21 	umulh	x1, x1, x10
    26a8:	ab0000c6 	adds	x6, x6, x0
    26ac:	9a0103e5 	adc	x5, xzr, x1
    26b0:	f9401be8 	ldr	x8, [sp, #48]
    26b4:	ca0f0101 	eor	x1, x8, x15
    26b8:	9b0b7c20 	mul	x0, x1, x11
    26bc:	9bcb7c21 	umulh	x1, x1, x11
    26c0:	ab0000c6 	adds	x6, x6, x0
    26c4:	9a0100a5 	adc	x5, x5, x1
    26c8:	93c2ecc2 	extr	x2, x6, x2, #59
    26cc:	f90007e2 	str	x2, [sp, #8]
    26d0:	ca1000e1 	eor	x1, x7, x16
    26d4:	9b0c7c20 	mul	x0, x1, x12
    26d8:	9bcc7c21 	umulh	x1, x1, x12
    26dc:	ab000084 	adds	x4, x4, x0
    26e0:	9a0103e2 	adc	x2, xzr, x1
    26e4:	ca110101 	eor	x1, x8, x17
    26e8:	9b0d7c20 	mul	x0, x1, x13
    26ec:	9bcd7c21 	umulh	x1, x1, x13
    26f0:	ab000084 	adds	x4, x4, x0
    26f4:	9a010042 	adc	x2, x2, x1
    26f8:	93c3ec83 	extr	x3, x4, x3, #59
    26fc:	f90017e3 	str	x3, [sp, #40]
    2700:	f9400fe7 	ldr	x7, [sp, #24]
    2704:	ca0e00e1 	eor	x1, x7, x14
    2708:	937ffc23 	asr	x3, x1, #63
    270c:	8a0a0063 	and	x3, x3, x10
    2710:	cb0303e3 	neg	x3, x3
    2714:	9b0a7c20 	mul	x0, x1, x10
    2718:	9bca7c21 	umulh	x1, x1, x10
    271c:	ab0000a5 	adds	x5, x5, x0
    2720:	9a010063 	adc	x3, x3, x1
    2724:	f9401fe8 	ldr	x8, [sp, #56]
    2728:	ca0f0101 	eor	x1, x8, x15
    272c:	937ffc20 	asr	x0, x1, #63
    2730:	8a0b0000 	and	x0, x0, x11
    2734:	cb000063 	sub	x3, x3, x0
    2738:	9b0b7c20 	mul	x0, x1, x11
    273c:	9bcb7c21 	umulh	x1, x1, x11
    2740:	ab0000a5 	adds	x5, x5, x0
    2744:	9a010063 	adc	x3, x3, x1
    2748:	93c6eca6 	extr	x6, x5, x6, #59
    274c:	f9000be6 	str	x6, [sp, #16]
    2750:	93c5ec65 	extr	x5, x3, x5, #59
    2754:	f9000fe5 	str	x5, [sp, #24]
    2758:	ca1000e1 	eor	x1, x7, x16
    275c:	937ffc25 	asr	x5, x1, #63
    2760:	8a0c00a5 	and	x5, x5, x12
    2764:	cb0503e5 	neg	x5, x5
    2768:	9b0c7c20 	mul	x0, x1, x12
    276c:	9bcc7c21 	umulh	x1, x1, x12
    2770:	ab000042 	adds	x2, x2, x0
    2774:	9a0100a5 	adc	x5, x5, x1
    2778:	ca110101 	eor	x1, x8, x17
    277c:	937ffc20 	asr	x0, x1, #63
    2780:	8a0d0000 	and	x0, x0, x13
    2784:	cb0000a5 	sub	x5, x5, x0
    2788:	9b0d7c20 	mul	x0, x1, x13
    278c:	9bcd7c21 	umulh	x1, x1, x13
    2790:	ab000042 	adds	x2, x2, x0
    2794:	9a0100a5 	adc	x5, x5, x1
    2798:	93c4ec44 	extr	x4, x2, x4, #59
    279c:	f9001be4 	str	x4, [sp, #48]
    27a0:	93c2eca2 	extr	x2, x5, x2, #59
    27a4:	f9001fe2 	str	x2, [sp, #56]
    27a8:	f94023e7 	ldr	x7, [sp, #64]
    27ac:	ca0e00e1 	eor	x1, x7, x14
    27b0:	9b0a7c20 	mul	x0, x1, x10
    27b4:	9bca7c21 	umulh	x1, x1, x10
    27b8:	ab000124 	adds	x4, x9, x0
    27bc:	9a0103e2 	adc	x2, xzr, x1
    27c0:	f94033e8 	ldr	x8, [sp, #96]
    27c4:	ca0f0101 	eor	x1, x8, x15
    27c8:	9b0b7c20 	mul	x0, x1, x11
    27cc:	9bcb7c21 	umulh	x1, x1, x11
    27d0:	ab000084 	adds	x4, x4, x0
    27d4:	f90023e4 	str	x4, [sp, #64]
    27d8:	9a010042 	adc	x2, x2, x1
    27dc:	ca1000e1 	eor	x1, x7, x16
    27e0:	9b0c7c20 	mul	x0, x1, x12
    27e4:	9bcc7c21 	umulh	x1, x1, x12
    27e8:	ab000265 	adds	x5, x19, x0
    27ec:	9a0103e3 	adc	x3, xzr, x1
    27f0:	ca110101 	eor	x1, x8, x17
    27f4:	9b0d7c20 	mul	x0, x1, x13
    27f8:	9bcd7c21 	umulh	x1, x1, x13
    27fc:	ab0000a5 	adds	x5, x5, x0
    2800:	f90033e5 	str	x5, [sp, #96]
    2804:	9a010063 	adc	x3, x3, x1
    2808:	f94027e7 	ldr	x7, [sp, #72]
    280c:	ca0e00e1 	eor	x1, x7, x14
    2810:	9b0a7c20 	mul	x0, x1, x10
    2814:	9bca7c21 	umulh	x1, x1, x10
    2818:	ab000042 	adds	x2, x2, x0
    281c:	9a0103e6 	adc	x6, xzr, x1
    2820:	f94037e8 	ldr	x8, [sp, #104]
    2824:	ca0f0101 	eor	x1, x8, x15
    2828:	9b0b7c20 	mul	x0, x1, x11
    282c:	9bcb7c21 	umulh	x1, x1, x11
    2830:	ab000042 	adds	x2, x2, x0
    2834:	f90027e2 	str	x2, [sp, #72]
    2838:	9a0100c6 	adc	x6, x6, x1
    283c:	ca1000e1 	eor	x1, x7, x16
    2840:	9b0c7c20 	mul	x0, x1, x12
    2844:	9bcc7c21 	umulh	x1, x1, x12
    2848:	ab000063 	adds	x3, x3, x0
    284c:	9a0103e4 	adc	x4, xzr, x1
    2850:	ca110101 	eor	x1, x8, x17
    2854:	9b0d7c20 	mul	x0, x1, x13
    2858:	9bcd7c21 	umulh	x1, x1, x13
    285c:	ab000063 	adds	x3, x3, x0
    2860:	f90037e3 	str	x3, [sp, #104]
    2864:	9a010084 	adc	x4, x4, x1
    2868:	f9402be7 	ldr	x7, [sp, #80]
    286c:	ca0e00e1 	eor	x1, x7, x14
    2870:	9b0a7c20 	mul	x0, x1, x10
    2874:	9bca7c21 	umulh	x1, x1, x10
    2878:	ab0000c6 	adds	x6, x6, x0
    287c:	9a0103e5 	adc	x5, xzr, x1
    2880:	f9403be8 	ldr	x8, [sp, #112]
    2884:	ca0f0101 	eor	x1, x8, x15
    2888:	9b0b7c20 	mul	x0, x1, x11
    288c:	9bcb7c21 	umulh	x1, x1, x11
    2890:	ab0000c6 	adds	x6, x6, x0
    2894:	f9002be6 	str	x6, [sp, #80]
    2898:	9a0100a5 	adc	x5, x5, x1
    289c:	ca1000e1 	eor	x1, x7, x16
    28a0:	9b0c7c20 	mul	x0, x1, x12
    28a4:	9bcc7c21 	umulh	x1, x1, x12
    28a8:	ab000084 	adds	x4, x4, x0
    28ac:	9a0103e2 	adc	x2, xzr, x1
    28b0:	ca110101 	eor	x1, x8, x17
    28b4:	9b0d7c20 	mul	x0, x1, x13
    28b8:	9bcd7c21 	umulh	x1, x1, x13
    28bc:	ab000084 	adds	x4, x4, x0
    28c0:	f9003be4 	str	x4, [sp, #112]
    28c4:	9a010042 	adc	x2, x2, x1
    28c8:	f9402fe7 	ldr	x7, [sp, #88]
    28cc:	ca0e00e1 	eor	x1, x7, x14
    28d0:	8a0a01c3 	and	x3, x14, x10
    28d4:	cb0303e3 	neg	x3, x3
    28d8:	9b0a7c20 	mul	x0, x1, x10
    28dc:	9bca7c21 	umulh	x1, x1, x10
    28e0:	ab0000a5 	adds	x5, x5, x0
    28e4:	9a010063 	adc	x3, x3, x1
    28e8:	f9403fe8 	ldr	x8, [sp, #120]
    28ec:	ca0f0101 	eor	x1, x8, x15
    28f0:	8a0b01e0 	and	x0, x15, x11
    28f4:	cb000063 	sub	x3, x3, x0
    28f8:	9b0b7c20 	mul	x0, x1, x11
    28fc:	9bcb7c21 	umulh	x1, x1, x11
    2900:	ab0000a5 	adds	x5, x5, x0
    2904:	9a010063 	adc	x3, x3, x1
    2908:	93c5fc66 	extr	x6, x3, x5, #63
    290c:	a94407e0 	ldp	x0, x1, [sp, #64]
    2910:	8b83fcc6 	add	x6, x6, x3, asr #63
    2914:	d2800263 	mov	x3, #0x13                  	// #19
    2918:	9b037cc4 	mul	x4, x6, x3
    291c:	8b06fca5 	add	x5, x5, x6, lsl #63
    2920:	9b437cc3 	smulh	x3, x6, x3
    2924:	f9402be6 	ldr	x6, [sp, #80]
    2928:	ab040000 	adds	x0, x0, x4
    292c:	ba030021 	adcs	x1, x1, x3
    2930:	937ffc63 	asr	x3, x3, #63
    2934:	ba0300c6 	adcs	x6, x6, x3
    2938:	9a0300a5 	adc	x5, x5, x3
    293c:	a90407e0 	stp	x0, x1, [sp, #64]
    2940:	a90517e6 	stp	x6, x5, [sp, #80]
    2944:	ca1000e1 	eor	x1, x7, x16
    2948:	8a0c0205 	and	x5, x16, x12
    294c:	cb0503e5 	neg	x5, x5
    2950:	9b0c7c20 	mul	x0, x1, x12
    2954:	9bcc7c21 	umulh	x1, x1, x12
    2958:	ab000042 	adds	x2, x2, x0
    295c:	9a0100a5 	adc	x5, x5, x1
    2960:	ca110101 	eor	x1, x8, x17
    2964:	8a0d0220 	and	x0, x17, x13
    2968:	cb0000a5 	sub	x5, x5, x0
    296c:	9b0d7c20 	mul	x0, x1, x13
    2970:	9bcd7c21 	umulh	x1, x1, x13
    2974:	ab000042 	adds	x2, x2, x0
    2978:	9a0100a5 	adc	x5, x5, x1
    297c:	93c2fca6 	extr	x6, x5, x2, #63
    2980:	a94607e0 	ldp	x0, x1, [sp, #96]
    2984:	8b85fcc6 	add	x6, x6, x5, asr #63
    2988:	d2800265 	mov	x5, #0x13                  	// #19
    298c:	9b057cc4 	mul	x4, x6, x5
    2990:	8b06fc42 	add	x2, x2, x6, lsl #63
    2994:	9b457cc5 	smulh	x5, x6, x5
    2998:	f9403be3 	ldr	x3, [sp, #112]
    299c:	ab040000 	adds	x0, x0, x4
    29a0:	ba050021 	adcs	x1, x1, x5
    29a4:	937ffca5 	asr	x5, x5, #63
    29a8:	ba050063 	adcs	x3, x3, x5
    29ac:	9a050042 	adc	x2, x2, x5
    29b0:	a90607e0 	stp	x0, x1, [sp, #96]
    29b4:	a9070be3 	stp	x3, x2, [sp, #112]

00000000000029b8 <edwards25519_scalarmulbase_alt_invmidloop>:
    29b8:	aa1603e1 	mov	x1, x22
    29bc:	f94003e2 	ldr	x2, [sp]
    29c0:	f94013e3 	ldr	x3, [sp, #32]
    29c4:	92404c44 	and	x4, x2, #0xfffff
    29c8:	b2575884 	orr	x4, x4, #0xfffffe0000000000
    29cc:	92404c65 	and	x5, x3, #0xfffff
    29d0:	b24204a5 	orr	x5, x5, #0xc000000000000000
    29d4:	f24000bf 	tst	x5, #0x1
    29d8:	9a9f1086 	csel	x6, x4, xzr, ne	// ne = any
    29dc:	fa5f1028 	ccmp	x1, xzr, #0x8, ne	// ne = any
    29e0:	da81b421 	cneg	x1, x1, ge	// ge = tcont
    29e4:	da86b4c6 	cneg	x6, x6, ge	// ge = tcont
    29e8:	9a84a0a4 	csel	x4, x5, x4, ge	// ge = tcont
    29ec:	8b0600a5 	add	x5, x5, x6
    29f0:	91000821 	add	x1, x1, #0x2
    29f4:	f27f00bf 	tst	x5, #0x2
    29f8:	9341fca5 	asr	x5, x5, #1
    29fc:	9a9f1086 	csel	x6, x4, xzr, ne	// ne = any
    2a00:	fa5f1028 	ccmp	x1, xzr, #0x8, ne	// ne = any
    2a04:	da81b421 	cneg	x1, x1, ge	// ge = tcont
    2a08:	da86b4c6 	cneg	x6, x6, ge	// ge = tcont
    2a0c:	9a84a0a4 	csel	x4, x5, x4, ge	// ge = tcont
    2a10:	8b0600a5 	add	x5, x5, x6
    2a14:	91000821 	add	x1, x1, #0x2
    2a18:	f27f00bf 	tst	x5, #0x2
    2a1c:	9341fca5 	asr	x5, x5, #1
    2a20:	9a9f1086 	csel	x6, x4, xzr, ne	// ne = any
    2a24:	fa5f1028 	ccmp	x1, xzr, #0x8, ne	// ne = any
    2a28:	da81b421 	cneg	x1, x1, ge	// ge = tcont
    2a2c:	da86b4c6 	cneg	x6, x6, ge	// ge = tcont
    2a30:	9a84a0a4 	csel	x4, x5, x4, ge	// ge = tcont
    2a34:	8b0600a5 	add	x5, x5, x6
    2a38:	91000821 	add	x1, x1, #0x2
    2a3c:	f27f00bf 	tst	x5, #0x2
    2a40:	9341fca5 	asr	x5, x5, #1
    2a44:	9a9f1086 	csel	x6, x4, xzr, ne	// ne = any
    2a48:	fa5f1028 	ccmp	x1, xzr, #0x8, ne	// ne = any
    2a4c:	da81b421 	cneg	x1, x1, ge	// ge = tcont
    2a50:	da86b4c6 	cneg	x6, x6, ge	// ge = tcont
    2a54:	9a84a0a4 	csel	x4, x5, x4, ge	// ge = tcont
    2a58:	8b0600a5 	add	x5, x5, x6
    2a5c:	91000821 	add	x1, x1, #0x2
    2a60:	f27f00bf 	tst	x5, #0x2
    2a64:	9341fca5 	asr	x5, x5, #1
    2a68:	9a9f1086 	csel	x6, x4, xzr, ne	// ne = any
    2a6c:	fa5f1028 	ccmp	x1, xzr, #0x8, ne	// ne = any
    2a70:	da81b421 	cneg	x1, x1, ge	// ge = tcont
    2a74:	da86b4c6 	cneg	x6, x6, ge	// ge = tcont
    2a78:	9a84a0a4 	csel	x4, x5, x4, ge	// ge = tcont
    2a7c:	8b0600a5 	add	x5, x5, x6
    2a80:	91000821 	add	x1, x1, #0x2
    2a84:	f27f00bf 	tst	x5, #0x2
    2a88:	9341fca5 	asr	x5, x5, #1
    2a8c:	9a9f1086 	csel	x6, x4, xzr, ne	// ne = any
    2a90:	fa5f1028 	ccmp	x1, xzr, #0x8, ne	// ne = any
    2a94:	da81b421 	cneg	x1, x1, ge	// ge = tcont
    2a98:	da86b4c6 	cneg	x6, x6, ge	// ge = tcont
    2a9c:	9a84a0a4 	csel	x4, x5, x4, ge	// ge = tcont
    2aa0:	8b0600a5 	add	x5, x5, x6
    2aa4:	91000821 	add	x1, x1, #0x2
    2aa8:	f27f00bf 	tst	x5, #0x2
    2aac:	9341fca5 	asr	x5, x5, #1
    2ab0:	9a9f1086 	csel	x6, x4, xzr, ne	// ne = any
    2ab4:	fa5f1028 	ccmp	x1, xzr, #0x8, ne	// ne = any
    2ab8:	da81b421 	cneg	x1, x1, ge	// ge = tcont
    2abc:	da86b4c6 	cneg	x6, x6, ge	// ge = tcont
    2ac0:	9a84a0a4 	csel	x4, x5, x4, ge	// ge = tcont
    2ac4:	8b0600a5 	add	x5, x5, x6
    2ac8:	91000821 	add	x1, x1, #0x2
    2acc:	f27f00bf 	tst	x5, #0x2
    2ad0:	9341fca5 	asr	x5, x5, #1
    2ad4:	9a9f1086 	csel	x6, x4, xzr, ne	// ne = any
    2ad8:	fa5f1028 	ccmp	x1, xzr, #0x8, ne	// ne = any
    2adc:	da81b421 	cneg	x1, x1, ge	// ge = tcont
    2ae0:	da86b4c6 	cneg	x6, x6, ge	// ge = tcont
    2ae4:	9a84a0a4 	csel	x4, x5, x4, ge	// ge = tcont
    2ae8:	8b0600a5 	add	x5, x5, x6
    2aec:	91000821 	add	x1, x1, #0x2
    2af0:	f27f00bf 	tst	x5, #0x2
    2af4:	9341fca5 	asr	x5, x5, #1
    2af8:	9a9f1086 	csel	x6, x4, xzr, ne	// ne = any
    2afc:	fa5f1028 	ccmp	x1, xzr, #0x8, ne	// ne = any
    2b00:	da81b421 	cneg	x1, x1, ge	// ge = tcont
    2b04:	da86b4c6 	cneg	x6, x6, ge	// ge = tcont
    2b08:	9a84a0a4 	csel	x4, x5, x4, ge	// ge = tcont
    2b0c:	8b0600a5 	add	x5, x5, x6
    2b10:	91000821 	add	x1, x1, #0x2
    2b14:	f27f00bf 	tst	x5, #0x2
    2b18:	9341fca5 	asr	x5, x5, #1
    2b1c:	9a9f1086 	csel	x6, x4, xzr, ne	// ne = any
    2b20:	fa5f1028 	ccmp	x1, xzr, #0x8, ne	// ne = any
    2b24:	da81b421 	cneg	x1, x1, ge	// ge = tcont
    2b28:	da86b4c6 	cneg	x6, x6, ge	// ge = tcont
    2b2c:	9a84a0a4 	csel	x4, x5, x4, ge	// ge = tcont
    2b30:	8b0600a5 	add	x5, x5, x6
    2b34:	91000821 	add	x1, x1, #0x2
    2b38:	f27f00bf 	tst	x5, #0x2
    2b3c:	9341fca5 	asr	x5, x5, #1
    2b40:	9a9f1086 	csel	x6, x4, xzr, ne	// ne = any
    2b44:	fa5f1028 	ccmp	x1, xzr, #0x8, ne	// ne = any
    2b48:	da81b421 	cneg	x1, x1, ge	// ge = tcont
    2b4c:	da86b4c6 	cneg	x6, x6, ge	// ge = tcont
    2b50:	9a84a0a4 	csel	x4, x5, x4, ge	// ge = tcont
    2b54:	8b0600a5 	add	x5, x5, x6
    2b58:	91000821 	add	x1, x1, #0x2
    2b5c:	f27f00bf 	tst	x5, #0x2
    2b60:	9341fca5 	asr	x5, x5, #1
    2b64:	9a9f1086 	csel	x6, x4, xzr, ne	// ne = any
    2b68:	fa5f1028 	ccmp	x1, xzr, #0x8, ne	// ne = any
    2b6c:	da81b421 	cneg	x1, x1, ge	// ge = tcont
    2b70:	da86b4c6 	cneg	x6, x6, ge	// ge = tcont
    2b74:	9a84a0a4 	csel	x4, x5, x4, ge	// ge = tcont
    2b78:	8b0600a5 	add	x5, x5, x6
    2b7c:	91000821 	add	x1, x1, #0x2
    2b80:	f27f00bf 	tst	x5, #0x2
    2b84:	9341fca5 	asr	x5, x5, #1
    2b88:	9a9f1086 	csel	x6, x4, xzr, ne	// ne = any
    2b8c:	fa5f1028 	ccmp	x1, xzr, #0x8, ne	// ne = any
    2b90:	da81b421 	cneg	x1, x1, ge	// ge = tcont
    2b94:	da86b4c6 	cneg	x6, x6, ge	// ge = tcont
    2b98:	9a84a0a4 	csel	x4, x5, x4, ge	// ge = tcont
    2b9c:	8b0600a5 	add	x5, x5, x6
    2ba0:	91000821 	add	x1, x1, #0x2
    2ba4:	f27f00bf 	tst	x5, #0x2
    2ba8:	9341fca5 	asr	x5, x5, #1
    2bac:	9a9f1086 	csel	x6, x4, xzr, ne	// ne = any
    2bb0:	fa5f1028 	ccmp	x1, xzr, #0x8, ne	// ne = any
    2bb4:	da81b421 	cneg	x1, x1, ge	// ge = tcont
    2bb8:	da86b4c6 	cneg	x6, x6, ge	// ge = tcont
    2bbc:	9a84a0a4 	csel	x4, x5, x4, ge	// ge = tcont
    2bc0:	8b0600a5 	add	x5, x5, x6
    2bc4:	91000821 	add	x1, x1, #0x2
    2bc8:	f27f00bf 	tst	x5, #0x2
    2bcc:	9341fca5 	asr	x5, x5, #1
    2bd0:	9a9f1086 	csel	x6, x4, xzr, ne	// ne = any
    2bd4:	fa5f1028 	ccmp	x1, xzr, #0x8, ne	// ne = any
    2bd8:	da81b421 	cneg	x1, x1, ge	// ge = tcont
    2bdc:	da86b4c6 	cneg	x6, x6, ge	// ge = tcont
    2be0:	9a84a0a4 	csel	x4, x5, x4, ge	// ge = tcont
    2be4:	8b0600a5 	add	x5, x5, x6
    2be8:	91000821 	add	x1, x1, #0x2
    2bec:	f27f00bf 	tst	x5, #0x2
    2bf0:	9341fca5 	asr	x5, x5, #1
    2bf4:	9a9f1086 	csel	x6, x4, xzr, ne	// ne = any
    2bf8:	fa5f1028 	ccmp	x1, xzr, #0x8, ne	// ne = any
    2bfc:	da81b421 	cneg	x1, x1, ge	// ge = tcont
    2c00:	da86b4c6 	cneg	x6, x6, ge	// ge = tcont
    2c04:	9a84a0a4 	csel	x4, x5, x4, ge	// ge = tcont
    2c08:	8b0600a5 	add	x5, x5, x6
    2c0c:	91000821 	add	x1, x1, #0x2
    2c10:	f27f00bf 	tst	x5, #0x2
    2c14:	9341fca5 	asr	x5, x5, #1
    2c18:	9a9f1086 	csel	x6, x4, xzr, ne	// ne = any
    2c1c:	fa5f1028 	ccmp	x1, xzr, #0x8, ne	// ne = any
    2c20:	da81b421 	cneg	x1, x1, ge	// ge = tcont
    2c24:	da86b4c6 	cneg	x6, x6, ge	// ge = tcont
    2c28:	9a84a0a4 	csel	x4, x5, x4, ge	// ge = tcont
    2c2c:	8b0600a5 	add	x5, x5, x6
    2c30:	91000821 	add	x1, x1, #0x2
    2c34:	f27f00bf 	tst	x5, #0x2
    2c38:	9341fca5 	asr	x5, x5, #1
    2c3c:	9a9f1086 	csel	x6, x4, xzr, ne	// ne = any
    2c40:	fa5f1028 	ccmp	x1, xzr, #0x8, ne	// ne = any
    2c44:	da81b421 	cneg	x1, x1, ge	// ge = tcont
    2c48:	da86b4c6 	cneg	x6, x6, ge	// ge = tcont
    2c4c:	9a84a0a4 	csel	x4, x5, x4, ge	// ge = tcont
    2c50:	8b0600a5 	add	x5, x5, x6
    2c54:	91000821 	add	x1, x1, #0x2
    2c58:	f27f00bf 	tst	x5, #0x2
    2c5c:	9341fca5 	asr	x5, x5, #1
    2c60:	9a9f1086 	csel	x6, x4, xzr, ne	// ne = any
    2c64:	fa5f1028 	ccmp	x1, xzr, #0x8, ne	// ne = any
    2c68:	da81b421 	cneg	x1, x1, ge	// ge = tcont
    2c6c:	da86b4c6 	cneg	x6, x6, ge	// ge = tcont
    2c70:	9a84a0a4 	csel	x4, x5, x4, ge	// ge = tcont
    2c74:	8b0600a5 	add	x5, x5, x6
    2c78:	91000821 	add	x1, x1, #0x2
    2c7c:	f27f00bf 	tst	x5, #0x2
    2c80:	9341fca5 	asr	x5, x5, #1
    2c84:	9a9f1086 	csel	x6, x4, xzr, ne	// ne = any
    2c88:	fa5f1028 	ccmp	x1, xzr, #0x8, ne	// ne = any
    2c8c:	da81b421 	cneg	x1, x1, ge	// ge = tcont
    2c90:	da86b4c6 	cneg	x6, x6, ge	// ge = tcont
    2c94:	9a84a0a4 	csel	x4, x5, x4, ge	// ge = tcont
    2c98:	8b0600a5 	add	x5, x5, x6
    2c9c:	91000821 	add	x1, x1, #0x2
    2ca0:	9341fca5 	asr	x5, x5, #1
    2ca4:	91440088 	add	x8, x4, #0x100, lsl #12
    2ca8:	9355a508 	sbfx	x8, x8, #21, #21
    2cac:	d2a0020b 	mov	x11, #0x100000              	// #1048576
    2cb0:	8b0b556b 	add	x11, x11, x11, lsl #21
    2cb4:	8b0b0089 	add	x9, x4, x11
    2cb8:	936afd29 	asr	x9, x9, #42
    2cbc:	914400aa 	add	x10, x5, #0x100, lsl #12
    2cc0:	9355a54a 	sbfx	x10, x10, #21, #21
    2cc4:	8b0b00ab 	add	x11, x5, x11
    2cc8:	936afd6b 	asr	x11, x11, #42
    2ccc:	9b027d06 	mul	x6, x8, x2
    2cd0:	9b037d27 	mul	x7, x9, x3
    2cd4:	9b027d42 	mul	x2, x10, x2
    2cd8:	9b037d63 	mul	x3, x11, x3
    2cdc:	8b0700c4 	add	x4, x6, x7
    2ce0:	8b030045 	add	x5, x2, x3
    2ce4:	9354fc82 	asr	x2, x4, #20
    2ce8:	9354fca3 	asr	x3, x5, #20
    2cec:	92404c44 	and	x4, x2, #0xfffff
    2cf0:	b2575884 	orr	x4, x4, #0xfffffe0000000000
    2cf4:	92404c65 	and	x5, x3, #0xfffff
    2cf8:	b24204a5 	orr	x5, x5, #0xc000000000000000
    2cfc:	f24000bf 	tst	x5, #0x1
    2d00:	9a9f1086 	csel	x6, x4, xzr, ne	// ne = any
    2d04:	fa5f1028 	ccmp	x1, xzr, #0x8, ne	// ne = any
    2d08:	da81b421 	cneg	x1, x1, ge	// ge = tcont
    2d0c:	da86b4c6 	cneg	x6, x6, ge	// ge = tcont
    2d10:	9a84a0a4 	csel	x4, x5, x4, ge	// ge = tcont
    2d14:	8b0600a5 	add	x5, x5, x6
    2d18:	91000821 	add	x1, x1, #0x2
    2d1c:	f27f00bf 	tst	x5, #0x2
    2d20:	9341fca5 	asr	x5, x5, #1
    2d24:	9a9f1086 	csel	x6, x4, xzr, ne	// ne = any
    2d28:	fa5f1028 	ccmp	x1, xzr, #0x8, ne	// ne = any
    2d2c:	da81b421 	cneg	x1, x1, ge	// ge = tcont
    2d30:	da86b4c6 	cneg	x6, x6, ge	// ge = tcont
    2d34:	9a84a0a4 	csel	x4, x5, x4, ge	// ge = tcont
    2d38:	8b0600a5 	add	x5, x5, x6
    2d3c:	91000821 	add	x1, x1, #0x2
    2d40:	f27f00bf 	tst	x5, #0x2
    2d44:	9341fca5 	asr	x5, x5, #1
    2d48:	9a9f1086 	csel	x6, x4, xzr, ne	// ne = any
    2d4c:	fa5f1028 	ccmp	x1, xzr, #0x8, ne	// ne = any
    2d50:	da81b421 	cneg	x1, x1, ge	// ge = tcont
    2d54:	da86b4c6 	cneg	x6, x6, ge	// ge = tcont
    2d58:	9a84a0a4 	csel	x4, x5, x4, ge	// ge = tcont
    2d5c:	8b0600a5 	add	x5, x5, x6
    2d60:	91000821 	add	x1, x1, #0x2
    2d64:	f27f00bf 	tst	x5, #0x2
    2d68:	9341fca5 	asr	x5, x5, #1
    2d6c:	9a9f1086 	csel	x6, x4, xzr, ne	// ne = any
    2d70:	fa5f1028 	ccmp	x1, xzr, #0x8, ne	// ne = any
    2d74:	da81b421 	cneg	x1, x1, ge	// ge = tcont
    2d78:	da86b4c6 	cneg	x6, x6, ge	// ge = tcont
    2d7c:	9a84a0a4 	csel	x4, x5, x4, ge	// ge = tcont
    2d80:	8b0600a5 	add	x5, x5, x6
    2d84:	91000821 	add	x1, x1, #0x2
    2d88:	f27f00bf 	tst	x5, #0x2
    2d8c:	9341fca5 	asr	x5, x5, #1
    2d90:	9a9f1086 	csel	x6, x4, xzr, ne	// ne = any
    2d94:	fa5f1028 	ccmp	x1, xzr, #0x8, ne	// ne = any
    2d98:	da81b421 	cneg	x1, x1, ge	// ge = tcont
    2d9c:	da86b4c6 	cneg	x6, x6, ge	// ge = tcont
    2da0:	9a84a0a4 	csel	x4, x5, x4, ge	// ge = tcont
    2da4:	8b0600a5 	add	x5, x5, x6
    2da8:	91000821 	add	x1, x1, #0x2
    2dac:	f27f00bf 	tst	x5, #0x2
    2db0:	9341fca5 	asr	x5, x5, #1
    2db4:	9a9f1086 	csel	x6, x4, xzr, ne	// ne = any
    2db8:	fa5f1028 	ccmp	x1, xzr, #0x8, ne	// ne = any
    2dbc:	da81b421 	cneg	x1, x1, ge	// ge = tcont
    2dc0:	da86b4c6 	cneg	x6, x6, ge	// ge = tcont
    2dc4:	9a84a0a4 	csel	x4, x5, x4, ge	// ge = tcont
    2dc8:	8b0600a5 	add	x5, x5, x6
    2dcc:	91000821 	add	x1, x1, #0x2
    2dd0:	f27f00bf 	tst	x5, #0x2
    2dd4:	9341fca5 	asr	x5, x5, #1
    2dd8:	9a9f1086 	csel	x6, x4, xzr, ne	// ne = any
    2ddc:	fa5f1028 	ccmp	x1, xzr, #0x8, ne	// ne = any
    2de0:	da81b421 	cneg	x1, x1, ge	// ge = tcont
    2de4:	da86b4c6 	cneg	x6, x6, ge	// ge = tcont
    2de8:	9a84a0a4 	csel	x4, x5, x4, ge	// ge = tcont
    2dec:	8b0600a5 	add	x5, x5, x6
    2df0:	91000821 	add	x1, x1, #0x2
    2df4:	f27f00bf 	tst	x5, #0x2
    2df8:	9341fca5 	asr	x5, x5, #1
    2dfc:	9a9f1086 	csel	x6, x4, xzr, ne	// ne = any
    2e00:	fa5f1028 	ccmp	x1, xzr, #0x8, ne	// ne = any
    2e04:	da81b421 	cneg	x1, x1, ge	// ge = tcont
    2e08:	da86b4c6 	cneg	x6, x6, ge	// ge = tcont
    2e0c:	9a84a0a4 	csel	x4, x5, x4, ge	// ge = tcont
    2e10:	8b0600a5 	add	x5, x5, x6
    2e14:	91000821 	add	x1, x1, #0x2
    2e18:	f27f00bf 	tst	x5, #0x2
    2e1c:	9341fca5 	asr	x5, x5, #1
    2e20:	9a9f1086 	csel	x6, x4, xzr, ne	// ne = any
    2e24:	fa5f1028 	ccmp	x1, xzr, #0x8, ne	// ne = any
    2e28:	da81b421 	cneg	x1, x1, ge	// ge = tcont
    2e2c:	da86b4c6 	cneg	x6, x6, ge	// ge = tcont
    2e30:	9a84a0a4 	csel	x4, x5, x4, ge	// ge = tcont
    2e34:	8b0600a5 	add	x5, x5, x6
    2e38:	91000821 	add	x1, x1, #0x2
    2e3c:	f27f00bf 	tst	x5, #0x2
    2e40:	9341fca5 	asr	x5, x5, #1
    2e44:	9a9f1086 	csel	x6, x4, xzr, ne	// ne = any
    2e48:	fa5f1028 	ccmp	x1, xzr, #0x8, ne	// ne = any
    2e4c:	da81b421 	cneg	x1, x1, ge	// ge = tcont
    2e50:	da86b4c6 	cneg	x6, x6, ge	// ge = tcont
    2e54:	9a84a0a4 	csel	x4, x5, x4, ge	// ge = tcont
    2e58:	8b0600a5 	add	x5, x5, x6
    2e5c:	91000821 	add	x1, x1, #0x2
    2e60:	f27f00bf 	tst	x5, #0x2
    2e64:	9341fca5 	asr	x5, x5, #1
    2e68:	9a9f1086 	csel	x6, x4, xzr, ne	// ne = any
    2e6c:	fa5f1028 	ccmp	x1, xzr, #0x8, ne	// ne = any
    2e70:	da81b421 	cneg	x1, x1, ge	// ge = tcont
    2e74:	da86b4c6 	cneg	x6, x6, ge	// ge = tcont
    2e78:	9a84a0a4 	csel	x4, x5, x4, ge	// ge = tcont
    2e7c:	8b0600a5 	add	x5, x5, x6
    2e80:	91000821 	add	x1, x1, #0x2
    2e84:	f27f00bf 	tst	x5, #0x2
    2e88:	9341fca5 	asr	x5, x5, #1
    2e8c:	9a9f1086 	csel	x6, x4, xzr, ne	// ne = any
    2e90:	fa5f1028 	ccmp	x1, xzr, #0x8, ne	// ne = any
    2e94:	da81b421 	cneg	x1, x1, ge	// ge = tcont
    2e98:	da86b4c6 	cneg	x6, x6, ge	// ge = tcont
    2e9c:	9a84a0a4 	csel	x4, x5, x4, ge	// ge = tcont
    2ea0:	8b0600a5 	add	x5, x5, x6
    2ea4:	91000821 	add	x1, x1, #0x2
    2ea8:	f27f00bf 	tst	x5, #0x2
    2eac:	9341fca5 	asr	x5, x5, #1
    2eb0:	9a9f1086 	csel	x6, x4, xzr, ne	// ne = any
    2eb4:	fa5f1028 	ccmp	x1, xzr, #0x8, ne	// ne = any
    2eb8:	da81b421 	cneg	x1, x1, ge	// ge = tcont
    2ebc:	da86b4c6 	cneg	x6, x6, ge	// ge = tcont
    2ec0:	9a84a0a4 	csel	x4, x5, x4, ge	// ge = tcont
    2ec4:	8b0600a5 	add	x5, x5, x6
    2ec8:	91000821 	add	x1, x1, #0x2
    2ecc:	f27f00bf 	tst	x5, #0x2
    2ed0:	9341fca5 	asr	x5, x5, #1
    2ed4:	9a9f1086 	csel	x6, x4, xzr, ne	// ne = any
    2ed8:	fa5f1028 	ccmp	x1, xzr, #0x8, ne	// ne = any
    2edc:	da81b421 	cneg	x1, x1, ge	// ge = tcont
    2ee0:	da86b4c6 	cneg	x6, x6, ge	// ge = tcont
    2ee4:	9a84a0a4 	csel	x4, x5, x4, ge	// ge = tcont
    2ee8:	8b0600a5 	add	x5, x5, x6
    2eec:	91000821 	add	x1, x1, #0x2
    2ef0:	f27f00bf 	tst	x5, #0x2
    2ef4:	9341fca5 	asr	x5, x5, #1
    2ef8:	9a9f1086 	csel	x6, x4, xzr, ne	// ne = any
    2efc:	fa5f1028 	ccmp	x1, xzr, #0x8, ne	// ne = any
    2f00:	da81b421 	cneg	x1, x1, ge	// ge = tcont
    2f04:	da86b4c6 	cneg	x6, x6, ge	// ge = tcont
    2f08:	9a84a0a4 	csel	x4, x5, x4, ge	// ge = tcont
    2f0c:	8b0600a5 	add	x5, x5, x6
    2f10:	91000821 	add	x1, x1, #0x2
    2f14:	f27f00bf 	tst	x5, #0x2
    2f18:	9341fca5 	asr	x5, x5, #1
    2f1c:	9a9f1086 	csel	x6, x4, xzr, ne	// ne = any
    2f20:	fa5f1028 	ccmp	x1, xzr, #0x8, ne	// ne = any
    2f24:	da81b421 	cneg	x1, x1, ge	// ge = tcont
    2f28:	da86b4c6 	cneg	x6, x6, ge	// ge = tcont
    2f2c:	9a84a0a4 	csel	x4, x5, x4, ge	// ge = tcont
    2f30:	8b0600a5 	add	x5, x5, x6
    2f34:	91000821 	add	x1, x1, #0x2
    2f38:	f27f00bf 	tst	x5, #0x2
    2f3c:	9341fca5 	asr	x5, x5, #1
    2f40:	9a9f1086 	csel	x6, x4, xzr, ne	// ne = any
    2f44:	fa5f1028 	ccmp	x1, xzr, #0x8, ne	// ne = any
    2f48:	da81b421 	cneg	x1, x1, ge	// ge = tcont
    2f4c:	da86b4c6 	cneg	x6, x6, ge	// ge = tcont
    2f50:	9a84a0a4 	csel	x4, x5, x4, ge	// ge = tcont
    2f54:	8b0600a5 	add	x5, x5, x6
    2f58:	91000821 	add	x1, x1, #0x2
    2f5c:	f27f00bf 	tst	x5, #0x2
    2f60:	9341fca5 	asr	x5, x5, #1
    2f64:	9a9f1086 	csel	x6, x4, xzr, ne	// ne = any
    2f68:	fa5f1028 	ccmp	x1, xzr, #0x8, ne	// ne = any
    2f6c:	da81b421 	cneg	x1, x1, ge	// ge = tcont
    2f70:	da86b4c6 	cneg	x6, x6, ge	// ge = tcont
    2f74:	9a84a0a4 	csel	x4, x5, x4, ge	// ge = tcont
    2f78:	8b0600a5 	add	x5, x5, x6
    2f7c:	91000821 	add	x1, x1, #0x2
    2f80:	f27f00bf 	tst	x5, #0x2
    2f84:	9341fca5 	asr	x5, x5, #1
    2f88:	9a9f1086 	csel	x6, x4, xzr, ne	// ne = any
    2f8c:	fa5f1028 	ccmp	x1, xzr, #0x8, ne	// ne = any
    2f90:	da81b421 	cneg	x1, x1, ge	// ge = tcont
    2f94:	da86b4c6 	cneg	x6, x6, ge	// ge = tcont
    2f98:	9a84a0a4 	csel	x4, x5, x4, ge	// ge = tcont
    2f9c:	8b0600a5 	add	x5, x5, x6
    2fa0:	91000821 	add	x1, x1, #0x2
    2fa4:	f27f00bf 	tst	x5, #0x2
    2fa8:	9341fca5 	asr	x5, x5, #1
    2fac:	9a9f1086 	csel	x6, x4, xzr, ne	// ne = any
    2fb0:	fa5f1028 	ccmp	x1, xzr, #0x8, ne	// ne = any
    2fb4:	da81b421 	cneg	x1, x1, ge	// ge = tcont
    2fb8:	da86b4c6 	cneg	x6, x6, ge	// ge = tcont
    2fbc:	9a84a0a4 	csel	x4, x5, x4, ge	// ge = tcont
    2fc0:	8b0600a5 	add	x5, x5, x6
    2fc4:	91000821 	add	x1, x1, #0x2
    2fc8:	9341fca5 	asr	x5, x5, #1
    2fcc:	9144008c 	add	x12, x4, #0x100, lsl #12
    2fd0:	9355a58c 	sbfx	x12, x12, #21, #21
    2fd4:	d2a0020f 	mov	x15, #0x100000              	// #1048576
    2fd8:	8b0f55ef 	add	x15, x15, x15, lsl #21
    2fdc:	8b0f008d 	add	x13, x4, x15
    2fe0:	936afdad 	asr	x13, x13, #42
    2fe4:	914400ae 	add	x14, x5, #0x100, lsl #12
    2fe8:	9355a5ce 	sbfx	x14, x14, #21, #21
    2fec:	8b0f00af 	add	x15, x5, x15
    2ff0:	936afdef 	asr	x15, x15, #42
    2ff4:	9b027d86 	mul	x6, x12, x2
    2ff8:	9b037da7 	mul	x7, x13, x3
    2ffc:	9b027dc2 	mul	x2, x14, x2
    3000:	9b037de3 	mul	x3, x15, x3
    3004:	8b0700c4 	add	x4, x6, x7
    3008:	8b030045 	add	x5, x2, x3
    300c:	9354fc82 	asr	x2, x4, #20
    3010:	9354fca3 	asr	x3, x5, #20
    3014:	92404c44 	and	x4, x2, #0xfffff
    3018:	b2575884 	orr	x4, x4, #0xfffffe0000000000
    301c:	92404c65 	and	x5, x3, #0xfffff
    3020:	b24204a5 	orr	x5, x5, #0xc000000000000000
    3024:	f24000bf 	tst	x5, #0x1
    3028:	9a9f1086 	csel	x6, x4, xzr, ne	// ne = any
    302c:	fa5f1028 	ccmp	x1, xzr, #0x8, ne	// ne = any
    3030:	da81b421 	cneg	x1, x1, ge	// ge = tcont
    3034:	da86b4c6 	cneg	x6, x6, ge	// ge = tcont
    3038:	9a84a0a4 	csel	x4, x5, x4, ge	// ge = tcont
    303c:	8b0600a5 	add	x5, x5, x6
    3040:	91000821 	add	x1, x1, #0x2
    3044:	f27f00bf 	tst	x5, #0x2
    3048:	9341fca5 	asr	x5, x5, #1
    304c:	9a9f1086 	csel	x6, x4, xzr, ne	// ne = any
    3050:	fa5f1028 	ccmp	x1, xzr, #0x8, ne	// ne = any
    3054:	da81b421 	cneg	x1, x1, ge	// ge = tcont
    3058:	da86b4c6 	cneg	x6, x6, ge	// ge = tcont
    305c:	9a84a0a4 	csel	x4, x5, x4, ge	// ge = tcont
    3060:	8b0600a5 	add	x5, x5, x6
    3064:	91000821 	add	x1, x1, #0x2
    3068:	f27f00bf 	tst	x5, #0x2
    306c:	9341fca5 	asr	x5, x5, #1
    3070:	9a9f1086 	csel	x6, x4, xzr, ne	// ne = any
    3074:	fa5f1028 	ccmp	x1, xzr, #0x8, ne	// ne = any
    3078:	da81b421 	cneg	x1, x1, ge	// ge = tcont
    307c:	da86b4c6 	cneg	x6, x6, ge	// ge = tcont
    3080:	9a84a0a4 	csel	x4, x5, x4, ge	// ge = tcont
    3084:	8b0600a5 	add	x5, x5, x6
    3088:	91000821 	add	x1, x1, #0x2
    308c:	f27f00bf 	tst	x5, #0x2
    3090:	9341fca5 	asr	x5, x5, #1
    3094:	9a9f1086 	csel	x6, x4, xzr, ne	// ne = any
    3098:	fa5f1028 	ccmp	x1, xzr, #0x8, ne	// ne = any
    309c:	da81b421 	cneg	x1, x1, ge	// ge = tcont
    30a0:	da86b4c6 	cneg	x6, x6, ge	// ge = tcont
    30a4:	9a84a0a4 	csel	x4, x5, x4, ge	// ge = tcont
    30a8:	8b0600a5 	add	x5, x5, x6
    30ac:	91000821 	add	x1, x1, #0x2
    30b0:	f27f00bf 	tst	x5, #0x2
    30b4:	9341fca5 	asr	x5, x5, #1
    30b8:	9a9f1086 	csel	x6, x4, xzr, ne	// ne = any
    30bc:	fa5f1028 	ccmp	x1, xzr, #0x8, ne	// ne = any
    30c0:	da81b421 	cneg	x1, x1, ge	// ge = tcont
    30c4:	da86b4c6 	cneg	x6, x6, ge	// ge = tcont
    30c8:	9a84a0a4 	csel	x4, x5, x4, ge	// ge = tcont
    30cc:	8b0600a5 	add	x5, x5, x6
    30d0:	91000821 	add	x1, x1, #0x2
    30d4:	f27f00bf 	tst	x5, #0x2
    30d8:	9341fca5 	asr	x5, x5, #1
    30dc:	9a9f1086 	csel	x6, x4, xzr, ne	// ne = any
    30e0:	fa5f1028 	ccmp	x1, xzr, #0x8, ne	// ne = any
    30e4:	da81b421 	cneg	x1, x1, ge	// ge = tcont
    30e8:	da86b4c6 	cneg	x6, x6, ge	// ge = tcont
    30ec:	9a84a0a4 	csel	x4, x5, x4, ge	// ge = tcont
    30f0:	8b0600a5 	add	x5, x5, x6
    30f4:	91000821 	add	x1, x1, #0x2
    30f8:	f27f00bf 	tst	x5, #0x2
    30fc:	9341fca5 	asr	x5, x5, #1
    3100:	9a9f1086 	csel	x6, x4, xzr, ne	// ne = any
    3104:	fa5f1028 	ccmp	x1, xzr, #0x8, ne	// ne = any
    3108:	da81b421 	cneg	x1, x1, ge	// ge = tcont
    310c:	da86b4c6 	cneg	x6, x6, ge	// ge = tcont
    3110:	9a84a0a4 	csel	x4, x5, x4, ge	// ge = tcont
    3114:	8b0600a5 	add	x5, x5, x6
    3118:	91000821 	add	x1, x1, #0x2
    311c:	f27f00bf 	tst	x5, #0x2
    3120:	9341fca5 	asr	x5, x5, #1
    3124:	9a9f1086 	csel	x6, x4, xzr, ne	// ne = any
    3128:	fa5f1028 	ccmp	x1, xzr, #0x8, ne	// ne = any
    312c:	da81b421 	cneg	x1, x1, ge	// ge = tcont
    3130:	da86b4c6 	cneg	x6, x6, ge	// ge = tcont
    3134:	9a84a0a4 	csel	x4, x5, x4, ge	// ge = tcont
    3138:	8b0600a5 	add	x5, x5, x6
    313c:	91000821 	add	x1, x1, #0x2
    3140:	f27f00bf 	tst	x5, #0x2
    3144:	9341fca5 	asr	x5, x5, #1
    3148:	9a9f1086 	csel	x6, x4, xzr, ne	// ne = any
    314c:	fa5f1028 	ccmp	x1, xzr, #0x8, ne	// ne = any
    3150:	da81b421 	cneg	x1, x1, ge	// ge = tcont
    3154:	da86b4c6 	cneg	x6, x6, ge	// ge = tcont
    3158:	9a84a0a4 	csel	x4, x5, x4, ge	// ge = tcont
    315c:	8b0600a5 	add	x5, x5, x6
    3160:	91000821 	add	x1, x1, #0x2
    3164:	f27f00bf 	tst	x5, #0x2
    3168:	9341fca5 	asr	x5, x5, #1
    316c:	9a9f1086 	csel	x6, x4, xzr, ne	// ne = any
    3170:	fa5f1028 	ccmp	x1, xzr, #0x8, ne	// ne = any
    3174:	da81b421 	cneg	x1, x1, ge	// ge = tcont
    3178:	da86b4c6 	cneg	x6, x6, ge	// ge = tcont
    317c:	9a84a0a4 	csel	x4, x5, x4, ge	// ge = tcont
    3180:	8b0600a5 	add	x5, x5, x6
    3184:	91000821 	add	x1, x1, #0x2
    3188:	f27f00bf 	tst	x5, #0x2
    318c:	9341fca5 	asr	x5, x5, #1
    3190:	9b087d82 	mul	x2, x12, x8
    3194:	9b097d83 	mul	x3, x12, x9
    3198:	9b087dc6 	mul	x6, x14, x8
    319c:	9b097dc7 	mul	x7, x14, x9
    31a0:	9b0a09a8 	madd	x8, x13, x10, x2
    31a4:	9b0b0da9 	madd	x9, x13, x11, x3
    31a8:	9b0a19f0 	madd	x16, x15, x10, x6
    31ac:	9b0b1df1 	madd	x17, x15, x11, x7
    31b0:	9a9f1086 	csel	x6, x4, xzr, ne	// ne = any
    31b4:	fa5f1028 	ccmp	x1, xzr, #0x8, ne	// ne = any
    31b8:	da81b421 	cneg	x1, x1, ge	// ge = tcont
    31bc:	da86b4c6 	cneg	x6, x6, ge	// ge = tcont
    31c0:	9a84a0a4 	csel	x4, x5, x4, ge	// ge = tcont
    31c4:	8b0600a5 	add	x5, x5, x6
    31c8:	91000821 	add	x1, x1, #0x2
    31cc:	f27f00bf 	tst	x5, #0x2
    31d0:	9341fca5 	asr	x5, x5, #1
    31d4:	9a9f1086 	csel	x6, x4, xzr, ne	// ne = any
    31d8:	fa5f1028 	ccmp	x1, xzr, #0x8, ne	// ne = any
    31dc:	da81b421 	cneg	x1, x1, ge	// ge = tcont
    31e0:	da86b4c6 	cneg	x6, x6, ge	// ge = tcont
    31e4:	9a84a0a4 	csel	x4, x5, x4, ge	// ge = tcont
    31e8:	8b0600a5 	add	x5, x5, x6
    31ec:	91000821 	add	x1, x1, #0x2
    31f0:	f27f00bf 	tst	x5, #0x2
    31f4:	9341fca5 	asr	x5, x5, #1
    31f8:	9a9f1086 	csel	x6, x4, xzr, ne	// ne = any
    31fc:	fa5f1028 	ccmp	x1, xzr, #0x8, ne	// ne = any
    3200:	da81b421 	cneg	x1, x1, ge	// ge = tcont
    3204:	da86b4c6 	cneg	x6, x6, ge	// ge = tcont
    3208:	9a84a0a4 	csel	x4, x5, x4, ge	// ge = tcont
    320c:	8b0600a5 	add	x5, x5, x6
    3210:	91000821 	add	x1, x1, #0x2
    3214:	f27f00bf 	tst	x5, #0x2
    3218:	9341fca5 	asr	x5, x5, #1
    321c:	9a9f1086 	csel	x6, x4, xzr, ne	// ne = any
    3220:	fa5f1028 	ccmp	x1, xzr, #0x8, ne	// ne = any
    3224:	da81b421 	cneg	x1, x1, ge	// ge = tcont
    3228:	da86b4c6 	cneg	x6, x6, ge	// ge = tcont
    322c:	9a84a0a4 	csel	x4, x5, x4, ge	// ge = tcont
    3230:	8b0600a5 	add	x5, x5, x6
    3234:	91000821 	add	x1, x1, #0x2
    3238:	f27f00bf 	tst	x5, #0x2
    323c:	9341fca5 	asr	x5, x5, #1
    3240:	9a9f1086 	csel	x6, x4, xzr, ne	// ne = any
    3244:	fa5f1028 	ccmp	x1, xzr, #0x8, ne	// ne = any
    3248:	da81b421 	cneg	x1, x1, ge	// ge = tcont
    324c:	da86b4c6 	cneg	x6, x6, ge	// ge = tcont
    3250:	9a84a0a4 	csel	x4, x5, x4, ge	// ge = tcont
    3254:	8b0600a5 	add	x5, x5, x6
    3258:	91000821 	add	x1, x1, #0x2
    325c:	f27f00bf 	tst	x5, #0x2
    3260:	9341fca5 	asr	x5, x5, #1
    3264:	9a9f1086 	csel	x6, x4, xzr, ne	// ne = any
    3268:	fa5f1028 	ccmp	x1, xzr, #0x8, ne	// ne = any
    326c:	da81b421 	cneg	x1, x1, ge	// ge = tcont
    3270:	da86b4c6 	cneg	x6, x6, ge	// ge = tcont
    3274:	9a84a0a4 	csel	x4, x5, x4, ge	// ge = tcont
    3278:	8b0600a5 	add	x5, x5, x6
    327c:	91000821 	add	x1, x1, #0x2
    3280:	f27f00bf 	tst	x5, #0x2
    3284:	9341fca5 	asr	x5, x5, #1
    3288:	9a9f1086 	csel	x6, x4, xzr, ne	// ne = any
    328c:	fa5f1028 	ccmp	x1, xzr, #0x8, ne	// ne = any
    3290:	da81b421 	cneg	x1, x1, ge	// ge = tcont
    3294:	da86b4c6 	cneg	x6, x6, ge	// ge = tcont
    3298:	9a84a0a4 	csel	x4, x5, x4, ge	// ge = tcont
    329c:	8b0600a5 	add	x5, x5, x6
    32a0:	91000821 	add	x1, x1, #0x2
    32a4:	f27f00bf 	tst	x5, #0x2
    32a8:	9341fca5 	asr	x5, x5, #1
    32ac:	9a9f1086 	csel	x6, x4, xzr, ne	// ne = any
    32b0:	fa5f1028 	ccmp	x1, xzr, #0x8, ne	// ne = any
    32b4:	da81b421 	cneg	x1, x1, ge	// ge = tcont
    32b8:	da86b4c6 	cneg	x6, x6, ge	// ge = tcont
    32bc:	9a84a0a4 	csel	x4, x5, x4, ge	// ge = tcont
    32c0:	8b0600a5 	add	x5, x5, x6
    32c4:	91000821 	add	x1, x1, #0x2
    32c8:	f27f00bf 	tst	x5, #0x2
    32cc:	9341fca5 	asr	x5, x5, #1
    32d0:	9a9f1086 	csel	x6, x4, xzr, ne	// ne = any
    32d4:	fa5f1028 	ccmp	x1, xzr, #0x8, ne	// ne = any
    32d8:	da81b421 	cneg	x1, x1, ge	// ge = tcont
    32dc:	da86b4c6 	cneg	x6, x6, ge	// ge = tcont
    32e0:	9a84a0a4 	csel	x4, x5, x4, ge	// ge = tcont
    32e4:	8b0600a5 	add	x5, x5, x6
    32e8:	91000821 	add	x1, x1, #0x2
    32ec:	9341fca5 	asr	x5, x5, #1
    32f0:	9144008c 	add	x12, x4, #0x100, lsl #12
    32f4:	9356a98c 	sbfx	x12, x12, #22, #21
    32f8:	d2a0020f 	mov	x15, #0x100000              	// #1048576
    32fc:	8b0f55ef 	add	x15, x15, x15, lsl #21
    3300:	8b0f008d 	add	x13, x4, x15
    3304:	936bfdad 	asr	x13, x13, #43
    3308:	914400ae 	add	x14, x5, #0x100, lsl #12
    330c:	9356a9ce 	sbfx	x14, x14, #22, #21
    3310:	8b0f00af 	add	x15, x5, x15
    3314:	936bfdef 	asr	x15, x15, #43
    3318:	9b08fd82 	mneg	x2, x12, x8
    331c:	9b09fd83 	mneg	x3, x12, x9
    3320:	9b08fdc4 	mneg	x4, x14, x8
    3324:	9b09fdc5 	mneg	x5, x14, x9
    3328:	9b1089aa 	msub	x10, x13, x16, x2
    332c:	9b118dab 	msub	x11, x13, x17, x3
    3330:	9b1091ec 	msub	x12, x15, x16, x4
    3334:	9b1195ed 	msub	x13, x15, x17, x5
    3338:	aa0103f6 	mov	x22, x1
    333c:	f10006b5 	subs	x21, x21, #0x1
    3340:	54ff9281 	b.ne	2590 <edwards25519_scalarmulbase_alt_invloop>  // b.any
    3344:	f94003e0 	ldr	x0, [sp]
    3348:	f94013e1 	ldr	x1, [sp, #32]
    334c:	9b0a7c00 	mul	x0, x0, x10
    3350:	9b0b0021 	madd	x1, x1, x11, x0
    3354:	937ffc20 	asr	x0, x1, #63
    3358:	eb1f015f 	cmp	x10, xzr
    335c:	da9f53ee 	csetm	x14, mi	// mi = first
    3360:	da8a554a 	cneg	x10, x10, mi	// mi = first
    3364:	ca0001ce 	eor	x14, x14, x0
    3368:	eb1f017f 	cmp	x11, xzr
    336c:	da9f53ef 	csetm	x15, mi	// mi = first
    3370:	da8b556b 	cneg	x11, x11, mi	// mi = first
    3374:	ca0001ef 	eor	x15, x15, x0
    3378:	eb1f019f 	cmp	x12, xzr
    337c:	da9f53f0 	csetm	x16, mi	// mi = first
    3380:	da8c558c 	cneg	x12, x12, mi	// mi = first
    3384:	ca000210 	eor	x16, x16, x0
    3388:	eb1f01bf 	cmp	x13, xzr
    338c:	da9f53f1 	csetm	x17, mi	// mi = first
    3390:	da8d55ad 	cneg	x13, x13, mi	// mi = first
    3394:	ca000231 	eor	x17, x17, x0
    3398:	8a0e0140 	and	x0, x10, x14
    339c:	8a0f0161 	and	x1, x11, x15
    33a0:	8b010009 	add	x9, x0, x1
    33a4:	f94023e7 	ldr	x7, [sp, #64]
    33a8:	ca0e00e1 	eor	x1, x7, x14
    33ac:	9b0a7c20 	mul	x0, x1, x10
    33b0:	9bca7c21 	umulh	x1, x1, x10
    33b4:	ab000124 	adds	x4, x9, x0
    33b8:	9a0103e2 	adc	x2, xzr, x1
    33bc:	f94033e8 	ldr	x8, [sp, #96]
    33c0:	ca0f0101 	eor	x1, x8, x15
    33c4:	9b0b7c20 	mul	x0, x1, x11
    33c8:	9bcb7c21 	umulh	x1, x1, x11
    33cc:	ab000084 	adds	x4, x4, x0
    33d0:	f90023e4 	str	x4, [sp, #64]
    33d4:	9a010042 	adc	x2, x2, x1
    33d8:	f94027e7 	ldr	x7, [sp, #72]
    33dc:	ca0e00e1 	eor	x1, x7, x14
    33e0:	9b0a7c20 	mul	x0, x1, x10
    33e4:	9bca7c21 	umulh	x1, x1, x10
    33e8:	ab000042 	adds	x2, x2, x0
    33ec:	9a0103e6 	adc	x6, xzr, x1
    33f0:	f94037e8 	ldr	x8, [sp, #104]
    33f4:	ca0f0101 	eor	x1, x8, x15
    33f8:	9b0b7c20 	mul	x0, x1, x11
    33fc:	9bcb7c21 	umulh	x1, x1, x11
    3400:	ab000042 	adds	x2, x2, x0
    3404:	f90027e2 	str	x2, [sp, #72]
    3408:	9a0100c6 	adc	x6, x6, x1
    340c:	f9402be7 	ldr	x7, [sp, #80]
    3410:	ca0e00e1 	eor	x1, x7, x14
    3414:	9b0a7c20 	mul	x0, x1, x10
    3418:	9bca7c21 	umulh	x1, x1, x10
    341c:	ab0000c6 	adds	x6, x6, x0
    3420:	9a0103e5 	adc	x5, xzr, x1
    3424:	f9403be8 	ldr	x8, [sp, #112]
    3428:	ca0f0101 	eor	x1, x8, x15
    342c:	9b0b7c20 	mul	x0, x1, x11
    3430:	9bcb7c21 	umulh	x1, x1, x11
    3434:	ab0000c6 	adds	x6, x6, x0
    3438:	f9002be6 	str	x6, [sp, #80]
    343c:	9a0100a5 	adc	x5, x5, x1
    3440:	f9402fe7 	ldr	x7, [sp, #88]
    3444:	ca0e00e1 	eor	x1, x7, x14
    3448:	8a0a01c3 	and	x3, x14, x10
    344c:	cb0303e3 	neg	x3, x3
    3450:	9b0a7c20 	mul	x0, x1, x10
    3454:	9bca7c21 	umulh	x1, x1, x10
    3458:	ab0000a5 	adds	x5, x5, x0
    345c:	9a010063 	adc	x3, x3, x1
    3460:	f9403fe8 	ldr	x8, [sp, #120]
    3464:	ca0f0101 	eor	x1, x8, x15
    3468:	8a0b01e0 	and	x0, x15, x11
    346c:	cb000063 	sub	x3, x3, x0
    3470:	9b0b7c20 	mul	x0, x1, x11
    3474:	9bcb7c21 	umulh	x1, x1, x11
    3478:	ab0000a5 	adds	x5, x5, x0
    347c:	9a010063 	adc	x3, x3, x1
    3480:	93c5fc66 	extr	x6, x3, x5, #63
    3484:	a94407e0 	ldp	x0, x1, [sp, #64]
    3488:	ea03007f 	tst	x3, x3
    348c:	9a8644c6 	cinc	x6, x6, pl	// pl = nfrst
    3490:	d2800263 	mov	x3, #0x13                  	// #19
    3494:	9b037cc4 	mul	x4, x6, x3
    3498:	8b06fca5 	add	x5, x5, x6, lsl #63
    349c:	9b437cc6 	smulh	x6, x6, x3
    34a0:	f9402be2 	ldr	x2, [sp, #80]
    34a4:	ab040000 	adds	x0, x0, x4
    34a8:	ba060021 	adcs	x1, x1, x6
    34ac:	937ffcc6 	asr	x6, x6, #63
    34b0:	ba060042 	adcs	x2, x2, x6
    34b4:	ba0600a5 	adcs	x5, x5, x6
    34b8:	9a9f4063 	csel	x3, x3, xzr, mi	// mi = first
    34bc:	eb030000 	subs	x0, x0, x3
    34c0:	fa1f0021 	sbcs	x1, x1, xzr
    34c4:	fa1f0042 	sbcs	x2, x2, xzr
    34c8:	da1f00a5 	sbc	x5, x5, xzr
    34cc:	9240f8a5 	and	x5, x5, #0x7fffffffffffffff
    34d0:	aa1403e4 	mov	x4, x20
    34d4:	a9000480 	stp	x0, x1, [x4]
    34d8:	a9011482 	stp	x2, x5, [x4, #16]
    34dc:	a94813e3 	ldp	x3, x4, [sp, #128]
    34e0:	a94e23e7 	ldp	x7, x8, [sp, #224]
    34e4:	9b077c6c 	mul	x12, x3, x7
    34e8:	9bc77c6d 	umulh	x13, x3, x7
    34ec:	9b087c6b 	mul	x11, x3, x8
    34f0:	9bc87c6e 	umulh	x14, x3, x8
    34f4:	ab0b01ad 	adds	x13, x13, x11
    34f8:	a94f2be9 	ldp	x9, x10, [sp, #240]
    34fc:	9b097c6b 	mul	x11, x3, x9
    3500:	9bc97c6f 	umulh	x15, x3, x9
    3504:	ba0b01ce 	adcs	x14, x14, x11
    3508:	9b0a7c6b 	mul	x11, x3, x10
    350c:	9bca7c70 	umulh	x16, x3, x10
    3510:	ba0b01ef 	adcs	x15, x15, x11
    3514:	9a1f0210 	adc	x16, x16, xzr
    3518:	a9491be5 	ldp	x5, x6, [sp, #144]
    351c:	9b077c8b 	mul	x11, x4, x7
    3520:	ab0b01ad 	adds	x13, x13, x11
    3524:	9b087c8b 	mul	x11, x4, x8
    3528:	ba0b01ce 	adcs	x14, x14, x11
    352c:	9b097c8b 	mul	x11, x4, x9
    3530:	ba0b01ef 	adcs	x15, x15, x11
    3534:	9b0a7c8b 	mul	x11, x4, x10
    3538:	ba0b0210 	adcs	x16, x16, x11
    353c:	9bca7c83 	umulh	x3, x4, x10
    3540:	9a1f0063 	adc	x3, x3, xzr
    3544:	9bc77c8b 	umulh	x11, x4, x7
    3548:	ab0b01ce 	adds	x14, x14, x11
    354c:	9bc87c8b 	umulh	x11, x4, x8
    3550:	ba0b01ef 	adcs	x15, x15, x11
    3554:	9bc97c8b 	umulh	x11, x4, x9
    3558:	ba0b0210 	adcs	x16, x16, x11
    355c:	9a1f0063 	adc	x3, x3, xzr
    3560:	9b077cab 	mul	x11, x5, x7
    3564:	ab0b01ce 	adds	x14, x14, x11
    3568:	9b087cab 	mul	x11, x5, x8
    356c:	ba0b01ef 	adcs	x15, x15, x11
    3570:	9b097cab 	mul	x11, x5, x9
    3574:	ba0b0210 	adcs	x16, x16, x11
    3578:	9b0a7cab 	mul	x11, x5, x10
    357c:	ba0b0063 	adcs	x3, x3, x11
    3580:	9bca7ca4 	umulh	x4, x5, x10
    3584:	9a1f0084 	adc	x4, x4, xzr
    3588:	9bc77cab 	umulh	x11, x5, x7
    358c:	ab0b01ef 	adds	x15, x15, x11
    3590:	9bc87cab 	umulh	x11, x5, x8
    3594:	ba0b0210 	adcs	x16, x16, x11
    3598:	9bc97cab 	umulh	x11, x5, x9
    359c:	ba0b0063 	adcs	x3, x3, x11
    35a0:	9a1f0084 	adc	x4, x4, xzr
    35a4:	9b077ccb 	mul	x11, x6, x7
    35a8:	ab0b01ef 	adds	x15, x15, x11
    35ac:	9b087ccb 	mul	x11, x6, x8
    35b0:	ba0b0210 	adcs	x16, x16, x11
    35b4:	9b097ccb 	mul	x11, x6, x9
    35b8:	ba0b0063 	adcs	x3, x3, x11
    35bc:	9b0a7ccb 	mul	x11, x6, x10
    35c0:	ba0b0084 	adcs	x4, x4, x11
    35c4:	9bca7cc5 	umulh	x5, x6, x10
    35c8:	9a1f00a5 	adc	x5, x5, xzr
    35cc:	9bc77ccb 	umulh	x11, x6, x7
    35d0:	ab0b0210 	adds	x16, x16, x11
    35d4:	9bc87ccb 	umulh	x11, x6, x8
    35d8:	ba0b0063 	adcs	x3, x3, x11
    35dc:	9bc97ccb 	umulh	x11, x6, x9
    35e0:	ba0b0084 	adcs	x4, x4, x11
    35e4:	9a1f00a5 	adc	x5, x5, xzr
    35e8:	d28004c7 	mov	x7, #0x26                  	// #38
    35ec:	9b107ceb 	mul	x11, x7, x16
    35f0:	9bd07ce9 	umulh	x9, x7, x16
    35f4:	ab0b018c 	adds	x12, x12, x11
    35f8:	9b037ceb 	mul	x11, x7, x3
    35fc:	9bc37ce3 	umulh	x3, x7, x3
    3600:	ba0b01ad 	adcs	x13, x13, x11
    3604:	9b047ceb 	mul	x11, x7, x4
    3608:	9bc47ce4 	umulh	x4, x7, x4
    360c:	ba0b01ce 	adcs	x14, x14, x11
    3610:	9b057ceb 	mul	x11, x7, x5
    3614:	9bc57ce5 	umulh	x5, x7, x5
    3618:	ba0b01ef 	adcs	x15, x15, x11
    361c:	9a9f37f0 	cset	x16, cs	// cs = hs, nlast
    3620:	ab0401ef 	adds	x15, x15, x4
    3624:	9a050210 	adc	x16, x16, x5
    3628:	ab0f01ff 	cmn	x15, x15
    362c:	b24101ef 	orr	x15, x15, #0x8000000000000000
    3630:	9a100208 	adc	x8, x16, x16
    3634:	d2800267 	mov	x7, #0x13                  	// #19
    3638:	9b081ceb 	madd	x11, x7, x8, x7
    363c:	ab0b018c 	adds	x12, x12, x11
    3640:	ba0901ad 	adcs	x13, x13, x9
    3644:	ba0301ce 	adcs	x14, x14, x3
    3648:	ba1f01ef 	adcs	x15, x15, xzr
    364c:	9a9f30e7 	csel	x7, x7, xzr, cc	// cc = lo, ul, last
    3650:	eb07018c 	subs	x12, x12, x7
    3654:	fa1f01ad 	sbcs	x13, x13, xzr
    3658:	fa1f01ce 	sbcs	x14, x14, xzr
    365c:	da1f01ef 	sbc	x15, x15, xzr
    3660:	9240f9ef 	and	x15, x15, #0x7fffffffffffffff
    3664:	a90036ec 	stp	x12, x13, [x23]
    3668:	a9013eee 	stp	x14, x15, [x23, #16]
    366c:	a94a13e3 	ldp	x3, x4, [sp, #160]
    3670:	a94e23e7 	ldp	x7, x8, [sp, #224]
    3674:	9b077c6c 	mul	x12, x3, x7
    3678:	9bc77c6d 	umulh	x13, x3, x7
    367c:	9b087c6b 	mul	x11, x3, x8
    3680:	9bc87c6e 	umulh	x14, x3, x8
    3684:	ab0b01ad 	adds	x13, x13, x11
    3688:	a94f2be9 	ldp	x9, x10, [sp, #240]
    368c:	9b097c6b 	mul	x11, x3, x9
    3690:	9bc97c6f 	umulh	x15, x3, x9
    3694:	ba0b01ce 	adcs	x14, x14, x11
    3698:	9b0a7c6b 	mul	x11, x3, x10
    369c:	9bca7c70 	umulh	x16, x3, x10
    36a0:	ba0b01ef 	adcs	x15, x15, x11
    36a4:	9a1f0210 	adc	x16, x16, xzr
    36a8:	a94b1be5 	ldp	x5, x6, [sp, #176]
    36ac:	9b077c8b 	mul	x11, x4, x7
    36b0:	ab0b01ad 	adds	x13, x13, x11
    36b4:	9b087c8b 	mul	x11, x4, x8
    36b8:	ba0b01ce 	adcs	x14, x14, x11
    36bc:	9b097c8b 	mul	x11, x4, x9
    36c0:	ba0b01ef 	adcs	x15, x15, x11
    36c4:	9b0a7c8b 	mul	x11, x4, x10
    36c8:	ba0b0210 	adcs	x16, x16, x11
    36cc:	9bca7c83 	umulh	x3, x4, x10
    36d0:	9a1f0063 	adc	x3, x3, xzr
    36d4:	9bc77c8b 	umulh	x11, x4, x7
    36d8:	ab0b01ce 	adds	x14, x14, x11
    36dc:	9bc87c8b 	umulh	x11, x4, x8
    36e0:	ba0b01ef 	adcs	x15, x15, x11
    36e4:	9bc97c8b 	umulh	x11, x4, x9
    36e8:	ba0b0210 	adcs	x16, x16, x11
    36ec:	9a1f0063 	adc	x3, x3, xzr
    36f0:	9b077cab 	mul	x11, x5, x7
    36f4:	ab0b01ce 	adds	x14, x14, x11
    36f8:	9b087cab 	mul	x11, x5, x8
    36fc:	ba0b01ef 	adcs	x15, x15, x11
    3700:	9b097cab 	mul	x11, x5, x9
    3704:	ba0b0210 	adcs	x16, x16, x11
    3708:	9b0a7cab 	mul	x11, x5, x10
    370c:	ba0b0063 	adcs	x3, x3, x11
    3710:	9bca7ca4 	umulh	x4, x5, x10
    3714:	9a1f0084 	adc	x4, x4, xzr
    3718:	9bc77cab 	umulh	x11, x5, x7
    371c:	ab0b01ef 	adds	x15, x15, x11
    3720:	9bc87cab 	umulh	x11, x5, x8
    3724:	ba0b0210 	adcs	x16, x16, x11
    3728:	9bc97cab 	umulh	x11, x5, x9
    372c:	ba0b0063 	adcs	x3, x3, x11
    3730:	9a1f0084 	adc	x4, x4, xzr
    3734:	9b077ccb 	mul	x11, x6, x7
    3738:	ab0b01ef 	adds	x15, x15, x11
    373c:	9b087ccb 	mul	x11, x6, x8
    3740:	ba0b0210 	adcs	x16, x16, x11
    3744:	9b097ccb 	mul	x11, x6, x9
    3748:	ba0b0063 	adcs	x3, x3, x11
    374c:	9b0a7ccb 	mul	x11, x6, x10
    3750:	ba0b0084 	adcs	x4, x4, x11
    3754:	9bca7cc5 	umulh	x5, x6, x10
    3758:	9a1f00a5 	adc	x5, x5, xzr
    375c:	9bc77ccb 	umulh	x11, x6, x7
    3760:	ab0b0210 	adds	x16, x16, x11
    3764:	9bc87ccb 	umulh	x11, x6, x8
    3768:	ba0b0063 	adcs	x3, x3, x11
    376c:	9bc97ccb 	umulh	x11, x6, x9
    3770:	ba0b0084 	adcs	x4, x4, x11
    3774:	9a1f00a5 	adc	x5, x5, xzr
    3778:	d28004c7 	mov	x7, #0x26                  	// #38
    377c:	9b107ceb 	mul	x11, x7, x16
    3780:	9bd07ce9 	umulh	x9, x7, x16
    3784:	ab0b018c 	adds	x12, x12, x11
    3788:	9b037ceb 	mul	x11, x7, x3
    378c:	9bc37ce3 	umulh	x3, x7, x3
    3790:	ba0b01ad 	adcs	x13, x13, x11
    3794:	9b047ceb 	mul	x11, x7, x4
    3798:	9bc47ce4 	umulh	x4, x7, x4
    379c:	ba0b01ce 	adcs	x14, x14, x11
    37a0:	9b057ceb 	mul	x11, x7, x5
    37a4:	9bc57ce5 	umulh	x5, x7, x5
    37a8:	ba0b01ef 	adcs	x15, x15, x11
    37ac:	9a9f37f0 	cset	x16, cs	// cs = hs, nlast
    37b0:	ab0401ef 	adds	x15, x15, x4
    37b4:	9a050210 	adc	x16, x16, x5
    37b8:	ab0f01ff 	cmn	x15, x15
    37bc:	b24101ef 	orr	x15, x15, #0x8000000000000000
    37c0:	9a100208 	adc	x8, x16, x16
    37c4:	d2800267 	mov	x7, #0x13                  	// #19
    37c8:	9b081ceb 	madd	x11, x7, x8, x7
    37cc:	ab0b018c 	adds	x12, x12, x11
    37d0:	ba0901ad 	adcs	x13, x13, x9
    37d4:	ba0301ce 	adcs	x14, x14, x3
    37d8:	ba1f01ef 	adcs	x15, x15, xzr
    37dc:	9a9f30e7 	csel	x7, x7, xzr, cc	// cc = lo, ul, last
    37e0:	eb07018c 	subs	x12, x12, x7
    37e4:	fa1f01ad 	sbcs	x13, x13, xzr
    37e8:	fa1f01ce 	sbcs	x14, x14, xzr
    37ec:	da1f01ef 	sbc	x15, x15, xzr
    37f0:	9240f9ef 	and	x15, x15, #0x7fffffffffffffff
    37f4:	a90236ec 	stp	x12, x13, [x23, #32]
    37f8:	a9033eee 	stp	x14, x15, [x23, #48]
    37fc:	910703ff 	add	sp, sp, #0x1c0
    3800:	a8c163f7 	ldp	x23, x24, [sp], #16
    3804:	a8c15bf5 	ldp	x21, x22, [sp], #16
    3808:	a8c153f3 	ldp	x19, x20, [sp], #16
    380c:	d65f03c0 	ret

0000000000003810 <edwards25519_scalarmuldouble_alt>:
    3810:	a9bf53f3 	stp	x19, x20, [sp, #-16]!
    3814:	a9bf5bf5 	stp	x21, x22, [sp, #-16]!
    3818:	a9bf63f7 	stp	x23, x24, [sp, #-16]!
    381c:	a9bf7bf9 	stp	x25, x30, [sp, #-16]!
    3820:	d11683ff 	sub	sp, sp, #0x5a0
    3824:	aa0003f9 	mov	x25, x0
    3828:	d29d2404 	mov	x4, #0xe920                	// #59680
    382c:	f2b41b24 	movk	x4, #0xa0d9, lsl #16
    3830:	f2cdf6a4 	movk	x4, #0x6fb5, lsl #32
    3834:	f2f8fea4 	movk	x4, #0xc7f5, lsl #48
    3838:	d2943aa5 	mov	x5, #0xa1d5                	// #41429
    383c:	f2ae1965 	movk	x5, #0x70cb, lsl #16
    3840:	f2d73265 	movk	x5, #0xb993, lsl #32
    3844:	f2fc3205 	movk	x5, #0xe190, lsl #48
    3848:	b201e3e7 	mov	x7, #0x8888888888888888    	// #-8608480567731124088
    384c:	d10004e6 	sub	x6, x7, #0x1
    3850:	9240ece8 	and	x8, x7, #0xfffffffffffffff
    3854:	a9402c6a 	ldp	x10, x11, [x3]
    3858:	a941346c 	ldp	x12, x13, [x3, #16]
    385c:	d2f00003 	mov	x3, #0x8000000000000000    	// #-9223372036854775808
    3860:	eb0d007f 	cmp	x3, x13
    3864:	9a8420ee 	csel	x14, x7, x4, cs	// cs = hs, nlast
    3868:	9a8520ef 	csel	x15, x7, x5, cs	// cs = hs, nlast
    386c:	9a8620f0 	csel	x16, x7, x6, cs	// cs = hs, nlast
    3870:	9a872111 	csel	x17, x8, x7, cs	// cs = hs, nlast
    3874:	ab0e014a 	adds	x10, x10, x14
    3878:	ba0f016b 	adcs	x11, x11, x15
    387c:	ba10018c 	adcs	x12, x12, x16
    3880:	9a1101ad 	adc	x13, x13, x17
    3884:	a9022fea 	stp	x10, x11, [sp, #32]
    3888:	a90337ec 	stp	x12, x13, [sp, #48]
    388c:	a9402c2a 	ldp	x10, x11, [x1]
    3890:	a941342c 	ldp	x12, x13, [x1, #16]
    3894:	d2f00003 	mov	x3, #0x8000000000000000    	// #-9223372036854775808
    3898:	eb0d007f 	cmp	x3, x13
    389c:	9a8420ee 	csel	x14, x7, x4, cs	// cs = hs, nlast
    38a0:	9a8520ef 	csel	x15, x7, x5, cs	// cs = hs, nlast
    38a4:	9a8620f0 	csel	x16, x7, x6, cs	// cs = hs, nlast
    38a8:	9a872111 	csel	x17, x8, x7, cs	// cs = hs, nlast
    38ac:	ab0e014a 	adds	x10, x10, x14
    38b0:	ba0f016b 	adcs	x11, x11, x15
    38b4:	ba10018c 	adcs	x12, x12, x16
    38b8:	9a1101ad 	adc	x13, x13, x17
    38bc:	a9002fea 	stp	x10, x11, [sp]
    38c0:	a90137ec 	stp	x12, x13, [sp, #16]
    38c4:	a9402c4a 	ldp	x10, x11, [x2]
    38c8:	a941344c 	ldp	x12, x13, [x2, #16]
    38cc:	b100994e 	adds	x14, x10, #0x26
    38d0:	ba1f016f 	adcs	x15, x11, xzr
    38d4:	ba1f0190 	adcs	x16, x12, xzr
    38d8:	ba1f01b1 	adcs	x17, x13, xzr
    38dc:	9a8a21ca 	csel	x10, x14, x10, cs	// cs = hs, nlast
    38e0:	9a8b21eb 	csel	x11, x15, x11, cs	// cs = hs, nlast
    38e4:	9a8c220c 	csel	x12, x16, x12, cs	// cs = hs, nlast
    38e8:	9a8d222d 	csel	x13, x17, x13, cs	// cs = hs, nlast
    38ec:	a91a2fea 	stp	x10, x11, [sp, #416]
    38f0:	a91b37ec 	stp	x12, x13, [sp, #432]
    38f4:	a9422c4a 	ldp	x10, x11, [x2, #32]
    38f8:	a943344c 	ldp	x12, x13, [x2, #48]
    38fc:	b100994e 	adds	x14, x10, #0x26
    3900:	ba1f016f 	adcs	x15, x11, xzr
    3904:	ba1f0190 	adcs	x16, x12, xzr
    3908:	ba1f01b1 	adcs	x17, x13, xzr
    390c:	9a8a21ca 	csel	x10, x14, x10, cs	// cs = hs, nlast
    3910:	9a8b21eb 	csel	x11, x15, x11, cs	// cs = hs, nlast
    3914:	9a8c220c 	csel	x12, x16, x12, cs	// cs = hs, nlast
    3918:	9a8d222d 	csel	x13, x17, x13, cs	// cs = hs, nlast
    391c:	a91c2fea 	stp	x10, x11, [sp, #448]
    3920:	a91d37ec 	stp	x12, x13, [sp, #464]
    3924:	d2800021 	mov	x1, #0x1                   	// #1
    3928:	a91e7fe1 	stp	x1, xzr, [sp, #480]
    392c:	a91f7fff 	stp	xzr, xzr, [sp, #496]
    3930:	910803f6 	add	x22, sp, #0x200
    3934:	910683f7 	add	x23, sp, #0x1a0
    3938:	910703f8 	add	x24, sp, #0x1c0
    393c:	a94012e3 	ldp	x3, x4, [x23]
    3940:	a9402307 	ldp	x7, x8, [x24]
    3944:	9b077c6c 	mul	x12, x3, x7
    3948:	9bc77c6d 	umulh	x13, x3, x7
    394c:	9b087c6b 	mul	x11, x3, x8
    3950:	9bc87c6e 	umulh	x14, x3, x8
    3954:	ab0b01ad 	adds	x13, x13, x11
    3958:	a9412b09 	ldp	x9, x10, [x24, #16]
    395c:	9b097c6b 	mul	x11, x3, x9
    3960:	9bc97c6f 	umulh	x15, x3, x9
    3964:	ba0b01ce 	adcs	x14, x14, x11
    3968:	9b0a7c6b 	mul	x11, x3, x10
    396c:	9bca7c70 	umulh	x16, x3, x10
    3970:	ba0b01ef 	adcs	x15, x15, x11
    3974:	9a1f0210 	adc	x16, x16, xzr
    3978:	a9411ae5 	ldp	x5, x6, [x23, #16]
    397c:	9b077c8b 	mul	x11, x4, x7
    3980:	ab0b01ad 	adds	x13, x13, x11
    3984:	9b087c8b 	mul	x11, x4, x8
    3988:	ba0b01ce 	adcs	x14, x14, x11
    398c:	9b097c8b 	mul	x11, x4, x9
    3990:	ba0b01ef 	adcs	x15, x15, x11
    3994:	9b0a7c8b 	mul	x11, x4, x10
    3998:	ba0b0210 	adcs	x16, x16, x11
    399c:	9bca7c83 	umulh	x3, x4, x10
    39a0:	9a1f0063 	adc	x3, x3, xzr
    39a4:	9bc77c8b 	umulh	x11, x4, x7
    39a8:	ab0b01ce 	adds	x14, x14, x11
    39ac:	9bc87c8b 	umulh	x11, x4, x8
    39b0:	ba0b01ef 	adcs	x15, x15, x11
    39b4:	9bc97c8b 	umulh	x11, x4, x9
    39b8:	ba0b0210 	adcs	x16, x16, x11
    39bc:	9a1f0063 	adc	x3, x3, xzr
    39c0:	9b077cab 	mul	x11, x5, x7
    39c4:	ab0b01ce 	adds	x14, x14, x11
    39c8:	9b087cab 	mul	x11, x5, x8
    39cc:	ba0b01ef 	adcs	x15, x15, x11
    39d0:	9b097cab 	mul	x11, x5, x9
    39d4:	ba0b0210 	adcs	x16, x16, x11
    39d8:	9b0a7cab 	mul	x11, x5, x10
    39dc:	ba0b0063 	adcs	x3, x3, x11
    39e0:	9bca7ca4 	umulh	x4, x5, x10
    39e4:	9a1f0084 	adc	x4, x4, xzr
    39e8:	9bc77cab 	umulh	x11, x5, x7
    39ec:	ab0b01ef 	adds	x15, x15, x11
    39f0:	9bc87cab 	umulh	x11, x5, x8
    39f4:	ba0b0210 	adcs	x16, x16, x11
    39f8:	9bc97cab 	umulh	x11, x5, x9
    39fc:	ba0b0063 	adcs	x3, x3, x11
    3a00:	9a1f0084 	adc	x4, x4, xzr
    3a04:	9b077ccb 	mul	x11, x6, x7
    3a08:	ab0b01ef 	adds	x15, x15, x11
    3a0c:	9b087ccb 	mul	x11, x6, x8
    3a10:	ba0b0210 	adcs	x16, x16, x11
    3a14:	9b097ccb 	mul	x11, x6, x9
    3a18:	ba0b0063 	adcs	x3, x3, x11
    3a1c:	9b0a7ccb 	mul	x11, x6, x10
    3a20:	ba0b0084 	adcs	x4, x4, x11
    3a24:	9bca7cc5 	umulh	x5, x6, x10
    3a28:	9a1f00a5 	adc	x5, x5, xzr
    3a2c:	9bc77ccb 	umulh	x11, x6, x7
    3a30:	ab0b0210 	adds	x16, x16, x11
    3a34:	9bc87ccb 	umulh	x11, x6, x8
    3a38:	ba0b0063 	adcs	x3, x3, x11
    3a3c:	9bc97ccb 	umulh	x11, x6, x9
    3a40:	ba0b0084 	adcs	x4, x4, x11
    3a44:	9a1f00a5 	adc	x5, x5, xzr
    3a48:	d28004c7 	mov	x7, #0x26                  	// #38
    3a4c:	9b107ceb 	mul	x11, x7, x16
    3a50:	9bd07ce9 	umulh	x9, x7, x16
    3a54:	ab0b018c 	adds	x12, x12, x11
    3a58:	9b037ceb 	mul	x11, x7, x3
    3a5c:	9bc37ce3 	umulh	x3, x7, x3
    3a60:	ba0b01ad 	adcs	x13, x13, x11
    3a64:	9b047ceb 	mul	x11, x7, x4
    3a68:	9bc47ce4 	umulh	x4, x7, x4
    3a6c:	ba0b01ce 	adcs	x14, x14, x11
    3a70:	9b057ceb 	mul	x11, x7, x5
    3a74:	9bc57ce5 	umulh	x5, x7, x5
    3a78:	ba0b01ef 	adcs	x15, x15, x11
    3a7c:	9a9f37f0 	cset	x16, cs	// cs = hs, nlast
    3a80:	ab0401ef 	adds	x15, x15, x4
    3a84:	9a050210 	adc	x16, x16, x5
    3a88:	ab0f01ff 	cmn	x15, x15
    3a8c:	9240f9ef 	and	x15, x15, #0x7fffffffffffffff
    3a90:	9a100208 	adc	x8, x16, x16
    3a94:	d2800267 	mov	x7, #0x13                  	// #19
    3a98:	9b087ceb 	mul	x11, x7, x8
    3a9c:	ab0b018c 	adds	x12, x12, x11
    3aa0:	ba0901ad 	adcs	x13, x13, x9
    3aa4:	ba0301ce 	adcs	x14, x14, x3
    3aa8:	9a1f01ef 	adc	x15, x15, xzr
    3aac:	a90036cc 	stp	x12, x13, [x22]
    3ab0:	a9013ece 	stp	x14, x15, [x22, #16]
    3ab4:	910883f6 	add	x22, sp, #0x220
    3ab8:	910683f7 	add	x23, sp, #0x1a0
    3abc:	94000877 	bl	5c98 <edwards25519_scalarmuldouble_alt_epdouble>
    3ac0:	910a83f6 	add	x22, sp, #0x2a0
    3ac4:	910683f7 	add	x23, sp, #0x1a0
    3ac8:	910883f8 	add	x24, sp, #0x220
    3acc:	94000e07 	bl	72e8 <edwards25519_scalarmuldouble_alt_epadd>
    3ad0:	910c83f6 	add	x22, sp, #0x320
    3ad4:	910883f7 	add	x23, sp, #0x220
    3ad8:	94000870 	bl	5c98 <edwards25519_scalarmuldouble_alt_epdouble>
    3adc:	910e83f6 	add	x22, sp, #0x3a0
    3ae0:	910683f7 	add	x23, sp, #0x1a0
    3ae4:	910c83f8 	add	x24, sp, #0x320
    3ae8:	94000e00 	bl	72e8 <edwards25519_scalarmuldouble_alt_epadd>
    3aec:	911083f6 	add	x22, sp, #0x420
    3af0:	910a83f7 	add	x23, sp, #0x2a0
    3af4:	94000869 	bl	5c98 <edwards25519_scalarmuldouble_alt_epdouble>
    3af8:	911283f6 	add	x22, sp, #0x4a0
    3afc:	910683f7 	add	x23, sp, #0x1a0
    3b00:	911083f8 	add	x24, sp, #0x420
    3b04:	94000df9 	bl	72e8 <edwards25519_scalarmuldouble_alt_epadd>
    3b08:	911483f6 	add	x22, sp, #0x520
    3b0c:	910c83f7 	add	x23, sp, #0x320
    3b10:	94000862 	bl	5c98 <edwards25519_scalarmuldouble_alt_epdouble>
    3b14:	d2801f93 	mov	x19, #0xfc                  	// #252
    3b18:	f9401fe0 	ldr	x0, [sp, #56]
    3b1c:	d37cfc14 	lsr	x20, x0, #60
    3b20:	9000000e 	adrp	x14, 340 <ed25519_verify_common_epilogue>
    3b24:	910001ce 	add	x14, x14, #0x0
    3b28:	d2800020 	mov	x0, #0x1                   	// #1
    3b2c:	aa1f03e1 	mov	x1, xzr
    3b30:	aa1f03e2 	mov	x2, xzr
    3b34:	aa1f03e3 	mov	x3, xzr
    3b38:	d2800024 	mov	x4, #0x1                   	// #1
    3b3c:	aa1f03e5 	mov	x5, xzr
    3b40:	aa1f03e6 	mov	x6, xzr
    3b44:	aa1f03e7 	mov	x7, xzr
    3b48:	aa1f03e8 	mov	x8, xzr
    3b4c:	aa1f03e9 	mov	x9, xzr
    3b50:	aa1f03ea 	mov	x10, xzr
    3b54:	aa1f03eb 	mov	x11, xzr
    3b58:	f100069f 	cmp	x20, #0x1
    3b5c:	a94035cc 	ldp	x12, x13, [x14]
    3b60:	9a8c1000 	csel	x0, x0, x12, ne	// ne = any
    3b64:	9a8d1021 	csel	x1, x1, x13, ne	// ne = any
    3b68:	a94135cc 	ldp	x12, x13, [x14, #16]
    3b6c:	9a8c1042 	csel	x2, x2, x12, ne	// ne = any
    3b70:	9a8d1063 	csel	x3, x3, x13, ne	// ne = any
    3b74:	a94235cc 	ldp	x12, x13, [x14, #32]
    3b78:	9a8c1084 	csel	x4, x4, x12, ne	// ne = any
    3b7c:	9a8d10a5 	csel	x5, x5, x13, ne	// ne = any
    3b80:	a94335cc 	ldp	x12, x13, [x14, #48]
    3b84:	9a8c10c6 	csel	x6, x6, x12, ne	// ne = any
    3b88:	9a8d10e7 	csel	x7, x7, x13, ne	// ne = any
    3b8c:	a94435cc 	ldp	x12, x13, [x14, #64]
    3b90:	9a8c1108 	csel	x8, x8, x12, ne	// ne = any
    3b94:	9a8d1129 	csel	x9, x9, x13, ne	// ne = any
    3b98:	a94535cc 	ldp	x12, x13, [x14, #80]
    3b9c:	9a8c114a 	csel	x10, x10, x12, ne	// ne = any
    3ba0:	9a8d116b 	csel	x11, x11, x13, ne	// ne = any
    3ba4:	910181ce 	add	x14, x14, #0x60
    3ba8:	f1000a9f 	cmp	x20, #0x2
    3bac:	a94035cc 	ldp	x12, x13, [x14]
    3bb0:	9a8c1000 	csel	x0, x0, x12, ne	// ne = any
    3bb4:	9a8d1021 	csel	x1, x1, x13, ne	// ne = any
    3bb8:	a94135cc 	ldp	x12, x13, [x14, #16]
    3bbc:	9a8c1042 	csel	x2, x2, x12, ne	// ne = any
    3bc0:	9a8d1063 	csel	x3, x3, x13, ne	// ne = any
    3bc4:	a94235cc 	ldp	x12, x13, [x14, #32]
    3bc8:	9a8c1084 	csel	x4, x4, x12, ne	// ne = any
    3bcc:	9a8d10a5 	csel	x5, x5, x13, ne	// ne = any
    3bd0:	a94335cc 	ldp	x12, x13, [x14, #48]
    3bd4:	9a8c10c6 	csel	x6, x6, x12, ne	// ne = any
    3bd8:	9a8d10e7 	csel	x7, x7, x13, ne	// ne = any
    3bdc:	a94435cc 	ldp	x12, x13, [x14, #64]
    3be0:	9a8c1108 	csel	x8, x8, x12, ne	// ne = any
    3be4:	9a8d1129 	csel	x9, x9, x13, ne	// ne = any
    3be8:	a94535cc 	ldp	x12, x13, [x14, #80]
    3bec:	9a8c114a 	csel	x10, x10, x12, ne	// ne = any
    3bf0:	9a8d116b 	csel	x11, x11, x13, ne	// ne = any
    3bf4:	910181ce 	add	x14, x14, #0x60
    3bf8:	f1000e9f 	cmp	x20, #0x3
    3bfc:	a94035cc 	ldp	x12, x13, [x14]
    3c00:	9a8c1000 	csel	x0, x0, x12, ne	// ne = any
    3c04:	9a8d1021 	csel	x1, x1, x13, ne	// ne = any
    3c08:	a94135cc 	ldp	x12, x13, [x14, #16]
    3c0c:	9a8c1042 	csel	x2, x2, x12, ne	// ne = any
    3c10:	9a8d1063 	csel	x3, x3, x13, ne	// ne = any
    3c14:	a94235cc 	ldp	x12, x13, [x14, #32]
    3c18:	9a8c1084 	csel	x4, x4, x12, ne	// ne = any
    3c1c:	9a8d10a5 	csel	x5, x5, x13, ne	// ne = any
    3c20:	a94335cc 	ldp	x12, x13, [x14, #48]
    3c24:	9a8c10c6 	csel	x6, x6, x12, ne	// ne = any
    3c28:	9a8d10e7 	csel	x7, x7, x13, ne	// ne = any
    3c2c:	a94435cc 	ldp	x12, x13, [x14, #64]
    3c30:	9a8c1108 	csel	x8, x8, x12, ne	// ne = any
    3c34:	9a8d1129 	csel	x9, x9, x13, ne	// ne = any
    3c38:	a94535cc 	ldp	x12, x13, [x14, #80]
    3c3c:	9a8c114a 	csel	x10, x10, x12, ne	// ne = any
    3c40:	9a8d116b 	csel	x11, x11, x13, ne	// ne = any
    3c44:	910181ce 	add	x14, x14, #0x60
    3c48:	f100129f 	cmp	x20, #0x4
    3c4c:	a94035cc 	ldp	x12, x13, [x14]
    3c50:	9a8c1000 	csel	x0, x0, x12, ne	// ne = any
    3c54:	9a8d1021 	csel	x1, x1, x13, ne	// ne = any
    3c58:	a94135cc 	ldp	x12, x13, [x14, #16]
    3c5c:	9a8c1042 	csel	x2, x2, x12, ne	// ne = any
    3c60:	9a8d1063 	csel	x3, x3, x13, ne	// ne = any
    3c64:	a94235cc 	ldp	x12, x13, [x14, #32]
    3c68:	9a8c1084 	csel	x4, x4, x12, ne	// ne = any
    3c6c:	9a8d10a5 	csel	x5, x5, x13, ne	// ne = any
    3c70:	a94335cc 	ldp	x12, x13, [x14, #48]
    3c74:	9a8c10c6 	csel	x6, x6, x12, ne	// ne = any
    3c78:	9a8d10e7 	csel	x7, x7, x13, ne	// ne = any
    3c7c:	a94435cc 	ldp	x12, x13, [x14, #64]
    3c80:	9a8c1108 	csel	x8, x8, x12, ne	// ne = any
    3c84:	9a8d1129 	csel	x9, x9, x13, ne	// ne = any
    3c88:	a94535cc 	ldp	x12, x13, [x14, #80]
    3c8c:	9a8c114a 	csel	x10, x10, x12, ne	// ne = any
    3c90:	9a8d116b 	csel	x11, x11, x13, ne	// ne = any
    3c94:	910181ce 	add	x14, x14, #0x60
    3c98:	f100169f 	cmp	x20, #0x5
    3c9c:	a94035cc 	ldp	x12, x13, [x14]
    3ca0:	9a8c1000 	csel	x0, x0, x12, ne	// ne = any
    3ca4:	9a8d1021 	csel	x1, x1, x13, ne	// ne = any
    3ca8:	a94135cc 	ldp	x12, x13, [x14, #16]
    3cac:	9a8c1042 	csel	x2, x2, x12, ne	// ne = any
    3cb0:	9a8d1063 	csel	x3, x3, x13, ne	// ne = any
    3cb4:	a94235cc 	ldp	x12, x13, [x14, #32]
    3cb8:	9a8c1084 	csel	x4, x4, x12, ne	// ne = any
    3cbc:	9a8d10a5 	csel	x5, x5, x13, ne	// ne = any
    3cc0:	a94335cc 	ldp	x12, x13, [x14, #48]
    3cc4:	9a8c10c6 	csel	x6, x6, x12, ne	// ne = any
    3cc8:	9a8d10e7 	csel	x7, x7, x13, ne	// ne = any
    3ccc:	a94435cc 	ldp	x12, x13, [x14, #64]
    3cd0:	9a8c1108 	csel	x8, x8, x12, ne	// ne = any
    3cd4:	9a8d1129 	csel	x9, x9, x13, ne	// ne = any
    3cd8:	a94535cc 	ldp	x12, x13, [x14, #80]
    3cdc:	9a8c114a 	csel	x10, x10, x12, ne	// ne = any
    3ce0:	9a8d116b 	csel	x11, x11, x13, ne	// ne = any
    3ce4:	910181ce 	add	x14, x14, #0x60
    3ce8:	f1001a9f 	cmp	x20, #0x6
    3cec:	a94035cc 	ldp	x12, x13, [x14]
    3cf0:	9a8c1000 	csel	x0, x0, x12, ne	// ne = any
    3cf4:	9a8d1021 	csel	x1, x1, x13, ne	// ne = any
    3cf8:	a94135cc 	ldp	x12, x13, [x14, #16]
    3cfc:	9a8c1042 	csel	x2, x2, x12, ne	// ne = any
    3d00:	9a8d1063 	csel	x3, x3, x13, ne	// ne = any
    3d04:	a94235cc 	ldp	x12, x13, [x14, #32]
    3d08:	9a8c1084 	csel	x4, x4, x12, ne	// ne = any
    3d0c:	9a8d10a5 	csel	x5, x5, x13, ne	// ne = any
    3d10:	a94335cc 	ldp	x12, x13, [x14, #48]
    3d14:	9a8c10c6 	csel	x6, x6, x12, ne	// ne = any
    3d18:	9a8d10e7 	csel	x7, x7, x13, ne	// ne = any
    3d1c:	a94435cc 	ldp	x12, x13, [x14, #64]
    3d20:	9a8c1108 	csel	x8, x8, x12, ne	// ne = any
    3d24:	9a8d1129 	csel	x9, x9, x13, ne	// ne = any
    3d28:	a94535cc 	ldp	x12, x13, [x14, #80]
    3d2c:	9a8c114a 	csel	x10, x10, x12, ne	// ne = any
    3d30:	9a8d116b 	csel	x11, x11, x13, ne	// ne = any
    3d34:	910181ce 	add	x14, x14, #0x60
    3d38:	f1001e9f 	cmp	x20, #0x7
    3d3c:	a94035cc 	ldp	x12, x13, [x14]
    3d40:	9a8c1000 	csel	x0, x0, x12, ne	// ne = any
    3d44:	9a8d1021 	csel	x1, x1, x13, ne	// ne = any
    3d48:	a94135cc 	ldp	x12, x13, [x14, #16]
    3d4c:	9a8c1042 	csel	x2, x2, x12, ne	// ne = any
    3d50:	9a8d1063 	csel	x3, x3, x13, ne	// ne = any
    3d54:	a94235cc 	ldp	x12, x13, [x14, #32]
    3d58:	9a8c1084 	csel	x4, x4, x12, ne	// ne = any
    3d5c:	9a8d10a5 	csel	x5, x5, x13, ne	// ne = any
    3d60:	a94335cc 	ldp	x12, x13, [x14, #48]
    3d64:	9a8c10c6 	csel	x6, x6, x12, ne	// ne = any
    3d68:	9a8d10e7 	csel	x7, x7, x13, ne	// ne = any
    3d6c:	a94435cc 	ldp	x12, x13, [x14, #64]
    3d70:	9a8c1108 	csel	x8, x8, x12, ne	// ne = any
    3d74:	9a8d1129 	csel	x9, x9, x13, ne	// ne = any
    3d78:	a94535cc 	ldp	x12, x13, [x14, #80]
    3d7c:	9a8c114a 	csel	x10, x10, x12, ne	// ne = any
    3d80:	9a8d116b 	csel	x11, x11, x13, ne	// ne = any
    3d84:	910181ce 	add	x14, x14, #0x60
    3d88:	f100229f 	cmp	x20, #0x8
    3d8c:	a94035cc 	ldp	x12, x13, [x14]
    3d90:	9a8c1000 	csel	x0, x0, x12, ne	// ne = any
    3d94:	9a8d1021 	csel	x1, x1, x13, ne	// ne = any
    3d98:	a94135cc 	ldp	x12, x13, [x14, #16]
    3d9c:	9a8c1042 	csel	x2, x2, x12, ne	// ne = any
    3da0:	9a8d1063 	csel	x3, x3, x13, ne	// ne = any
    3da4:	a94235cc 	ldp	x12, x13, [x14, #32]
    3da8:	9a8c1084 	csel	x4, x4, x12, ne	// ne = any
    3dac:	9a8d10a5 	csel	x5, x5, x13, ne	// ne = any
    3db0:	a94335cc 	ldp	x12, x13, [x14, #48]
    3db4:	9a8c10c6 	csel	x6, x6, x12, ne	// ne = any
    3db8:	9a8d10e7 	csel	x7, x7, x13, ne	// ne = any
    3dbc:	a94435cc 	ldp	x12, x13, [x14, #64]
    3dc0:	9a8c1108 	csel	x8, x8, x12, ne	// ne = any
    3dc4:	9a8d1129 	csel	x9, x9, x13, ne	// ne = any
    3dc8:	a94535cc 	ldp	x12, x13, [x14, #80]
    3dcc:	9a8c114a 	csel	x10, x10, x12, ne	// ne = any
    3dd0:	9a8d116b 	csel	x11, x11, x13, ne	// ne = any
    3dd4:	a90407e0 	stp	x0, x1, [sp, #64]
    3dd8:	a9050fe2 	stp	x2, x3, [sp, #80]
    3ddc:	a90617e4 	stp	x4, x5, [sp, #96]
    3de0:	a9071fe6 	stp	x6, x7, [sp, #112]
    3de4:	a90827e8 	stp	x8, x9, [sp, #128]
    3de8:	a9092fea 	stp	x10, x11, [sp, #144]
    3dec:	f9400fe0 	ldr	x0, [sp, #24]
    3df0:	d37cfc14 	lsr	x20, x0, #60
    3df4:	910683f6 	add	x22, sp, #0x1a0
    3df8:	aa1f03e0 	mov	x0, xzr
    3dfc:	aa1f03e1 	mov	x1, xzr
    3e00:	aa1f03e2 	mov	x2, xzr
    3e04:	aa1f03e3 	mov	x3, xzr
    3e08:	d2800024 	mov	x4, #0x1                   	// #1
    3e0c:	aa1f03e5 	mov	x5, xzr
    3e10:	aa1f03e6 	mov	x6, xzr
    3e14:	aa1f03e7 	mov	x7, xzr
    3e18:	d2800028 	mov	x8, #0x1                   	// #1
    3e1c:	aa1f03e9 	mov	x9, xzr
    3e20:	aa1f03ea 	mov	x10, xzr
    3e24:	aa1f03eb 	mov	x11, xzr
    3e28:	aa1f03ec 	mov	x12, xzr
    3e2c:	aa1f03ed 	mov	x13, xzr
    3e30:	aa1f03ee 	mov	x14, xzr
    3e34:	aa1f03ef 	mov	x15, xzr
    3e38:	f100069f 	cmp	x20, #0x1
    3e3c:	a94046d0 	ldp	x16, x17, [x22]
    3e40:	9a901000 	csel	x0, x0, x16, ne	// ne = any
    3e44:	9a911021 	csel	x1, x1, x17, ne	// ne = any
    3e48:	a94146d0 	ldp	x16, x17, [x22, #16]
    3e4c:	9a901042 	csel	x2, x2, x16, ne	// ne = any
    3e50:	9a911063 	csel	x3, x3, x17, ne	// ne = any
    3e54:	a94246d0 	ldp	x16, x17, [x22, #32]
    3e58:	9a901084 	csel	x4, x4, x16, ne	// ne = any
    3e5c:	9a9110a5 	csel	x5, x5, x17, ne	// ne = any
    3e60:	a94346d0 	ldp	x16, x17, [x22, #48]
    3e64:	9a9010c6 	csel	x6, x6, x16, ne	// ne = any
    3e68:	9a9110e7 	csel	x7, x7, x17, ne	// ne = any
    3e6c:	a94446d0 	ldp	x16, x17, [x22, #64]
    3e70:	9a901108 	csel	x8, x8, x16, ne	// ne = any
    3e74:	9a911129 	csel	x9, x9, x17, ne	// ne = any
    3e78:	a94546d0 	ldp	x16, x17, [x22, #80]
    3e7c:	9a90114a 	csel	x10, x10, x16, ne	// ne = any
    3e80:	9a91116b 	csel	x11, x11, x17, ne	// ne = any
    3e84:	a94646d0 	ldp	x16, x17, [x22, #96]
    3e88:	9a90118c 	csel	x12, x12, x16, ne	// ne = any
    3e8c:	9a9111ad 	csel	x13, x13, x17, ne	// ne = any
    3e90:	a94746d0 	ldp	x16, x17, [x22, #112]
    3e94:	9a9011ce 	csel	x14, x14, x16, ne	// ne = any
    3e98:	9a9111ef 	csel	x15, x15, x17, ne	// ne = any
    3e9c:	910202d6 	add	x22, x22, #0x80
    3ea0:	f1000a9f 	cmp	x20, #0x2
    3ea4:	a94046d0 	ldp	x16, x17, [x22]
    3ea8:	9a901000 	csel	x0, x0, x16, ne	// ne = any
    3eac:	9a911021 	csel	x1, x1, x17, ne	// ne = any
    3eb0:	a94146d0 	ldp	x16, x17, [x22, #16]
    3eb4:	9a901042 	csel	x2, x2, x16, ne	// ne = any
    3eb8:	9a911063 	csel	x3, x3, x17, ne	// ne = any
    3ebc:	a94246d0 	ldp	x16, x17, [x22, #32]
    3ec0:	9a901084 	csel	x4, x4, x16, ne	// ne = any
    3ec4:	9a9110a5 	csel	x5, x5, x17, ne	// ne = any
    3ec8:	a94346d0 	ldp	x16, x17, [x22, #48]
    3ecc:	9a9010c6 	csel	x6, x6, x16, ne	// ne = any
    3ed0:	9a9110e7 	csel	x7, x7, x17, ne	// ne = any
    3ed4:	a94446d0 	ldp	x16, x17, [x22, #64]
    3ed8:	9a901108 	csel	x8, x8, x16, ne	// ne = any
    3edc:	9a911129 	csel	x9, x9, x17, ne	// ne = any
    3ee0:	a94546d0 	ldp	x16, x17, [x22, #80]
    3ee4:	9a90114a 	csel	x10, x10, x16, ne	// ne = any
    3ee8:	9a91116b 	csel	x11, x11, x17, ne	// ne = any
    3eec:	a94646d0 	ldp	x16, x17, [x22, #96]
    3ef0:	9a90118c 	csel	x12, x12, x16, ne	// ne = any
    3ef4:	9a9111ad 	csel	x13, x13, x17, ne	// ne = any
    3ef8:	a94746d0 	ldp	x16, x17, [x22, #112]
    3efc:	9a9011ce 	csel	x14, x14, x16, ne	// ne = any
    3f00:	9a9111ef 	csel	x15, x15, x17, ne	// ne = any
    3f04:	910202d6 	add	x22, x22, #0x80
    3f08:	f1000e9f 	cmp	x20, #0x3
    3f0c:	a94046d0 	ldp	x16, x17, [x22]
    3f10:	9a901000 	csel	x0, x0, x16, ne	// ne = any
    3f14:	9a911021 	csel	x1, x1, x17, ne	// ne = any
    3f18:	a94146d0 	ldp	x16, x17, [x22, #16]
    3f1c:	9a901042 	csel	x2, x2, x16, ne	// ne = any
    3f20:	9a911063 	csel	x3, x3, x17, ne	// ne = any
    3f24:	a94246d0 	ldp	x16, x17, [x22, #32]
    3f28:	9a901084 	csel	x4, x4, x16, ne	// ne = any
    3f2c:	9a9110a5 	csel	x5, x5, x17, ne	// ne = any
    3f30:	a94346d0 	ldp	x16, x17, [x22, #48]
    3f34:	9a9010c6 	csel	x6, x6, x16, ne	// ne = any
    3f38:	9a9110e7 	csel	x7, x7, x17, ne	// ne = any
    3f3c:	a94446d0 	ldp	x16, x17, [x22, #64]
    3f40:	9a901108 	csel	x8, x8, x16, ne	// ne = any
    3f44:	9a911129 	csel	x9, x9, x17, ne	// ne = any
    3f48:	a94546d0 	ldp	x16, x17, [x22, #80]
    3f4c:	9a90114a 	csel	x10, x10, x16, ne	// ne = any
    3f50:	9a91116b 	csel	x11, x11, x17, ne	// ne = any
    3f54:	a94646d0 	ldp	x16, x17, [x22, #96]
    3f58:	9a90118c 	csel	x12, x12, x16, ne	// ne = any
    3f5c:	9a9111ad 	csel	x13, x13, x17, ne	// ne = any
    3f60:	a94746d0 	ldp	x16, x17, [x22, #112]
    3f64:	9a9011ce 	csel	x14, x14, x16, ne	// ne = any
    3f68:	9a9111ef 	csel	x15, x15, x17, ne	// ne = any
    3f6c:	910202d6 	add	x22, x22, #0x80
    3f70:	f100129f 	cmp	x20, #0x4
    3f74:	a94046d0 	ldp	x16, x17, [x22]
    3f78:	9a901000 	csel	x0, x0, x16, ne	// ne = any
    3f7c:	9a911021 	csel	x1, x1, x17, ne	// ne = any
    3f80:	a94146d0 	ldp	x16, x17, [x22, #16]
    3f84:	9a901042 	csel	x2, x2, x16, ne	// ne = any
    3f88:	9a911063 	csel	x3, x3, x17, ne	// ne = any
    3f8c:	a94246d0 	ldp	x16, x17, [x22, #32]
    3f90:	9a901084 	csel	x4, x4, x16, ne	// ne = any
    3f94:	9a9110a5 	csel	x5, x5, x17, ne	// ne = any
    3f98:	a94346d0 	ldp	x16, x17, [x22, #48]
    3f9c:	9a9010c6 	csel	x6, x6, x16, ne	// ne = any
    3fa0:	9a9110e7 	csel	x7, x7, x17, ne	// ne = any
    3fa4:	a94446d0 	ldp	x16, x17, [x22, #64]
    3fa8:	9a901108 	csel	x8, x8, x16, ne	// ne = any
    3fac:	9a911129 	csel	x9, x9, x17, ne	// ne = any
    3fb0:	a94546d0 	ldp	x16, x17, [x22, #80]
    3fb4:	9a90114a 	csel	x10, x10, x16, ne	// ne = any
    3fb8:	9a91116b 	csel	x11, x11, x17, ne	// ne = any
    3fbc:	a94646d0 	ldp	x16, x17, [x22, #96]
    3fc0:	9a90118c 	csel	x12, x12, x16, ne	// ne = any
    3fc4:	9a9111ad 	csel	x13, x13, x17, ne	// ne = any
    3fc8:	a94746d0 	ldp	x16, x17, [x22, #112]
    3fcc:	9a9011ce 	csel	x14, x14, x16, ne	// ne = any
    3fd0:	9a9111ef 	csel	x15, x15, x17, ne	// ne = any
    3fd4:	910202d6 	add	x22, x22, #0x80
    3fd8:	f100169f 	cmp	x20, #0x5
    3fdc:	a94046d0 	ldp	x16, x17, [x22]
    3fe0:	9a901000 	csel	x0, x0, x16, ne	// ne = any
    3fe4:	9a911021 	csel	x1, x1, x17, ne	// ne = any
    3fe8:	a94146d0 	ldp	x16, x17, [x22, #16]
    3fec:	9a901042 	csel	x2, x2, x16, ne	// ne = any
    3ff0:	9a911063 	csel	x3, x3, x17, ne	// ne = any
    3ff4:	a94246d0 	ldp	x16, x17, [x22, #32]
    3ff8:	9a901084 	csel	x4, x4, x16, ne	// ne = any
    3ffc:	9a9110a5 	csel	x5, x5, x17, ne	// ne = any
    4000:	a94346d0 	ldp	x16, x17, [x22, #48]
    4004:	9a9010c6 	csel	x6, x6, x16, ne	// ne = any
    4008:	9a9110e7 	csel	x7, x7, x17, ne	// ne = any
    400c:	a94446d0 	ldp	x16, x17, [x22, #64]
    4010:	9a901108 	csel	x8, x8, x16, ne	// ne = any
    4014:	9a911129 	csel	x9, x9, x17, ne	// ne = any
    4018:	a94546d0 	ldp	x16, x17, [x22, #80]
    401c:	9a90114a 	csel	x10, x10, x16, ne	// ne = any
    4020:	9a91116b 	csel	x11, x11, x17, ne	// ne = any
    4024:	a94646d0 	ldp	x16, x17, [x22, #96]
    4028:	9a90118c 	csel	x12, x12, x16, ne	// ne = any
    402c:	9a9111ad 	csel	x13, x13, x17, ne	// ne = any
    4030:	a94746d0 	ldp	x16, x17, [x22, #112]
    4034:	9a9011ce 	csel	x14, x14, x16, ne	// ne = any
    4038:	9a9111ef 	csel	x15, x15, x17, ne	// ne = any
    403c:	910202d6 	add	x22, x22, #0x80
    4040:	f1001a9f 	cmp	x20, #0x6
    4044:	a94046d0 	ldp	x16, x17, [x22]
    4048:	9a901000 	csel	x0, x0, x16, ne	// ne = any
    404c:	9a911021 	csel	x1, x1, x17, ne	// ne = any
    4050:	a94146d0 	ldp	x16, x17, [x22, #16]
    4054:	9a901042 	csel	x2, x2, x16, ne	// ne = any
    4058:	9a911063 	csel	x3, x3, x17, ne	// ne = any
    405c:	a94246d0 	ldp	x16, x17, [x22, #32]
    4060:	9a901084 	csel	x4, x4, x16, ne	// ne = any
    4064:	9a9110a5 	csel	x5, x5, x17, ne	// ne = any
    4068:	a94346d0 	ldp	x16, x17, [x22, #48]
    406c:	9a9010c6 	csel	x6, x6, x16, ne	// ne = any
    4070:	9a9110e7 	csel	x7, x7, x17, ne	// ne = any
    4074:	a94446d0 	ldp	x16, x17, [x22, #64]
    4078:	9a901108 	csel	x8, x8, x16, ne	// ne = any
    407c:	9a911129 	csel	x9, x9, x17, ne	// ne = any
    4080:	a94546d0 	ldp	x16, x17, [x22, #80]
    4084:	9a90114a 	csel	x10, x10, x16, ne	// ne = any
    4088:	9a91116b 	csel	x11, x11, x17, ne	// ne = any
    408c:	a94646d0 	ldp	x16, x17, [x22, #96]
    4090:	9a90118c 	csel	x12, x12, x16, ne	// ne = any
    4094:	9a9111ad 	csel	x13, x13, x17, ne	// ne = any
    4098:	a94746d0 	ldp	x16, x17, [x22, #112]
    409c:	9a9011ce 	csel	x14, x14, x16, ne	// ne = any
    40a0:	9a9111ef 	csel	x15, x15, x17, ne	// ne = any
    40a4:	910202d6 	add	x22, x22, #0x80
    40a8:	f1001e9f 	cmp	x20, #0x7
    40ac:	a94046d0 	ldp	x16, x17, [x22]
    40b0:	9a901000 	csel	x0, x0, x16, ne	// ne = any
    40b4:	9a911021 	csel	x1, x1, x17, ne	// ne = any
    40b8:	a94146d0 	ldp	x16, x17, [x22, #16]
    40bc:	9a901042 	csel	x2, x2, x16, ne	// ne = any
    40c0:	9a911063 	csel	x3, x3, x17, ne	// ne = any
    40c4:	a94246d0 	ldp	x16, x17, [x22, #32]
    40c8:	9a901084 	csel	x4, x4, x16, ne	// ne = any
    40cc:	9a9110a5 	csel	x5, x5, x17, ne	// ne = any
    40d0:	a94346d0 	ldp	x16, x17, [x22, #48]
    40d4:	9a9010c6 	csel	x6, x6, x16, ne	// ne = any
    40d8:	9a9110e7 	csel	x7, x7, x17, ne	// ne = any
    40dc:	a94446d0 	ldp	x16, x17, [x22, #64]
    40e0:	9a901108 	csel	x8, x8, x16, ne	// ne = any
    40e4:	9a911129 	csel	x9, x9, x17, ne	// ne = any
    40e8:	a94546d0 	ldp	x16, x17, [x22, #80]
    40ec:	9a90114a 	csel	x10, x10, x16, ne	// ne = any
    40f0:	9a91116b 	csel	x11, x11, x17, ne	// ne = any
    40f4:	a94646d0 	ldp	x16, x17, [x22, #96]
    40f8:	9a90118c 	csel	x12, x12, x16, ne	// ne = any
    40fc:	9a9111ad 	csel	x13, x13, x17, ne	// ne = any
    4100:	a94746d0 	ldp	x16, x17, [x22, #112]
    4104:	9a9011ce 	csel	x14, x14, x16, ne	// ne = any
    4108:	9a9111ef 	csel	x15, x15, x17, ne	// ne = any
    410c:	910202d6 	add	x22, x22, #0x80
    4110:	f100229f 	cmp	x20, #0x8
    4114:	a94046d0 	ldp	x16, x17, [x22]
    4118:	9a901000 	csel	x0, x0, x16, ne	// ne = any
    411c:	9a911021 	csel	x1, x1, x17, ne	// ne = any
    4120:	a94146d0 	ldp	x16, x17, [x22, #16]
    4124:	9a901042 	csel	x2, x2, x16, ne	// ne = any
    4128:	9a911063 	csel	x3, x3, x17, ne	// ne = any
    412c:	a94246d0 	ldp	x16, x17, [x22, #32]
    4130:	9a901084 	csel	x4, x4, x16, ne	// ne = any
    4134:	9a9110a5 	csel	x5, x5, x17, ne	// ne = any
    4138:	a94346d0 	ldp	x16, x17, [x22, #48]
    413c:	9a9010c6 	csel	x6, x6, x16, ne	// ne = any
    4140:	9a9110e7 	csel	x7, x7, x17, ne	// ne = any
    4144:	a94446d0 	ldp	x16, x17, [x22, #64]
    4148:	9a901108 	csel	x8, x8, x16, ne	// ne = any
    414c:	9a911129 	csel	x9, x9, x17, ne	// ne = any
    4150:	a94546d0 	ldp	x16, x17, [x22, #80]
    4154:	9a90114a 	csel	x10, x10, x16, ne	// ne = any
    4158:	9a91116b 	csel	x11, x11, x17, ne	// ne = any
    415c:	a94646d0 	ldp	x16, x17, [x22, #96]
    4160:	9a90118c 	csel	x12, x12, x16, ne	// ne = any
    4164:	9a9111ad 	csel	x13, x13, x17, ne	// ne = any
    4168:	a94746d0 	ldp	x16, x17, [x22, #112]
    416c:	9a9011ce 	csel	x14, x14, x16, ne	// ne = any
    4170:	9a9111ef 	csel	x15, x15, x17, ne	// ne = any
    4174:	a91207e0 	stp	x0, x1, [sp, #288]
    4178:	a9130fe2 	stp	x2, x3, [sp, #304]
    417c:	a91417e4 	stp	x4, x5, [sp, #320]
    4180:	a9151fe6 	stp	x6, x7, [sp, #336]
    4184:	a91627e8 	stp	x8, x9, [sp, #352]
    4188:	a9172fea 	stp	x10, x11, [sp, #368]
    418c:	a91837ec 	stp	x12, x13, [sp, #384]
    4190:	a9193fee 	stp	x14, x15, [sp, #400]
    4194:	910283f6 	add	x22, sp, #0xa0
    4198:	910483f7 	add	x23, sp, #0x120
    419c:	910103f8 	add	x24, sp, #0x40
    41a0:	94001043 	bl	82ac <edwards25519_scalarmuldouble_alt_pepadd>

00000000000041a4 <edwards25519_scalarmuldouble_alt_loop>:
    41a4:	d1001273 	sub	x19, x19, #0x4
    41a8:	910283f6 	add	x22, sp, #0xa0
    41ac:	910283f7 	add	x23, sp, #0xa0
    41b0:	940009b3 	bl	687c <edwards25519_scalarmuldouble_alt_pdouble>
    41b4:	d346fe60 	lsr	x0, x19, #6
    41b8:	910083e1 	add	x1, sp, #0x20
    41bc:	f8607822 	ldr	x2, [x1, x0, lsl #3]
    41c0:	9ad32443 	lsr	x3, x2, x19
    41c4:	92400c60 	and	x0, x3, #0xf
    41c8:	f1002014 	subs	x20, x0, #0x8
    41cc:	da942694 	cneg	x20, x20, cc	// cc = lo, ul, last
    41d0:	da9f23f5 	csetm	x21, cc	// cc = lo, ul, last
    41d4:	9000000e 	adrp	x14, 340 <ed25519_verify_common_epilogue>
    41d8:	910001ce 	add	x14, x14, #0x0
    41dc:	d2800020 	mov	x0, #0x1                   	// #1
    41e0:	aa1f03e1 	mov	x1, xzr
    41e4:	aa1f03e2 	mov	x2, xzr
    41e8:	aa1f03e3 	mov	x3, xzr
    41ec:	d2800024 	mov	x4, #0x1                   	// #1
    41f0:	aa1f03e5 	mov	x5, xzr
    41f4:	aa1f03e6 	mov	x6, xzr
    41f8:	aa1f03e7 	mov	x7, xzr
    41fc:	aa1f03e8 	mov	x8, xzr
    4200:	aa1f03e9 	mov	x9, xzr
    4204:	aa1f03ea 	mov	x10, xzr
    4208:	aa1f03eb 	mov	x11, xzr
    420c:	f100069f 	cmp	x20, #0x1
    4210:	a94035cc 	ldp	x12, x13, [x14]
    4214:	9a8c1000 	csel	x0, x0, x12, ne	// ne = any
    4218:	9a8d1021 	csel	x1, x1, x13, ne	// ne = any
    421c:	a94135cc 	ldp	x12, x13, [x14, #16]
    4220:	9a8c1042 	csel	x2, x2, x12, ne	// ne = any
    4224:	9a8d1063 	csel	x3, x3, x13, ne	// ne = any
    4228:	a94235cc 	ldp	x12, x13, [x14, #32]
    422c:	9a8c1084 	csel	x4, x4, x12, ne	// ne = any
    4230:	9a8d10a5 	csel	x5, x5, x13, ne	// ne = any
    4234:	a94335cc 	ldp	x12, x13, [x14, #48]
    4238:	9a8c10c6 	csel	x6, x6, x12, ne	// ne = any
    423c:	9a8d10e7 	csel	x7, x7, x13, ne	// ne = any
    4240:	a94435cc 	ldp	x12, x13, [x14, #64]
    4244:	9a8c1108 	csel	x8, x8, x12, ne	// ne = any
    4248:	9a8d1129 	csel	x9, x9, x13, ne	// ne = any
    424c:	a94535cc 	ldp	x12, x13, [x14, #80]
    4250:	9a8c114a 	csel	x10, x10, x12, ne	// ne = any
    4254:	9a8d116b 	csel	x11, x11, x13, ne	// ne = any
    4258:	910181ce 	add	x14, x14, #0x60
    425c:	f1000a9f 	cmp	x20, #0x2
    4260:	a94035cc 	ldp	x12, x13, [x14]
    4264:	9a8c1000 	csel	x0, x0, x12, ne	// ne = any
    4268:	9a8d1021 	csel	x1, x1, x13, ne	// ne = any
    426c:	a94135cc 	ldp	x12, x13, [x14, #16]
    4270:	9a8c1042 	csel	x2, x2, x12, ne	// ne = any
    4274:	9a8d1063 	csel	x3, x3, x13, ne	// ne = any
    4278:	a94235cc 	ldp	x12, x13, [x14, #32]
    427c:	9a8c1084 	csel	x4, x4, x12, ne	// ne = any
    4280:	9a8d10a5 	csel	x5, x5, x13, ne	// ne = any
    4284:	a94335cc 	ldp	x12, x13, [x14, #48]
    4288:	9a8c10c6 	csel	x6, x6, x12, ne	// ne = any
    428c:	9a8d10e7 	csel	x7, x7, x13, ne	// ne = any
    4290:	a94435cc 	ldp	x12, x13, [x14, #64]
    4294:	9a8c1108 	csel	x8, x8, x12, ne	// ne = any
    4298:	9a8d1129 	csel	x9, x9, x13, ne	// ne = any
    429c:	a94535cc 	ldp	x12, x13, [x14, #80]
    42a0:	9a8c114a 	csel	x10, x10, x12, ne	// ne = any
    42a4:	9a8d116b 	csel	x11, x11, x13, ne	// ne = any
    42a8:	910181ce 	add	x14, x14, #0x60
    42ac:	f1000e9f 	cmp	x20, #0x3
    42b0:	a94035cc 	ldp	x12, x13, [x14]
    42b4:	9a8c1000 	csel	x0, x0, x12, ne	// ne = any
    42b8:	9a8d1021 	csel	x1, x1, x13, ne	// ne = any
    42bc:	a94135cc 	ldp	x12, x13, [x14, #16]
    42c0:	9a8c1042 	csel	x2, x2, x12, ne	// ne = any
    42c4:	9a8d1063 	csel	x3, x3, x13, ne	// ne = any
    42c8:	a94235cc 	ldp	x12, x13, [x14, #32]
    42cc:	9a8c1084 	csel	x4, x4, x12, ne	// ne = any
    42d0:	9a8d10a5 	csel	x5, x5, x13, ne	// ne = any
    42d4:	a94335cc 	ldp	x12, x13, [x14, #48]
    42d8:	9a8c10c6 	csel	x6, x6, x12, ne	// ne = any
    42dc:	9a8d10e7 	csel	x7, x7, x13, ne	// ne = any
    42e0:	a94435cc 	ldp	x12, x13, [x14, #64]
    42e4:	9a8c1108 	csel	x8, x8, x12, ne	// ne = any
    42e8:	9a8d1129 	csel	x9, x9, x13, ne	// ne = any
    42ec:	a94535cc 	ldp	x12, x13, [x14, #80]
    42f0:	9a8c114a 	csel	x10, x10, x12, ne	// ne = any
    42f4:	9a8d116b 	csel	x11, x11, x13, ne	// ne = any
    42f8:	910181ce 	add	x14, x14, #0x60
    42fc:	f100129f 	cmp	x20, #0x4
    4300:	a94035cc 	ldp	x12, x13, [x14]
    4304:	9a8c1000 	csel	x0, x0, x12, ne	// ne = any
    4308:	9a8d1021 	csel	x1, x1, x13, ne	// ne = any
    430c:	a94135cc 	ldp	x12, x13, [x14, #16]
    4310:	9a8c1042 	csel	x2, x2, x12, ne	// ne = any
    4314:	9a8d1063 	csel	x3, x3, x13, ne	// ne = any
    4318:	a94235cc 	ldp	x12, x13, [x14, #32]
    431c:	9a8c1084 	csel	x4, x4, x12, ne	// ne = any
    4320:	9a8d10a5 	csel	x5, x5, x13, ne	// ne = any
    4324:	a94335cc 	ldp	x12, x13, [x14, #48]
    4328:	9a8c10c6 	csel	x6, x6, x12, ne	// ne = any
    432c:	9a8d10e7 	csel	x7, x7, x13, ne	// ne = any
    4330:	a94435cc 	ldp	x12, x13, [x14, #64]
    4334:	9a8c1108 	csel	x8, x8, x12, ne	// ne = any
    4338:	9a8d1129 	csel	x9, x9, x13, ne	// ne = any
    433c:	a94535cc 	ldp	x12, x13, [x14, #80]
    4340:	9a8c114a 	csel	x10, x10, x12, ne	// ne = any
    4344:	9a8d116b 	csel	x11, x11, x13, ne	// ne = any
    4348:	910181ce 	add	x14, x14, #0x60
    434c:	f100169f 	cmp	x20, #0x5
    4350:	a94035cc 	ldp	x12, x13, [x14]
    4354:	9a8c1000 	csel	x0, x0, x12, ne	// ne = any
    4358:	9a8d1021 	csel	x1, x1, x13, ne	// ne = any
    435c:	a94135cc 	ldp	x12, x13, [x14, #16]
    4360:	9a8c1042 	csel	x2, x2, x12, ne	// ne = any
    4364:	9a8d1063 	csel	x3, x3, x13, ne	// ne = any
    4368:	a94235cc 	ldp	x12, x13, [x14, #32]
    436c:	9a8c1084 	csel	x4, x4, x12, ne	// ne = any
    4370:	9a8d10a5 	csel	x5, x5, x13, ne	// ne = any
    4374:	a94335cc 	ldp	x12, x13, [x14, #48]
    4378:	9a8c10c6 	csel	x6, x6, x12, ne	// ne = any
    437c:	9a8d10e7 	csel	x7, x7, x13, ne	// ne = any
    4380:	a94435cc 	ldp	x12, x13, [x14, #64]
    4384:	9a8c1108 	csel	x8, x8, x12, ne	// ne = any
    4388:	9a8d1129 	csel	x9, x9, x13, ne	// ne = any
    438c:	a94535cc 	ldp	x12, x13, [x14, #80]
    4390:	9a8c114a 	csel	x10, x10, x12, ne	// ne = any
    4394:	9a8d116b 	csel	x11, x11, x13, ne	// ne = any
    4398:	910181ce 	add	x14, x14, #0x60
    439c:	f1001a9f 	cmp	x20, #0x6
    43a0:	a94035cc 	ldp	x12, x13, [x14]
    43a4:	9a8c1000 	csel	x0, x0, x12, ne	// ne = any
    43a8:	9a8d1021 	csel	x1, x1, x13, ne	// ne = any
    43ac:	a94135cc 	ldp	x12, x13, [x14, #16]
    43b0:	9a8c1042 	csel	x2, x2, x12, ne	// ne = any
    43b4:	9a8d1063 	csel	x3, x3, x13, ne	// ne = any
    43b8:	a94235cc 	ldp	x12, x13, [x14, #32]
    43bc:	9a8c1084 	csel	x4, x4, x12, ne	// ne = any
    43c0:	9a8d10a5 	csel	x5, x5, x13, ne	// ne = any
    43c4:	a94335cc 	ldp	x12, x13, [x14, #48]
    43c8:	9a8c10c6 	csel	x6, x6, x12, ne	// ne = any
    43cc:	9a8d10e7 	csel	x7, x7, x13, ne	// ne = any
    43d0:	a94435cc 	ldp	x12, x13, [x14, #64]
    43d4:	9a8c1108 	csel	x8, x8, x12, ne	// ne = any
    43d8:	9a8d1129 	csel	x9, x9, x13, ne	// ne = any
    43dc:	a94535cc 	ldp	x12, x13, [x14, #80]
    43e0:	9a8c114a 	csel	x10, x10, x12, ne	// ne = any
    43e4:	9a8d116b 	csel	x11, x11, x13, ne	// ne = any
    43e8:	910181ce 	add	x14, x14, #0x60
    43ec:	f1001e9f 	cmp	x20, #0x7
    43f0:	a94035cc 	ldp	x12, x13, [x14]
    43f4:	9a8c1000 	csel	x0, x0, x12, ne	// ne = any
    43f8:	9a8d1021 	csel	x1, x1, x13, ne	// ne = any
    43fc:	a94135cc 	ldp	x12, x13, [x14, #16]
    4400:	9a8c1042 	csel	x2, x2, x12, ne	// ne = any
    4404:	9a8d1063 	csel	x3, x3, x13, ne	// ne = any
    4408:	a94235cc 	ldp	x12, x13, [x14, #32]
    440c:	9a8c1084 	csel	x4, x4, x12, ne	// ne = any
    4410:	9a8d10a5 	csel	x5, x5, x13, ne	// ne = any
    4414:	a94335cc 	ldp	x12, x13, [x14, #48]
    4418:	9a8c10c6 	csel	x6, x6, x12, ne	// ne = any
    441c:	9a8d10e7 	csel	x7, x7, x13, ne	// ne = any
    4420:	a94435cc 	ldp	x12, x13, [x14, #64]
    4424:	9a8c1108 	csel	x8, x8, x12, ne	// ne = any
    4428:	9a8d1129 	csel	x9, x9, x13, ne	// ne = any
    442c:	a94535cc 	ldp	x12, x13, [x14, #80]
    4430:	9a8c114a 	csel	x10, x10, x12, ne	// ne = any
    4434:	9a8d116b 	csel	x11, x11, x13, ne	// ne = any
    4438:	910181ce 	add	x14, x14, #0x60
    443c:	f100229f 	cmp	x20, #0x8
    4440:	a94035cc 	ldp	x12, x13, [x14]
    4444:	9a8c1000 	csel	x0, x0, x12, ne	// ne = any
    4448:	9a8d1021 	csel	x1, x1, x13, ne	// ne = any
    444c:	a94135cc 	ldp	x12, x13, [x14, #16]
    4450:	9a8c1042 	csel	x2, x2, x12, ne	// ne = any
    4454:	9a8d1063 	csel	x3, x3, x13, ne	// ne = any
    4458:	a94235cc 	ldp	x12, x13, [x14, #32]
    445c:	9a8c1084 	csel	x4, x4, x12, ne	// ne = any
    4460:	9a8d10a5 	csel	x5, x5, x13, ne	// ne = any
    4464:	a94335cc 	ldp	x12, x13, [x14, #48]
    4468:	9a8c10c6 	csel	x6, x6, x12, ne	// ne = any
    446c:	9a8d10e7 	csel	x7, x7, x13, ne	// ne = any
    4470:	a94435cc 	ldp	x12, x13, [x14, #64]
    4474:	9a8c1108 	csel	x8, x8, x12, ne	// ne = any
    4478:	9a8d1129 	csel	x9, x9, x13, ne	// ne = any
    447c:	a94535cc 	ldp	x12, x13, [x14, #80]
    4480:	9a8c114a 	csel	x10, x10, x12, ne	// ne = any
    4484:	9a8d116b 	csel	x11, x11, x13, ne	// ne = any
    4488:	eb1f02bf 	cmp	x21, xzr
    448c:	9a84000c 	csel	x12, x0, x4, eq	// eq = none
    4490:	9a841004 	csel	x4, x0, x4, ne	// ne = any
    4494:	9a85002d 	csel	x13, x1, x5, eq	// eq = none
    4498:	9a851025 	csel	x5, x1, x5, ne	// ne = any
    449c:	9a86004e 	csel	x14, x2, x6, eq	// eq = none
    44a0:	9a861046 	csel	x6, x2, x6, ne	// ne = any
    44a4:	9a87006f 	csel	x15, x3, x7, eq	// eq = none
    44a8:	9a871067 	csel	x7, x3, x7, ne	// ne = any
    44ac:	ca150108 	eor	x8, x8, x21
    44b0:	ca150129 	eor	x9, x9, x21
    44b4:	ca15014a 	eor	x10, x10, x21
    44b8:	ca15016b 	eor	x11, x11, x21
    44bc:	d28004a0 	mov	x0, #0x25                  	// #37
    44c0:	8a150000 	and	x0, x0, x21
    44c4:	eb000108 	subs	x8, x8, x0
    44c8:	fa1f0129 	sbcs	x9, x9, xzr
    44cc:	fa1f014a 	sbcs	x10, x10, xzr
    44d0:	da1f016b 	sbc	x11, x11, xzr
    44d4:	a90437ec 	stp	x12, x13, [sp, #64]
    44d8:	a9053fee 	stp	x14, x15, [sp, #80]
    44dc:	a90617e4 	stp	x4, x5, [sp, #96]
    44e0:	a9071fe6 	stp	x6, x7, [sp, #112]
    44e4:	a90827e8 	stp	x8, x9, [sp, #128]
    44e8:	a9092fea 	stp	x10, x11, [sp, #144]
    44ec:	d346fe60 	lsr	x0, x19, #6
    44f0:	f8607be1 	ldr	x1, [sp, x0, lsl #3]
    44f4:	9ad32422 	lsr	x2, x1, x19
    44f8:	92400c40 	and	x0, x2, #0xf
    44fc:	f1002014 	subs	x20, x0, #0x8
    4500:	da942694 	cneg	x20, x20, cc	// cc = lo, ul, last
    4504:	da9f23f5 	csetm	x21, cc	// cc = lo, ul, last
    4508:	910683f6 	add	x22, sp, #0x1a0
    450c:	aa1f03e0 	mov	x0, xzr
    4510:	aa1f03e1 	mov	x1, xzr
    4514:	aa1f03e2 	mov	x2, xzr
    4518:	aa1f03e3 	mov	x3, xzr
    451c:	d2800024 	mov	x4, #0x1                   	// #1
    4520:	aa1f03e5 	mov	x5, xzr
    4524:	aa1f03e6 	mov	x6, xzr
    4528:	aa1f03e7 	mov	x7, xzr
    452c:	d2800028 	mov	x8, #0x1                   	// #1
    4530:	aa1f03e9 	mov	x9, xzr
    4534:	aa1f03ea 	mov	x10, xzr
    4538:	aa1f03eb 	mov	x11, xzr
    453c:	aa1f03ec 	mov	x12, xzr
    4540:	aa1f03ed 	mov	x13, xzr
    4544:	aa1f03ee 	mov	x14, xzr
    4548:	aa1f03ef 	mov	x15, xzr
    454c:	f100069f 	cmp	x20, #0x1
    4550:	a94046d0 	ldp	x16, x17, [x22]
    4554:	9a901000 	csel	x0, x0, x16, ne	// ne = any
    4558:	9a911021 	csel	x1, x1, x17, ne	// ne = any
    455c:	a94146d0 	ldp	x16, x17, [x22, #16]
    4560:	9a901042 	csel	x2, x2, x16, ne	// ne = any
    4564:	9a911063 	csel	x3, x3, x17, ne	// ne = any
    4568:	a94246d0 	ldp	x16, x17, [x22, #32]
    456c:	9a901084 	csel	x4, x4, x16, ne	// ne = any
    4570:	9a9110a5 	csel	x5, x5, x17, ne	// ne = any
    4574:	a94346d0 	ldp	x16, x17, [x22, #48]
    4578:	9a9010c6 	csel	x6, x6, x16, ne	// ne = any
    457c:	9a9110e7 	csel	x7, x7, x17, ne	// ne = any
    4580:	a94446d0 	ldp	x16, x17, [x22, #64]
    4584:	9a901108 	csel	x8, x8, x16, ne	// ne = any
    4588:	9a911129 	csel	x9, x9, x17, ne	// ne = any
    458c:	a94546d0 	ldp	x16, x17, [x22, #80]
    4590:	9a90114a 	csel	x10, x10, x16, ne	// ne = any
    4594:	9a91116b 	csel	x11, x11, x17, ne	// ne = any
    4598:	a94646d0 	ldp	x16, x17, [x22, #96]
    459c:	9a90118c 	csel	x12, x12, x16, ne	// ne = any
    45a0:	9a9111ad 	csel	x13, x13, x17, ne	// ne = any
    45a4:	a94746d0 	ldp	x16, x17, [x22, #112]
    45a8:	9a9011ce 	csel	x14, x14, x16, ne	// ne = any
    45ac:	9a9111ef 	csel	x15, x15, x17, ne	// ne = any
    45b0:	910202d6 	add	x22, x22, #0x80
    45b4:	f1000a9f 	cmp	x20, #0x2
    45b8:	a94046d0 	ldp	x16, x17, [x22]
    45bc:	9a901000 	csel	x0, x0, x16, ne	// ne = any
    45c0:	9a911021 	csel	x1, x1, x17, ne	// ne = any
    45c4:	a94146d0 	ldp	x16, x17, [x22, #16]
    45c8:	9a901042 	csel	x2, x2, x16, ne	// ne = any
    45cc:	9a911063 	csel	x3, x3, x17, ne	// ne = any
    45d0:	a94246d0 	ldp	x16, x17, [x22, #32]
    45d4:	9a901084 	csel	x4, x4, x16, ne	// ne = any
    45d8:	9a9110a5 	csel	x5, x5, x17, ne	// ne = any
    45dc:	a94346d0 	ldp	x16, x17, [x22, #48]
    45e0:	9a9010c6 	csel	x6, x6, x16, ne	// ne = any
    45e4:	9a9110e7 	csel	x7, x7, x17, ne	// ne = any
    45e8:	a94446d0 	ldp	x16, x17, [x22, #64]
    45ec:	9a901108 	csel	x8, x8, x16, ne	// ne = any
    45f0:	9a911129 	csel	x9, x9, x17, ne	// ne = any
    45f4:	a94546d0 	ldp	x16, x17, [x22, #80]
    45f8:	9a90114a 	csel	x10, x10, x16, ne	// ne = any
    45fc:	9a91116b 	csel	x11, x11, x17, ne	// ne = any
    4600:	a94646d0 	ldp	x16, x17, [x22, #96]
    4604:	9a90118c 	csel	x12, x12, x16, ne	// ne = any
    4608:	9a9111ad 	csel	x13, x13, x17, ne	// ne = any
    460c:	a94746d0 	ldp	x16, x17, [x22, #112]
    4610:	9a9011ce 	csel	x14, x14, x16, ne	// ne = any
    4614:	9a9111ef 	csel	x15, x15, x17, ne	// ne = any
    4618:	910202d6 	add	x22, x22, #0x80
    461c:	f1000e9f 	cmp	x20, #0x3
    4620:	a94046d0 	ldp	x16, x17, [x22]
    4624:	9a901000 	csel	x0, x0, x16, ne	// ne = any
    4628:	9a911021 	csel	x1, x1, x17, ne	// ne = any
    462c:	a94146d0 	ldp	x16, x17, [x22, #16]
    4630:	9a901042 	csel	x2, x2, x16, ne	// ne = any
    4634:	9a911063 	csel	x3, x3, x17, ne	// ne = any
    4638:	a94246d0 	ldp	x16, x17, [x22, #32]
    463c:	9a901084 	csel	x4, x4, x16, ne	// ne = any
    4640:	9a9110a5 	csel	x5, x5, x17, ne	// ne = any
    4644:	a94346d0 	ldp	x16, x17, [x22, #48]
    4648:	9a9010c6 	csel	x6, x6, x16, ne	// ne = any
    464c:	9a9110e7 	csel	x7, x7, x17, ne	// ne = any
    4650:	a94446d0 	ldp	x16, x17, [x22, #64]
    4654:	9a901108 	csel	x8, x8, x16, ne	// ne = any
    4658:	9a911129 	csel	x9, x9, x17, ne	// ne = any
    465c:	a94546d0 	ldp	x16, x17, [x22, #80]
    4660:	9a90114a 	csel	x10, x10, x16, ne	// ne = any
    4664:	9a91116b 	csel	x11, x11, x17, ne	// ne = any
    4668:	a94646d0 	ldp	x16, x17, [x22, #96]
    466c:	9a90118c 	csel	x12, x12, x16, ne	// ne = any
    4670:	9a9111ad 	csel	x13, x13, x17, ne	// ne = any
    4674:	a94746d0 	ldp	x16, x17, [x22, #112]
    4678:	9a9011ce 	csel	x14, x14, x16, ne	// ne = any
    467c:	9a9111ef 	csel	x15, x15, x17, ne	// ne = any
    4680:	910202d6 	add	x22, x22, #0x80
    4684:	f100129f 	cmp	x20, #0x4
    4688:	a94046d0 	ldp	x16, x17, [x22]
    468c:	9a901000 	csel	x0, x0, x16, ne	// ne = any
    4690:	9a911021 	csel	x1, x1, x17, ne	// ne = any
    4694:	a94146d0 	ldp	x16, x17, [x22, #16]
    4698:	9a901042 	csel	x2, x2, x16, ne	// ne = any
    469c:	9a911063 	csel	x3, x3, x17, ne	// ne = any
    46a0:	a94246d0 	ldp	x16, x17, [x22, #32]
    46a4:	9a901084 	csel	x4, x4, x16, ne	// ne = any
    46a8:	9a9110a5 	csel	x5, x5, x17, ne	// ne = any
    46ac:	a94346d0 	ldp	x16, x17, [x22, #48]
    46b0:	9a9010c6 	csel	x6, x6, x16, ne	// ne = any
    46b4:	9a9110e7 	csel	x7, x7, x17, ne	// ne = any
    46b8:	a94446d0 	ldp	x16, x17, [x22, #64]
    46bc:	9a901108 	csel	x8, x8, x16, ne	// ne = any
    46c0:	9a911129 	csel	x9, x9, x17, ne	// ne = any
    46c4:	a94546d0 	ldp	x16, x17, [x22, #80]
    46c8:	9a90114a 	csel	x10, x10, x16, ne	// ne = any
    46cc:	9a91116b 	csel	x11, x11, x17, ne	// ne = any
    46d0:	a94646d0 	ldp	x16, x17, [x22, #96]
    46d4:	9a90118c 	csel	x12, x12, x16, ne	// ne = any
    46d8:	9a9111ad 	csel	x13, x13, x17, ne	// ne = any
    46dc:	a94746d0 	ldp	x16, x17, [x22, #112]
    46e0:	9a9011ce 	csel	x14, x14, x16, ne	// ne = any
    46e4:	9a9111ef 	csel	x15, x15, x17, ne	// ne = any
    46e8:	910202d6 	add	x22, x22, #0x80
    46ec:	f100169f 	cmp	x20, #0x5
    46f0:	a94046d0 	ldp	x16, x17, [x22]
    46f4:	9a901000 	csel	x0, x0, x16, ne	// ne = any
    46f8:	9a911021 	csel	x1, x1, x17, ne	// ne = any
    46fc:	a94146d0 	ldp	x16, x17, [x22, #16]
    4700:	9a901042 	csel	x2, x2, x16, ne	// ne = any
    4704:	9a911063 	csel	x3, x3, x17, ne	// ne = any
    4708:	a94246d0 	ldp	x16, x17, [x22, #32]
    470c:	9a901084 	csel	x4, x4, x16, ne	// ne = any
    4710:	9a9110a5 	csel	x5, x5, x17, ne	// ne = any
    4714:	a94346d0 	ldp	x16, x17, [x22, #48]
    4718:	9a9010c6 	csel	x6, x6, x16, ne	// ne = any
    471c:	9a9110e7 	csel	x7, x7, x17, ne	// ne = any
    4720:	a94446d0 	ldp	x16, x17, [x22, #64]
    4724:	9a901108 	csel	x8, x8, x16, ne	// ne = any
    4728:	9a911129 	csel	x9, x9, x17, ne	// ne = any
    472c:	a94546d0 	ldp	x16, x17, [x22, #80]
    4730:	9a90114a 	csel	x10, x10, x16, ne	// ne = any
    4734:	9a91116b 	csel	x11, x11, x17, ne	// ne = any
    4738:	a94646d0 	ldp	x16, x17, [x22, #96]
    473c:	9a90118c 	csel	x12, x12, x16, ne	// ne = any
    4740:	9a9111ad 	csel	x13, x13, x17, ne	// ne = any
    4744:	a94746d0 	ldp	x16, x17, [x22, #112]
    4748:	9a9011ce 	csel	x14, x14, x16, ne	// ne = any
    474c:	9a9111ef 	csel	x15, x15, x17, ne	// ne = any
    4750:	910202d6 	add	x22, x22, #0x80
    4754:	f1001a9f 	cmp	x20, #0x6
    4758:	a94046d0 	ldp	x16, x17, [x22]
    475c:	9a901000 	csel	x0, x0, x16, ne	// ne = any
    4760:	9a911021 	csel	x1, x1, x17, ne	// ne = any
    4764:	a94146d0 	ldp	x16, x17, [x22, #16]
    4768:	9a901042 	csel	x2, x2, x16, ne	// ne = any
    476c:	9a911063 	csel	x3, x3, x17, ne	// ne = any
    4770:	a94246d0 	ldp	x16, x17, [x22, #32]
    4774:	9a901084 	csel	x4, x4, x16, ne	// ne = any
    4778:	9a9110a5 	csel	x5, x5, x17, ne	// ne = any
    477c:	a94346d0 	ldp	x16, x17, [x22, #48]
    4780:	9a9010c6 	csel	x6, x6, x16, ne	// ne = any
    4784:	9a9110e7 	csel	x7, x7, x17, ne	// ne = any
    4788:	a94446d0 	ldp	x16, x17, [x22, #64]
    478c:	9a901108 	csel	x8, x8, x16, ne	// ne = any
    4790:	9a911129 	csel	x9, x9, x17, ne	// ne = any
    4794:	a94546d0 	ldp	x16, x17, [x22, #80]
    4798:	9a90114a 	csel	x10, x10, x16, ne	// ne = any
    479c:	9a91116b 	csel	x11, x11, x17, ne	// ne = any
    47a0:	a94646d0 	ldp	x16, x17, [x22, #96]
    47a4:	9a90118c 	csel	x12, x12, x16, ne	// ne = any
    47a8:	9a9111ad 	csel	x13, x13, x17, ne	// ne = any
    47ac:	a94746d0 	ldp	x16, x17, [x22, #112]
    47b0:	9a9011ce 	csel	x14, x14, x16, ne	// ne = any
    47b4:	9a9111ef 	csel	x15, x15, x17, ne	// ne = any
    47b8:	910202d6 	add	x22, x22, #0x80
    47bc:	f1001e9f 	cmp	x20, #0x7
    47c0:	a94046d0 	ldp	x16, x17, [x22]
    47c4:	9a901000 	csel	x0, x0, x16, ne	// ne = any
    47c8:	9a911021 	csel	x1, x1, x17, ne	// ne = any
    47cc:	a94146d0 	ldp	x16, x17, [x22, #16]
    47d0:	9a901042 	csel	x2, x2, x16, ne	// ne = any
    47d4:	9a911063 	csel	x3, x3, x17, ne	// ne = any
    47d8:	a94246d0 	ldp	x16, x17, [x22, #32]
    47dc:	9a901084 	csel	x4, x4, x16, ne	// ne = any
    47e0:	9a9110a5 	csel	x5, x5, x17, ne	// ne = any
    47e4:	a94346d0 	ldp	x16, x17, [x22, #48]
    47e8:	9a9010c6 	csel	x6, x6, x16, ne	// ne = any
    47ec:	9a9110e7 	csel	x7, x7, x17, ne	// ne = any
    47f0:	a94446d0 	ldp	x16, x17, [x22, #64]
    47f4:	9a901108 	csel	x8, x8, x16, ne	// ne = any
    47f8:	9a911129 	csel	x9, x9, x17, ne	// ne = any
    47fc:	a94546d0 	ldp	x16, x17, [x22, #80]
    4800:	9a90114a 	csel	x10, x10, x16, ne	// ne = any
    4804:	9a91116b 	csel	x11, x11, x17, ne	// ne = any
    4808:	a94646d0 	ldp	x16, x17, [x22, #96]
    480c:	9a90118c 	csel	x12, x12, x16, ne	// ne = any
    4810:	9a9111ad 	csel	x13, x13, x17, ne	// ne = any
    4814:	a94746d0 	ldp	x16, x17, [x22, #112]
    4818:	9a9011ce 	csel	x14, x14, x16, ne	// ne = any
    481c:	9a9111ef 	csel	x15, x15, x17, ne	// ne = any
    4820:	910202d6 	add	x22, x22, #0x80
    4824:	f100229f 	cmp	x20, #0x8
    4828:	a94046d0 	ldp	x16, x17, [x22]
    482c:	9a901000 	csel	x0, x0, x16, ne	// ne = any
    4830:	9a911021 	csel	x1, x1, x17, ne	// ne = any
    4834:	a94146d0 	ldp	x16, x17, [x22, #16]
    4838:	9a901042 	csel	x2, x2, x16, ne	// ne = any
    483c:	9a911063 	csel	x3, x3, x17, ne	// ne = any
    4840:	a94246d0 	ldp	x16, x17, [x22, #32]
    4844:	9a901084 	csel	x4, x4, x16, ne	// ne = any
    4848:	9a9110a5 	csel	x5, x5, x17, ne	// ne = any
    484c:	a94346d0 	ldp	x16, x17, [x22, #48]
    4850:	9a9010c6 	csel	x6, x6, x16, ne	// ne = any
    4854:	9a9110e7 	csel	x7, x7, x17, ne	// ne = any
    4858:	a94446d0 	ldp	x16, x17, [x22, #64]
    485c:	9a901108 	csel	x8, x8, x16, ne	// ne = any
    4860:	9a911129 	csel	x9, x9, x17, ne	// ne = any
    4864:	a94546d0 	ldp	x16, x17, [x22, #80]
    4868:	9a90114a 	csel	x10, x10, x16, ne	// ne = any
    486c:	9a91116b 	csel	x11, x11, x17, ne	// ne = any
    4870:	a94646d0 	ldp	x16, x17, [x22, #96]
    4874:	9a90118c 	csel	x12, x12, x16, ne	// ne = any
    4878:	9a9111ad 	csel	x13, x13, x17, ne	// ne = any
    487c:	a94746d0 	ldp	x16, x17, [x22, #112]
    4880:	9a9011ce 	csel	x14, x14, x16, ne	// ne = any
    4884:	9a9111ef 	csel	x15, x15, x17, ne	// ne = any
    4888:	ca150000 	eor	x0, x0, x21
    488c:	ca150021 	eor	x1, x1, x21
    4890:	ca150042 	eor	x2, x2, x21
    4894:	ca150063 	eor	x3, x3, x21
    4898:	d28004b0 	mov	x16, #0x25                  	// #37
    489c:	8a150210 	and	x16, x16, x21
    48a0:	eb100000 	subs	x0, x0, x16
    48a4:	fa1f0021 	sbcs	x1, x1, xzr
    48a8:	fa1f0042 	sbcs	x2, x2, xzr
    48ac:	da1f0063 	sbc	x3, x3, xzr
    48b0:	ca15018c 	eor	x12, x12, x21
    48b4:	ca1501ad 	eor	x13, x13, x21
    48b8:	ca1501ce 	eor	x14, x14, x21
    48bc:	ca1501ef 	eor	x15, x15, x21
    48c0:	eb10018c 	subs	x12, x12, x16
    48c4:	fa1f01ad 	sbcs	x13, x13, xzr
    48c8:	fa1f01ce 	sbcs	x14, x14, xzr
    48cc:	da1f01ef 	sbc	x15, x15, xzr
    48d0:	a91207e0 	stp	x0, x1, [sp, #288]
    48d4:	a9130fe2 	stp	x2, x3, [sp, #304]
    48d8:	a91417e4 	stp	x4, x5, [sp, #320]
    48dc:	a9151fe6 	stp	x6, x7, [sp, #336]
    48e0:	a91627e8 	stp	x8, x9, [sp, #352]
    48e4:	a9172fea 	stp	x10, x11, [sp, #368]
    48e8:	a91837ec 	stp	x12, x13, [sp, #384]
    48ec:	a9193fee 	stp	x14, x15, [sp, #400]
    48f0:	910283f6 	add	x22, sp, #0xa0
    48f4:	910283f7 	add	x23, sp, #0xa0
    48f8:	940007e1 	bl	687c <edwards25519_scalarmuldouble_alt_pdouble>
    48fc:	910483f6 	add	x22, sp, #0x120
    4900:	910483f7 	add	x23, sp, #0x120
    4904:	910103f8 	add	x24, sp, #0x40
    4908:	94000e69 	bl	82ac <edwards25519_scalarmuldouble_alt_pepadd>
    490c:	910283f6 	add	x22, sp, #0xa0
    4910:	910283f7 	add	x23, sp, #0xa0
    4914:	940007da 	bl	687c <edwards25519_scalarmuldouble_alt_pdouble>
    4918:	910283f6 	add	x22, sp, #0xa0
    491c:	910283f7 	add	x23, sp, #0xa0
    4920:	940004de 	bl	5c98 <edwards25519_scalarmuldouble_alt_epdouble>
    4924:	910283f6 	add	x22, sp, #0xa0
    4928:	910283f7 	add	x23, sp, #0xa0
    492c:	910483f8 	add	x24, sp, #0x120
    4930:	94000a6e 	bl	72e8 <edwards25519_scalarmuldouble_alt_epadd>
    4934:	b5ffc393 	cbnz	x19, 41a4 <edwards25519_scalarmuldouble_alt_loop>
    4938:	910483e0 	add	x0, sp, #0x120
    493c:	910383e1 	add	x1, sp, #0xe0
    4940:	aa0003f4 	mov	x20, x0
    4944:	9280024a 	mov	x10, #0xffffffffffffffed    	// #-19
    4948:	9280000b 	mov	x11, #0xffffffffffffffff    	// #-1
    494c:	a9002fea 	stp	x10, x11, [sp]
    4950:	92f0000c 	mov	x12, #0x7fffffffffffffff    	// #9223372036854775807
    4954:	a90133eb 	stp	x11, x12, [sp, #16]
    4958:	a9400c22 	ldp	x2, x3, [x1]
    495c:	a9411424 	ldp	x4, x5, [x1, #16]
    4960:	d2800267 	mov	x7, #0x13                  	// #19
    4964:	d37ffca6 	lsr	x6, x5, #63
    4968:	9b061ce6 	madd	x6, x7, x6, x7
    496c:	ab060042 	adds	x2, x2, x6
    4970:	ba1f0063 	adcs	x3, x3, xzr
    4974:	ba1f0084 	adcs	x4, x4, xzr
    4978:	b24100a5 	orr	x5, x5, #0x8000000000000000
    497c:	ba1f00a5 	adcs	x5, x5, xzr
    4980:	9a9f30e6 	csel	x6, x7, xzr, cc	// cc = lo, ul, last
    4984:	eb060042 	subs	x2, x2, x6
    4988:	fa1f0063 	sbcs	x3, x3, xzr
    498c:	fa1f0084 	sbcs	x4, x4, xzr
    4990:	da1f00a5 	sbc	x5, x5, xzr
    4994:	9240f8a5 	and	x5, x5, #0x7fffffffffffffff
    4998:	a9020fe2 	stp	x2, x3, [sp, #32]
    499c:	a90317e4 	stp	x4, x5, [sp, #48]
    49a0:	a9047fff 	stp	xzr, xzr, [sp, #64]
    49a4:	a9057fff 	stp	xzr, xzr, [sp, #80]
    49a8:	d284132a 	mov	x10, #0x2099                	// #8345
    49ac:	f2aea04a 	movk	x10, #0x7502, lsl #16
    49b0:	f2d3c46a 	movk	x10, #0x9e23, lsl #32
    49b4:	f2f41f2a 	movk	x10, #0xa0f9, lsl #48
    49b8:	d284b2ab 	mov	x11, #0x2595                	// #9621
    49bc:	f2a3a26b 	movk	x11, #0x1d13, lsl #16
    49c0:	f2d1e7eb 	movk	x11, #0x8f3f, lsl #32
    49c4:	f2f518cb 	movk	x11, #0xa8c6, lsl #48
    49c8:	d28a484c 	mov	x12, #0x5242                	// #21058
    49cc:	f2a0b58c 	movk	x12, #0x5ac, lsl #16
    49d0:	f2d1270c 	movk	x12, #0x8938, lsl #32
    49d4:	f2ed8d8c 	movk	x12, #0x6c6c, lsl #48
    49d8:	d280c2ad 	mov	x13, #0x615                 	// #1557
    49dc:	f2a82eed 	movk	x13, #0x4177, lsl #16
    49e0:	f2c1164d 	movk	x13, #0x8b2, lsl #32
    49e4:	f2e4ecad 	movk	x13, #0x2765, lsl #48
    49e8:	a9062fea 	stp	x10, x11, [sp, #96]
    49ec:	a90737ec 	stp	x12, x13, [sp, #112]
    49f0:	d2800155 	mov	x21, #0xa                   	// #10
    49f4:	d2800036 	mov	x22, #0x1                   	// #1
    49f8:	1400010b 	b	4e24 <edwards25519_scalarmuldouble_alt_invmidloop>

00000000000049fc <edwards25519_scalarmuldouble_alt_invloop>:
    49fc:	eb1f015f 	cmp	x10, xzr
    4a00:	da9f53ee 	csetm	x14, mi	// mi = first
    4a04:	da8a554a 	cneg	x10, x10, mi	// mi = first
    4a08:	eb1f017f 	cmp	x11, xzr
    4a0c:	da9f53ef 	csetm	x15, mi	// mi = first
    4a10:	da8b556b 	cneg	x11, x11, mi	// mi = first
    4a14:	eb1f019f 	cmp	x12, xzr
    4a18:	da9f53f0 	csetm	x16, mi	// mi = first
    4a1c:	da8c558c 	cneg	x12, x12, mi	// mi = first
    4a20:	eb1f01bf 	cmp	x13, xzr
    4a24:	da9f53f1 	csetm	x17, mi	// mi = first
    4a28:	da8d55ad 	cneg	x13, x13, mi	// mi = first
    4a2c:	8a0e0140 	and	x0, x10, x14
    4a30:	8a0f0161 	and	x1, x11, x15
    4a34:	8b010009 	add	x9, x0, x1
    4a38:	8a100180 	and	x0, x12, x16
    4a3c:	8a1101a1 	and	x1, x13, x17
    4a40:	8b010013 	add	x19, x0, x1
    4a44:	f94003e7 	ldr	x7, [sp]
    4a48:	ca0e00e1 	eor	x1, x7, x14
    4a4c:	9b0a7c20 	mul	x0, x1, x10
    4a50:	9bca7c21 	umulh	x1, x1, x10
    4a54:	ab000124 	adds	x4, x9, x0
    4a58:	9a0103e2 	adc	x2, xzr, x1
    4a5c:	f94013e8 	ldr	x8, [sp, #32]
    4a60:	ca0f0101 	eor	x1, x8, x15
    4a64:	9b0b7c20 	mul	x0, x1, x11
    4a68:	9bcb7c21 	umulh	x1, x1, x11
    4a6c:	ab000084 	adds	x4, x4, x0
    4a70:	9a010042 	adc	x2, x2, x1
    4a74:	ca1000e1 	eor	x1, x7, x16
    4a78:	9b0c7c20 	mul	x0, x1, x12
    4a7c:	9bcc7c21 	umulh	x1, x1, x12
    4a80:	ab000265 	adds	x5, x19, x0
    4a84:	9a0103e3 	adc	x3, xzr, x1
    4a88:	ca110101 	eor	x1, x8, x17
    4a8c:	9b0d7c20 	mul	x0, x1, x13
    4a90:	9bcd7c21 	umulh	x1, x1, x13
    4a94:	ab0000a5 	adds	x5, x5, x0
    4a98:	9a010063 	adc	x3, x3, x1
    4a9c:	f94007e7 	ldr	x7, [sp, #8]
    4aa0:	ca0e00e1 	eor	x1, x7, x14
    4aa4:	9b0a7c20 	mul	x0, x1, x10
    4aa8:	9bca7c21 	umulh	x1, x1, x10
    4aac:	ab000042 	adds	x2, x2, x0
    4ab0:	9a0103e6 	adc	x6, xzr, x1
    4ab4:	f94017e8 	ldr	x8, [sp, #40]
    4ab8:	ca0f0101 	eor	x1, x8, x15
    4abc:	9b0b7c20 	mul	x0, x1, x11
    4ac0:	9bcb7c21 	umulh	x1, x1, x11
    4ac4:	ab000042 	adds	x2, x2, x0
    4ac8:	9a0100c6 	adc	x6, x6, x1
    4acc:	93c4ec44 	extr	x4, x2, x4, #59
    4ad0:	f90003e4 	str	x4, [sp]
    4ad4:	ca1000e1 	eor	x1, x7, x16
    4ad8:	9b0c7c20 	mul	x0, x1, x12
    4adc:	9bcc7c21 	umulh	x1, x1, x12
    4ae0:	ab000063 	adds	x3, x3, x0
    4ae4:	9a0103e4 	adc	x4, xzr, x1
    4ae8:	ca110101 	eor	x1, x8, x17
    4aec:	9b0d7c20 	mul	x0, x1, x13
    4af0:	9bcd7c21 	umulh	x1, x1, x13
    4af4:	ab000063 	adds	x3, x3, x0
    4af8:	9a010084 	adc	x4, x4, x1
    4afc:	93c5ec65 	extr	x5, x3, x5, #59
    4b00:	f90013e5 	str	x5, [sp, #32]
    4b04:	f9400be7 	ldr	x7, [sp, #16]
    4b08:	ca0e00e1 	eor	x1, x7, x14
    4b0c:	9b0a7c20 	mul	x0, x1, x10
    4b10:	9bca7c21 	umulh	x1, x1, x10
    4b14:	ab0000c6 	adds	x6, x6, x0
    4b18:	9a0103e5 	adc	x5, xzr, x1
    4b1c:	f9401be8 	ldr	x8, [sp, #48]
    4b20:	ca0f0101 	eor	x1, x8, x15
    4b24:	9b0b7c20 	mul	x0, x1, x11
    4b28:	9bcb7c21 	umulh	x1, x1, x11
    4b2c:	ab0000c6 	adds	x6, x6, x0
    4b30:	9a0100a5 	adc	x5, x5, x1
    4b34:	93c2ecc2 	extr	x2, x6, x2, #59
    4b38:	f90007e2 	str	x2, [sp, #8]
    4b3c:	ca1000e1 	eor	x1, x7, x16
    4b40:	9b0c7c20 	mul	x0, x1, x12
    4b44:	9bcc7c21 	umulh	x1, x1, x12
    4b48:	ab000084 	adds	x4, x4, x0
    4b4c:	9a0103e2 	adc	x2, xzr, x1
    4b50:	ca110101 	eor	x1, x8, x17
    4b54:	9b0d7c20 	mul	x0, x1, x13
    4b58:	9bcd7c21 	umulh	x1, x1, x13
    4b5c:	ab000084 	adds	x4, x4, x0
    4b60:	9a010042 	adc	x2, x2, x1
    4b64:	93c3ec83 	extr	x3, x4, x3, #59
    4b68:	f90017e3 	str	x3, [sp, #40]
    4b6c:	f9400fe7 	ldr	x7, [sp, #24]
    4b70:	ca0e00e1 	eor	x1, x7, x14
    4b74:	937ffc23 	asr	x3, x1, #63
    4b78:	8a0a0063 	and	x3, x3, x10
    4b7c:	cb0303e3 	neg	x3, x3
    4b80:	9b0a7c20 	mul	x0, x1, x10
    4b84:	9bca7c21 	umulh	x1, x1, x10
    4b88:	ab0000a5 	adds	x5, x5, x0
    4b8c:	9a010063 	adc	x3, x3, x1
    4b90:	f9401fe8 	ldr	x8, [sp, #56]
    4b94:	ca0f0101 	eor	x1, x8, x15
    4b98:	937ffc20 	asr	x0, x1, #63
    4b9c:	8a0b0000 	and	x0, x0, x11
    4ba0:	cb000063 	sub	x3, x3, x0
    4ba4:	9b0b7c20 	mul	x0, x1, x11
    4ba8:	9bcb7c21 	umulh	x1, x1, x11
    4bac:	ab0000a5 	adds	x5, x5, x0
    4bb0:	9a010063 	adc	x3, x3, x1
    4bb4:	93c6eca6 	extr	x6, x5, x6, #59
    4bb8:	f9000be6 	str	x6, [sp, #16]
    4bbc:	93c5ec65 	extr	x5, x3, x5, #59
    4bc0:	f9000fe5 	str	x5, [sp, #24]
    4bc4:	ca1000e1 	eor	x1, x7, x16
    4bc8:	937ffc25 	asr	x5, x1, #63
    4bcc:	8a0c00a5 	and	x5, x5, x12
    4bd0:	cb0503e5 	neg	x5, x5
    4bd4:	9b0c7c20 	mul	x0, x1, x12
    4bd8:	9bcc7c21 	umulh	x1, x1, x12
    4bdc:	ab000042 	adds	x2, x2, x0
    4be0:	9a0100a5 	adc	x5, x5, x1
    4be4:	ca110101 	eor	x1, x8, x17
    4be8:	937ffc20 	asr	x0, x1, #63
    4bec:	8a0d0000 	and	x0, x0, x13
    4bf0:	cb0000a5 	sub	x5, x5, x0
    4bf4:	9b0d7c20 	mul	x0, x1, x13
    4bf8:	9bcd7c21 	umulh	x1, x1, x13
    4bfc:	ab000042 	adds	x2, x2, x0
    4c00:	9a0100a5 	adc	x5, x5, x1
    4c04:	93c4ec44 	extr	x4, x2, x4, #59
    4c08:	f9001be4 	str	x4, [sp, #48]
    4c0c:	93c2eca2 	extr	x2, x5, x2, #59
    4c10:	f9001fe2 	str	x2, [sp, #56]
    4c14:	f94023e7 	ldr	x7, [sp, #64]
    4c18:	ca0e00e1 	eor	x1, x7, x14
    4c1c:	9b0a7c20 	mul	x0, x1, x10
    4c20:	9bca7c21 	umulh	x1, x1, x10
    4c24:	ab000124 	adds	x4, x9, x0
    4c28:	9a0103e2 	adc	x2, xzr, x1
    4c2c:	f94033e8 	ldr	x8, [sp, #96]
    4c30:	ca0f0101 	eor	x1, x8, x15
    4c34:	9b0b7c20 	mul	x0, x1, x11
    4c38:	9bcb7c21 	umulh	x1, x1, x11
    4c3c:	ab000084 	adds	x4, x4, x0
    4c40:	f90023e4 	str	x4, [sp, #64]
    4c44:	9a010042 	adc	x2, x2, x1
    4c48:	ca1000e1 	eor	x1, x7, x16
    4c4c:	9b0c7c20 	mul	x0, x1, x12
    4c50:	9bcc7c21 	umulh	x1, x1, x12
    4c54:	ab000265 	adds	x5, x19, x0
    4c58:	9a0103e3 	adc	x3, xzr, x1
    4c5c:	ca110101 	eor	x1, x8, x17
    4c60:	9b0d7c20 	mul	x0, x1, x13
    4c64:	9bcd7c21 	umulh	x1, x1, x13
    4c68:	ab0000a5 	adds	x5, x5, x0
    4c6c:	f90033e5 	str	x5, [sp, #96]
    4c70:	9a010063 	adc	x3, x3, x1
    4c74:	f94027e7 	ldr	x7, [sp, #72]
    4c78:	ca0e00e1 	eor	x1, x7, x14
    4c7c:	9b0a7c20 	mul	x0, x1, x10
    4c80:	9bca7c21 	umulh	x1, x1, x10
    4c84:	ab000042 	adds	x2, x2, x0
    4c88:	9a0103e6 	adc	x6, xzr, x1
    4c8c:	f94037e8 	ldr	x8, [sp, #104]
    4c90:	ca0f0101 	eor	x1, x8, x15
    4c94:	9b0b7c20 	mul	x0, x1, x11
    4c98:	9bcb7c21 	umulh	x1, x1, x11
    4c9c:	ab000042 	adds	x2, x2, x0
    4ca0:	f90027e2 	str	x2, [sp, #72]
    4ca4:	9a0100c6 	adc	x6, x6, x1
    4ca8:	ca1000e1 	eor	x1, x7, x16
    4cac:	9b0c7c20 	mul	x0, x1, x12
    4cb0:	9bcc7c21 	umulh	x1, x1, x12
    4cb4:	ab000063 	adds	x3, x3, x0
    4cb8:	9a0103e4 	adc	x4, xzr, x1
    4cbc:	ca110101 	eor	x1, x8, x17
    4cc0:	9b0d7c20 	mul	x0, x1, x13
    4cc4:	9bcd7c21 	umulh	x1, x1, x13
    4cc8:	ab000063 	adds	x3, x3, x0
    4ccc:	f90037e3 	str	x3, [sp, #104]
    4cd0:	9a010084 	adc	x4, x4, x1
    4cd4:	f9402be7 	ldr	x7, [sp, #80]
    4cd8:	ca0e00e1 	eor	x1, x7, x14
    4cdc:	9b0a7c20 	mul	x0, x1, x10
    4ce0:	9bca7c21 	umulh	x1, x1, x10
    4ce4:	ab0000c6 	adds	x6, x6, x0
    4ce8:	9a0103e5 	adc	x5, xzr, x1
    4cec:	f9403be8 	ldr	x8, [sp, #112]
    4cf0:	ca0f0101 	eor	x1, x8, x15
    4cf4:	9b0b7c20 	mul	x0, x1, x11
    4cf8:	9bcb7c21 	umulh	x1, x1, x11
    4cfc:	ab0000c6 	adds	x6, x6, x0
    4d00:	f9002be6 	str	x6, [sp, #80]
    4d04:	9a0100a5 	adc	x5, x5, x1
    4d08:	ca1000e1 	eor	x1, x7, x16
    4d0c:	9b0c7c20 	mul	x0, x1, x12
    4d10:	9bcc7c21 	umulh	x1, x1, x12
    4d14:	ab000084 	adds	x4, x4, x0
    4d18:	9a0103e2 	adc	x2, xzr, x1
    4d1c:	ca110101 	eor	x1, x8, x17
    4d20:	9b0d7c20 	mul	x0, x1, x13
    4d24:	9bcd7c21 	umulh	x1, x1, x13
    4d28:	ab000084 	adds	x4, x4, x0
    4d2c:	f9003be4 	str	x4, [sp, #112]
    4d30:	9a010042 	adc	x2, x2, x1
    4d34:	f9402fe7 	ldr	x7, [sp, #88]
    4d38:	ca0e00e1 	eor	x1, x7, x14
    4d3c:	8a0a01c3 	and	x3, x14, x10
    4d40:	cb0303e3 	neg	x3, x3
    4d44:	9b0a7c20 	mul	x0, x1, x10
    4d48:	9bca7c21 	umulh	x1, x1, x10
    4d4c:	ab0000a5 	adds	x5, x5, x0
    4d50:	9a010063 	adc	x3, x3, x1
    4d54:	f9403fe8 	ldr	x8, [sp, #120]
    4d58:	ca0f0101 	eor	x1, x8, x15
    4d5c:	8a0b01e0 	and	x0, x15, x11
    4d60:	cb000063 	sub	x3, x3, x0
    4d64:	9b0b7c20 	mul	x0, x1, x11
    4d68:	9bcb7c21 	umulh	x1, x1, x11
    4d6c:	ab0000a5 	adds	x5, x5, x0
    4d70:	9a010063 	adc	x3, x3, x1
    4d74:	93c5fc66 	extr	x6, x3, x5, #63
    4d78:	a94407e0 	ldp	x0, x1, [sp, #64]
    4d7c:	8b83fcc6 	add	x6, x6, x3, asr #63
    4d80:	d2800263 	mov	x3, #0x13                  	// #19
    4d84:	9b037cc4 	mul	x4, x6, x3
    4d88:	8b06fca5 	add	x5, x5, x6, lsl #63
    4d8c:	9b437cc3 	smulh	x3, x6, x3
    4d90:	f9402be6 	ldr	x6, [sp, #80]
    4d94:	ab040000 	adds	x0, x0, x4
    4d98:	ba030021 	adcs	x1, x1, x3
    4d9c:	937ffc63 	asr	x3, x3, #63
    4da0:	ba0300c6 	adcs	x6, x6, x3
    4da4:	9a0300a5 	adc	x5, x5, x3
    4da8:	a90407e0 	stp	x0, x1, [sp, #64]
    4dac:	a90517e6 	stp	x6, x5, [sp, #80]
    4db0:	ca1000e1 	eor	x1, x7, x16
    4db4:	8a0c0205 	and	x5, x16, x12
    4db8:	cb0503e5 	neg	x5, x5
    4dbc:	9b0c7c20 	mul	x0, x1, x12
    4dc0:	9bcc7c21 	umulh	x1, x1, x12
    4dc4:	ab000042 	adds	x2, x2, x0
    4dc8:	9a0100a5 	adc	x5, x5, x1
    4dcc:	ca110101 	eor	x1, x8, x17
    4dd0:	8a0d0220 	and	x0, x17, x13
    4dd4:	cb0000a5 	sub	x5, x5, x0
    4dd8:	9b0d7c20 	mul	x0, x1, x13
    4ddc:	9bcd7c21 	umulh	x1, x1, x13
    4de0:	ab000042 	adds	x2, x2, x0
    4de4:	9a0100a5 	adc	x5, x5, x1
    4de8:	93c2fca6 	extr	x6, x5, x2, #63
    4dec:	a94607e0 	ldp	x0, x1, [sp, #96]
    4df0:	8b85fcc6 	add	x6, x6, x5, asr #63
    4df4:	d2800265 	mov	x5, #0x13                  	// #19
    4df8:	9b057cc4 	mul	x4, x6, x5
    4dfc:	8b06fc42 	add	x2, x2, x6, lsl #63
    4e00:	9b457cc5 	smulh	x5, x6, x5
    4e04:	f9403be3 	ldr	x3, [sp, #112]
    4e08:	ab040000 	adds	x0, x0, x4
    4e0c:	ba050021 	adcs	x1, x1, x5
    4e10:	937ffca5 	asr	x5, x5, #63
    4e14:	ba050063 	adcs	x3, x3, x5
    4e18:	9a050042 	adc	x2, x2, x5
    4e1c:	a90607e0 	stp	x0, x1, [sp, #96]
    4e20:	a9070be3 	stp	x3, x2, [sp, #112]

0000000000004e24 <edwards25519_scalarmuldouble_alt_invmidloop>:
    4e24:	aa1603e1 	mov	x1, x22
    4e28:	f94003e2 	ldr	x2, [sp]
    4e2c:	f94013e3 	ldr	x3, [sp, #32]
    4e30:	92404c44 	and	x4, x2, #0xfffff
    4e34:	b2575884 	orr	x4, x4, #0xfffffe0000000000
    4e38:	92404c65 	and	x5, x3, #0xfffff
    4e3c:	b24204a5 	orr	x5, x5, #0xc000000000000000
    4e40:	f24000bf 	tst	x5, #0x1
    4e44:	9a9f1086 	csel	x6, x4, xzr, ne	// ne = any
    4e48:	fa5f1028 	ccmp	x1, xzr, #0x8, ne	// ne = any
    4e4c:	da81b421 	cneg	x1, x1, ge	// ge = tcont
    4e50:	da86b4c6 	cneg	x6, x6, ge	// ge = tcont
    4e54:	9a84a0a4 	csel	x4, x5, x4, ge	// ge = tcont
    4e58:	8b0600a5 	add	x5, x5, x6
    4e5c:	91000821 	add	x1, x1, #0x2
    4e60:	f27f00bf 	tst	x5, #0x2
    4e64:	9341fca5 	asr	x5, x5, #1
    4e68:	9a9f1086 	csel	x6, x4, xzr, ne	// ne = any
    4e6c:	fa5f1028 	ccmp	x1, xzr, #0x8, ne	// ne = any
    4e70:	da81b421 	cneg	x1, x1, ge	// ge = tcont
    4e74:	da86b4c6 	cneg	x6, x6, ge	// ge = tcont
    4e78:	9a84a0a4 	csel	x4, x5, x4, ge	// ge = tcont
    4e7c:	8b0600a5 	add	x5, x5, x6
    4e80:	91000821 	add	x1, x1, #0x2
    4e84:	f27f00bf 	tst	x5, #0x2
    4e88:	9341fca5 	asr	x5, x5, #1
    4e8c:	9a9f1086 	csel	x6, x4, xzr, ne	// ne = any
    4e90:	fa5f1028 	ccmp	x1, xzr, #0x8, ne	// ne = any
    4e94:	da81b421 	cneg	x1, x1, ge	// ge = tcont
    4e98:	da86b4c6 	cneg	x6, x6, ge	// ge = tcont
    4e9c:	9a84a0a4 	csel	x4, x5, x4, ge	// ge = tcont
    4ea0:	8b0600a5 	add	x5, x5, x6
    4ea4:	91000821 	add	x1, x1, #0x2
    4ea8:	f27f00bf 	tst	x5, #0x2
    4eac:	9341fca5 	asr	x5, x5, #1
    4eb0:	9a9f1086 	csel	x6, x4, xzr, ne	// ne = any
    4eb4:	fa5f1028 	ccmp	x1, xzr, #0x8, ne	// ne = any
    4eb8:	da81b421 	cneg	x1, x1, ge	// ge = tcont
    4ebc:	da86b4c6 	cneg	x6, x6, ge	// ge = tcont
    4ec0:	9a84a0a4 	csel	x4, x5, x4, ge	// ge = tcont
    4ec4:	8b0600a5 	add	x5, x5, x6
    4ec8:	91000821 	add	x1, x1, #0x2
    4ecc:	f27f00bf 	tst	x5, #0x2
    4ed0:	9341fca5 	asr	x5, x5, #1
    4ed4:	9a9f1086 	csel	x6, x4, xzr, ne	// ne = any
    4ed8:	fa5f1028 	ccmp	x1, xzr, #0x8, ne	// ne = any
    4edc:	da81b421 	cneg	x1, x1, ge	// ge = tcont
    4ee0:	da86b4c6 	cneg	x6, x6, ge	// ge = tcont
    4ee4:	9a84a0a4 	csel	x4, x5, x4, ge	// ge = tcont
    4ee8:	8b0600a5 	add	x5, x5, x6
    4eec:	91000821 	add	x1, x1, #0x2
    4ef0:	f27f00bf 	tst	x5, #0x2
    4ef4:	9341fca5 	asr	x5, x5, #1
    4ef8:	9a9f1086 	csel	x6, x4, xzr, ne	// ne = any
    4efc:	fa5f1028 	ccmp	x1, xzr, #0x8, ne	// ne = any
    4f00:	da81b421 	cneg	x1, x1, ge	// ge = tcont
    4f04:	da86b4c6 	cneg	x6, x6, ge	// ge = tcont
    4f08:	9a84a0a4 	csel	x4, x5, x4, ge	// ge = tcont
    4f0c:	8b0600a5 	add	x5, x5, x6
    4f10:	91000821 	add	x1, x1, #0x2
    4f14:	f27f00bf 	tst	x5, #0x2
    4f18:	9341fca5 	asr	x5, x5, #1
    4f1c:	9a9f1086 	csel	x6, x4, xzr, ne	// ne = any
    4f20:	fa5f1028 	ccmp	x1, xzr, #0x8, ne	// ne = any
    4f24:	da81b421 	cneg	x1, x1, ge	// ge = tcont
    4f28:	da86b4c6 	cneg	x6, x6, ge	// ge = tcont
    4f2c:	9a84a0a4 	csel	x4, x5, x4, ge	// ge = tcont
    4f30:	8b0600a5 	add	x5, x5, x6
    4f34:	91000821 	add	x1, x1, #0x2
    4f38:	f27f00bf 	tst	x5, #0x2
    4f3c:	9341fca5 	asr	x5, x5, #1
    4f40:	9a9f1086 	csel	x6, x4, xzr, ne	// ne = any
    4f44:	fa5f1028 	ccmp	x1, xzr, #0x8, ne	// ne = any
    4f48:	da81b421 	cneg	x1, x1, ge	// ge = tcont
    4f4c:	da86b4c6 	cneg	x6, x6, ge	// ge = tcont
    4f50:	9a84a0a4 	csel	x4, x5, x4, ge	// ge = tcont
    4f54:	8b0600a5 	add	x5, x5, x6
    4f58:	91000821 	add	x1, x1, #0x2
    4f5c:	f27f00bf 	tst	x5, #0x2
    4f60:	9341fca5 	asr	x5, x5, #1
    4f64:	9a9f1086 	csel	x6, x4, xzr, ne	// ne = any
    4f68:	fa5f1028 	ccmp	x1, xzr, #0x8, ne	// ne = any
    4f6c:	da81b421 	cneg	x1, x1, ge	// ge = tcont
    4f70:	da86b4c6 	cneg	x6, x6, ge	// ge = tcont
    4f74:	9a84a0a4 	csel	x4, x5, x4, ge	// ge = tcont
    4f78:	8b0600a5 	add	x5, x5, x6
    4f7c:	91000821 	add	x1, x1, #0x2
    4f80:	f27f00bf 	tst	x5, #0x2
    4f84:	9341fca5 	asr	x5, x5, #1
    4f88:	9a9f1086 	csel	x6, x4, xzr, ne	// ne = any
    4f8c:	fa5f1028 	ccmp	x1, xzr, #0x8, ne	// ne = any
    4f90:	da81b421 	cneg	x1, x1, ge	// ge = tcont
    4f94:	da86b4c6 	cneg	x6, x6, ge	// ge = tcont
    4f98:	9a84a0a4 	csel	x4, x5, x4, ge	// ge = tcont
    4f9c:	8b0600a5 	add	x5, x5, x6
    4fa0:	91000821 	add	x1, x1, #0x2
    4fa4:	f27f00bf 	tst	x5, #0x2
    4fa8:	9341fca5 	asr	x5, x5, #1
    4fac:	9a9f1086 	csel	x6, x4, xzr, ne	// ne = any
    4fb0:	fa5f1028 	ccmp	x1, xzr, #0x8, ne	// ne = any
    4fb4:	da81b421 	cneg	x1, x1, ge	// ge = tcont
    4fb8:	da86b4c6 	cneg	x6, x6, ge	// ge = tcont
    4fbc:	9a84a0a4 	csel	x4, x5, x4, ge	// ge = tcont
    4fc0:	8b0600a5 	add	x5, x5, x6
    4fc4:	91000821 	add	x1, x1, #0x2
    4fc8:	f27f00bf 	tst	x5, #0x2
    4fcc:	9341fca5 	asr	x5, x5, #1
    4fd0:	9a9f1086 	csel	x6, x4, xzr, ne	// ne = any
    4fd4:	fa5f1028 	ccmp	x1, xzr, #0x8, ne	// ne = any
    4fd8:	da81b421 	cneg	x1, x1, ge	// ge = tcont
    4fdc:	da86b4c6 	cneg	x6, x6, ge	// ge = tcont
    4fe0:	9a84a0a4 	csel	x4, x5, x4, ge	// ge = tcont
    4fe4:	8b0600a5 	add	x5, x5, x6
    4fe8:	91000821 	add	x1, x1, #0x2
    4fec:	f27f00bf 	tst	x5, #0x2
    4ff0:	9341fca5 	asr	x5, x5, #1
    4ff4:	9a9f1086 	csel	x6, x4, xzr, ne	// ne = any
    4ff8:	fa5f1028 	ccmp	x1, xzr, #0x8, ne	// ne = any
    4ffc:	da81b421 	cneg	x1, x1, ge	// ge = tcont
    5000:	da86b4c6 	cneg	x6, x6, ge	// ge = tcont
    5004:	9a84a0a4 	csel	x4, x5, x4, ge	// ge = tcont
    5008:	8b0600a5 	add	x5, x5, x6
    500c:	91000821 	add	x1, x1, #0x2
    5010:	f27f00bf 	tst	x5, #0x2
    5014:	9341fca5 	asr	x5, x5, #1
    5018:	9a9f1086 	csel	x6, x4, xzr, ne	// ne = any
    501c:	fa5f1028 	ccmp	x1, xzr, #0x8, ne	// ne = any
    5020:	da81b421 	cneg	x1, x1, ge	// ge = tcont
    5024:	da86b4c6 	cneg	x6, x6, ge	// ge = tcont
    5028:	9a84a0a4 	csel	x4, x5, x4, ge	// ge = tcont
    502c:	8b0600a5 	add	x5, x5, x6
    5030:	91000821 	add	x1, x1, #0x2
    5034:	f27f00bf 	tst	x5, #0x2
    5038:	9341fca5 	asr	x5, x5, #1
    503c:	9a9f1086 	csel	x6, x4, xzr, ne	// ne = any
    5040:	fa5f1028 	ccmp	x1, xzr, #0x8, ne	// ne = any
    5044:	da81b421 	cneg	x1, x1, ge	// ge = tcont
    5048:	da86b4c6 	cneg	x6, x6, ge	// ge = tcont
    504c:	9a84a0a4 	csel	x4, x5, x4, ge	// ge = tcont
    5050:	8b0600a5 	add	x5, x5, x6
    5054:	91000821 	add	x1, x1, #0x2
    5058:	f27f00bf 	tst	x5, #0x2
    505c:	9341fca5 	asr	x5, x5, #1
    5060:	9a9f1086 	csel	x6, x4, xzr, ne	// ne = any
    5064:	fa5f1028 	ccmp	x1, xzr, #0x8, ne	// ne = any
    5068:	da81b421 	cneg	x1, x1, ge	// ge = tcont
    506c:	da86b4c6 	cneg	x6, x6, ge	// ge = tcont
    5070:	9a84a0a4 	csel	x4, x5, x4, ge	// ge = tcont
    5074:	8b0600a5 	add	x5, x5, x6
    5078:	91000821 	add	x1, x1, #0x2
    507c:	f27f00bf 	tst	x5, #0x2
    5080:	9341fca5 	asr	x5, x5, #1
    5084:	9a9f1086 	csel	x6, x4, xzr, ne	// ne = any
    5088:	fa5f1028 	ccmp	x1, xzr, #0x8, ne	// ne = any
    508c:	da81b421 	cneg	x1, x1, ge	// ge = tcont
    5090:	da86b4c6 	cneg	x6, x6, ge	// ge = tcont
    5094:	9a84a0a4 	csel	x4, x5, x4, ge	// ge = tcont
    5098:	8b0600a5 	add	x5, x5, x6
    509c:	91000821 	add	x1, x1, #0x2
    50a0:	f27f00bf 	tst	x5, #0x2
    50a4:	9341fca5 	asr	x5, x5, #1
    50a8:	9a9f1086 	csel	x6, x4, xzr, ne	// ne = any
    50ac:	fa5f1028 	ccmp	x1, xzr, #0x8, ne	// ne = any
    50b0:	da81b421 	cneg	x1, x1, ge	// ge = tcont
    50b4:	da86b4c6 	cneg	x6, x6, ge	// ge = tcont
    50b8:	9a84a0a4 	csel	x4, x5, x4, ge	// ge = tcont
    50bc:	8b0600a5 	add	x5, x5, x6
    50c0:	91000821 	add	x1, x1, #0x2
    50c4:	f27f00bf 	tst	x5, #0x2
    50c8:	9341fca5 	asr	x5, x5, #1
    50cc:	9a9f1086 	csel	x6, x4, xzr, ne	// ne = any
    50d0:	fa5f1028 	ccmp	x1, xzr, #0x8, ne	// ne = any
    50d4:	da81b421 	cneg	x1, x1, ge	// ge = tcont
    50d8:	da86b4c6 	cneg	x6, x6, ge	// ge = tcont
    50dc:	9a84a0a4 	csel	x4, x5, x4, ge	// ge = tcont
    50e0:	8b0600a5 	add	x5, x5, x6
    50e4:	91000821 	add	x1, x1, #0x2
    50e8:	f27f00bf 	tst	x5, #0x2
    50ec:	9341fca5 	asr	x5, x5, #1
    50f0:	9a9f1086 	csel	x6, x4, xzr, ne	// ne = any
    50f4:	fa5f1028 	ccmp	x1, xzr, #0x8, ne	// ne = any
    50f8:	da81b421 	cneg	x1, x1, ge	// ge = tcont
    50fc:	da86b4c6 	cneg	x6, x6, ge	// ge = tcont
    5100:	9a84a0a4 	csel	x4, x5, x4, ge	// ge = tcont
    5104:	8b0600a5 	add	x5, x5, x6
    5108:	91000821 	add	x1, x1, #0x2
    510c:	9341fca5 	asr	x5, x5, #1
    5110:	91440088 	add	x8, x4, #0x100, lsl #12
    5114:	9355a508 	sbfx	x8, x8, #21, #21
    5118:	d2a0020b 	mov	x11, #0x100000              	// #1048576
    511c:	8b0b556b 	add	x11, x11, x11, lsl #21
    5120:	8b0b0089 	add	x9, x4, x11
    5124:	936afd29 	asr	x9, x9, #42
    5128:	914400aa 	add	x10, x5, #0x100, lsl #12
    512c:	9355a54a 	sbfx	x10, x10, #21, #21
    5130:	8b0b00ab 	add	x11, x5, x11
    5134:	936afd6b 	asr	x11, x11, #42
    5138:	9b027d06 	mul	x6, x8, x2
    513c:	9b037d27 	mul	x7, x9, x3
    5140:	9b027d42 	mul	x2, x10, x2
    5144:	9b037d63 	mul	x3, x11, x3
    5148:	8b0700c4 	add	x4, x6, x7
    514c:	8b030045 	add	x5, x2, x3
    5150:	9354fc82 	asr	x2, x4, #20
    5154:	9354fca3 	asr	x3, x5, #20
    5158:	92404c44 	and	x4, x2, #0xfffff
    515c:	b2575884 	orr	x4, x4, #0xfffffe0000000000
    5160:	92404c65 	and	x5, x3, #0xfffff
    5164:	b24204a5 	orr	x5, x5, #0xc000000000000000
    5168:	f24000bf 	tst	x5, #0x1
    516c:	9a9f1086 	csel	x6, x4, xzr, ne	// ne = any
    5170:	fa5f1028 	ccmp	x1, xzr, #0x8, ne	// ne = any
    5174:	da81b421 	cneg	x1, x1, ge	// ge = tcont
    5178:	da86b4c6 	cneg	x6, x6, ge	// ge = tcont
    517c:	9a84a0a4 	csel	x4, x5, x4, ge	// ge = tcont
    5180:	8b0600a5 	add	x5, x5, x6
    5184:	91000821 	add	x1, x1, #0x2
    5188:	f27f00bf 	tst	x5, #0x2
    518c:	9341fca5 	asr	x5, x5, #1
    5190:	9a9f1086 	csel	x6, x4, xzr, ne	// ne = any
    5194:	fa5f1028 	ccmp	x1, xzr, #0x8, ne	// ne = any
    5198:	da81b421 	cneg	x1, x1, ge	// ge = tcont
    519c:	da86b4c6 	cneg	x6, x6, ge	// ge = tcont
    51a0:	9a84a0a4 	csel	x4, x5, x4, ge	// ge = tcont
    51a4:	8b0600a5 	add	x5, x5, x6
    51a8:	91000821 	add	x1, x1, #0x2
    51ac:	f27f00bf 	tst	x5, #0x2
    51b0:	9341fca5 	asr	x5, x5, #1
    51b4:	9a9f1086 	csel	x6, x4, xzr, ne	// ne = any
    51b8:	fa5f1028 	ccmp	x1, xzr, #0x8, ne	// ne = any
    51bc:	da81b421 	cneg	x1, x1, ge	// ge = tcont
    51c0:	da86b4c6 	cneg	x6, x6, ge	// ge = tcont
    51c4:	9a84a0a4 	csel	x4, x5, x4, ge	// ge = tcont
    51c8:	8b0600a5 	add	x5, x5, x6
    51cc:	91000821 	add	x1, x1, #0x2
    51d0:	f27f00bf 	tst	x5, #0x2
    51d4:	9341fca5 	asr	x5, x5, #1
    51d8:	9a9f1086 	csel	x6, x4, xzr, ne	// ne = any
    51dc:	fa5f1028 	ccmp	x1, xzr, #0x8, ne	// ne = any
    51e0:	da81b421 	cneg	x1, x1, ge	// ge = tcont
    51e4:	da86b4c6 	cneg	x6, x6, ge	// ge = tcont
    51e8:	9a84a0a4 	csel	x4, x5, x4, ge	// ge = tcont
    51ec:	8b0600a5 	add	x5, x5, x6
    51f0:	91000821 	add	x1, x1, #0x2
    51f4:	f27f00bf 	tst	x5, #0x2
    51f8:	9341fca5 	asr	x5, x5, #1
    51fc:	9a9f1086 	csel	x6, x4, xzr, ne	// ne = any
    5200:	fa5f1028 	ccmp	x1, xzr, #0x8, ne	// ne = any
    5204:	da81b421 	cneg	x1, x1, ge	// ge = tcont
    5208:	da86b4c6 	cneg	x6, x6, ge	// ge = tcont
    520c:	9a84a0a4 	csel	x4, x5, x4, ge	// ge = tcont
    5210:	8b0600a5 	add	x5, x5, x6
    5214:	91000821 	add	x1, x1, #0x2
    5218:	f27f00bf 	tst	x5, #0x2
    521c:	9341fca5 	asr	x5, x5, #1
    5220:	9a9f1086 	csel	x6, x4, xzr, ne	// ne = any
    5224:	fa5f1028 	ccmp	x1, xzr, #0x8, ne	// ne = any
    5228:	da81b421 	cneg	x1, x1, ge	// ge = tcont
    522c:	da86b4c6 	cneg	x6, x6, ge	// ge = tcont
    5230:	9a84a0a4 	csel	x4, x5, x4, ge	// ge = tcont
    5234:	8b0600a5 	add	x5, x5, x6
    5238:	91000821 	add	x1, x1, #0x2
    523c:	f27f00bf 	tst	x5, #0x2
    5240:	9341fca5 	asr	x5, x5, #1
    5244:	9a9f1086 	csel	x6, x4, xzr, ne	// ne = any
    5248:	fa5f1028 	ccmp	x1, xzr, #0x8, ne	// ne = any
    524c:	da81b421 	cneg	x1, x1, ge	// ge = tcont
    5250:	da86b4c6 	cneg	x6, x6, ge	// ge = tcont
    5254:	9a84a0a4 	csel	x4, x5, x4, ge	// ge = tcont
    5258:	8b0600a5 	add	x5, x5, x6
    525c:	91000821 	add	x1, x1, #0x2
    5260:	f27f00bf 	tst	x5, #0x2
    5264:	9341fca5 	asr	x5, x5, #1
    5268:	9a9f1086 	csel	x6, x4, xzr, ne	// ne = any
    526c:	fa5f1028 	ccmp	x1, xzr, #0x8, ne	// ne = any
    5270:	da81b421 	cneg	x1, x1, ge	// ge = tcont
    5274:	da86b4c6 	cneg	x6, x6, ge	// ge = tcont
    5278:	9a84a0a4 	csel	x4, x5, x4, ge	// ge = tcont
    527c:	8b0600a5 	add	x5, x5, x6
    5280:	91000821 	add	x1, x1, #0x2
    5284:	f27f00bf 	tst	x5, #0x2
    5288:	9341fca5 	asr	x5, x5, #1
    528c:	9a9f1086 	csel	x6, x4, xzr, ne	// ne = any
    5290:	fa5f1028 	ccmp	x1, xzr, #0x8, ne	// ne = any
    5294:	da81b421 	cneg	x1, x1, ge	// ge = tcont
    5298:	da86b4c6 	cneg	x6, x6, ge	// ge = tcont
    529c:	9a84a0a4 	csel	x4, x5, x4, ge	// ge = tcont
    52a0:	8b0600a5 	add	x5, x5, x6
    52a4:	91000821 	add	x1, x1, #0x2
    52a8:	f27f00bf 	tst	x5, #0x2
    52ac:	9341fca5 	asr	x5, x5, #1
    52b0:	9a9f1086 	csel	x6, x4, xzr, ne	// ne = any
    52b4:	fa5f1028 	ccmp	x1, xzr, #0x8, ne	// ne = any
    52b8:	da81b421 	cneg	x1, x1, ge	// ge = tcont
    52bc:	da86b4c6 	cneg	x6, x6, ge	// ge = tcont
    52c0:	9a84a0a4 	csel	x4, x5, x4, ge	// ge = tcont
    52c4:	8b0600a5 	add	x5, x5, x6
    52c8:	91000821 	add	x1, x1, #0x2
    52cc:	f27f00bf 	tst	x5, #0x2
    52d0:	9341fca5 	asr	x5, x5, #1
    52d4:	9a9f1086 	csel	x6, x4, xzr, ne	// ne = any
    52d8:	fa5f1028 	ccmp	x1, xzr, #0x8, ne	// ne = any
    52dc:	da81b421 	cneg	x1, x1, ge	// ge = tcont
    52e0:	da86b4c6 	cneg	x6, x6, ge	// ge = tcont
    52e4:	9a84a0a4 	csel	x4, x5, x4, ge	// ge = tcont
    52e8:	8b0600a5 	add	x5, x5, x6
    52ec:	91000821 	add	x1, x1, #0x2
    52f0:	f27f00bf 	tst	x5, #0x2
    52f4:	9341fca5 	asr	x5, x5, #1
    52f8:	9a9f1086 	csel	x6, x4, xzr, ne	// ne = any
    52fc:	fa5f1028 	ccmp	x1, xzr, #0x8, ne	// ne = any
    5300:	da81b421 	cneg	x1, x1, ge	// ge = tcont
    5304:	da86b4c6 	cneg	x6, x6, ge	// ge = tcont
    5308:	9a84a0a4 	csel	x4, x5, x4, ge	// ge = tcont
    530c:	8b0600a5 	add	x5, x5, x6
    5310:	91000821 	add	x1, x1, #0x2
    5314:	f27f00bf 	tst	x5, #0x2
    5318:	9341fca5 	asr	x5, x5, #1
    531c:	9a9f1086 	csel	x6, x4, xzr, ne	// ne = any
    5320:	fa5f1028 	ccmp	x1, xzr, #0x8, ne	// ne = any
    5324:	da81b421 	cneg	x1, x1, ge	// ge = tcont
    5328:	da86b4c6 	cneg	x6, x6, ge	// ge = tcont
    532c:	9a84a0a4 	csel	x4, x5, x4, ge	// ge = tcont
    5330:	8b0600a5 	add	x5, x5, x6
    5334:	91000821 	add	x1, x1, #0x2
    5338:	f27f00bf 	tst	x5, #0x2
    533c:	9341fca5 	asr	x5, x5, #1
    5340:	9a9f1086 	csel	x6, x4, xzr, ne	// ne = any
    5344:	fa5f1028 	ccmp	x1, xzr, #0x8, ne	// ne = any
    5348:	da81b421 	cneg	x1, x1, ge	// ge = tcont
    534c:	da86b4c6 	cneg	x6, x6, ge	// ge = tcont
    5350:	9a84a0a4 	csel	x4, x5, x4, ge	// ge = tcont
    5354:	8b0600a5 	add	x5, x5, x6
    5358:	91000821 	add	x1, x1, #0x2
    535c:	f27f00bf 	tst	x5, #0x2
    5360:	9341fca5 	asr	x5, x5, #1
    5364:	9a9f1086 	csel	x6, x4, xzr, ne	// ne = any
    5368:	fa5f1028 	ccmp	x1, xzr, #0x8, ne	// ne = any
    536c:	da81b421 	cneg	x1, x1, ge	// ge = tcont
    5370:	da86b4c6 	cneg	x6, x6, ge	// ge = tcont
    5374:	9a84a0a4 	csel	x4, x5, x4, ge	// ge = tcont
    5378:	8b0600a5 	add	x5, x5, x6
    537c:	91000821 	add	x1, x1, #0x2
    5380:	f27f00bf 	tst	x5, #0x2
    5384:	9341fca5 	asr	x5, x5, #1
    5388:	9a9f1086 	csel	x6, x4, xzr, ne	// ne = any
    538c:	fa5f1028 	ccmp	x1, xzr, #0x8, ne	// ne = any
    5390:	da81b421 	cneg	x1, x1, ge	// ge = tcont
    5394:	da86b4c6 	cneg	x6, x6, ge	// ge = tcont
    5398:	9a84a0a4 	csel	x4, x5, x4, ge	// ge = tcont
    539c:	8b0600a5 	add	x5, x5, x6
    53a0:	91000821 	add	x1, x1, #0x2
    53a4:	f27f00bf 	tst	x5, #0x2
    53a8:	9341fca5 	asr	x5, x5, #1
    53ac:	9a9f1086 	csel	x6, x4, xzr, ne	// ne = any
    53b0:	fa5f1028 	ccmp	x1, xzr, #0x8, ne	// ne = any
    53b4:	da81b421 	cneg	x1, x1, ge	// ge = tcont
    53b8:	da86b4c6 	cneg	x6, x6, ge	// ge = tcont
    53bc:	9a84a0a4 	csel	x4, x5, x4, ge	// ge = tcont
    53c0:	8b0600a5 	add	x5, x5, x6
    53c4:	91000821 	add	x1, x1, #0x2
    53c8:	f27f00bf 	tst	x5, #0x2
    53cc:	9341fca5 	asr	x5, x5, #1
    53d0:	9a9f1086 	csel	x6, x4, xzr, ne	// ne = any
    53d4:	fa5f1028 	ccmp	x1, xzr, #0x8, ne	// ne = any
    53d8:	da81b421 	cneg	x1, x1, ge	// ge = tcont
    53dc:	da86b4c6 	cneg	x6, x6, ge	// ge = tcont
    53e0:	9a84a0a4 	csel	x4, x5, x4, ge	// ge = tcont
    53e4:	8b0600a5 	add	x5, x5, x6
    53e8:	91000821 	add	x1, x1, #0x2
    53ec:	f27f00bf 	tst	x5, #0x2
    53f0:	9341fca5 	asr	x5, x5, #1
    53f4:	9a9f1086 	csel	x6, x4, xzr, ne	// ne = any
    53f8:	fa5f1028 	ccmp	x1, xzr, #0x8, ne	// ne = any
    53fc:	da81b421 	cneg	x1, x1, ge	// ge = tcont
    5400:	da86b4c6 	cneg	x6, x6, ge	// ge = tcont
    5404:	9a84a0a4 	csel	x4, x5, x4, ge	// ge = tcont
    5408:	8b0600a5 	add	x5, x5, x6
    540c:	91000821 	add	x1, x1, #0x2
    5410:	f27f00bf 	tst	x5, #0x2
    5414:	9341fca5 	asr	x5, x5, #1
    5418:	9a9f1086 	csel	x6, x4, xzr, ne	// ne = any
    541c:	fa5f1028 	ccmp	x1, xzr, #0x8, ne	// ne = any
    5420:	da81b421 	cneg	x1, x1, ge	// ge = tcont
    5424:	da86b4c6 	cneg	x6, x6, ge	// ge = tcont
    5428:	9a84a0a4 	csel	x4, x5, x4, ge	// ge = tcont
    542c:	8b0600a5 	add	x5, x5, x6
    5430:	91000821 	add	x1, x1, #0x2
    5434:	9341fca5 	asr	x5, x5, #1
    5438:	9144008c 	add	x12, x4, #0x100, lsl #12
    543c:	9355a58c 	sbfx	x12, x12, #21, #21
    5440:	d2a0020f 	mov	x15, #0x100000              	// #1048576
    5444:	8b0f55ef 	add	x15, x15, x15, lsl #21
    5448:	8b0f008d 	add	x13, x4, x15
    544c:	936afdad 	asr	x13, x13, #42
    5450:	914400ae 	add	x14, x5, #0x100, lsl #12
    5454:	9355a5ce 	sbfx	x14, x14, #21, #21
    5458:	8b0f00af 	add	x15, x5, x15
    545c:	936afdef 	asr	x15, x15, #42
    5460:	9b027d86 	mul	x6, x12, x2
    5464:	9b037da7 	mul	x7, x13, x3
    5468:	9b027dc2 	mul	x2, x14, x2
    546c:	9b037de3 	mul	x3, x15, x3
    5470:	8b0700c4 	add	x4, x6, x7
    5474:	8b030045 	add	x5, x2, x3
    5478:	9354fc82 	asr	x2, x4, #20
    547c:	9354fca3 	asr	x3, x5, #20
    5480:	92404c44 	and	x4, x2, #0xfffff
    5484:	b2575884 	orr	x4, x4, #0xfffffe0000000000
    5488:	92404c65 	and	x5, x3, #0xfffff
    548c:	b24204a5 	orr	x5, x5, #0xc000000000000000
    5490:	f24000bf 	tst	x5, #0x1
    5494:	9a9f1086 	csel	x6, x4, xzr, ne	// ne = any
    5498:	fa5f1028 	ccmp	x1, xzr, #0x8, ne	// ne = any
    549c:	da81b421 	cneg	x1, x1, ge	// ge = tcont
    54a0:	da86b4c6 	cneg	x6, x6, ge	// ge = tcont
    54a4:	9a84a0a4 	csel	x4, x5, x4, ge	// ge = tcont
    54a8:	8b0600a5 	add	x5, x5, x6
    54ac:	91000821 	add	x1, x1, #0x2
    54b0:	f27f00bf 	tst	x5, #0x2
    54b4:	9341fca5 	asr	x5, x5, #1
    54b8:	9a9f1086 	csel	x6, x4, xzr, ne	// ne = any
    54bc:	fa5f1028 	ccmp	x1, xzr, #0x8, ne	// ne = any
    54c0:	da81b421 	cneg	x1, x1, ge	// ge = tcont
    54c4:	da86b4c6 	cneg	x6, x6, ge	// ge = tcont
    54c8:	9a84a0a4 	csel	x4, x5, x4, ge	// ge = tcont
    54cc:	8b0600a5 	add	x5, x5, x6
    54d0:	91000821 	add	x1, x1, #0x2
    54d4:	f27f00bf 	tst	x5, #0x2
    54d8:	9341fca5 	asr	x5, x5, #1
    54dc:	9a9f1086 	csel	x6, x4, xzr, ne	// ne = any
    54e0:	fa5f1028 	ccmp	x1, xzr, #0x8, ne	// ne = any
    54e4:	da81b421 	cneg	x1, x1, ge	// ge = tcont
    54e8:	da86b4c6 	cneg	x6, x6, ge	// ge = tcont
    54ec:	9a84a0a4 	csel	x4, x5, x4, ge	// ge = tcont
    54f0:	8b0600a5 	add	x5, x5, x6
    54f4:	91000821 	add	x1, x1, #0x2
    54f8:	f27f00bf 	tst	x5, #0x2
    54fc:	9341fca5 	asr	x5, x5, #1
    5500:	9a9f1086 	csel	x6, x4, xzr, ne	// ne = any
    5504:	fa5f1028 	ccmp	x1, xzr, #0x8, ne	// ne = any
    5508:	da81b421 	cneg	x1, x1, ge	// ge = tcont
    550c:	da86b4c6 	cneg	x6, x6, ge	// ge = tcont
    5510:	9a84a0a4 	csel	x4, x5, x4, ge	// ge = tcont
    5514:	8b0600a5 	add	x5, x5, x6
    5518:	91000821 	add	x1, x1, #0x2
    551c:	f27f00bf 	tst	x5, #0x2
    5520:	9341fca5 	asr	x5, x5, #1
    5524:	9a9f1086 	csel	x6, x4, xzr, ne	// ne = any
    5528:	fa5f1028 	ccmp	x1, xzr, #0x8, ne	// ne = any
    552c:	da81b421 	cneg	x1, x1, ge	// ge = tcont
    5530:	da86b4c6 	cneg	x6, x6, ge	// ge = tcont
    5534:	9a84a0a4 	csel	x4, x5, x4, ge	// ge = tcont
    5538:	8b0600a5 	add	x5, x5, x6
    553c:	91000821 	add	x1, x1, #0x2
    5540:	f27f00bf 	tst	x5, #0x2
    5544:	9341fca5 	asr	x5, x5, #1
    5548:	9a9f1086 	csel	x6, x4, xzr, ne	// ne = any
    554c:	fa5f1028 	ccmp	x1, xzr, #0x8, ne	// ne = any
    5550:	da81b421 	cneg	x1, x1, ge	// ge = tcont
    5554:	da86b4c6 	cneg	x6, x6, ge	// ge = tcont
    5558:	9a84a0a4 	csel	x4, x5, x4, ge	// ge = tcont
    555c:	8b0600a5 	add	x5, x5, x6
    5560:	91000821 	add	x1, x1, #0x2
    5564:	f27f00bf 	tst	x5, #0x2
    5568:	9341fca5 	asr	x5, x5, #1
    556c:	9a9f1086 	csel	x6, x4, xzr, ne	// ne = any
    5570:	fa5f1028 	ccmp	x1, xzr, #0x8, ne	// ne = any
    5574:	da81b421 	cneg	x1, x1, ge	// ge = tcont
    5578:	da86b4c6 	cneg	x6, x6, ge	// ge = tcont
    557c:	9a84a0a4 	csel	x4, x5, x4, ge	// ge = tcont
    5580:	8b0600a5 	add	x5, x5, x6
    5584:	91000821 	add	x1, x1, #0x2
    5588:	f27f00bf 	tst	x5, #0x2
    558c:	9341fca5 	asr	x5, x5, #1
    5590:	9a9f1086 	csel	x6, x4, xzr, ne	// ne = any
    5594:	fa5f1028 	ccmp	x1, xzr, #0x8, ne	// ne = any
    5598:	da81b421 	cneg	x1, x1, ge	// ge = tcont
    559c:	da86b4c6 	cneg	x6, x6, ge	// ge = tcont
    55a0:	9a84a0a4 	csel	x4, x5, x4, ge	// ge = tcont
    55a4:	8b0600a5 	add	x5, x5, x6
    55a8:	91000821 	add	x1, x1, #0x2
    55ac:	f27f00bf 	tst	x5, #0x2
    55b0:	9341fca5 	asr	x5, x5, #1
    55b4:	9a9f1086 	csel	x6, x4, xzr, ne	// ne = any
    55b8:	fa5f1028 	ccmp	x1, xzr, #0x8, ne	// ne = any
    55bc:	da81b421 	cneg	x1, x1, ge	// ge = tcont
    55c0:	da86b4c6 	cneg	x6, x6, ge	// ge = tcont
    55c4:	9a84a0a4 	csel	x4, x5, x4, ge	// ge = tcont
    55c8:	8b0600a5 	add	x5, x5, x6
    55cc:	91000821 	add	x1, x1, #0x2
    55d0:	f27f00bf 	tst	x5, #0x2
    55d4:	9341fca5 	asr	x5, x5, #1
    55d8:	9a9f1086 	csel	x6, x4, xzr, ne	// ne = any
    55dc:	fa5f1028 	ccmp	x1, xzr, #0x8, ne	// ne = any
    55e0:	da81b421 	cneg	x1, x1, ge	// ge = tcont
    55e4:	da86b4c6 	cneg	x6, x6, ge	// ge = tcont
    55e8:	9a84a0a4 	csel	x4, x5, x4, ge	// ge = tcont
    55ec:	8b0600a5 	add	x5, x5, x6
    55f0:	91000821 	add	x1, x1, #0x2
    55f4:	f27f00bf 	tst	x5, #0x2
    55f8:	9341fca5 	asr	x5, x5, #1
    55fc:	9b087d82 	mul	x2, x12, x8
    5600:	9b097d83 	mul	x3, x12, x9
    5604:	9b087dc6 	mul	x6, x14, x8
    5608:	9b097dc7 	mul	x7, x14, x9
    560c:	9b0a09a8 	madd	x8, x13, x10, x2
    5610:	9b0b0da9 	madd	x9, x13, x11, x3
    5614:	9b0a19f0 	madd	x16, x15, x10, x6
    5618:	9b0b1df1 	madd	x17, x15, x11, x7
    561c:	9a9f1086 	csel	x6, x4, xzr, ne	// ne = any
    5620:	fa5f1028 	ccmp	x1, xzr, #0x8, ne	// ne = any
    5624:	da81b421 	cneg	x1, x1, ge	// ge = tcont
    5628:	da86b4c6 	cneg	x6, x6, ge	// ge = tcont
    562c:	9a84a0a4 	csel	x4, x5, x4, ge	// ge = tcont
    5630:	8b0600a5 	add	x5, x5, x6
    5634:	91000821 	add	x1, x1, #0x2
    5638:	f27f00bf 	tst	x5, #0x2
    563c:	9341fca5 	asr	x5, x5, #1
    5640:	9a9f1086 	csel	x6, x4, xzr, ne	// ne = any
    5644:	fa5f1028 	ccmp	x1, xzr, #0x8, ne	// ne = any
    5648:	da81b421 	cneg	x1, x1, ge	// ge = tcont
    564c:	da86b4c6 	cneg	x6, x6, ge	// ge = tcont
    5650:	9a84a0a4 	csel	x4, x5, x4, ge	// ge = tcont
    5654:	8b0600a5 	add	x5, x5, x6
    5658:	91000821 	add	x1, x1, #0x2
    565c:	f27f00bf 	tst	x5, #0x2
    5660:	9341fca5 	asr	x5, x5, #1
    5664:	9a9f1086 	csel	x6, x4, xzr, ne	// ne = any
    5668:	fa5f1028 	ccmp	x1, xzr, #0x8, ne	// ne = any
    566c:	da81b421 	cneg	x1, x1, ge	// ge = tcont
    5670:	da86b4c6 	cneg	x6, x6, ge	// ge = tcont
    5674:	9a84a0a4 	csel	x4, x5, x4, ge	// ge = tcont
    5678:	8b0600a5 	add	x5, x5, x6
    567c:	91000821 	add	x1, x1, #0x2
    5680:	f27f00bf 	tst	x5, #0x2
    5684:	9341fca5 	asr	x5, x5, #1
    5688:	9a9f1086 	csel	x6, x4, xzr, ne	// ne = any
    568c:	fa5f1028 	ccmp	x1, xzr, #0x8, ne	// ne = any
    5690:	da81b421 	cneg	x1, x1, ge	// ge = tcont
    5694:	da86b4c6 	cneg	x6, x6, ge	// ge = tcont
    5698:	9a84a0a4 	csel	x4, x5, x4, ge	// ge = tcont
    569c:	8b0600a5 	add	x5, x5, x6
    56a0:	91000821 	add	x1, x1, #0x2
    56a4:	f27f00bf 	tst	x5, #0x2
    56a8:	9341fca5 	asr	x5, x5, #1
    56ac:	9a9f1086 	csel	x6, x4, xzr, ne	// ne = any
    56b0:	fa5f1028 	ccmp	x1, xzr, #0x8, ne	// ne = any
    56b4:	da81b421 	cneg	x1, x1, ge	// ge = tcont
    56b8:	da86b4c6 	cneg	x6, x6, ge	// ge = tcont
    56bc:	9a84a0a4 	csel	x4, x5, x4, ge	// ge = tcont
    56c0:	8b0600a5 	add	x5, x5, x6
    56c4:	91000821 	add	x1, x1, #0x2
    56c8:	f27f00bf 	tst	x5, #0x2
    56cc:	9341fca5 	asr	x5, x5, #1
    56d0:	9a9f1086 	csel	x6, x4, xzr, ne	// ne = any
    56d4:	fa5f1028 	ccmp	x1, xzr, #0x8, ne	// ne = any
    56d8:	da81b421 	cneg	x1, x1, ge	// ge = tcont
    56dc:	da86b4c6 	cneg	x6, x6, ge	// ge = tcont
    56e0:	9a84a0a4 	csel	x4, x5, x4, ge	// ge = tcont
    56e4:	8b0600a5 	add	x5, x5, x6
    56e8:	91000821 	add	x1, x1, #0x2
    56ec:	f27f00bf 	tst	x5, #0x2
    56f0:	9341fca5 	asr	x5, x5, #1
    56f4:	9a9f1086 	csel	x6, x4, xzr, ne	// ne = any
    56f8:	fa5f1028 	ccmp	x1, xzr, #0x8, ne	// ne = any
    56fc:	da81b421 	cneg	x1, x1, ge	// ge = tcont
    5700:	da86b4c6 	cneg	x6, x6, ge	// ge = tcont
    5704:	9a84a0a4 	csel	x4, x5, x4, ge	// ge = tcont
    5708:	8b0600a5 	add	x5, x5, x6
    570c:	91000821 	add	x1, x1, #0x2
    5710:	f27f00bf 	tst	x5, #0x2
    5714:	9341fca5 	asr	x5, x5, #1
    5718:	9a9f1086 	csel	x6, x4, xzr, ne	// ne = any
    571c:	fa5f1028 	ccmp	x1, xzr, #0x8, ne	// ne = any
    5720:	da81b421 	cneg	x1, x1, ge	// ge = tcont
    5724:	da86b4c6 	cneg	x6, x6, ge	// ge = tcont
    5728:	9a84a0a4 	csel	x4, x5, x4, ge	// ge = tcont
    572c:	8b0600a5 	add	x5, x5, x6
    5730:	91000821 	add	x1, x1, #0x2
    5734:	f27f00bf 	tst	x5, #0x2
    5738:	9341fca5 	asr	x5, x5, #1
    573c:	9a9f1086 	csel	x6, x4, xzr, ne	// ne = any
    5740:	fa5f1028 	ccmp	x1, xzr, #0x8, ne	// ne = any
    5744:	da81b421 	cneg	x1, x1, ge	// ge = tcont
    5748:	da86b4c6 	cneg	x6, x6, ge	// ge = tcont
    574c:	9a84a0a4 	csel	x4, x5, x4, ge	// ge = tcont
    5750:	8b0600a5 	add	x5, x5, x6
    5754:	91000821 	add	x1, x1, #0x2
    5758:	9341fca5 	asr	x5, x5, #1
    575c:	9144008c 	add	x12, x4, #0x100, lsl #12
    5760:	9356a98c 	sbfx	x12, x12, #22, #21
    5764:	d2a0020f 	mov	x15, #0x100000              	// #1048576
    5768:	8b0f55ef 	add	x15, x15, x15, lsl #21
    576c:	8b0f008d 	add	x13, x4, x15
    5770:	936bfdad 	asr	x13, x13, #43
    5774:	914400ae 	add	x14, x5, #0x100, lsl #12
    5778:	9356a9ce 	sbfx	x14, x14, #22, #21
    577c:	8b0f00af 	add	x15, x5, x15
    5780:	936bfdef 	asr	x15, x15, #43
    5784:	9b08fd82 	mneg	x2, x12, x8
    5788:	9b09fd83 	mneg	x3, x12, x9
    578c:	9b08fdc4 	mneg	x4, x14, x8
    5790:	9b09fdc5 	mneg	x5, x14, x9
    5794:	9b1089aa 	msub	x10, x13, x16, x2
    5798:	9b118dab 	msub	x11, x13, x17, x3
    579c:	9b1091ec 	msub	x12, x15, x16, x4
    57a0:	9b1195ed 	msub	x13, x15, x17, x5
    57a4:	aa0103f6 	mov	x22, x1
    57a8:	f10006b5 	subs	x21, x21, #0x1
    57ac:	54ff9281 	b.ne	49fc <edwards25519_scalarmuldouble_alt_invloop>  // b.any
    57b0:	f94003e0 	ldr	x0, [sp]
    57b4:	f94013e1 	ldr	x1, [sp, #32]
    57b8:	9b0a7c00 	mul	x0, x0, x10
    57bc:	9b0b0021 	madd	x1, x1, x11, x0
    57c0:	937ffc20 	asr	x0, x1, #63
    57c4:	eb1f015f 	cmp	x10, xzr
    57c8:	da9f53ee 	csetm	x14, mi	// mi = first
    57cc:	da8a554a 	cneg	x10, x10, mi	// mi = first
    57d0:	ca0001ce 	eor	x14, x14, x0
    57d4:	eb1f017f 	cmp	x11, xzr
    57d8:	da9f53ef 	csetm	x15, mi	// mi = first
    57dc:	da8b556b 	cneg	x11, x11, mi	// mi = first
    57e0:	ca0001ef 	eor	x15, x15, x0
    57e4:	eb1f019f 	cmp	x12, xzr
    57e8:	da9f53f0 	csetm	x16, mi	// mi = first
    57ec:	da8c558c 	cneg	x12, x12, mi	// mi = first
    57f0:	ca000210 	eor	x16, x16, x0
    57f4:	eb1f01bf 	cmp	x13, xzr
    57f8:	da9f53f1 	csetm	x17, mi	// mi = first
    57fc:	da8d55ad 	cneg	x13, x13, mi	// mi = first
    5800:	ca000231 	eor	x17, x17, x0
    5804:	8a0e0140 	and	x0, x10, x14
    5808:	8a0f0161 	and	x1, x11, x15
    580c:	8b010009 	add	x9, x0, x1
    5810:	f94023e7 	ldr	x7, [sp, #64]
    5814:	ca0e00e1 	eor	x1, x7, x14
    5818:	9b0a7c20 	mul	x0, x1, x10
    581c:	9bca7c21 	umulh	x1, x1, x10
    5820:	ab000124 	adds	x4, x9, x0
    5824:	9a0103e2 	adc	x2, xzr, x1
    5828:	f94033e8 	ldr	x8, [sp, #96]
    582c:	ca0f0101 	eor	x1, x8, x15
    5830:	9b0b7c20 	mul	x0, x1, x11
    5834:	9bcb7c21 	umulh	x1, x1, x11
    5838:	ab000084 	adds	x4, x4, x0
    583c:	f90023e4 	str	x4, [sp, #64]
    5840:	9a010042 	adc	x2, x2, x1
    5844:	f94027e7 	ldr	x7, [sp, #72]
    5848:	ca0e00e1 	eor	x1, x7, x14
    584c:	9b0a7c20 	mul	x0, x1, x10
    5850:	9bca7c21 	umulh	x1, x1, x10
    5854:	ab000042 	adds	x2, x2, x0
    5858:	9a0103e6 	adc	x6, xzr, x1
    585c:	f94037e8 	ldr	x8, [sp, #104]
    5860:	ca0f0101 	eor	x1, x8, x15
    5864:	9b0b7c20 	mul	x0, x1, x11
    5868:	9bcb7c21 	umulh	x1, x1, x11
    586c:	ab000042 	adds	x2, x2, x0
    5870:	f90027e2 	str	x2, [sp, #72]
    5874:	9a0100c6 	adc	x6, x6, x1
    5878:	f9402be7 	ldr	x7, [sp, #80]
    587c:	ca0e00e1 	eor	x1, x7, x14
    5880:	9b0a7c20 	mul	x0, x1, x10
    5884:	9bca7c21 	umulh	x1, x1, x10
    5888:	ab0000c6 	adds	x6, x6, x0
    588c:	9a0103e5 	adc	x5, xzr, x1
    5890:	f9403be8 	ldr	x8, [sp, #112]
    5894:	ca0f0101 	eor	x1, x8, x15
    5898:	9b0b7c20 	mul	x0, x1, x11
    589c:	9bcb7c21 	umulh	x1, x1, x11
    58a0:	ab0000c6 	adds	x6, x6, x0
    58a4:	f9002be6 	str	x6, [sp, #80]
    58a8:	9a0100a5 	adc	x5, x5, x1
    58ac:	f9402fe7 	ldr	x7, [sp, #88]
    58b0:	ca0e00e1 	eor	x1, x7, x14
    58b4:	8a0a01c3 	and	x3, x14, x10
    58b8:	cb0303e3 	neg	x3, x3
    58bc:	9b0a7c20 	mul	x0, x1, x10
    58c0:	9bca7c21 	umulh	x1, x1, x10
    58c4:	ab0000a5 	adds	x5, x5, x0
    58c8:	9a010063 	adc	x3, x3, x1
    58cc:	f9403fe8 	ldr	x8, [sp, #120]
    58d0:	ca0f0101 	eor	x1, x8, x15
    58d4:	8a0b01e0 	and	x0, x15, x11
    58d8:	cb000063 	sub	x3, x3, x0
    58dc:	9b0b7c20 	mul	x0, x1, x11
    58e0:	9bcb7c21 	umulh	x1, x1, x11
    58e4:	ab0000a5 	adds	x5, x5, x0
    58e8:	9a010063 	adc	x3, x3, x1
    58ec:	93c5fc66 	extr	x6, x3, x5, #63
    58f0:	a94407e0 	ldp	x0, x1, [sp, #64]
    58f4:	ea03007f 	tst	x3, x3
    58f8:	9a8644c6 	cinc	x6, x6, pl	// pl = nfrst
    58fc:	d2800263 	mov	x3, #0x13                  	// #19
    5900:	9b037cc4 	mul	x4, x6, x3
    5904:	8b06fca5 	add	x5, x5, x6, lsl #63
    5908:	9b437cc6 	smulh	x6, x6, x3
    590c:	f9402be2 	ldr	x2, [sp, #80]
    5910:	ab040000 	adds	x0, x0, x4
    5914:	ba060021 	adcs	x1, x1, x6
    5918:	937ffcc6 	asr	x6, x6, #63
    591c:	ba060042 	adcs	x2, x2, x6
    5920:	ba0600a5 	adcs	x5, x5, x6
    5924:	9a9f4063 	csel	x3, x3, xzr, mi	// mi = first
    5928:	eb030000 	subs	x0, x0, x3
    592c:	fa1f0021 	sbcs	x1, x1, xzr
    5930:	fa1f0042 	sbcs	x2, x2, xzr
    5934:	da1f00a5 	sbc	x5, x5, xzr
    5938:	9240f8a5 	and	x5, x5, #0x7fffffffffffffff
    593c:	aa1403e4 	mov	x4, x20
    5940:	a9000480 	stp	x0, x1, [x4]
    5944:	a9011482 	stp	x2, x5, [x4, #16]
    5948:	aa1903f6 	mov	x22, x25
    594c:	910283f7 	add	x23, sp, #0xa0
    5950:	910483f8 	add	x24, sp, #0x120
    5954:	a94012e3 	ldp	x3, x4, [x23]
    5958:	a9402307 	ldp	x7, x8, [x24]
    595c:	9b077c6c 	mul	x12, x3, x7
    5960:	9bc77c6d 	umulh	x13, x3, x7
    5964:	9b087c6b 	mul	x11, x3, x8
    5968:	9bc87c6e 	umulh	x14, x3, x8
    596c:	ab0b01ad 	adds	x13, x13, x11
    5970:	a9412b09 	ldp	x9, x10, [x24, #16]
    5974:	9b097c6b 	mul	x11, x3, x9
    5978:	9bc97c6f 	umulh	x15, x3, x9
    597c:	ba0b01ce 	adcs	x14, x14, x11
    5980:	9b0a7c6b 	mul	x11, x3, x10
    5984:	9bca7c70 	umulh	x16, x3, x10
    5988:	ba0b01ef 	adcs	x15, x15, x11
    598c:	9a1f0210 	adc	x16, x16, xzr
    5990:	a9411ae5 	ldp	x5, x6, [x23, #16]
    5994:	9b077c8b 	mul	x11, x4, x7
    5998:	ab0b01ad 	adds	x13, x13, x11
    599c:	9b087c8b 	mul	x11, x4, x8
    59a0:	ba0b01ce 	adcs	x14, x14, x11
    59a4:	9b097c8b 	mul	x11, x4, x9
    59a8:	ba0b01ef 	adcs	x15, x15, x11
    59ac:	9b0a7c8b 	mul	x11, x4, x10
    59b0:	ba0b0210 	adcs	x16, x16, x11
    59b4:	9bca7c83 	umulh	x3, x4, x10
    59b8:	9a1f0063 	adc	x3, x3, xzr
    59bc:	9bc77c8b 	umulh	x11, x4, x7
    59c0:	ab0b01ce 	adds	x14, x14, x11
    59c4:	9bc87c8b 	umulh	x11, x4, x8
    59c8:	ba0b01ef 	adcs	x15, x15, x11
    59cc:	9bc97c8b 	umulh	x11, x4, x9
    59d0:	ba0b0210 	adcs	x16, x16, x11
    59d4:	9a1f0063 	adc	x3, x3, xzr
    59d8:	9b077cab 	mul	x11, x5, x7
    59dc:	ab0b01ce 	adds	x14, x14, x11
    59e0:	9b087cab 	mul	x11, x5, x8
    59e4:	ba0b01ef 	adcs	x15, x15, x11
    59e8:	9b097cab 	mul	x11, x5, x9
    59ec:	ba0b0210 	adcs	x16, x16, x11
    59f0:	9b0a7cab 	mul	x11, x5, x10
    59f4:	ba0b0063 	adcs	x3, x3, x11
    59f8:	9bca7ca4 	umulh	x4, x5, x10
    59fc:	9a1f0084 	adc	x4, x4, xzr
    5a00:	9bc77cab 	umulh	x11, x5, x7
    5a04:	ab0b01ef 	adds	x15, x15, x11
    5a08:	9bc87cab 	umulh	x11, x5, x8
    5a0c:	ba0b0210 	adcs	x16, x16, x11
    5a10:	9bc97cab 	umulh	x11, x5, x9
    5a14:	ba0b0063 	adcs	x3, x3, x11
    5a18:	9a1f0084 	adc	x4, x4, xzr
    5a1c:	9b077ccb 	mul	x11, x6, x7
    5a20:	ab0b01ef 	adds	x15, x15, x11
    5a24:	9b087ccb 	mul	x11, x6, x8
    5a28:	ba0b0210 	adcs	x16, x16, x11
    5a2c:	9b097ccb 	mul	x11, x6, x9
    5a30:	ba0b0063 	adcs	x3, x3, x11
    5a34:	9b0a7ccb 	mul	x11, x6, x10
    5a38:	ba0b0084 	adcs	x4, x4, x11
    5a3c:	9bca7cc5 	umulh	x5, x6, x10
    5a40:	9a1f00a5 	adc	x5, x5, xzr
    5a44:	9bc77ccb 	umulh	x11, x6, x7
    5a48:	ab0b0210 	adds	x16, x16, x11
    5a4c:	9bc87ccb 	umulh	x11, x6, x8
    5a50:	ba0b0063 	adcs	x3, x3, x11
    5a54:	9bc97ccb 	umulh	x11, x6, x9
    5a58:	ba0b0084 	adcs	x4, x4, x11
    5a5c:	9a1f00a5 	adc	x5, x5, xzr
    5a60:	d28004c7 	mov	x7, #0x26                  	// #38
    5a64:	9b107ceb 	mul	x11, x7, x16
    5a68:	9bd07ce9 	umulh	x9, x7, x16
    5a6c:	ab0b018c 	adds	x12, x12, x11
    5a70:	9b037ceb 	mul	x11, x7, x3
    5a74:	9bc37ce3 	umulh	x3, x7, x3
    5a78:	ba0b01ad 	adcs	x13, x13, x11
    5a7c:	9b047ceb 	mul	x11, x7, x4
    5a80:	9bc47ce4 	umulh	x4, x7, x4
    5a84:	ba0b01ce 	adcs	x14, x14, x11
    5a88:	9b057ceb 	mul	x11, x7, x5
    5a8c:	9bc57ce5 	umulh	x5, x7, x5
    5a90:	ba0b01ef 	adcs	x15, x15, x11
    5a94:	9a9f37f0 	cset	x16, cs	// cs = hs, nlast
    5a98:	ab0401ef 	adds	x15, x15, x4
    5a9c:	9a050210 	adc	x16, x16, x5
    5aa0:	ab0f01ff 	cmn	x15, x15
    5aa4:	b24101ef 	orr	x15, x15, #0x8000000000000000
    5aa8:	9a100208 	adc	x8, x16, x16
    5aac:	d2800267 	mov	x7, #0x13                  	// #19
    5ab0:	9b081ceb 	madd	x11, x7, x8, x7
    5ab4:	ab0b018c 	adds	x12, x12, x11
    5ab8:	ba0901ad 	adcs	x13, x13, x9
    5abc:	ba0301ce 	adcs	x14, x14, x3
    5ac0:	ba1f01ef 	adcs	x15, x15, xzr
